ARM GAS  D:\Programs\cygwin64\tmp\ccsHavao.s 			page 1


   1              		.cpu cortex-m4
   2              		.eabi_attribute 27, 1
   3              		.eabi_attribute 28, 1
   4              		.eabi_attribute 20, 1
   5              		.eabi_attribute 21, 1
   6              		.eabi_attribute 23, 3
   7              		.eabi_attribute 24, 1
   8              		.eabi_attribute 25, 1
   9              		.eabi_attribute 26, 1
  10              		.eabi_attribute 30, 2
  11              		.eabi_attribute 34, 1
  12              		.eabi_attribute 18, 4
  13              		.file	"cmsis_os.c"
  14              		.text
  15              		.section	.text.osKernelStart,"ax",%progbits
  16              		.align	1
  17              		.p2align 2,,3
  18              		.global	osKernelStart
  19              		.arch armv7e-m
  20              		.syntax unified
  21              		.thumb
  22              		.thumb_func
  23              		.fpu fpv4-sp-d16
  25              	osKernelStart:
  26              		@ args = 0, pretend = 0, frame = 0
  27              		@ frame_needed = 0, uses_anonymous_args = 0
  28 0000 08B5     		push	{r3, lr}
  29 0002 FFF7FEFF 		bl	vTaskStartScheduler
  30 0006 0020     		movs	r0, #0
  31 0008 08BD     		pop	{r3, pc}
  33 000a 00BF     		.section	.text.osKernelRunning,"ax",%progbits
  34              		.align	1
  35              		.p2align 2,,3
  36              		.global	osKernelRunning
  37              		.syntax unified
  38              		.thumb
  39              		.thumb_func
  40              		.fpu fpv4-sp-d16
  42              	osKernelRunning:
  43              		@ args = 0, pretend = 0, frame = 0
  44              		@ frame_needed = 0, uses_anonymous_args = 0
  45 0000 08B5     		push	{r3, lr}
  46 0002 FFF7FEFF 		bl	xTaskGetSchedulerState
  47 0006 10F1FF30 		adds	r0, r0, #-1
  48 000a 18BF     		it	ne
  49 000c 0120     		movne	r0, #1
  50 000e 08BD     		pop	{r3, pc}
  52              		.section	.text.osKernelSysTick,"ax",%progbits
  53              		.align	1
  54              		.p2align 2,,3
  55              		.global	osKernelSysTick
  56              		.syntax unified
  57              		.thumb
  58              		.thumb_func
  59              		.fpu fpv4-sp-d16
  61              	osKernelSysTick:
  62              		@ args = 0, pretend = 0, frame = 0
ARM GAS  D:\Programs\cygwin64\tmp\ccsHavao.s 			page 2


  63              		@ frame_needed = 0, uses_anonymous_args = 0
  64              		@ link register save eliminated.
  65              		.syntax unified
  66              	@ 209 "../Drivers/CMSIS/Include/cmsis_gcc.h" 1
  67 0000 EFF30583 		MRS r3, ipsr
  68              	@ 0 "" 2
  69              		.thumb
  70              		.syntax unified
  71 0004 0BB1     		cbz	r3, .L7
  72 0006 FFF7FEBF 		b	xTaskGetTickCountFromISR
  73              	.L7:
  74 000a FFF7FEBF 		b	xTaskGetTickCount
  76 000e 00BF     		.section	.text.osThreadCreate,"ax",%progbits
  77              		.align	1
  78              		.p2align 2,,3
  79              		.global	osThreadCreate
  80              		.syntax unified
  81              		.thumb
  82              		.thumb_func
  83              		.fpu fpv4-sp-d16
  85              	osThreadCreate:
  86              		@ args = 0, pretend = 0, frame = 8
  87              		@ frame_needed = 0, uses_anonymous_args = 0
  88 0000 30B5     		push	{r4, r5, lr}
  89 0002 B0F90840 		ldrsh	r4, [r0, #8]
  90 0006 85B0     		sub	sp, sp, #20
  91 0008 842C     		cmp	r4, #132
  92 000a 0246     		mov	r2, r0
  93 000c 14BF     		ite	ne
  94 000e 0334     		addne	r4, r4, #3
  95 0010 0024     		moveq	r4, #0
  96 0012 03AD     		add	r5, sp, #12
  97 0014 0B46     		mov	r3, r1
  98 0016 4068     		ldr	r0, [r0, #4]
  99 0018 1168     		ldr	r1, [r2]
 100 001a 128A     		ldrh	r2, [r2, #16]
 101 001c CDE90045 		strd	r4, r5, [sp]
 102 0020 FFF7FEFF 		bl	xTaskCreate
 103 0024 0128     		cmp	r0, #1
 104 0026 0CBF     		ite	eq
 105 0028 0398     		ldreq	r0, [sp, #12]
 106 002a 0020     		movne	r0, #0
 107 002c 05B0     		add	sp, sp, #20
 108              		@ sp needed
 109 002e 30BD     		pop	{r4, r5, pc}
 111              		.section	.text.osThreadGetId,"ax",%progbits
 112              		.align	1
 113              		.p2align 2,,3
 114              		.global	osThreadGetId
 115              		.syntax unified
 116              		.thumb
 117              		.thumb_func
 118              		.fpu fpv4-sp-d16
 120              	osThreadGetId:
 121              		@ args = 0, pretend = 0, frame = 0
 122              		@ frame_needed = 0, uses_anonymous_args = 0
 123              		@ link register save eliminated.
ARM GAS  D:\Programs\cygwin64\tmp\ccsHavao.s 			page 3


 124 0000 FFF7FEBF 		b	xTaskGetCurrentTaskHandle
 126              		.section	.text.osThreadTerminate,"ax",%progbits
 127              		.align	1
 128              		.p2align 2,,3
 129              		.global	osThreadTerminate
 130              		.syntax unified
 131              		.thumb
 132              		.thumb_func
 133              		.fpu fpv4-sp-d16
 135              	osThreadTerminate:
 136              		@ args = 0, pretend = 0, frame = 0
 137              		@ frame_needed = 0, uses_anonymous_args = 0
 138 0000 08B5     		push	{r3, lr}
 139 0002 FFF7FEFF 		bl	vTaskDelete
 140 0006 0020     		movs	r0, #0
 141 0008 08BD     		pop	{r3, pc}
 143 000a 00BF     		.section	.text.osThreadYield,"ax",%progbits
 144              		.align	1
 145              		.p2align 2,,3
 146              		.global	osThreadYield
 147              		.syntax unified
 148              		.thumb
 149              		.thumb_func
 150              		.fpu fpv4-sp-d16
 152              	osThreadYield:
 153              		@ args = 0, pretend = 0, frame = 0
 154              		@ frame_needed = 0, uses_anonymous_args = 0
 155              		@ link register save eliminated.
 156 0000 044B     		ldr	r3, .L18
 157 0002 4FF08052 		mov	r2, #268435456
 158 0006 1A60     		str	r2, [r3]
 159              		.syntax unified
 160              	@ 315 "../Middlewares/FreeRTOS/Source/CMSIS_RTOS/cmsis_os.c" 1
 161 0008 BFF34F8F 		dsb
 162              	@ 0 "" 2
 163              	@ 315 "../Middlewares/FreeRTOS/Source/CMSIS_RTOS/cmsis_os.c" 1
 164 000c BFF36F8F 		isb
 165              	@ 0 "" 2
 166              		.thumb
 167              		.syntax unified
 168 0010 0020     		movs	r0, #0
 169 0012 7047     		bx	lr
 170              	.L19:
 171              		.align	2
 172              	.L18:
 173 0014 04ED00E0 		.word	-536810236
 175              		.section	.text.osThreadSetPriority,"ax",%progbits
 176              		.align	1
 177              		.p2align 2,,3
 178              		.global	osThreadSetPriority
 179              		.syntax unified
 180              		.thumb
 181              		.thumb_func
 182              		.fpu fpv4-sp-d16
 184              	osThreadSetPriority:
 185              		@ args = 0, pretend = 0, frame = 0
 186              		@ frame_needed = 0, uses_anonymous_args = 0
ARM GAS  D:\Programs\cygwin64\tmp\ccsHavao.s 			page 4


 187 0000 08B5     		push	{r3, lr}
 188 0002 8429     		cmp	r1, #132
 189 0004 14BF     		ite	ne
 190 0006 0331     		addne	r1, r1, #3
 191 0008 0021     		moveq	r1, #0
 192 000a FFF7FEFF 		bl	vTaskPrioritySet
 193 000e 0020     		movs	r0, #0
 194 0010 08BD     		pop	{r3, pc}
 196 0012 00BF     		.section	.text.osThreadGetPriority,"ax",%progbits
 197              		.align	1
 198              		.p2align 2,,3
 199              		.global	osThreadGetPriority
 200              		.syntax unified
 201              		.thumb
 202              		.thumb_func
 203              		.fpu fpv4-sp-d16
 205              	osThreadGetPriority:
 206              		@ args = 0, pretend = 0, frame = 0
 207              		@ frame_needed = 0, uses_anonymous_args = 0
 208 0000 08B5     		push	{r3, lr}
 209              		.syntax unified
 210              	@ 209 "../Drivers/CMSIS/Include/cmsis_gcc.h" 1
 211 0002 EFF30583 		MRS r3, ipsr
 212              	@ 0 "" 2
 213              		.thumb
 214              		.syntax unified
 215 0006 33B1     		cbz	r3, .L25
 216 0008 FFF7FEFF 		bl	uxTaskPriorityGetFromISR
 217 000c 0628     		cmp	r0, #6
 218 000e 06D8     		bhi	.L28
 219              	.L30:
 220 0010 0338     		subs	r0, r0, #3
 221 0012 00B2     		sxth	r0, r0
 222 0014 08BD     		pop	{r3, pc}
 223              	.L25:
 224 0016 FFF7FEFF 		bl	uxTaskPriorityGet
 225 001a 0628     		cmp	r0, #6
 226 001c F8D9     		bls	.L30
 227              	.L28:
 228 001e 8420     		movs	r0, #132
 229 0020 08BD     		pop	{r3, pc}
 231 0022 00BF     		.section	.text.osDelay,"ax",%progbits
 232              		.align	1
 233              		.p2align 2,,3
 234              		.global	osDelay
 235              		.syntax unified
 236              		.thumb
 237              		.thumb_func
 238              		.fpu fpv4-sp-d16
 240              	osDelay:
 241              		@ args = 0, pretend = 0, frame = 0
 242              		@ frame_needed = 0, uses_anonymous_args = 0
 243 0000 08B5     		push	{r3, lr}
 244 0002 0028     		cmp	r0, #0
 245 0004 08BF     		it	eq
 246 0006 0120     		moveq	r0, #1
 247 0008 FFF7FEFF 		bl	vTaskDelay
ARM GAS  D:\Programs\cygwin64\tmp\ccsHavao.s 			page 5


 248 000c 0020     		movs	r0, #0
 249 000e 08BD     		pop	{r3, pc}
 251              		.section	.text.osTimerCreate,"ax",%progbits
 252              		.align	1
 253              		.p2align 2,,3
 254              		.global	osTimerCreate
 255              		.syntax unified
 256              		.thumb
 257              		.thumb_func
 258              		.fpu fpv4-sp-d16
 260              	osTimerCreate:
 261              		@ args = 0, pretend = 0, frame = 0
 262              		@ frame_needed = 0, uses_anonymous_args = 0
 263 0000 00B5     		push	{lr}
 264 0002 83B0     		sub	sp, sp, #12
 265 0004 0368     		ldr	r3, [r0]
 266 0006 0093     		str	r3, [sp]
 267 0008 1346     		mov	r3, r2
 268 000a A1F10102 		sub	r2, r1, #1
 269 000e B2FA82F2 		clz	r2, r2
 270 0012 5209     		lsrs	r2, r2, #5
 271 0014 0121     		movs	r1, #1
 272 0016 0348     		ldr	r0, .L36
 273 0018 FFF7FEFF 		bl	xTimerCreate
 274 001c 03B0     		add	sp, sp, #12
 275              		@ sp needed
 276 001e 5DF804FB 		ldr	pc, [sp], #4
 277              	.L37:
 278 0022 00BF     		.align	2
 279              	.L36:
 280 0024 00000000 		.word	.LC0
 282              		.section	.text.osTimerStart,"ax",%progbits
 283              		.align	1
 284              		.p2align 2,,3
 285              		.global	osTimerStart
 286              		.syntax unified
 287              		.thumb
 288              		.thumb_func
 289              		.fpu fpv4-sp-d16
 291              	osTimerStart:
 292              		@ args = 0, pretend = 0, frame = 8
 293              		@ frame_needed = 0, uses_anonymous_args = 0
 294 0000 10B5     		push	{r4, lr}
 295 0002 84B0     		sub	sp, sp, #16
 296 0004 0A1E     		subs	r2, r1, #0
 297 0006 4FF00004 		mov	r4, #0
 298 000a 08BF     		it	eq
 299 000c 0122     		moveq	r2, #1
 300 000e 0394     		str	r4, [sp, #12]
 301              		.syntax unified
 302              	@ 209 "../Drivers/CMSIS/Include/cmsis_gcc.h" 1
 303 0010 EFF30583 		MRS r3, ipsr
 304              	@ 0 "" 2
 305              		.thumb
 306              		.syntax unified
 307 0014 B3B1     		cbz	r3, .L40
 308 0016 0094     		str	r4, [sp]
ARM GAS  D:\Programs\cygwin64\tmp\ccsHavao.s 			page 6


 309 0018 03AB     		add	r3, sp, #12
 310 001a 0921     		movs	r1, #9
 311 001c FFF7FEFF 		bl	xTimerGenericCommand
 312 0020 0128     		cmp	r0, #1
 313 0022 02D0     		beq	.L49
 314              	.L41:
 315 0024 FF20     		movs	r0, #255
 316 0026 04B0     		add	sp, sp, #16
 317              		@ sp needed
 318 0028 10BD     		pop	{r4, pc}
 319              	.L49:
 320 002a 039B     		ldr	r3, [sp, #12]
 321 002c 83B1     		cbz	r3, .L44
 322 002e 0A4B     		ldr	r3, .L50
 323 0030 4FF08052 		mov	r2, #268435456
 324 0034 1A60     		str	r2, [r3]
 325              		.syntax unified
 326              	@ 465 "../Middlewares/FreeRTOS/Source/CMSIS_RTOS/cmsis_os.c" 1
 327 0036 BFF34F8F 		dsb
 328              	@ 0 "" 2
 329              	@ 465 "../Middlewares/FreeRTOS/Source/CMSIS_RTOS/cmsis_os.c" 1
 330 003a BFF36F8F 		isb
 331              	@ 0 "" 2
 332              		.thumb
 333              		.syntax unified
 334 003e 2046     		mov	r0, r4
 335 0040 04B0     		add	sp, sp, #16
 336              		@ sp needed
 337 0042 10BD     		pop	{r4, pc}
 338              	.L40:
 339 0044 0093     		str	r3, [sp]
 340 0046 0421     		movs	r1, #4
 341 0048 FFF7FEFF 		bl	xTimerGenericCommand
 342 004c 0128     		cmp	r0, #1
 343 004e E9D1     		bne	.L41
 344              	.L44:
 345 0050 0020     		movs	r0, #0
 346 0052 04B0     		add	sp, sp, #16
 347              		@ sp needed
 348 0054 10BD     		pop	{r4, pc}
 349              	.L51:
 350 0056 00BF     		.align	2
 351              	.L50:
 352 0058 04ED00E0 		.word	-536810236
 354              		.section	.text.osTimerStop,"ax",%progbits
 355              		.align	1
 356              		.p2align 2,,3
 357              		.global	osTimerStop
 358              		.syntax unified
 359              		.thumb
 360              		.thumb_func
 361              		.fpu fpv4-sp-d16
 363              	osTimerStop:
 364              		@ args = 0, pretend = 0, frame = 8
 365              		@ frame_needed = 0, uses_anonymous_args = 0
 366 0000 10B5     		push	{r4, lr}
 367 0002 84B0     		sub	sp, sp, #16
ARM GAS  D:\Programs\cygwin64\tmp\ccsHavao.s 			page 7


 368 0004 0024     		movs	r4, #0
 369 0006 0394     		str	r4, [sp, #12]
 370              		.syntax unified
 371              	@ 209 "../Drivers/CMSIS/Include/cmsis_gcc.h" 1
 372 0008 EFF30583 		MRS r3, ipsr
 373              	@ 0 "" 2
 374              		.thumb
 375              		.syntax unified
 376 000c A3B1     		cbz	r3, .L53
 377 000e 0094     		str	r4, [sp]
 378 0010 03AB     		add	r3, sp, #12
 379 0012 2246     		mov	r2, r4
 380 0014 0821     		movs	r1, #8
 381 0016 FFF7FEFF 		bl	xTimerGenericCommand
 382 001a 0128     		cmp	r0, #1
 383 001c 13D1     		bne	.L54
 384 001e 039B     		ldr	r3, [sp, #12]
 385 0020 A3B1     		cbz	r3, .L57
 386 0022 0C4B     		ldr	r3, .L62
 387 0024 4FF08052 		mov	r2, #268435456
 388 0028 1A60     		str	r2, [r3]
 389              		.syntax unified
 390              	@ 496 "../Middlewares/FreeRTOS/Source/CMSIS_RTOS/cmsis_os.c" 1
 391 002a BFF34F8F 		dsb
 392              	@ 0 "" 2
 393              	@ 496 "../Middlewares/FreeRTOS/Source/CMSIS_RTOS/cmsis_os.c" 1
 394 002e BFF36F8F 		isb
 395              	@ 0 "" 2
 396              		.thumb
 397              		.syntax unified
 398 0032 2046     		mov	r0, r4
 399 0034 04B0     		add	sp, sp, #16
 400              		@ sp needed
 401 0036 10BD     		pop	{r4, pc}
 402              	.L53:
 403 0038 0093     		str	r3, [sp]
 404 003a 1A46     		mov	r2, r3
 405 003c 0321     		movs	r1, #3
 406 003e FFF7FEFF 		bl	xTimerGenericCommand
 407 0042 0128     		cmp	r0, #1
 408 0044 02D0     		beq	.L57
 409              	.L54:
 410 0046 FF20     		movs	r0, #255
 411 0048 04B0     		add	sp, sp, #16
 412              		@ sp needed
 413 004a 10BD     		pop	{r4, pc}
 414              	.L57:
 415 004c 0020     		movs	r0, #0
 416 004e 04B0     		add	sp, sp, #16
 417              		@ sp needed
 418 0050 10BD     		pop	{r4, pc}
 419              	.L63:
 420 0052 00BF     		.align	2
 421              	.L62:
 422 0054 04ED00E0 		.word	-536810236
 424              		.section	.text.osTimerDelete,"ax",%progbits
 425              		.align	1
ARM GAS  D:\Programs\cygwin64\tmp\ccsHavao.s 			page 8


 426              		.p2align 2,,3
 427              		.global	osTimerDelete
 428              		.syntax unified
 429              		.thumb
 430              		.thumb_func
 431              		.fpu fpv4-sp-d16
 433              	osTimerDelete:
 434              		@ args = 0, pretend = 0, frame = 0
 435              		@ frame_needed = 0, uses_anonymous_args = 0
 436              		.syntax unified
 437              	@ 209 "../Drivers/CMSIS/Include/cmsis_gcc.h" 1
 438 0000 EFF30583 		MRS r3, ipsr
 439              	@ 0 "" 2
 440              		.thumb
 441              		.syntax unified
 442 0004 7BB9     		cbnz	r3, .L66
 443 0006 00B5     		push	{lr}
 444 0008 83B0     		sub	sp, sp, #12
 445 000a 4FF0FF32 		mov	r2, #-1
 446 000e 0092     		str	r2, [sp]
 447 0010 0521     		movs	r1, #5
 448 0012 1A46     		mov	r2, r3
 449 0014 FFF7FEFF 		bl	xTimerGenericCommand
 450 0018 0128     		cmp	r0, #1
 451 001a 0CBF     		ite	eq
 452 001c 0020     		moveq	r0, #0
 453 001e FF20     		movne	r0, #255
 454 0020 03B0     		add	sp, sp, #12
 455              		@ sp needed
 456 0022 5DF804FB 		ldr	pc, [sp], #4
 457              	.L66:
 458 0026 8220     		movs	r0, #130
 459 0028 7047     		bx	lr
 461 002a 00BF     		.section	.text.osSignalSet,"ax",%progbits
 462              		.align	1
 463              		.p2align 2,,3
 464              		.global	osSignalSet
 465              		.syntax unified
 466              		.thumb
 467              		.thumb_func
 468              		.fpu fpv4-sp-d16
 470              	osSignalSet:
 471              		@ args = 0, pretend = 0, frame = 8
 472              		@ frame_needed = 0, uses_anonymous_args = 0
 473 0000 00B5     		push	{lr}
 474 0002 0023     		movs	r3, #0
 475 0004 85B0     		sub	sp, sp, #20
 476 0006 CDE90233 		strd	r3, r3, [sp, #8]
 477              		.syntax unified
 478              	@ 209 "../Drivers/CMSIS/Include/cmsis_gcc.h" 1
 479 000a EFF30583 		MRS r3, ipsr
 480              	@ 0 "" 2
 481              		.thumb
 482              		.syntax unified
 483 000e ABB1     		cbz	r3, .L73
 484 0010 02AB     		add	r3, sp, #8
 485 0012 0093     		str	r3, [sp]
ARM GAS  D:\Programs\cygwin64\tmp\ccsHavao.s 			page 9


 486 0014 0122     		movs	r2, #1
 487 0016 03AB     		add	r3, sp, #12
 488 0018 FFF7FEFF 		bl	xTaskGenericNotifyFromISR
 489 001c 0128     		cmp	r0, #1
 490 001e 13D1     		bne	.L78
 491 0020 029B     		ldr	r3, [sp, #8]
 492 0022 3BB1     		cbz	r3, .L77
 493 0024 0A4B     		ldr	r3, .L81
 494 0026 4FF08052 		mov	r2, #268435456
 495 002a 1A60     		str	r2, [r3]
 496              		.syntax unified
 497              	@ 556 "../Middlewares/FreeRTOS/Source/CMSIS_RTOS/cmsis_os.c" 1
 498 002c BFF34F8F 		dsb
 499              	@ 0 "" 2
 500              	@ 556 "../Middlewares/FreeRTOS/Source/CMSIS_RTOS/cmsis_os.c" 1
 501 0030 BFF36F8F 		isb
 502              	@ 0 "" 2
 503              		.thumb
 504              		.syntax unified
 505              	.L77:
 506 0034 0398     		ldr	r0, [sp, #12]
 507              	.L72:
 508 0036 05B0     		add	sp, sp, #20
 509              		@ sp needed
 510 0038 5DF804FB 		ldr	pc, [sp], #4
 511              	.L73:
 512 003c 03AB     		add	r3, sp, #12
 513 003e 0122     		movs	r2, #1
 514 0040 FFF7FEFF 		bl	xTaskGenericNotify
 515 0044 0128     		cmp	r0, #1
 516 0046 F5D0     		beq	.L77
 517              	.L78:
 518 0048 4FF00040 		mov	r0, #-2147483648
 519 004c F3E7     		b	.L72
 520              	.L82:
 521 004e 00BF     		.align	2
 522              	.L81:
 523 0050 04ED00E0 		.word	-536810236
 525              		.section	.text.osSignalWait,"ax",%progbits
 526              		.align	1
 527              		.p2align 2,,3
 528              		.global	osSignalWait
 529              		.syntax unified
 530              		.thumb
 531              		.thumb_func
 532              		.fpu fpv4-sp-d16
 534              	osSignalWait:
 535              		@ args = 0, pretend = 0, frame = 16
 536              		@ frame_needed = 0, uses_anonymous_args = 0
 537 0000 30B5     		push	{r4, r5, lr}
 538 0002 85B0     		sub	sp, sp, #20
 539 0004 0023     		movs	r3, #0
 540 0006 0446     		mov	r4, r0
 541 0008 0293     		str	r3, [sp, #8]
 542              		.syntax unified
 543              	@ 209 "../Drivers/CMSIS/Include/cmsis_gcc.h" 1
 544 000a EFF30580 		MRS r0, ipsr
ARM GAS  D:\Programs\cygwin64\tmp\ccsHavao.s 			page 10


 545              	@ 0 "" 2
 546              		.thumb
 547              		.syntax unified
 548 000e 48B1     		cbz	r0, .L84
 549 0010 8223     		movs	r3, #130
 550 0012 0193     		str	r3, [sp, #4]
 551              	.L85:
 552 0014 04AB     		add	r3, sp, #16
 553 0016 13E90700 		ldmdb	r3, {r0, r1, r2}
 554 001a 84E80700 		stm	r4, {r0, r1, r2}
 555 001e 2046     		mov	r0, r4
 556 0020 05B0     		add	sp, sp, #20
 557              		@ sp needed
 558 0022 30BD     		pop	{r4, r5, pc}
 559              	.L84:
 560 0024 1346     		mov	r3, r2
 561 0026 1546     		mov	r5, r2
 562 0028 02AA     		add	r2, sp, #8
 563 002a FFF7FEFF 		bl	xTaskNotifyWait
 564 002e 0128     		cmp	r0, #1
 565 0030 05D0     		beq	.L86
 566 0032 0DB9     		cbnz	r5, .L87
 567 0034 0195     		str	r5, [sp, #4]
 568 0036 EDE7     		b	.L85
 569              	.L87:
 570 0038 4023     		movs	r3, #64
 571 003a 0193     		str	r3, [sp, #4]
 572 003c EAE7     		b	.L85
 573              	.L86:
 574 003e 029B     		ldr	r3, [sp, #8]
 575 0040 002B     		cmp	r3, #0
 576 0042 B4BF     		ite	lt
 577 0044 8623     		movlt	r3, #134
 578 0046 0823     		movge	r3, #8
 579 0048 0193     		str	r3, [sp, #4]
 580 004a E3E7     		b	.L85
 582              		.section	.text.osMutexCreate,"ax",%progbits
 583              		.align	1
 584              		.p2align 2,,3
 585              		.global	osMutexCreate
 586              		.syntax unified
 587              		.thumb
 588              		.thumb_func
 589              		.fpu fpv4-sp-d16
 591              	osMutexCreate:
 592              		@ args = 0, pretend = 0, frame = 0
 593              		@ frame_needed = 0, uses_anonymous_args = 0
 594              		@ link register save eliminated.
 595 0000 0120     		movs	r0, #1
 596 0002 FFF7FEBF 		b	xQueueCreateMutex
 598 0006 00BF     		.section	.text.osMutexWait,"ax",%progbits
 599              		.align	1
 600              		.p2align 2,,3
 601              		.global	osMutexWait
 602              		.syntax unified
 603              		.thumb
 604              		.thumb_func
ARM GAS  D:\Programs\cygwin64\tmp\ccsHavao.s 			page 11


 605              		.fpu fpv4-sp-d16
 607              	osMutexWait:
 608              		@ args = 0, pretend = 0, frame = 8
 609              		@ frame_needed = 0, uses_anonymous_args = 0
 610 0000 10B5     		push	{r4, lr}
 611 0002 82B0     		sub	sp, sp, #8
 612 0004 0024     		movs	r4, #0
 613 0006 0194     		str	r4, [sp, #4]
 614 0008 00B3     		cbz	r0, .L97
 615              		.syntax unified
 616              	@ 209 "../Drivers/CMSIS/Include/cmsis_gcc.h" 1
 617 000a EFF30583 		MRS r3, ipsr
 618              	@ 0 "" 2
 619              		.thumb
 620              		.syntax unified
 621 000e 33B9     		cbnz	r3, .L102
 622 0010 FFF7FEFF 		bl	xQueueSemaphoreTake
 623 0014 0128     		cmp	r0, #1
 624 0016 16D1     		bne	.L94
 625              	.L96:
 626 0018 0020     		movs	r0, #0
 627 001a 02B0     		add	sp, sp, #8
 628              		@ sp needed
 629 001c 10BD     		pop	{r4, pc}
 630              	.L102:
 631 001e 01AA     		add	r2, sp, #4
 632 0020 2146     		mov	r1, r4
 633 0022 FFF7FEFF 		bl	xQueueReceiveFromISR
 634 0026 0128     		cmp	r0, #1
 635 0028 0DD1     		bne	.L94
 636 002a 019B     		ldr	r3, [sp, #4]
 637 002c 002B     		cmp	r3, #0
 638 002e F3D0     		beq	.L96
 639 0030 084B     		ldr	r3, .L103
 640 0032 4FF08052 		mov	r2, #268435456
 641 0036 1A60     		str	r2, [r3]
 642              		.syntax unified
 643              	@ 694 "../Middlewares/FreeRTOS/Source/CMSIS_RTOS/cmsis_os.c" 1
 644 0038 BFF34F8F 		dsb
 645              	@ 0 "" 2
 646              	@ 694 "../Middlewares/FreeRTOS/Source/CMSIS_RTOS/cmsis_os.c" 1
 647 003c BFF36F8F 		isb
 648              	@ 0 "" 2
 649              		.thumb
 650              		.syntax unified
 651 0040 2046     		mov	r0, r4
 652 0042 02B0     		add	sp, sp, #8
 653              		@ sp needed
 654 0044 10BD     		pop	{r4, pc}
 655              	.L94:
 656 0046 FF20     		movs	r0, #255
 657 0048 02B0     		add	sp, sp, #8
 658              		@ sp needed
 659 004a 10BD     		pop	{r4, pc}
 660              	.L97:
 661 004c 8020     		movs	r0, #128
 662 004e 02B0     		add	sp, sp, #8
ARM GAS  D:\Programs\cygwin64\tmp\ccsHavao.s 			page 12


 663              		@ sp needed
 664 0050 10BD     		pop	{r4, pc}
 665              	.L104:
 666 0052 00BF     		.align	2
 667              	.L103:
 668 0054 04ED00E0 		.word	-536810236
 670              		.section	.text.osMutexRelease,"ax",%progbits
 671              		.align	1
 672              		.p2align 2,,3
 673              		.global	osMutexRelease
 674              		.syntax unified
 675              		.thumb
 676              		.thumb_func
 677              		.fpu fpv4-sp-d16
 679              	osMutexRelease:
 680              		@ args = 0, pretend = 0, frame = 8
 681              		@ frame_needed = 0, uses_anonymous_args = 0
 682 0000 10B5     		push	{r4, lr}
 683 0002 82B0     		sub	sp, sp, #8
 684 0004 0024     		movs	r4, #0
 685 0006 0194     		str	r4, [sp, #4]
 686              		.syntax unified
 687              	@ 209 "../Drivers/CMSIS/Include/cmsis_gcc.h" 1
 688 0008 EFF30583 		MRS r3, ipsr
 689              	@ 0 "" 2
 690              		.thumb
 691              		.syntax unified
 692 000c 8BB1     		cbz	r3, .L106
 693 000e 01A9     		add	r1, sp, #4
 694 0010 FFF7FEFF 		bl	xQueueGiveFromISR
 695 0014 0128     		cmp	r0, #1
 696 0016 12D1     		bne	.L107
 697 0018 019B     		ldr	r3, [sp, #4]
 698 001a 9BB1     		cbz	r3, .L110
 699 001c 0B4B     		ldr	r3, .L115
 700 001e 4FF08052 		mov	r2, #268435456
 701 0022 1A60     		str	r2, [r3]
 702              		.syntax unified
 703              	@ 718 "../Middlewares/FreeRTOS/Source/CMSIS_RTOS/cmsis_os.c" 1
 704 0024 BFF34F8F 		dsb
 705              	@ 0 "" 2
 706              	@ 718 "../Middlewares/FreeRTOS/Source/CMSIS_RTOS/cmsis_os.c" 1
 707 0028 BFF36F8F 		isb
 708              	@ 0 "" 2
 709              		.thumb
 710              		.syntax unified
 711 002c 2046     		mov	r0, r4
 712 002e 02B0     		add	sp, sp, #8
 713              		@ sp needed
 714 0030 10BD     		pop	{r4, pc}
 715              	.L106:
 716 0032 1A46     		mov	r2, r3
 717 0034 1946     		mov	r1, r3
 718 0036 FFF7FEFF 		bl	xQueueGenericSend
 719 003a 0128     		cmp	r0, #1
 720 003c 02D0     		beq	.L110
 721              	.L107:
ARM GAS  D:\Programs\cygwin64\tmp\ccsHavao.s 			page 13


 722 003e FF20     		movs	r0, #255
 723 0040 02B0     		add	sp, sp, #8
 724              		@ sp needed
 725 0042 10BD     		pop	{r4, pc}
 726              	.L110:
 727 0044 0020     		movs	r0, #0
 728 0046 02B0     		add	sp, sp, #8
 729              		@ sp needed
 730 0048 10BD     		pop	{r4, pc}
 731              	.L116:
 732 004a 00BF     		.align	2
 733              	.L115:
 734 004c 04ED00E0 		.word	-536810236
 736              		.section	.text.osMutexDelete,"ax",%progbits
 737              		.align	1
 738              		.p2align 2,,3
 739              		.global	osMutexDelete
 740              		.syntax unified
 741              		.thumb
 742              		.thumb_func
 743              		.fpu fpv4-sp-d16
 745              	osMutexDelete:
 746              		@ args = 0, pretend = 0, frame = 0
 747              		@ frame_needed = 0, uses_anonymous_args = 0
 748 0000 10B5     		push	{r4, lr}
 749              		.syntax unified
 750              	@ 209 "../Drivers/CMSIS/Include/cmsis_gcc.h" 1
 751 0002 EFF30584 		MRS r4, ipsr
 752              	@ 0 "" 2
 753              		.thumb
 754              		.syntax unified
 755 0006 1CB9     		cbnz	r4, .L119
 756 0008 FFF7FEFF 		bl	vQueueDelete
 757 000c 2046     		mov	r0, r4
 758 000e 10BD     		pop	{r4, pc}
 759              	.L119:
 760 0010 8220     		movs	r0, #130
 761 0012 10BD     		pop	{r4, pc}
 763              		.section	.text.osSemaphoreCreate,"ax",%progbits
 764              		.align	1
 765              		.p2align 2,,3
 766              		.global	osSemaphoreCreate
 767              		.syntax unified
 768              		.thumb
 769              		.thumb_func
 770              		.fpu fpv4-sp-d16
 772              	osSemaphoreCreate:
 773              		@ args = 0, pretend = 0, frame = 0
 774              		@ frame_needed = 0, uses_anonymous_args = 0
 775 0000 0129     		cmp	r1, #1
 776 0002 0846     		mov	r0, r1
 777 0004 01D0     		beq	.L130
 778 0006 FFF7FEBF 		b	xQueueCreateCountingSemaphore
 779              	.L130:
 780 000a 10B5     		push	{r4, lr}
 781 000c 0322     		movs	r2, #3
 782 000e 0021     		movs	r1, #0
ARM GAS  D:\Programs\cygwin64\tmp\ccsHavao.s 			page 14


 783 0010 FFF7FEFF 		bl	xQueueGenericCreate
 784 0014 0446     		mov	r4, r0
 785 0016 20B1     		cbz	r0, .L121
 786 0018 0023     		movs	r3, #0
 787 001a 1A46     		mov	r2, r3
 788 001c 1946     		mov	r1, r3
 789 001e FFF7FEFF 		bl	xQueueGenericSend
 790              	.L121:
 791 0022 2046     		mov	r0, r4
 792 0024 10BD     		pop	{r4, pc}
 794 0026 00BF     		.section	.text.osSemaphoreWait,"ax",%progbits
 795              		.align	1
 796              		.p2align 2,,3
 797              		.global	osSemaphoreWait
 798              		.syntax unified
 799              		.thumb
 800              		.thumb_func
 801              		.fpu fpv4-sp-d16
 803              	osSemaphoreWait:
 804              		@ args = 0, pretend = 0, frame = 8
 805              		@ frame_needed = 0, uses_anonymous_args = 0
 806 0000 10B5     		push	{r4, lr}
 807 0002 82B0     		sub	sp, sp, #8
 808 0004 0024     		movs	r4, #0
 809 0006 0194     		str	r4, [sp, #4]
 810 0008 00B3     		cbz	r0, .L137
 811              		.syntax unified
 812              	@ 209 "../Drivers/CMSIS/Include/cmsis_gcc.h" 1
 813 000a EFF30583 		MRS r3, ipsr
 814              	@ 0 "" 2
 815              		.thumb
 816              		.syntax unified
 817 000e 33B9     		cbnz	r3, .L142
 818 0010 FFF7FEFF 		bl	xQueueSemaphoreTake
 819 0014 0128     		cmp	r0, #1
 820 0016 16D1     		bne	.L134
 821              	.L136:
 822 0018 0020     		movs	r0, #0
 823 001a 02B0     		add	sp, sp, #8
 824              		@ sp needed
 825 001c 10BD     		pop	{r4, pc}
 826              	.L142:
 827 001e 01AA     		add	r2, sp, #4
 828 0020 2146     		mov	r1, r4
 829 0022 FFF7FEFF 		bl	xQueueReceiveFromISR
 830 0026 0128     		cmp	r0, #1
 831 0028 0DD1     		bne	.L134
 832 002a 019B     		ldr	r3, [sp, #4]
 833 002c 002B     		cmp	r3, #0
 834 002e F3D0     		beq	.L136
 835 0030 084B     		ldr	r3, .L143
 836 0032 4FF08052 		mov	r2, #268435456
 837 0036 1A60     		str	r2, [r3]
 838              		.syntax unified
 839              	@ 847 "../Middlewares/FreeRTOS/Source/CMSIS_RTOS/cmsis_os.c" 1
 840 0038 BFF34F8F 		dsb
 841              	@ 0 "" 2
ARM GAS  D:\Programs\cygwin64\tmp\ccsHavao.s 			page 15


 842              	@ 847 "../Middlewares/FreeRTOS/Source/CMSIS_RTOS/cmsis_os.c" 1
 843 003c BFF36F8F 		isb
 844              	@ 0 "" 2
 845              		.thumb
 846              		.syntax unified
 847 0040 2046     		mov	r0, r4
 848 0042 02B0     		add	sp, sp, #8
 849              		@ sp needed
 850 0044 10BD     		pop	{r4, pc}
 851              	.L134:
 852 0046 FF20     		movs	r0, #255
 853 0048 02B0     		add	sp, sp, #8
 854              		@ sp needed
 855 004a 10BD     		pop	{r4, pc}
 856              	.L137:
 857 004c 8020     		movs	r0, #128
 858 004e 02B0     		add	sp, sp, #8
 859              		@ sp needed
 860 0050 10BD     		pop	{r4, pc}
 861              	.L144:
 862 0052 00BF     		.align	2
 863              	.L143:
 864 0054 04ED00E0 		.word	-536810236
 866              		.section	.text.osSemaphoreRelease,"ax",%progbits
 867              		.align	1
 868              		.p2align 2,,3
 869              		.global	osSemaphoreRelease
 870              		.syntax unified
 871              		.thumb
 872              		.thumb_func
 873              		.fpu fpv4-sp-d16
 875              	osSemaphoreRelease:
 876              		@ args = 0, pretend = 0, frame = 8
 877              		@ frame_needed = 0, uses_anonymous_args = 0
 878 0000 10B5     		push	{r4, lr}
 879 0002 82B0     		sub	sp, sp, #8
 880 0004 0024     		movs	r4, #0
 881 0006 0194     		str	r4, [sp, #4]
 882              		.syntax unified
 883              	@ 209 "../Drivers/CMSIS/Include/cmsis_gcc.h" 1
 884 0008 EFF30583 		MRS r3, ipsr
 885              	@ 0 "" 2
 886              		.thumb
 887              		.syntax unified
 888 000c 8BB1     		cbz	r3, .L146
 889 000e 01A9     		add	r1, sp, #4
 890 0010 FFF7FEFF 		bl	xQueueGiveFromISR
 891 0014 0128     		cmp	r0, #1
 892 0016 12D1     		bne	.L147
 893 0018 019B     		ldr	r3, [sp, #4]
 894 001a 9BB1     		cbz	r3, .L150
 895 001c 0B4B     		ldr	r3, .L155
 896 001e 4FF08052 		mov	r2, #268435456
 897 0022 1A60     		str	r2, [r3]
 898              		.syntax unified
 899              	@ 718 "../Middlewares/FreeRTOS/Source/CMSIS_RTOS/cmsis_os.c" 1
 900 0024 BFF34F8F 		dsb
ARM GAS  D:\Programs\cygwin64\tmp\ccsHavao.s 			page 16


 901              	@ 0 "" 2
 902              	@ 718 "../Middlewares/FreeRTOS/Source/CMSIS_RTOS/cmsis_os.c" 1
 903 0028 BFF36F8F 		isb
 904              	@ 0 "" 2
 905              		.thumb
 906              		.syntax unified
 907 002c 2046     		mov	r0, r4
 908 002e 02B0     		add	sp, sp, #8
 909              		@ sp needed
 910 0030 10BD     		pop	{r4, pc}
 911              	.L146:
 912 0032 1A46     		mov	r2, r3
 913 0034 1946     		mov	r1, r3
 914 0036 FFF7FEFF 		bl	xQueueGenericSend
 915 003a 0128     		cmp	r0, #1
 916 003c 02D0     		beq	.L150
 917              	.L147:
 918 003e FF20     		movs	r0, #255
 919 0040 02B0     		add	sp, sp, #8
 920              		@ sp needed
 921 0042 10BD     		pop	{r4, pc}
 922              	.L150:
 923 0044 0020     		movs	r0, #0
 924 0046 02B0     		add	sp, sp, #8
 925              		@ sp needed
 926 0048 10BD     		pop	{r4, pc}
 927              	.L156:
 928 004a 00BF     		.align	2
 929              	.L155:
 930 004c 04ED00E0 		.word	-536810236
 932              		.section	.text.osSemaphoreDelete,"ax",%progbits
 933              		.align	1
 934              		.p2align 2,,3
 935              		.global	osSemaphoreDelete
 936              		.syntax unified
 937              		.thumb
 938              		.thumb_func
 939              		.fpu fpv4-sp-d16
 941              	osSemaphoreDelete:
 942              		@ args = 0, pretend = 0, frame = 0
 943              		@ frame_needed = 0, uses_anonymous_args = 0
 944 0000 10B5     		push	{r4, lr}
 945              		.syntax unified
 946              	@ 209 "../Drivers/CMSIS/Include/cmsis_gcc.h" 1
 947 0002 EFF30584 		MRS r4, ipsr
 948              	@ 0 "" 2
 949              		.thumb
 950              		.syntax unified
 951 0006 1CB9     		cbnz	r4, .L159
 952 0008 FFF7FEFF 		bl	vQueueDelete
 953 000c 2046     		mov	r0, r4
 954 000e 10BD     		pop	{r4, pc}
 955              	.L159:
 956 0010 8220     		movs	r0, #130
 957 0012 10BD     		pop	{r4, pc}
 959              		.section	.text.osPoolCreate,"ax",%progbits
 960              		.align	1
ARM GAS  D:\Programs\cygwin64\tmp\ccsHavao.s 			page 17


 961              		.p2align 2,,3
 962              		.global	osPoolCreate
 963              		.syntax unified
 964              		.thumb
 965              		.thumb_func
 966              		.fpu fpv4-sp-d16
 968              	osPoolCreate:
 969              		@ args = 0, pretend = 0, frame = 8
 970              		@ frame_needed = 0, uses_anonymous_args = 0
 971 0000 F0B5     		push	{r4, r5, r6, r7, lr}
 972 0002 0646     		mov	r6, r0
 973 0004 83B0     		sub	sp, sp, #12
 974 0006 1420     		movs	r0, #20
 975 0008 7468     		ldr	r4, [r6, #4]
 976 000a FFF7FEFF 		bl	pvPortMalloc
 977 000e 0546     		mov	r5, r0
 978 0010 E8B1     		cbz	r0, .L161
 979 0012 0334     		adds	r4, r4, #3
 980 0014 3068     		ldr	r0, [r6]
 981 0016 A860     		str	r0, [r5, #8]
 982 0018 24F00307 		bic	r7, r4, #3
 983 001c 0024     		movs	r4, #0
 984 001e C5E90374 		strd	r7, r4, [r5, #12]
 985 0022 FFF7FEFF 		bl	pvPortMalloc
 986 0026 6860     		str	r0, [r5, #4]
 987 0028 A0B1     		cbz	r0, .L163
 988 002a 3068     		ldr	r0, [r6]
 989 002c 00FB07F0 		mul	r0, r0, r7
 990 0030 FFF7FEFF 		bl	pvPortMalloc
 991 0034 0746     		mov	r7, r0
 992 0036 2860     		str	r0, [r5]
 993 0038 98B1     		cbz	r0, .L164
 994 003a 3368     		ldr	r3, [r6]
 995 003c 3BB1     		cbz	r3, .L161
 996 003e 2346     		mov	r3, r4
 997 0040 2146     		mov	r1, r4
 998              	.L165:
 999 0042 6A68     		ldr	r2, [r5, #4]
 1000 0044 D154     		strb	r1, [r2, r3]
 1001 0046 3268     		ldr	r2, [r6]
 1002 0048 0133     		adds	r3, r3, #1
 1003 004a 9A42     		cmp	r2, r3
 1004 004c F9D8     		bhi	.L165
 1005              	.L161:
 1006 004e 2846     		mov	r0, r5
 1007 0050 03B0     		add	sp, sp, #12
 1008              		@ sp needed
 1009 0052 F0BD     		pop	{r4, r5, r6, r7, pc}
 1010              	.L163:
 1011 0054 0190     		str	r0, [sp, #4]
 1012 0056 2846     		mov	r0, r5
 1013 0058 FFF7FEFF 		bl	vPortFree
 1014 005c 019B     		ldr	r3, [sp, #4]
 1015 005e 1D46     		mov	r5, r3
 1016 0060 F5E7     		b	.L161
 1017              	.L164:
 1018 0062 6868     		ldr	r0, [r5, #4]
ARM GAS  D:\Programs\cygwin64\tmp\ccsHavao.s 			page 18


 1019 0064 FFF7FEFF 		bl	vPortFree
 1020 0068 2846     		mov	r0, r5
 1021 006a FFF7FEFF 		bl	vPortFree
 1022 006e 3D46     		mov	r5, r7
 1023 0070 EDE7     		b	.L161
 1025 0072 00BF     		.section	.text.osPoolAlloc,"ax",%progbits
 1026              		.align	1
 1027              		.p2align 2,,3
 1028              		.global	osPoolAlloc
 1029              		.syntax unified
 1030              		.thumb
 1031              		.thumb_func
 1032              		.fpu fpv4-sp-d16
 1034              	osPoolAlloc:
 1035              		@ args = 0, pretend = 0, frame = 0
 1036              		@ frame_needed = 0, uses_anonymous_args = 0
 1037 0000 2DE9F843 		push	{r3, r4, r5, r6, r7, r8, r9, lr}
 1038 0004 8046     		mov	r8, r0
 1039              		.syntax unified
 1040              	@ 209 "../Drivers/CMSIS/Include/cmsis_gcc.h" 1
 1041 0006 EFF30589 		MRS r9, ipsr
 1042              	@ 0 "" 2
 1043              		.thumb
 1044              		.syntax unified
 1045 000a B9F1000F 		cmp	r9, #0
 1046 000e 3BD0     		beq	.L175
 1047              		.syntax unified
 1048              	@ 211 "../Middlewares/FreeRTOS/Source/portable/GCC/ARM_CM4F/portmacro.h" 1
 1049 0010 EFF31189 			mrs r9, basepri											
 1050 0014 4FF05003 		mov r3, #80												
 1051 0018 83F31188 		msr basepri, r3											
 1052 001c BFF36F8F 		isb														
 1053 0020 BFF34F8F 		dsb														
 1054              	
 1055              	@ 0 "" 2
 1056              		.thumb
 1057              		.syntax unified
 1058              	.L176:
 1059 0024 D8F80840 		ldr	r4, [r8, #8]
 1060 0028 E4B1     		cbz	r4, .L177
 1061 002a D8F81030 		ldr	r3, [r8, #16]
 1062 002e D8F80460 		ldr	r6, [r8, #4]
 1063 0032 E718     		adds	r7, r4, r3
 1064 0034 01E0     		b	.L180
 1065              	.L179:
 1066 0036 BB42     		cmp	r3, r7
 1067 0038 1CD0     		beq	.L187
 1068              	.L180:
 1069 003a 9C42     		cmp	r4, r3
 1070 003c 8ABF     		itet	hi
 1071 003e F218     		addhi	r2, r6, r3
 1072 0040 3246     		movls	r2, r6
 1073 0042 1D46     		movhi	r5, r3
 1074 0044 1178     		ldrb	r1, [r2]	@ zero_extendqisi2
 1075 0046 98BF     		it	ls
 1076 0048 0025     		movls	r5, #0
 1077 004a 0133     		adds	r3, r3, #1
ARM GAS  D:\Programs\cygwin64\tmp\ccsHavao.s 			page 19


 1078 004c 0029     		cmp	r1, #0
 1079 004e F2D1     		bne	.L179
 1080 0050 0123     		movs	r3, #1
 1081 0052 1370     		strb	r3, [r2]
 1082 0054 D8F80C00 		ldr	r0, [r8, #12]
 1083 0058 D8F80040 		ldr	r4, [r8]
 1084 005c C8F81050 		str	r5, [r8, #16]
 1085 0060 00FB0544 		mla	r4, r0, r5, r4
 1086              	.L177:
 1087              		.syntax unified
 1088              	@ 209 "../Drivers/CMSIS/Include/cmsis_gcc.h" 1
 1089 0064 EFF30583 		MRS r3, ipsr
 1090              	@ 0 "" 2
 1091              		.thumb
 1092              		.syntax unified
 1093 0068 4BB1     		cbz	r3, .L181
 1094              	.L188:
 1095              		.syntax unified
 1096              	@ 229 "../Middlewares/FreeRTOS/Source/portable/GCC/ARM_CM4F/portmacro.h" 1
 1097 006a 89F31188 			msr basepri, r9	
 1098              	@ 0 "" 2
 1099              		.thumb
 1100              		.syntax unified
 1101 006e 2046     		mov	r0, r4
 1102 0070 BDE8F883 		pop	{r3, r4, r5, r6, r7, r8, r9, pc}
 1103              	.L187:
 1104 0074 0024     		movs	r4, #0
 1105              		.syntax unified
 1106              	@ 209 "../Drivers/CMSIS/Include/cmsis_gcc.h" 1
 1107 0076 EFF30583 		MRS r3, ipsr
 1108              	@ 0 "" 2
 1109              		.thumb
 1110              		.syntax unified
 1111 007a 002B     		cmp	r3, #0
 1112 007c F5D1     		bne	.L188
 1113              	.L181:
 1114 007e FFF7FEFF 		bl	vPortExitCritical
 1115 0082 2046     		mov	r0, r4
 1116 0084 BDE8F883 		pop	{r3, r4, r5, r6, r7, r8, r9, pc}
 1117              	.L175:
 1118 0088 FFF7FEFF 		bl	vPortEnterCritical
 1119 008c CAE7     		b	.L176
 1121 008e 00BF     		.section	.text.osPoolCAlloc,"ax",%progbits
 1122              		.align	1
 1123              		.p2align 2,,3
 1124              		.global	osPoolCAlloc
 1125              		.syntax unified
 1126              		.thumb
 1127              		.thumb_func
 1128              		.fpu fpv4-sp-d16
 1130              	osPoolCAlloc:
 1131              		@ args = 0, pretend = 0, frame = 0
 1132              		@ frame_needed = 0, uses_anonymous_args = 0
 1133 0000 F8B5     		push	{r3, r4, r5, r6, r7, lr}
 1134 0002 0546     		mov	r5, r0
 1135              		.syntax unified
 1136              	@ 209 "../Drivers/CMSIS/Include/cmsis_gcc.h" 1
ARM GAS  D:\Programs\cygwin64\tmp\ccsHavao.s 			page 20


 1137 0004 EFF30586 		MRS r6, ipsr
 1138              	@ 0 "" 2
 1139              		.thumb
 1140              		.syntax unified
 1141 0008 002E     		cmp	r6, #0
 1142 000a 36D0     		beq	.L190
 1143              		.syntax unified
 1144              	@ 211 "../Middlewares/FreeRTOS/Source/portable/GCC/ARM_CM4F/portmacro.h" 1
 1145 000c EFF31186 			mrs r6, basepri											
 1146 0010 4FF05003 		mov r3, #80												
 1147 0014 83F31188 		msr basepri, r3											
 1148 0018 BFF36F8F 		isb														
 1149 001c BFF34F8F 		dsb														
 1150              	
 1151              	@ 0 "" 2
 1152              		.thumb
 1153              		.syntax unified
 1154              	.L191:
 1155 0020 A868     		ldr	r0, [r5, #8]
 1156 0022 68B3     		cbz	r0, .L199
 1157 0024 2B69     		ldr	r3, [r5, #16]
 1158 0026 6968     		ldr	r1, [r5, #4]
 1159 0028 03EB000C 		add	ip, r3, r0
 1160 002c 01E0     		b	.L195
 1161              	.L194:
 1162 002e 9C45     		cmp	ip, r3
 1163 0030 1BD0     		beq	.L206
 1164              	.L195:
 1165 0032 8342     		cmp	r3, r0
 1166 0034 36BF     		itet	cc
 1167 0036 CA18     		addcc	r2, r1, r3
 1168 0038 0A46     		movcs	r2, r1
 1169 003a 1C46     		movcc	r4, r3
 1170 003c 1778     		ldrb	r7, [r2]	@ zero_extendqisi2
 1171 003e 28BF     		it	cs
 1172 0040 0024     		movcs	r4, #0
 1173 0042 0133     		adds	r3, r3, #1
 1174 0044 002F     		cmp	r7, #0
 1175 0046 F2D1     		bne	.L194
 1176 0048 0123     		movs	r3, #1
 1177 004a 1370     		strb	r3, [r2]
 1178 004c EB68     		ldr	r3, [r5, #12]
 1179 004e 2868     		ldr	r0, [r5]
 1180 0050 2C61     		str	r4, [r5, #16]
 1181 0052 03FB0404 		mla	r4, r3, r4, r0
 1182              	.L192:
 1183              		.syntax unified
 1184              	@ 209 "../Drivers/CMSIS/Include/cmsis_gcc.h" 1
 1185 0056 EFF30583 		MRS r3, ipsr
 1186              	@ 0 "" 2
 1187              		.thumb
 1188              		.syntax unified
 1189 005a 5BB1     		cbz	r3, .L196
 1190              	.L207:
 1191              		.syntax unified
 1192              	@ 229 "../Middlewares/FreeRTOS/Source/portable/GCC/ARM_CM4F/portmacro.h" 1
 1193 005c 86F31188 			msr basepri, r6	
ARM GAS  D:\Programs\cygwin64\tmp\ccsHavao.s 			page 21


 1194              	@ 0 "" 2
 1195              		.thumb
 1196              		.syntax unified
 1197              	.L197:
 1198 0060 0CB1     		cbz	r4, .L189
 1199 0062 0023     		movs	r3, #0
 1200 0064 2360     		str	r3, [r4]	@ unaligned
 1201              	.L189:
 1202 0066 2046     		mov	r0, r4
 1203 0068 F8BD     		pop	{r3, r4, r5, r6, r7, pc}
 1204              	.L206:
 1205 006a 0024     		movs	r4, #0
 1206              		.syntax unified
 1207              	@ 209 "../Drivers/CMSIS/Include/cmsis_gcc.h" 1
 1208 006c EFF30583 		MRS r3, ipsr
 1209              	@ 0 "" 2
 1210              		.thumb
 1211              		.syntax unified
 1212 0070 002B     		cmp	r3, #0
 1213 0072 F3D1     		bne	.L207
 1214              	.L196:
 1215 0074 FFF7FEFF 		bl	vPortExitCritical
 1216 0078 F2E7     		b	.L197
 1217              	.L190:
 1218 007a FFF7FEFF 		bl	vPortEnterCritical
 1219 007e CFE7     		b	.L191
 1220              	.L199:
 1221 0080 0446     		mov	r4, r0
 1222 0082 E8E7     		b	.L192
 1224              		.section	.text.osPoolFree,"ax",%progbits
 1225              		.align	1
 1226              		.p2align 2,,3
 1227              		.global	osPoolFree
 1228              		.syntax unified
 1229              		.thumb
 1230              		.thumb_func
 1231              		.fpu fpv4-sp-d16
 1233              	osPoolFree:
 1234              		@ args = 0, pretend = 0, frame = 0
 1235              		@ frame_needed = 0, uses_anonymous_args = 0
 1236              		@ link register save eliminated.
 1237 0000 88B1     		cbz	r0, .L214
 1238 0002 81B1     		cbz	r1, .L214
 1239 0004 0268     		ldr	r2, [r0]
 1240 0006 8A42     		cmp	r2, r1
 1241 0008 0DD8     		bhi	.L214
 1242 000a C368     		ldr	r3, [r0, #12]
 1243 000c 891A     		subs	r1, r1, r2
 1244 000e B1FBF3F2 		udiv	r2, r1, r3
 1245 0012 03FB1211 		mls	r1, r3, r2, r1
 1246 0016 31B9     		cbnz	r1, .L214
 1247 0018 8368     		ldr	r3, [r0, #8]
 1248 001a 9342     		cmp	r3, r2
 1249 001c 03D9     		bls	.L214
 1250 001e 4368     		ldr	r3, [r0, #4]
 1251 0020 0846     		mov	r0, r1
 1252 0022 9954     		strb	r1, [r3, r2]
ARM GAS  D:\Programs\cygwin64\tmp\ccsHavao.s 			page 22


 1253 0024 7047     		bx	lr
 1254              	.L214:
 1255 0026 8020     		movs	r0, #128
 1256 0028 7047     		bx	lr
 1258 002a 00BF     		.section	.text.osMessageCreate,"ax",%progbits
 1259              		.align	1
 1260              		.p2align 2,,3
 1261              		.global	osMessageCreate
 1262              		.syntax unified
 1263              		.thumb
 1264              		.thumb_func
 1265              		.fpu fpv4-sp-d16
 1267              	osMessageCreate:
 1268              		@ args = 0, pretend = 0, frame = 0
 1269              		@ frame_needed = 0, uses_anonymous_args = 0
 1270              		@ link register save eliminated.
 1271 0000 0022     		movs	r2, #0
 1272 0002 D0E90001 		ldrd	r0, r1, [r0]
 1273 0006 FFF7FEBF 		b	xQueueGenericCreate
 1275 000a 00BF     		.section	.text.osMessagePut,"ax",%progbits
 1276              		.align	1
 1277              		.p2align 2,,3
 1278              		.global	osMessagePut
 1279              		.syntax unified
 1280              		.thumb
 1281              		.thumb_func
 1282              		.fpu fpv4-sp-d16
 1284              	osMessagePut:
 1285              		@ args = 0, pretend = 0, frame = 16
 1286              		@ frame_needed = 0, uses_anonymous_args = 0
 1287 0000 10B5     		push	{r4, lr}
 1288 0002 84B0     		sub	sp, sp, #16
 1289 0004 002A     		cmp	r2, #0
 1290 0006 4FF00004 		mov	r4, #0
 1291 000a 08BF     		it	eq
 1292 000c 0122     		moveq	r2, #1
 1293 000e 0191     		str	r1, [sp, #4]
 1294 0010 0394     		str	r4, [sp, #12]
 1295              		.syntax unified
 1296              	@ 209 "../Drivers/CMSIS/Include/cmsis_gcc.h" 1
 1297 0012 EFF30583 		MRS r3, ipsr
 1298              	@ 0 "" 2
 1299              		.thumb
 1300              		.syntax unified
 1301 0016 9BB1     		cbz	r3, .L218
 1302 0018 2346     		mov	r3, r4
 1303 001a 03AA     		add	r2, sp, #12
 1304 001c 01A9     		add	r1, sp, #4
 1305 001e FFF7FEFF 		bl	xQueueGenericSendFromISR
 1306 0022 0128     		cmp	r0, #1
 1307 0024 11D1     		bne	.L219
 1308 0026 039B     		ldr	r3, [sp, #12]
 1309 0028 93B1     		cbz	r3, .L222
 1310 002a 0B4B     		ldr	r3, .L227
 1311 002c 4FF08052 		mov	r2, #268435456
 1312 0030 1A60     		str	r2, [r3]
 1313              		.syntax unified
ARM GAS  D:\Programs\cygwin64\tmp\ccsHavao.s 			page 23


 1314              	@ 1127 "../Middlewares/FreeRTOS/Source/CMSIS_RTOS/cmsis_os.c" 1
 1315 0032 BFF34F8F 		dsb
 1316              	@ 0 "" 2
 1317              	@ 1127 "../Middlewares/FreeRTOS/Source/CMSIS_RTOS/cmsis_os.c" 1
 1318 0036 BFF36F8F 		isb
 1319              	@ 0 "" 2
 1320              		.thumb
 1321              		.syntax unified
 1322 003a 2046     		mov	r0, r4
 1323 003c 04B0     		add	sp, sp, #16
 1324              		@ sp needed
 1325 003e 10BD     		pop	{r4, pc}
 1326              	.L218:
 1327 0040 01A9     		add	r1, sp, #4
 1328 0042 FFF7FEFF 		bl	xQueueGenericSend
 1329 0046 0128     		cmp	r0, #1
 1330 0048 02D0     		beq	.L222
 1331              	.L219:
 1332 004a FF20     		movs	r0, #255
 1333 004c 04B0     		add	sp, sp, #16
 1334              		@ sp needed
 1335 004e 10BD     		pop	{r4, pc}
 1336              	.L222:
 1337 0050 0020     		movs	r0, #0
 1338 0052 04B0     		add	sp, sp, #16
 1339              		@ sp needed
 1340 0054 10BD     		pop	{r4, pc}
 1341              	.L228:
 1342 0056 00BF     		.align	2
 1343              	.L227:
 1344 0058 04ED00E0 		.word	-536810236
 1346              		.section	.text.osMessageGet,"ax",%progbits
 1347              		.align	1
 1348              		.p2align 2,,3
 1349              		.global	osMessageGet
 1350              		.syntax unified
 1351              		.thumb
 1352              		.thumb_func
 1353              		.fpu fpv4-sp-d16
 1355              	osMessageGet:
 1356              		@ args = 0, pretend = 0, frame = 16
 1357              		@ frame_needed = 0, uses_anonymous_args = 0
 1358 0000 30B5     		push	{r4, r5, lr}
 1359 0002 85B0     		sub	sp, sp, #20
 1360 0004 0023     		movs	r3, #0
 1361 0006 0391     		str	r1, [sp, #12]
 1362 0008 0446     		mov	r4, r0
 1363 000a 0293     		str	r3, [sp, #8]
 1364 000c 69B3     		cbz	r1, .L243
 1365 000e 0093     		str	r3, [sp]
 1366              		.syntax unified
 1367              	@ 209 "../Drivers/CMSIS/Include/cmsis_gcc.h" 1
 1368 0010 EFF30583 		MRS r3, ipsr
 1369              	@ 0 "" 2
 1370              		.thumb
 1371              		.syntax unified
 1372 0014 9BB9     		cbnz	r3, .L244
ARM GAS  D:\Programs\cygwin64\tmp\ccsHavao.s 			page 24


 1373 0016 0846     		mov	r0, r1
 1374 0018 02A9     		add	r1, sp, #8
 1375 001a 1546     		mov	r5, r2
 1376 001c FFF7FEFF 		bl	xQueueReceive
 1377 0020 0128     		cmp	r0, #1
 1378 0022 2CD0     		beq	.L245
 1379 0024 002D     		cmp	r5, #0
 1380 0026 0CBF     		ite	eq
 1381 0028 0023     		moveq	r3, #0
 1382 002a 4023     		movne	r3, #64
 1383 002c 0193     		str	r3, [sp, #4]
 1384              	.L234:
 1385 002e 04AB     		add	r3, sp, #16
 1386 0030 13E90700 		ldmdb	r3, {r0, r1, r2}
 1387 0034 84E80700 		stm	r4, {r0, r1, r2}
 1388 0038 2046     		mov	r0, r4
 1389 003a 05B0     		add	sp, sp, #20
 1390              		@ sp needed
 1391 003c 30BD     		pop	{r4, r5, pc}
 1392              	.L244:
 1393 003e 6A46     		mov	r2, sp
 1394 0040 0846     		mov	r0, r1
 1395 0042 02A9     		add	r1, sp, #8
 1396 0044 FFF7FEFF 		bl	xQueueReceiveFromISR
 1397 0048 009B     		ldr	r3, [sp]
 1398 004a 0128     		cmp	r0, #1
 1399 004c 0CBF     		ite	eq
 1400 004e 1022     		moveq	r2, #16
 1401 0050 0022     		movne	r2, #0
 1402 0052 0192     		str	r2, [sp, #4]
 1403 0054 002B     		cmp	r3, #0
 1404 0056 EAD0     		beq	.L234
 1405 0058 0A4B     		ldr	r3, .L246
 1406 005a 4FF08052 		mov	r2, #268435456
 1407 005e 1A60     		str	r2, [r3]
 1408              		.syntax unified
 1409              	@ 1180 "../Middlewares/FreeRTOS/Source/CMSIS_RTOS/cmsis_os.c" 1
 1410 0060 BFF34F8F 		dsb
 1411              	@ 0 "" 2
 1412              	@ 1180 "../Middlewares/FreeRTOS/Source/CMSIS_RTOS/cmsis_os.c" 1
 1413 0064 BFF36F8F 		isb
 1414              	@ 0 "" 2
 1415              		.thumb
 1416              		.syntax unified
 1417 0068 E1E7     		b	.L234
 1418              	.L243:
 1419 006a 8023     		movs	r3, #128
 1420 006c 0193     		str	r3, [sp, #4]
 1421 006e 04AB     		add	r3, sp, #16
 1422 0070 13E90700 		ldmdb	r3, {r0, r1, r2}
 1423 0074 84E80700 		stm	r4, {r0, r1, r2}
 1424 0078 2046     		mov	r0, r4
 1425 007a 05B0     		add	sp, sp, #20
 1426              		@ sp needed
 1427 007c 30BD     		pop	{r4, r5, pc}
 1428              	.L245:
 1429 007e 1023     		movs	r3, #16
ARM GAS  D:\Programs\cygwin64\tmp\ccsHavao.s 			page 25


 1430 0080 0193     		str	r3, [sp, #4]
 1431 0082 D4E7     		b	.L234
 1432              	.L247:
 1433              		.align	2
 1434              	.L246:
 1435 0084 04ED00E0 		.word	-536810236
 1437              		.section	.text.osMailCreate,"ax",%progbits
 1438              		.align	1
 1439              		.p2align 2,,3
 1440              		.global	osMailCreate
 1441              		.syntax unified
 1442              		.thumb
 1443              		.thumb_func
 1444              		.fpu fpv4-sp-d16
 1446              	osMailCreate:
 1447              		@ args = 0, pretend = 0, frame = 16
 1448              		@ frame_needed = 0, uses_anonymous_args = 0
 1449 0000 70B5     		push	{r4, r5, r6, lr}
 1450 0002 D0E90032 		ldrd	r3, r2, [r0]
 1451 0006 84B0     		sub	sp, sp, #16
 1452 0008 0546     		mov	r5, r0
 1453 000a 0026     		movs	r6, #0
 1454 000c 0C20     		movs	r0, #12
 1455 000e AC68     		ldr	r4, [r5, #8]
 1456 0010 0193     		str	r3, [sp, #4]
 1457 0012 0292     		str	r2, [sp, #8]
 1458 0014 0396     		str	r6, [sp, #12]
 1459 0016 FFF7FEFF 		bl	pvPortMalloc
 1460 001a AB68     		ldr	r3, [r5, #8]
 1461 001c 2060     		str	r0, [r4]
 1462 001e 1C68     		ldr	r4, [r3]
 1463 0020 A4B1     		cbz	r4, .L251
 1464 0022 2560     		str	r5, [r4]
 1465 0024 3246     		mov	r2, r6
 1466 0026 0421     		movs	r1, #4
 1467 0028 2868     		ldr	r0, [r5]
 1468 002a FFF7FEFF 		bl	xQueueGenericCreate
 1469 002e AB68     		ldr	r3, [r5, #8]
 1470 0030 6060     		str	r0, [r4, #4]
 1471 0032 1E68     		ldr	r6, [r3]
 1472 0034 7468     		ldr	r4, [r6, #4]
 1473 0036 64B1     		cbz	r4, .L253
 1474 0038 01A8     		add	r0, sp, #4
 1475 003a FFF7FEFF 		bl	osPoolCreate
 1476 003e AB68     		ldr	r3, [r5, #8]
 1477 0040 B060     		str	r0, [r6, #8]
 1478 0042 1868     		ldr	r0, [r3]
 1479 0044 8468     		ldr	r4, [r0, #8]
 1480 0046 4CB1     		cbz	r4, .L254
 1481              	.L248:
 1482 0048 04B0     		add	sp, sp, #16
 1483              		@ sp needed
 1484 004a 70BD     		pop	{r4, r5, r6, pc}
 1485              	.L251:
 1486 004c 2046     		mov	r0, r4
 1487 004e 04B0     		add	sp, sp, #16
 1488              		@ sp needed
ARM GAS  D:\Programs\cygwin64\tmp\ccsHavao.s 			page 26


 1489 0050 70BD     		pop	{r4, r5, r6, pc}
 1490              	.L253:
 1491 0052 3046     		mov	r0, r6
 1492 0054 FFF7FEFF 		bl	vPortFree
 1493 0058 2046     		mov	r0, r4
 1494 005a F5E7     		b	.L248
 1495              	.L254:
 1496 005c FFF7FEFF 		bl	vPortFree
 1497 0060 2046     		mov	r0, r4
 1498 0062 F1E7     		b	.L248
 1500              		.section	.text.osMailAlloc,"ax",%progbits
 1501              		.align	1
 1502              		.p2align 2,,3
 1503              		.global	osMailAlloc
 1504              		.syntax unified
 1505              		.thumb
 1506              		.thumb_func
 1507              		.fpu fpv4-sp-d16
 1509              	osMailAlloc:
 1510              		@ args = 0, pretend = 0, frame = 0
 1511              		@ frame_needed = 0, uses_anonymous_args = 0
 1512 0000 F8B5     		push	{r3, r4, r5, r6, r7, lr}
 1513 0002 0028     		cmp	r0, #0
 1514 0004 3CD0     		beq	.L264
 1515 0006 8568     		ldr	r5, [r0, #8]
 1516              		.syntax unified
 1517              	@ 209 "../Drivers/CMSIS/Include/cmsis_gcc.h" 1
 1518 0008 EFF30586 		MRS r6, ipsr
 1519              	@ 0 "" 2
 1520              		.thumb
 1521              		.syntax unified
 1522 000c 002E     		cmp	r6, #0
 1523 000e 34D0     		beq	.L257
 1524              		.syntax unified
 1525              	@ 211 "../Middlewares/FreeRTOS/Source/portable/GCC/ARM_CM4F/portmacro.h" 1
 1526 0010 EFF31186 			mrs r6, basepri											
 1527 0014 4FF05003 		mov r3, #80												
 1528 0018 83F31188 		msr basepri, r3											
 1529 001c BFF36F8F 		isb														
 1530 0020 BFF34F8F 		dsb														
 1531              	
 1532              	@ 0 "" 2
 1533              		.thumb
 1534              		.syntax unified
 1535              	.L258:
 1536 0024 A868     		ldr	r0, [r5, #8]
 1537 0026 70B3     		cbz	r0, .L265
 1538 0028 2A69     		ldr	r2, [r5, #16]
 1539 002a 6C68     		ldr	r4, [r5, #4]
 1540 002c 02EB000C 		add	ip, r2, r0
 1541 0030 01E0     		b	.L262
 1542              	.L261:
 1543 0032 9445     		cmp	ip, r2
 1544 0034 18D0     		beq	.L269
 1545              	.L262:
 1546 0036 9042     		cmp	r0, r2
 1547 0038 8ABF     		itet	hi
ARM GAS  D:\Programs\cygwin64\tmp\ccsHavao.s 			page 27


 1548 003a A118     		addhi	r1, r4, r2
 1549 003c 2146     		movls	r1, r4
 1550 003e 1346     		movhi	r3, r2
 1551 0040 0F78     		ldrb	r7, [r1]	@ zero_extendqisi2
 1552 0042 98BF     		it	ls
 1553 0044 0023     		movls	r3, #0
 1554 0046 0132     		adds	r2, r2, #1
 1555 0048 002F     		cmp	r7, #0
 1556 004a F2D1     		bne	.L261
 1557 004c 0122     		movs	r2, #1
 1558 004e 0A70     		strb	r2, [r1]
 1559 0050 EC68     		ldr	r4, [r5, #12]
 1560 0052 2868     		ldr	r0, [r5]
 1561 0054 2B61     		str	r3, [r5, #16]
 1562 0056 04FB0304 		mla	r4, r4, r3, r0
 1563              	.L259:
 1564              		.syntax unified
 1565              	@ 209 "../Drivers/CMSIS/Include/cmsis_gcc.h" 1
 1566 005a EFF30583 		MRS r3, ipsr
 1567              	@ 0 "" 2
 1568              		.thumb
 1569              		.syntax unified
 1570 005e 43B1     		cbz	r3, .L263
 1571              	.L270:
 1572              		.syntax unified
 1573              	@ 229 "../Middlewares/FreeRTOS/Source/portable/GCC/ARM_CM4F/portmacro.h" 1
 1574 0060 86F31188 			msr basepri, r6	
 1575              	@ 0 "" 2
 1576              		.thumb
 1577              		.syntax unified
 1578 0064 2046     		mov	r0, r4
 1579 0066 F8BD     		pop	{r3, r4, r5, r6, r7, pc}
 1580              	.L269:
 1581 0068 0024     		movs	r4, #0
 1582              		.syntax unified
 1583              	@ 209 "../Drivers/CMSIS/Include/cmsis_gcc.h" 1
 1584 006a EFF30583 		MRS r3, ipsr
 1585              	@ 0 "" 2
 1586              		.thumb
 1587              		.syntax unified
 1588 006e 002B     		cmp	r3, #0
 1589 0070 F6D1     		bne	.L270
 1590              	.L263:
 1591 0072 FFF7FEFF 		bl	vPortExitCritical
 1592 0076 2046     		mov	r0, r4
 1593 0078 F8BD     		pop	{r3, r4, r5, r6, r7, pc}
 1594              	.L257:
 1595 007a FFF7FEFF 		bl	vPortEnterCritical
 1596 007e D1E7     		b	.L258
 1597              	.L264:
 1598 0080 0446     		mov	r4, r0
 1599 0082 2046     		mov	r0, r4
 1600 0084 F8BD     		pop	{r3, r4, r5, r6, r7, pc}
 1601              	.L265:
 1602 0086 0446     		mov	r4, r0
 1603 0088 E7E7     		b	.L259
 1605 008a 00BF     		.section	.text.osMailCAlloc,"ax",%progbits
ARM GAS  D:\Programs\cygwin64\tmp\ccsHavao.s 			page 28


 1606              		.align	1
 1607              		.p2align 2,,3
 1608              		.global	osMailCAlloc
 1609              		.syntax unified
 1610              		.thumb
 1611              		.thumb_func
 1612              		.fpu fpv4-sp-d16
 1614              	osMailCAlloc:
 1615              		@ args = 0, pretend = 0, frame = 0
 1616              		@ frame_needed = 0, uses_anonymous_args = 0
 1617 0000 2DE9F843 		push	{r3, r4, r5, r6, r7, r8, r9, lr}
 1618 0004 0028     		cmp	r0, #0
 1619 0006 49D0     		beq	.L282
 1620 0008 0546     		mov	r5, r0
 1621 000a D0F80880 		ldr	r8, [r0, #8]
 1622              		.syntax unified
 1623              	@ 209 "../Drivers/CMSIS/Include/cmsis_gcc.h" 1
 1624 000e EFF30589 		MRS r9, ipsr
 1625              	@ 0 "" 2
 1626              		.thumb
 1627              		.syntax unified
 1628 0012 B9F1000F 		cmp	r9, #0
 1629 0016 4DD0     		beq	.L274
 1630              		.syntax unified
 1631              	@ 211 "../Middlewares/FreeRTOS/Source/portable/GCC/ARM_CM4F/portmacro.h" 1
 1632 0018 EFF31189 			mrs r9, basepri											
 1633 001c 4FF05003 		mov r3, #80												
 1634 0020 83F31188 		msr basepri, r3											
 1635 0024 BFF36F8F 		isb														
 1636 0028 BFF34F8F 		dsb														
 1637              	
 1638              	@ 0 "" 2
 1639              		.thumb
 1640              		.syntax unified
 1641              	.L275:
 1642 002c D8F80800 		ldr	r0, [r8, #8]
 1643 0030 0028     		cmp	r0, #0
 1644 0032 42D0     		beq	.L284
 1645 0034 D8F81030 		ldr	r3, [r8, #16]
 1646 0038 D8F80460 		ldr	r6, [r8, #4]
 1647 003c C718     		adds	r7, r0, r3
 1648 003e 01E0     		b	.L279
 1649              	.L278:
 1650 0040 BB42     		cmp	r3, r7
 1651 0042 2FD0     		beq	.L295
 1652              	.L279:
 1653 0044 9842     		cmp	r0, r3
 1654 0046 8ABF     		itet	hi
 1655 0048 F218     		addhi	r2, r6, r3
 1656 004a 3246     		movls	r2, r6
 1657 004c 1C46     		movhi	r4, r3
 1658 004e 1178     		ldrb	r1, [r2]	@ zero_extendqisi2
 1659 0050 98BF     		it	ls
 1660 0052 0024     		movls	r4, #0
 1661 0054 0133     		adds	r3, r3, #1
 1662 0056 0029     		cmp	r1, #0
 1663 0058 F2D1     		bne	.L278
ARM GAS  D:\Programs\cygwin64\tmp\ccsHavao.s 			page 29


 1664 005a 0123     		movs	r3, #1
 1665 005c 1370     		strb	r3, [r2]
 1666 005e D8F80C30 		ldr	r3, [r8, #12]
 1667 0062 D8F80000 		ldr	r0, [r8]
 1668 0066 C8F81040 		str	r4, [r8, #16]
 1669 006a 03FB0404 		mla	r4, r3, r4, r0
 1670              	.L276:
 1671              		.syntax unified
 1672              	@ 209 "../Drivers/CMSIS/Include/cmsis_gcc.h" 1
 1673 006e EFF30583 		MRS r3, ipsr
 1674              	@ 0 "" 2
 1675              		.thumb
 1676              		.syntax unified
 1677 0072 E3B1     		cbz	r3, .L280
 1678              	.L296:
 1679              		.syntax unified
 1680              	@ 229 "../Middlewares/FreeRTOS/Source/portable/GCC/ARM_CM4F/portmacro.h" 1
 1681 0074 89F31188 			msr basepri, r9	
 1682              	@ 0 "" 2
 1683              		.thumb
 1684              		.syntax unified
 1685              	.L281:
 1686 0078 84B1     		cbz	r4, .L282
 1687 007a 2B68     		ldr	r3, [r5]
 1688 007c 5B68     		ldr	r3, [r3, #4]
 1689 007e 53B1     		cbz	r3, .L271
 1690 0080 631E     		subs	r3, r4, #1
 1691 0082 0020     		movs	r0, #0
 1692              	.L283:
 1693 0084 5870     		strb	r0, [r3, #1]
 1694 0086 2968     		ldr	r1, [r5]
 1695 0088 9A1C     		adds	r2, r3, #2
 1696 008a 4968     		ldr	r1, [r1, #4]
 1697 008c 121B     		subs	r2, r2, r4
 1698 008e 9142     		cmp	r1, r2
 1699 0090 03F10103 		add	r3, r3, #1
 1700 0094 F6D8     		bhi	.L283
 1701              	.L271:
 1702 0096 2046     		mov	r0, r4
 1703 0098 BDE8F883 		pop	{r3, r4, r5, r6, r7, r8, r9, pc}
 1704              	.L282:
 1705 009c 0024     		movs	r4, #0
 1706 009e 2046     		mov	r0, r4
 1707 00a0 BDE8F883 		pop	{r3, r4, r5, r6, r7, r8, r9, pc}
 1708              	.L295:
 1709 00a4 0024     		movs	r4, #0
 1710              		.syntax unified
 1711              	@ 209 "../Drivers/CMSIS/Include/cmsis_gcc.h" 1
 1712 00a6 EFF30583 		MRS r3, ipsr
 1713              	@ 0 "" 2
 1714              		.thumb
 1715              		.syntax unified
 1716 00aa 002B     		cmp	r3, #0
 1717 00ac E2D1     		bne	.L296
 1718              	.L280:
 1719 00ae FFF7FEFF 		bl	vPortExitCritical
 1720 00b2 E1E7     		b	.L281
ARM GAS  D:\Programs\cygwin64\tmp\ccsHavao.s 			page 30


 1721              	.L274:
 1722 00b4 FFF7FEFF 		bl	vPortEnterCritical
 1723 00b8 B8E7     		b	.L275
 1724              	.L284:
 1725 00ba 0446     		mov	r4, r0
 1726 00bc D7E7     		b	.L276
 1728 00be 00BF     		.section	.text.osMailPut,"ax",%progbits
 1729              		.align	1
 1730              		.p2align 2,,3
 1731              		.global	osMailPut
 1732              		.syntax unified
 1733              		.thumb
 1734              		.thumb_func
 1735              		.fpu fpv4-sp-d16
 1737              	osMailPut:
 1738              		@ args = 0, pretend = 0, frame = 16
 1739              		@ frame_needed = 0, uses_anonymous_args = 0
 1740 0000 10B5     		push	{r4, lr}
 1741 0002 84B0     		sub	sp, sp, #16
 1742 0004 0191     		str	r1, [sp, #4]
 1743 0006 30B3     		cbz	r0, .L303
 1744 0008 0024     		movs	r4, #0
 1745 000a 0394     		str	r4, [sp, #12]
 1746              		.syntax unified
 1747              	@ 209 "../Drivers/CMSIS/Include/cmsis_gcc.h" 1
 1748 000c EFF30583 		MRS r3, ipsr
 1749              	@ 0 "" 2
 1750              		.thumb
 1751              		.syntax unified
 1752 0010 4068     		ldr	r0, [r0, #4]
 1753 0012 43B9     		cbnz	r3, .L308
 1754 0014 1A46     		mov	r2, r3
 1755 0016 01A9     		add	r1, sp, #4
 1756 0018 FFF7FEFF 		bl	xQueueGenericSend
 1757 001c 0128     		cmp	r0, #1
 1758 001e 17D1     		bne	.L302
 1759              	.L301:
 1760 0020 0020     		movs	r0, #0
 1761 0022 04B0     		add	sp, sp, #16
 1762              		@ sp needed
 1763 0024 10BD     		pop	{r4, pc}
 1764              	.L308:
 1765 0026 2346     		mov	r3, r4
 1766 0028 03AA     		add	r2, sp, #12
 1767 002a 01A9     		add	r1, sp, #4
 1768 002c FFF7FEFF 		bl	xQueueGenericSendFromISR
 1769 0030 0128     		cmp	r0, #1
 1770 0032 0DD1     		bne	.L302
 1771 0034 039B     		ldr	r3, [sp, #12]
 1772 0036 002B     		cmp	r3, #0
 1773 0038 F2D0     		beq	.L301
 1774 003a 084B     		ldr	r3, .L309
 1775 003c 4FF08052 		mov	r2, #268435456
 1776 0040 1A60     		str	r2, [r3]
 1777              		.syntax unified
 1778              	@ 1318 "../Middlewares/FreeRTOS/Source/CMSIS_RTOS/cmsis_os.c" 1
 1779 0042 BFF34F8F 		dsb
ARM GAS  D:\Programs\cygwin64\tmp\ccsHavao.s 			page 31


 1780              	@ 0 "" 2
 1781              	@ 1318 "../Middlewares/FreeRTOS/Source/CMSIS_RTOS/cmsis_os.c" 1
 1782 0046 BFF36F8F 		isb
 1783              	@ 0 "" 2
 1784              		.thumb
 1785              		.syntax unified
 1786 004a 2046     		mov	r0, r4
 1787 004c 04B0     		add	sp, sp, #16
 1788              		@ sp needed
 1789 004e 10BD     		pop	{r4, pc}
 1790              	.L302:
 1791 0050 FF20     		movs	r0, #255
 1792 0052 04B0     		add	sp, sp, #16
 1793              		@ sp needed
 1794 0054 10BD     		pop	{r4, pc}
 1795              	.L303:
 1796 0056 8020     		movs	r0, #128
 1797 0058 04B0     		add	sp, sp, #16
 1798              		@ sp needed
 1799 005a 10BD     		pop	{r4, pc}
 1800              	.L310:
 1801              		.align	2
 1802              	.L309:
 1803 005c 04ED00E0 		.word	-536810236
 1805              		.section	.text.osMailGet,"ax",%progbits
 1806              		.align	1
 1807              		.p2align 2,,3
 1808              		.global	osMailGet
 1809              		.syntax unified
 1810              		.thumb
 1811              		.thumb_func
 1812              		.fpu fpv4-sp-d16
 1814              	osMailGet:
 1815              		@ args = 0, pretend = 0, frame = 16
 1816              		@ frame_needed = 0, uses_anonymous_args = 0
 1817 0000 30B5     		push	{r4, r5, lr}
 1818 0002 85B0     		sub	sp, sp, #20
 1819 0004 0446     		mov	r4, r0
 1820 0006 0391     		str	r1, [sp, #12]
 1821 0008 0029     		cmp	r1, #0
 1822 000a 2DD0     		beq	.L325
 1823 000c 0023     		movs	r3, #0
 1824 000e 0093     		str	r3, [sp]
 1825              		.syntax unified
 1826              	@ 209 "../Drivers/CMSIS/Include/cmsis_gcc.h" 1
 1827 0010 EFF30583 		MRS r3, ipsr
 1828              	@ 0 "" 2
 1829              		.thumb
 1830              		.syntax unified
 1831 0014 4868     		ldr	r0, [r1, #4]
 1832 0016 93B9     		cbnz	r3, .L326
 1833 0018 02A9     		add	r1, sp, #8
 1834 001a 1546     		mov	r5, r2
 1835 001c FFF7FEFF 		bl	xQueueReceive
 1836 0020 0128     		cmp	r0, #1
 1837 0022 2BD0     		beq	.L327
 1838 0024 002D     		cmp	r5, #0
ARM GAS  D:\Programs\cygwin64\tmp\ccsHavao.s 			page 32


 1839 0026 0CBF     		ite	eq
 1840 0028 0023     		moveq	r3, #0
 1841 002a 4023     		movne	r3, #64
 1842 002c 0193     		str	r3, [sp, #4]
 1843              	.L316:
 1844 002e 04AB     		add	r3, sp, #16
 1845 0030 13E90700 		ldmdb	r3, {r0, r1, r2}
 1846 0034 84E80700 		stm	r4, {r0, r1, r2}
 1847 0038 2046     		mov	r0, r4
 1848 003a 05B0     		add	sp, sp, #20
 1849              		@ sp needed
 1850 003c 30BD     		pop	{r4, r5, pc}
 1851              	.L326:
 1852 003e 6A46     		mov	r2, sp
 1853 0040 02A9     		add	r1, sp, #8
 1854 0042 FFF7FEFF 		bl	xQueueReceiveFromISR
 1855 0046 009B     		ldr	r3, [sp]
 1856 0048 0128     		cmp	r0, #1
 1857 004a 0CBF     		ite	eq
 1858 004c 2022     		moveq	r2, #32
 1859 004e 0022     		movne	r2, #0
 1860 0050 0192     		str	r2, [sp, #4]
 1861 0052 002B     		cmp	r3, #0
 1862 0054 EBD0     		beq	.L316
 1863 0056 0B4B     		ldr	r3, .L328
 1864 0058 4FF08052 		mov	r2, #268435456
 1865 005c 1A60     		str	r2, [r3]
 1866              		.syntax unified
 1867              	@ 1370 "../Middlewares/FreeRTOS/Source/CMSIS_RTOS/cmsis_os.c" 1
 1868 005e BFF34F8F 		dsb
 1869              	@ 0 "" 2
 1870              	@ 1370 "../Middlewares/FreeRTOS/Source/CMSIS_RTOS/cmsis_os.c" 1
 1871 0062 BFF36F8F 		isb
 1872              	@ 0 "" 2
 1873              		.thumb
 1874              		.syntax unified
 1875 0066 E2E7     		b	.L316
 1876              	.L325:
 1877 0068 8023     		movs	r3, #128
 1878 006a 0193     		str	r3, [sp, #4]
 1879 006c 04AB     		add	r3, sp, #16
 1880 006e 13E90700 		ldmdb	r3, {r0, r1, r2}
 1881 0072 84E80700 		stm	r4, {r0, r1, r2}
 1882 0076 2046     		mov	r0, r4
 1883 0078 05B0     		add	sp, sp, #20
 1884              		@ sp needed
 1885 007a 30BD     		pop	{r4, r5, pc}
 1886              	.L327:
 1887 007c 2023     		movs	r3, #32
 1888 007e 0193     		str	r3, [sp, #4]
 1889 0080 D5E7     		b	.L316
 1890              	.L329:
 1891 0082 00BF     		.align	2
 1892              	.L328:
 1893 0084 04ED00E0 		.word	-536810236
 1895              		.section	.text.osMailFree,"ax",%progbits
 1896              		.align	1
ARM GAS  D:\Programs\cygwin64\tmp\ccsHavao.s 			page 33


 1897              		.p2align 2,,3
 1898              		.global	osMailFree
 1899              		.syntax unified
 1900              		.thumb
 1901              		.thumb_func
 1902              		.fpu fpv4-sp-d16
 1904              	osMailFree:
 1905              		@ args = 0, pretend = 0, frame = 0
 1906              		@ frame_needed = 0, uses_anonymous_args = 0
 1907              		@ link register save eliminated.
 1908 0000 D0B1     		cbz	r0, .L335
 1909 0002 8368     		ldr	r3, [r0, #8]
 1910 0004 C3B1     		cbz	r3, .L335
 1911 0006 B9B1     		cbz	r1, .L335
 1912 0008 1868     		ldr	r0, [r3]
 1913 000a 8142     		cmp	r1, r0
 1914 000c 14D3     		bcc	.L335
 1915 000e DA68     		ldr	r2, [r3, #12]
 1916 0010 091A     		subs	r1, r1, r0
 1917 0012 10B4     		push	{r4}
 1918 0014 B1FBF2F4 		udiv	r4, r1, r2
 1919 0018 02FB1411 		mls	r1, r2, r4, r1
 1920 001c 41B9     		cbnz	r1, .L337
 1921 001e 9A68     		ldr	r2, [r3, #8]
 1922 0020 9442     		cmp	r4, r2
 1923 0022 05D2     		bcs	.L337
 1924 0024 5B68     		ldr	r3, [r3, #4]
 1925 0026 1955     		strb	r1, [r3, r4]
 1926 0028 0846     		mov	r0, r1
 1927 002a 5DF8044B 		ldr	r4, [sp], #4
 1928 002e 7047     		bx	lr
 1929              	.L337:
 1930 0030 8020     		movs	r0, #128
 1931 0032 5DF8044B 		ldr	r4, [sp], #4
 1932 0036 7047     		bx	lr
 1933              	.L335:
 1934 0038 8020     		movs	r0, #128
 1935 003a 7047     		bx	lr
 1937              		.section	.text.osSystickHandler,"ax",%progbits
 1938              		.align	1
 1939              		.p2align 2,,3
 1940              		.global	osSystickHandler
 1941              		.syntax unified
 1942              		.thumb
 1943              		.thumb_func
 1944              		.fpu fpv4-sp-d16
 1946              	osSystickHandler:
 1947              		@ args = 0, pretend = 0, frame = 0
 1948              		@ frame_needed = 0, uses_anonymous_args = 0
 1949 0000 08B5     		push	{r3, lr}
 1950 0002 FFF7FEFF 		bl	xTaskGetSchedulerState
 1951 0006 0128     		cmp	r0, #1
 1952 0008 00D1     		bne	.L345
 1953 000a 08BD     		pop	{r3, pc}
 1954              	.L345:
 1955 000c BDE80840 		pop	{r3, lr}
 1956 0010 FFF7FEBF 		b	SysTick_Handler
ARM GAS  D:\Programs\cygwin64\tmp\ccsHavao.s 			page 34


 1958              		.section	.text.osThreadSuspend,"ax",%progbits
 1959              		.align	1
 1960              		.p2align 2,,3
 1961              		.global	osThreadSuspend
 1962              		.syntax unified
 1963              		.thumb
 1964              		.thumb_func
 1965              		.fpu fpv4-sp-d16
 1967              	osThreadSuspend:
 1968              		@ args = 0, pretend = 0, frame = 0
 1969              		@ frame_needed = 0, uses_anonymous_args = 0
 1970 0000 08B5     		push	{r3, lr}
 1971 0002 FFF7FEFF 		bl	vTaskSuspend
 1972 0006 0020     		movs	r0, #0
 1973 0008 08BD     		pop	{r3, pc}
 1975 000a 00BF     		.section	.text.osThreadResume,"ax",%progbits
 1976              		.align	1
 1977              		.p2align 2,,3
 1978              		.global	osThreadResume
 1979              		.syntax unified
 1980              		.thumb
 1981              		.thumb_func
 1982              		.fpu fpv4-sp-d16
 1984              	osThreadResume:
 1985              		@ args = 0, pretend = 0, frame = 0
 1986              		@ frame_needed = 0, uses_anonymous_args = 0
 1987 0000 08B5     		push	{r3, lr}
 1988              		.syntax unified
 1989              	@ 209 "../Drivers/CMSIS/Include/cmsis_gcc.h" 1
 1990 0002 EFF30583 		MRS r3, ipsr
 1991              	@ 0 "" 2
 1992              		.thumb
 1993              		.syntax unified
 1994 0006 2BB1     		cbz	r3, .L349
 1995 0008 FFF7FEFF 		bl	xTaskResumeFromISR
 1996 000c 0128     		cmp	r0, #1
 1997 000e 05D0     		beq	.L352
 1998 0010 0020     		movs	r0, #0
 1999 0012 08BD     		pop	{r3, pc}
 2000              	.L349:
 2001 0014 FFF7FEFF 		bl	vTaskResume
 2002 0018 0020     		movs	r0, #0
 2003 001a 08BD     		pop	{r3, pc}
 2004              	.L352:
 2005 001c 044B     		ldr	r3, .L353
 2006 001e 4FF08052 		mov	r2, #268435456
 2007 0022 1A60     		str	r2, [r3]
 2008              		.syntax unified
 2009              	@ 1501 "../Middlewares/FreeRTOS/Source/CMSIS_RTOS/cmsis_os.c" 1
 2010 0024 BFF34F8F 		dsb
 2011              	@ 0 "" 2
 2012              	@ 1501 "../Middlewares/FreeRTOS/Source/CMSIS_RTOS/cmsis_os.c" 1
 2013 0028 BFF36F8F 		isb
 2014              	@ 0 "" 2
 2015              		.thumb
 2016              		.syntax unified
 2017 002c 0020     		movs	r0, #0
ARM GAS  D:\Programs\cygwin64\tmp\ccsHavao.s 			page 35


 2018 002e 08BD     		pop	{r3, pc}
 2019              	.L354:
 2020              		.align	2
 2021              	.L353:
 2022 0030 04ED00E0 		.word	-536810236
 2024              		.section	.text.osThreadSuspendAll,"ax",%progbits
 2025              		.align	1
 2026              		.p2align 2,,3
 2027              		.global	osThreadSuspendAll
 2028              		.syntax unified
 2029              		.thumb
 2030              		.thumb_func
 2031              		.fpu fpv4-sp-d16
 2033              	osThreadSuspendAll:
 2034              		@ args = 0, pretend = 0, frame = 0
 2035              		@ frame_needed = 0, uses_anonymous_args = 0
 2036 0000 08B5     		push	{r3, lr}
 2037 0002 FFF7FEFF 		bl	vTaskSuspendAll
 2038 0006 0020     		movs	r0, #0
 2039 0008 08BD     		pop	{r3, pc}
 2041 000a 00BF     		.section	.text.osThreadResumeAll,"ax",%progbits
 2042              		.align	1
 2043              		.p2align 2,,3
 2044              		.global	osThreadResumeAll
 2045              		.syntax unified
 2046              		.thumb
 2047              		.thumb_func
 2048              		.fpu fpv4-sp-d16
 2050              	osThreadResumeAll:
 2051              		@ args = 0, pretend = 0, frame = 0
 2052              		@ frame_needed = 0, uses_anonymous_args = 0
 2053 0000 08B5     		push	{r3, lr}
 2054 0002 FFF7FEFF 		bl	xTaskResumeAll
 2055 0006 0128     		cmp	r0, #1
 2056 0008 14BF     		ite	ne
 2057 000a FF20     		movne	r0, #255
 2058 000c 0020     		moveq	r0, #0
 2059 000e 08BD     		pop	{r3, pc}
 2061              		.section	.text.osDelayUntil,"ax",%progbits
 2062              		.align	1
 2063              		.p2align 2,,3
 2064              		.global	osDelayUntil
 2065              		.syntax unified
 2066              		.thumb
 2067              		.thumb_func
 2068              		.fpu fpv4-sp-d16
 2070              	osDelayUntil:
 2071              		@ args = 0, pretend = 0, frame = 0
 2072              		@ frame_needed = 0, uses_anonymous_args = 0
 2073 0000 08B5     		push	{r3, lr}
 2074 0002 0029     		cmp	r1, #0
 2075 0004 08BF     		it	eq
 2076 0006 0121     		moveq	r1, #1
 2077 0008 FFF7FEFF 		bl	vTaskDelayUntil
 2078 000c 0020     		movs	r0, #0
 2079 000e 08BD     		pop	{r3, pc}
 2081              		.section	.text.osAbortDelay,"ax",%progbits
ARM GAS  D:\Programs\cygwin64\tmp\ccsHavao.s 			page 36


 2082              		.align	1
 2083              		.p2align 2,,3
 2084              		.global	osAbortDelay
 2085              		.syntax unified
 2086              		.thumb
 2087              		.thumb_func
 2088              		.fpu fpv4-sp-d16
 2090              	osAbortDelay:
 2091              		@ args = 0, pretend = 0, frame = 0
 2092              		@ frame_needed = 0, uses_anonymous_args = 0
 2093              		@ link register save eliminated.
 2094 0000 8120     		movs	r0, #129
 2095 0002 7047     		bx	lr
 2097              		.section	.text.osThreadList,"ax",%progbits
 2098              		.align	1
 2099              		.p2align 2,,3
 2100              		.global	osThreadList
 2101              		.syntax unified
 2102              		.thumb
 2103              		.thumb_func
 2104              		.fpu fpv4-sp-d16
 2106              	osThreadList:
 2107              		@ args = 0, pretend = 0, frame = 0
 2108              		@ frame_needed = 0, uses_anonymous_args = 0
 2109              		@ link register save eliminated.
 2110 0000 0020     		movs	r0, #0
 2111 0002 7047     		bx	lr
 2113              		.section	.text.osMessagePeek,"ax",%progbits
 2114              		.align	1
 2115              		.p2align 2,,3
 2116              		.global	osMessagePeek
 2117              		.syntax unified
 2118              		.thumb
 2119              		.thumb_func
 2120              		.fpu fpv4-sp-d16
 2122              	osMessagePeek:
 2123              		@ args = 0, pretend = 0, frame = 16
 2124              		@ frame_needed = 0, uses_anonymous_args = 0
 2125 0000 30B5     		push	{r4, r5, lr}
 2126 0002 85B0     		sub	sp, sp, #20
 2127 0004 0446     		mov	r4, r0
 2128 0006 0391     		str	r1, [sp, #12]
 2129 0008 C9B1     		cbz	r1, .L382
 2130 000a 531C     		adds	r3, r2, #1
 2131 000c 0846     		mov	r0, r1
 2132 000e 1546     		mov	r5, r2
 2133 0010 02A9     		add	r1, sp, #8
 2134 0012 00D0     		beq	.L381
 2135 0014 6AB1     		cbz	r2, .L383
 2136              	.L381:
 2137 0016 FFF7FEFF 		bl	xQueuePeek
 2138 001a 0128     		cmp	r0, #1
 2139 001c 0DD0     		beq	.L370
 2140 001e 4025     		movs	r5, #64
 2141              	.L371:
 2142 0020 0195     		str	r5, [sp, #4]
 2143 0022 04AB     		add	r3, sp, #16
ARM GAS  D:\Programs\cygwin64\tmp\ccsHavao.s 			page 37


 2144 0024 13E90700 		ldmdb	r3, {r0, r1, r2}
 2145 0028 84E80700 		stm	r4, {r0, r1, r2}
 2146 002c 2046     		mov	r0, r4
 2147 002e 05B0     		add	sp, sp, #20
 2148              		@ sp needed
 2149 0030 30BD     		pop	{r4, r5, pc}
 2150              	.L383:
 2151 0032 FFF7FEFF 		bl	xQueuePeek
 2152 0036 0128     		cmp	r0, #1
 2153 0038 F2D1     		bne	.L371
 2154              	.L370:
 2155 003a 1025     		movs	r5, #16
 2156 003c F0E7     		b	.L371
 2157              	.L382:
 2158 003e 8023     		movs	r3, #128
 2159 0040 0193     		str	r3, [sp, #4]
 2160 0042 04AB     		add	r3, sp, #16
 2161 0044 13E90700 		ldmdb	r3, {r0, r1, r2}
 2162 0048 84E80700 		stm	r4, {r0, r1, r2}
 2163 004c 2046     		mov	r0, r4
 2164 004e 05B0     		add	sp, sp, #20
 2165              		@ sp needed
 2166 0050 30BD     		pop	{r4, r5, pc}
 2168 0052 00BF     		.section	.text.osMessageWaiting,"ax",%progbits
 2169              		.align	1
 2170              		.p2align 2,,3
 2171              		.global	osMessageWaiting
 2172              		.syntax unified
 2173              		.thumb
 2174              		.thumb_func
 2175              		.fpu fpv4-sp-d16
 2177              	osMessageWaiting:
 2178              		@ args = 0, pretend = 0, frame = 0
 2179              		@ frame_needed = 0, uses_anonymous_args = 0
 2180              		@ link register save eliminated.
 2181              		.syntax unified
 2182              	@ 209 "../Drivers/CMSIS/Include/cmsis_gcc.h" 1
 2183 0000 EFF30583 		MRS r3, ipsr
 2184              	@ 0 "" 2
 2185              		.thumb
 2186              		.syntax unified
 2187 0004 0BB1     		cbz	r3, .L385
 2188 0006 FFF7FEBF 		b	uxQueueMessagesWaitingFromISR
 2189              	.L385:
 2190 000a FFF7FEBF 		b	uxQueueMessagesWaiting
 2192 000e 00BF     		.section	.text.osMessageAvailableSpace,"ax",%progbits
 2193              		.align	1
 2194              		.p2align 2,,3
 2195              		.global	osMessageAvailableSpace
 2196              		.syntax unified
 2197              		.thumb
 2198              		.thumb_func
 2199              		.fpu fpv4-sp-d16
 2201              	osMessageAvailableSpace:
 2202              		@ args = 0, pretend = 0, frame = 0
 2203              		@ frame_needed = 0, uses_anonymous_args = 0
 2204              		@ link register save eliminated.
ARM GAS  D:\Programs\cygwin64\tmp\ccsHavao.s 			page 38


 2205 0000 FFF7FEBF 		b	uxQueueSpacesAvailable
 2207              		.section	.text.osMessageDelete,"ax",%progbits
 2208              		.align	1
 2209              		.p2align 2,,3
 2210              		.global	osMessageDelete
 2211              		.syntax unified
 2212              		.thumb
 2213              		.thumb_func
 2214              		.fpu fpv4-sp-d16
 2216              	osMessageDelete:
 2217              		@ args = 0, pretend = 0, frame = 0
 2218              		@ frame_needed = 0, uses_anonymous_args = 0
 2219 0000 10B5     		push	{r4, lr}
 2220              		.syntax unified
 2221              	@ 209 "../Drivers/CMSIS/Include/cmsis_gcc.h" 1
 2222 0002 EFF30584 		MRS r4, ipsr
 2223              	@ 0 "" 2
 2224              		.thumb
 2225              		.syntax unified
 2226 0006 1CB9     		cbnz	r4, .L389
 2227 0008 FFF7FEFF 		bl	vQueueDelete
 2228 000c 2046     		mov	r0, r4
 2229 000e 10BD     		pop	{r4, pc}
 2230              	.L389:
 2231 0010 8220     		movs	r0, #130
 2232 0012 10BD     		pop	{r4, pc}
 2234              		.section	.text.osRecursiveMutexCreate,"ax",%progbits
 2235              		.align	1
 2236              		.p2align 2,,3
 2237              		.global	osRecursiveMutexCreate
 2238              		.syntax unified
 2239              		.thumb
 2240              		.thumb_func
 2241              		.fpu fpv4-sp-d16
 2243              	osRecursiveMutexCreate:
 2244              		@ args = 0, pretend = 0, frame = 0
 2245              		@ frame_needed = 0, uses_anonymous_args = 0
 2246              		@ link register save eliminated.
 2247 0000 0420     		movs	r0, #4
 2248 0002 FFF7FEBF 		b	xQueueCreateMutex
 2250 0006 00BF     		.section	.text.osRecursiveMutexRelease,"ax",%progbits
 2251              		.align	1
 2252              		.p2align 2,,3
 2253              		.global	osRecursiveMutexRelease
 2254              		.syntax unified
 2255              		.thumb
 2256              		.thumb_func
 2257              		.fpu fpv4-sp-d16
 2259              	osRecursiveMutexRelease:
 2260              		@ args = 0, pretend = 0, frame = 0
 2261              		@ frame_needed = 0, uses_anonymous_args = 0
 2262 0000 08B5     		push	{r3, lr}
 2263 0002 FFF7FEFF 		bl	xQueueGiveMutexRecursive
 2264 0006 0128     		cmp	r0, #1
 2265 0008 14BF     		ite	ne
 2266 000a FF20     		movne	r0, #255
 2267 000c 0020     		moveq	r0, #0
ARM GAS  D:\Programs\cygwin64\tmp\ccsHavao.s 			page 39


 2268 000e 08BD     		pop	{r3, pc}
 2270              		.section	.text.osRecursiveMutexWait,"ax",%progbits
 2271              		.align	1
 2272              		.p2align 2,,3
 2273              		.global	osRecursiveMutexWait
 2274              		.syntax unified
 2275              		.thumb
 2276              		.thumb_func
 2277              		.fpu fpv4-sp-d16
 2279              	osRecursiveMutexWait:
 2280              		@ args = 0, pretend = 0, frame = 0
 2281              		@ frame_needed = 0, uses_anonymous_args = 0
 2282 0000 38B1     		cbz	r0, .L398
 2283 0002 08B5     		push	{r3, lr}
 2284 0004 FFF7FEFF 		bl	xQueueTakeMutexRecursive
 2285 0008 0128     		cmp	r0, #1
 2286 000a 0CBF     		ite	eq
 2287 000c 0020     		moveq	r0, #0
 2288 000e FF20     		movne	r0, #255
 2289 0010 08BD     		pop	{r3, pc}
 2290              	.L398:
 2291 0012 8020     		movs	r0, #128
 2292 0014 7047     		bx	lr
 2294 0016 00BF     		.section	.text.osSemaphoreGetCount,"ax",%progbits
 2295              		.align	1
 2296              		.p2align 2,,3
 2297              		.global	osSemaphoreGetCount
 2298              		.syntax unified
 2299              		.thumb
 2300              		.thumb_func
 2301              		.fpu fpv4-sp-d16
 2303              	osSemaphoreGetCount:
 2304              		@ args = 0, pretend = 0, frame = 0
 2305              		@ frame_needed = 0, uses_anonymous_args = 0
 2306              		@ link register save eliminated.
 2307 0000 FFF7FEBF 		b	uxQueueMessagesWaiting
 2309              		.section	.rodata.osTimerCreate.str1.4,"aMS",%progbits,1
 2310              		.align	2
 2311              	.LC0:
 2312 0000 00       		.ascii	"\000"
 2313              		.ident	"GCC: (GNU Tools for Arm Embedded Processors 8-2018-q4-major) 8.2.1 20181213 (release) [gcc
ARM GAS  D:\Programs\cygwin64\tmp\ccsHavao.s 			page 40

