ARM GAS  D:\Programs\cygwin64\tmp\ccb0Xpjx.s 			page 1


   1              		.cpu cortex-m4
   2              		.eabi_attribute 27, 1
   3              		.eabi_attribute 28, 1
   4              		.eabi_attribute 20, 1
   5              		.eabi_attribute 21, 1
   6              		.eabi_attribute 23, 3
   7              		.eabi_attribute 24, 1
   8              		.eabi_attribute 25, 1
   9              		.eabi_attribute 26, 1
  10              		.eabi_attribute 30, 2
  11              		.eabi_attribute 34, 1
  12              		.eabi_attribute 18, 4
  13              		.file	"cpu_utils.c"
  14              		.text
  15              		.section	.text.vApplicationIdleHook,"ax",%progbits
  16              		.align	1
  17              		.p2align 2,,3
  18              		.global	vApplicationIdleHook
  19              		.arch armv7e-m
  20              		.syntax unified
  21              		.thumb
  22              		.thumb_func
  23              		.fpu fpv4-sp-d16
  25              	vApplicationIdleHook:
  26              		@ args = 0, pretend = 0, frame = 0
  27              		@ frame_needed = 0, uses_anonymous_args = 0
  28 0000 10B5     		push	{r4, lr}
  29 0002 044C     		ldr	r4, .L6
  30 0004 2368     		ldr	r3, [r4]
  31 0006 03B1     		cbz	r3, .L5
  32 0008 10BD     		pop	{r4, pc}
  33              	.L5:
  34 000a FFF7FEFF 		bl	xTaskGetCurrentTaskHandle
  35 000e 2060     		str	r0, [r4]
  36 0010 10BD     		pop	{r4, pc}
  37              	.L7:
  38 0012 00BF     		.align	2
  39              	.L6:
  40 0014 00000000 		.word	.LANCHOR0
  42              		.section	.text.vApplicationTickHook,"ax",%progbits
  43              		.align	1
  44              		.p2align 2,,3
  45              		.global	vApplicationTickHook
  46              		.syntax unified
  47              		.thumb
  48              		.thumb_func
  49              		.fpu fpv4-sp-d16
  51              	vApplicationTickHook:
  52              		@ args = 0, pretend = 0, frame = 0
  53              		@ frame_needed = 0, uses_anonymous_args = 0
  54              		@ link register save eliminated.
  55 0000 0E4A     		ldr	r2, .L13
  56 0002 1368     		ldr	r3, [r2]
  57 0004 B3F57A7F 		cmp	r3, #1000
  58 0008 02DC     		bgt	.L9
  59 000a 0133     		adds	r3, r3, #1
  60 000c 1360     		str	r3, [r2]
ARM GAS  D:\Programs\cygwin64\tmp\ccb0Xpjx.s 			page 2


  61 000e 7047     		bx	lr
  62              	.L9:
  63 0010 0B49     		ldr	r1, .L13+4
  64 0012 0868     		ldr	r0, [r1]
  65 0014 0023     		movs	r3, #0
  66 0016 B0F57A7F 		cmp	r0, #1000
  67 001a 1360     		str	r3, [r2]
  68 001c 08D8     		bhi	.L11
  69 001e 6423     		movs	r3, #100
  70 0020 084A     		ldr	r2, .L13+8
  71 0022 03FB00F3 		mul	r3, r3, r0
  72 0026 A2FB0323 		umull	r2, r3, r2, r3
  73 002a 9B09     		lsrs	r3, r3, #6
  74 002c C3F16403 		rsb	r3, r3, #100
  75              	.L11:
  76 0030 0548     		ldr	r0, .L13+12
  77 0032 0022     		movs	r2, #0
  78 0034 0360     		str	r3, [r0]
  79 0036 0A60     		str	r2, [r1]
  80 0038 7047     		bx	lr
  81              	.L14:
  82 003a 00BF     		.align	2
  83              	.L13:
  84 003c 00000000 		.word	.LANCHOR1
  85 0040 00000000 		.word	.LANCHOR2
  86 0044 D34D6210 		.word	274877907
  87 0048 00000000 		.word	.LANCHOR3
  89              		.section	.text.StartIdleMonitor,"ax",%progbits
  90              		.align	1
  91              		.p2align 2,,3
  92              		.global	StartIdleMonitor
  93              		.syntax unified
  94              		.thumb
  95              		.thumb_func
  96              		.fpu fpv4-sp-d16
  98              	StartIdleMonitor:
  99              		@ args = 0, pretend = 0, frame = 0
 100              		@ frame_needed = 0, uses_anonymous_args = 0
 101 0000 08B5     		push	{r3, lr}
 102 0002 FFF7FEFF 		bl	xTaskGetCurrentTaskHandle
 103 0006 054B     		ldr	r3, .L19
 104 0008 1B68     		ldr	r3, [r3]
 105 000a 8342     		cmp	r3, r0
 106 000c 00D0     		beq	.L18
 107 000e 08BD     		pop	{r3, pc}
 108              	.L18:
 109 0010 FFF7FEFF 		bl	xTaskGetTickCountFromISR
 110 0014 024B     		ldr	r3, .L19+4
 111 0016 1860     		str	r0, [r3]
 112 0018 08BD     		pop	{r3, pc}
 113              	.L20:
 114 001a 00BF     		.align	2
 115              	.L19:
 116 001c 00000000 		.word	.LANCHOR0
 117 0020 00000000 		.word	.LANCHOR4
 119              		.section	.text.EndIdleMonitor,"ax",%progbits
 120              		.align	1
ARM GAS  D:\Programs\cygwin64\tmp\ccb0Xpjx.s 			page 3


 121              		.p2align 2,,3
 122              		.global	EndIdleMonitor
 123              		.syntax unified
 124              		.thumb
 125              		.thumb_func
 126              		.fpu fpv4-sp-d16
 128              	EndIdleMonitor:
 129              		@ args = 0, pretend = 0, frame = 0
 130              		@ frame_needed = 0, uses_anonymous_args = 0
 131 0000 10B5     		push	{r4, lr}
 132 0002 FFF7FEFF 		bl	xTaskGetCurrentTaskHandle
 133 0006 084B     		ldr	r3, .L25
 134 0008 1B68     		ldr	r3, [r3]
 135 000a 8342     		cmp	r3, r0
 136 000c 00D0     		beq	.L24
 137 000e 10BD     		pop	{r4, pc}
 138              	.L24:
 139 0010 FFF7FEFF 		bl	xTaskGetTickCountFromISR
 140 0014 054B     		ldr	r3, .L25+4
 141 0016 0649     		ldr	r1, .L25+8
 142 0018 1B68     		ldr	r3, [r3]
 143 001a 0A68     		ldr	r2, [r1]
 144 001c 054C     		ldr	r4, .L25+12
 145 001e C01A     		subs	r0, r0, r3
 146 0020 0244     		add	r2, r2, r0
 147 0022 2060     		str	r0, [r4]
 148 0024 0A60     		str	r2, [r1]
 149 0026 10BD     		pop	{r4, pc}
 150              	.L26:
 151              		.align	2
 152              	.L25:
 153 0028 00000000 		.word	.LANCHOR0
 154 002c 00000000 		.word	.LANCHOR4
 155 0030 00000000 		.word	.LANCHOR2
 156 0034 00000000 		.word	.LANCHOR5
 158              		.section	.text.osGetCPUUsage,"ax",%progbits
 159              		.align	1
 160              		.p2align 2,,3
 161              		.global	osGetCPUUsage
 162              		.syntax unified
 163              		.thumb
 164              		.thumb_func
 165              		.fpu fpv4-sp-d16
 167              	osGetCPUUsage:
 168              		@ args = 0, pretend = 0, frame = 0
 169              		@ frame_needed = 0, uses_anonymous_args = 0
 170              		@ link register save eliminated.
 171 0000 014B     		ldr	r3, .L28
 172 0002 1868     		ldr	r0, [r3]
 173 0004 80B2     		uxth	r0, r0
 174 0006 7047     		bx	lr
 175              	.L29:
 176              		.align	2
 177              	.L28:
 178 0008 00000000 		.word	.LANCHOR3
 180              		.global	osCPU_TotalIdleTime
 181              		.global	osCPU_IdleSpentTime
ARM GAS  D:\Programs\cygwin64\tmp\ccb0Xpjx.s 			page 4


 182              		.global	osCPU_IdleStartTime
 183              		.global	osCPU_Usage
 184              		.global	xIdleHandle
 185              		.section	.bss.osCPU_IdleSpentTime,"aw",%nobits
 186              		.align	2
 187              		.set	.LANCHOR5,. + 0
 190              	osCPU_IdleSpentTime:
 191 0000 00000000 		.space	4
 192              		.section	.bss.osCPU_IdleStartTime,"aw",%nobits
 193              		.align	2
 194              		.set	.LANCHOR4,. + 0
 197              	osCPU_IdleStartTime:
 198 0000 00000000 		.space	4
 199              		.section	.bss.osCPU_TotalIdleTime,"aw",%nobits
 200              		.align	2
 201              		.set	.LANCHOR2,. + 0
 204              	osCPU_TotalIdleTime:
 205 0000 00000000 		.space	4
 206              		.section	.bss.osCPU_Usage,"aw",%nobits
 207              		.align	2
 208              		.set	.LANCHOR3,. + 0
 211              	osCPU_Usage:
 212 0000 00000000 		.space	4
 213              		.section	.bss.tick.19521,"aw",%nobits
 214              		.align	2
 215              		.set	.LANCHOR1,. + 0
 218              	tick.19521:
 219 0000 00000000 		.space	4
 220              		.section	.bss.xIdleHandle,"aw",%nobits
 221              		.align	2
 222              		.set	.LANCHOR0,. + 0
 225              	xIdleHandle:
 226 0000 00000000 		.space	4
 227              		.ident	"GCC: (GNU Tools for Arm Embedded Processors 8-2018-q4-major) 8.2.1 20181213 (release) [gcc
ARM GAS  D:\Programs\cygwin64\tmp\ccb0Xpjx.s 			page 5

