ARM GAS  D:\Programs\cygwin64\tmp\ccwqoeKB.s 			page 1


   1              		.cpu cortex-m4
   2              		.eabi_attribute 27, 1
   3              		.eabi_attribute 28, 1
   4              		.eabi_attribute 20, 1
   5              		.eabi_attribute 21, 1
   6              		.eabi_attribute 23, 3
   7              		.eabi_attribute 24, 1
   8              		.eabi_attribute 25, 1
   9              		.eabi_attribute 26, 1
  10              		.eabi_attribute 30, 2
  11              		.eabi_attribute 34, 1
  12              		.eabi_attribute 18, 4
  13              		.file	"diskio.c"
  14              		.text
  15              		.section	.text.disk_status,"ax",%progbits
  16              		.align	1
  17              		.p2align 2,,3
  18              		.global	disk_status
  19              		.arch armv7e-m
  20              		.syntax unified
  21              		.thumb
  22              		.thumb_func
  23              		.fpu fpv4-sp-d16
  25              	disk_status:
  26              		@ args = 0, pretend = 0, frame = 0
  27              		@ frame_needed = 0, uses_anonymous_args = 0
  28              		@ link register save eliminated.
  29 0000 034B     		ldr	r3, .L3
  30 0002 03EB8002 		add	r2, r3, r0, lsl #2
  31 0006 0344     		add	r3, r3, r0
  32 0008 5268     		ldr	r2, [r2, #4]
  33 000a 187C     		ldrb	r0, [r3, #16]	@ zero_extendqisi2
  34 000c 5368     		ldr	r3, [r2, #4]
  35 000e 1847     		bx	r3
  36              	.L4:
  37              		.align	2
  38              	.L3:
  39 0010 00000000 		.word	disk
  41              		.section	.text.disk_initialize,"ax",%progbits
  42              		.align	1
  43              		.p2align 2,,3
  44              		.global	disk_initialize
  45              		.syntax unified
  46              		.thumb
  47              		.thumb_func
  48              		.fpu fpv4-sp-d16
  50              	disk_initialize:
  51              		@ args = 0, pretend = 0, frame = 0
  52              		@ frame_needed = 0, uses_anonymous_args = 0
  53              		@ link register save eliminated.
  54 0000 064B     		ldr	r3, .L7
  55 0002 1A5C     		ldrb	r2, [r3, r0]	@ zero_extendqisi2
  56 0004 42B9     		cbnz	r2, .L6
  57 0006 03EB8002 		add	r2, r3, r0, lsl #2
  58 000a 0121     		movs	r1, #1
  59 000c 1954     		strb	r1, [r3, r0]
  60 000e 5268     		ldr	r2, [r2, #4]
ARM GAS  D:\Programs\cygwin64\tmp\ccwqoeKB.s 			page 2


  61 0010 0344     		add	r3, r3, r0
  62 0012 1268     		ldr	r2, [r2]
  63 0014 187C     		ldrb	r0, [r3, #16]	@ zero_extendqisi2
  64 0016 1047     		bx	r2
  65              	.L6:
  66 0018 0020     		movs	r0, #0
  67 001a 7047     		bx	lr
  68              	.L8:
  69              		.align	2
  70              	.L7:
  71 001c 00000000 		.word	disk
  73              		.section	.text.disk_read,"ax",%progbits
  74              		.align	1
  75              		.p2align 2,,3
  76              		.global	disk_read
  77              		.syntax unified
  78              		.thumb
  79              		.thumb_func
  80              		.fpu fpv4-sp-d16
  82              	disk_read:
  83              		@ args = 0, pretend = 0, frame = 0
  84              		@ frame_needed = 0, uses_anonymous_args = 0
  85              		@ link register save eliminated.
  86 0000 30B4     		push	{r4, r5}
  87 0002 054C     		ldr	r4, .L11
  88 0004 04EB8005 		add	r5, r4, r0, lsl #2
  89 0008 0444     		add	r4, r4, r0
  90 000a 6D68     		ldr	r5, [r5, #4]
  91 000c 207C     		ldrb	r0, [r4, #16]	@ zero_extendqisi2
  92 000e AC68     		ldr	r4, [r5, #8]
  93 0010 A446     		mov	ip, r4
  94 0012 30BC     		pop	{r4, r5}
  95 0014 6047     		bx	ip
  96              	.L12:
  97 0016 00BF     		.align	2
  98              	.L11:
  99 0018 00000000 		.word	disk
 101              		.section	.text.disk_write,"ax",%progbits
 102              		.align	1
 103              		.p2align 2,,3
 104              		.global	disk_write
 105              		.syntax unified
 106              		.thumb
 107              		.thumb_func
 108              		.fpu fpv4-sp-d16
 110              	disk_write:
 111              		@ args = 0, pretend = 0, frame = 0
 112              		@ frame_needed = 0, uses_anonymous_args = 0
 113              		@ link register save eliminated.
 114 0000 30B4     		push	{r4, r5}
 115 0002 054C     		ldr	r4, .L15
 116 0004 04EB8005 		add	r5, r4, r0, lsl #2
 117 0008 0444     		add	r4, r4, r0
 118 000a 6D68     		ldr	r5, [r5, #4]
 119 000c 207C     		ldrb	r0, [r4, #16]	@ zero_extendqisi2
 120 000e EC68     		ldr	r4, [r5, #12]
 121 0010 A446     		mov	ip, r4
ARM GAS  D:\Programs\cygwin64\tmp\ccwqoeKB.s 			page 3


 122 0012 30BC     		pop	{r4, r5}
 123 0014 6047     		bx	ip
 124              	.L16:
 125 0016 00BF     		.align	2
 126              	.L15:
 127 0018 00000000 		.word	disk
 129              		.section	.text.disk_ioctl,"ax",%progbits
 130              		.align	1
 131              		.p2align 2,,3
 132              		.global	disk_ioctl
 133              		.syntax unified
 134              		.thumb
 135              		.thumb_func
 136              		.fpu fpv4-sp-d16
 138              	disk_ioctl:
 139              		@ args = 0, pretend = 0, frame = 0
 140              		@ frame_needed = 0, uses_anonymous_args = 0
 141              		@ link register save eliminated.
 142 0000 054B     		ldr	r3, .L19
 143 0002 10B4     		push	{r4}
 144 0004 03EB8004 		add	r4, r3, r0, lsl #2
 145 0008 0344     		add	r3, r3, r0
 146 000a 6468     		ldr	r4, [r4, #4]
 147 000c 187C     		ldrb	r0, [r3, #16]	@ zero_extendqisi2
 148 000e 2369     		ldr	r3, [r4, #16]
 149 0010 5DF8044B 		ldr	r4, [sp], #4
 150 0014 1847     		bx	r3
 151              	.L20:
 152 0016 00BF     		.align	2
 153              	.L19:
 154 0018 00000000 		.word	disk
 156              		.section	.text.get_fattime,"ax",%progbits
 157              		.align	1
 158              		.p2align 2,,3
 159              		.weak	get_fattime
 160              		.syntax unified
 161              		.thumb
 162              		.thumb_func
 163              		.fpu fpv4-sp-d16
 165              	get_fattime:
 166              		@ args = 0, pretend = 0, frame = 0
 167              		@ frame_needed = 0, uses_anonymous_args = 0
 168              		@ link register save eliminated.
 169 0000 0020     		movs	r0, #0
 170 0002 7047     		bx	lr
 172              		.ident	"GCC: (GNU Tools for Arm Embedded Processors 8-2018-q4-major) 8.2.1 20181213 (release) [gcc
ARM GAS  D:\Programs\cygwin64\tmp\ccwqoeKB.s 			page 4

