ARM GAS  D:\Programs\cygwin64\tmp\cceUEaky.s 			page 1


   1              		.cpu cortex-m4
   2              		.eabi_attribute 27, 1
   3              		.eabi_attribute 28, 1
   4              		.eabi_attribute 20, 1
   5              		.eabi_attribute 21, 1
   6              		.eabi_attribute 23, 3
   7              		.eabi_attribute 24, 1
   8              		.eabi_attribute 25, 1
   9              		.eabi_attribute 26, 1
  10              		.eabi_attribute 30, 2
  11              		.eabi_attribute 34, 1
  12              		.eabi_attribute 18, 4
  13              		.file	"event_groups.c"
  14              		.text
  15              		.section	.text.xEventGroupCreate,"ax",%progbits
  16              		.align	1
  17              		.p2align 2,,3
  18              		.global	xEventGroupCreate
  19              		.arch armv7e-m
  20              		.syntax unified
  21              		.thumb
  22              		.thumb_func
  23              		.fpu fpv4-sp-d16
  25              	xEventGroupCreate:
  26              		@ args = 0, pretend = 0, frame = 0
  27              		@ frame_needed = 0, uses_anonymous_args = 0
  28 0000 10B5     		push	{r4, lr}
  29 0002 1C20     		movs	r0, #28
  30 0004 FFF7FEFF 		bl	pvPortMalloc
  31 0008 0446     		mov	r4, r0
  32 000a 20B1     		cbz	r0, .L1
  33 000c 0023     		movs	r3, #0
  34 000e 40F8043B 		str	r3, [r0], #4
  35 0012 FFF7FEFF 		bl	vListInitialise
  36              	.L1:
  37 0016 2046     		mov	r0, r4
  38 0018 10BD     		pop	{r4, pc}
  40 001a 00BF     		.section	.text.xEventGroupWaitBits,"ax",%progbits
  41              		.align	1
  42              		.p2align 2,,3
  43              		.global	xEventGroupWaitBits
  44              		.syntax unified
  45              		.thumb
  46              		.thumb_func
  47              		.fpu fpv4-sp-d16
  49              	xEventGroupWaitBits:
  50              		@ args = 4, pretend = 0, frame = 0
  51              		@ frame_needed = 0, uses_anonymous_args = 0
  52 0000 2DE9F843 		push	{r3, r4, r5, r6, r7, r8, r9, lr}
  53 0004 DDF82090 		ldr	r9, [sp, #32]
  54 0008 A8B1     		cbz	r0, .L38
  55 000a 11F07F4F 		tst	r1, #-16777216
  56 000e 09D1     		bne	.L39
  57 0010 D1B9     		cbnz	r1, .L13
  58              		.syntax unified
  59              	@ 195 "../Middlewares/FreeRTOS/Source/portable/GCC/ARM_CM4F/portmacro.h" 1
  60 0012 4FF05003 			mov r3, #80												
ARM GAS  D:\Programs\cygwin64\tmp\cceUEaky.s 			page 2


  61 0016 83F31188 		msr basepri, r3											
  62 001a BFF36F8F 		isb														
  63 001e BFF34F8F 		dsb														
  64              	
  65              	@ 0 "" 2
  66              		.thumb
  67              		.syntax unified
  68              	.L14:
  69 0022 FEE7     		b	.L14
  70              	.L39:
  71              		.syntax unified
  72              	@ 195 "../Middlewares/FreeRTOS/Source/portable/GCC/ARM_CM4F/portmacro.h" 1
  73 0024 4FF05003 			mov r3, #80												
  74 0028 83F31188 		msr basepri, r3											
  75 002c BFF36F8F 		isb														
  76 0030 BFF34F8F 		dsb														
  77              	
  78              	@ 0 "" 2
  79              		.thumb
  80              		.syntax unified
  81              	.L12:
  82 0034 FEE7     		b	.L12
  83              	.L38:
  84              		.syntax unified
  85              	@ 195 "../Middlewares/FreeRTOS/Source/portable/GCC/ARM_CM4F/portmacro.h" 1
  86 0036 4FF05003 			mov r3, #80												
  87 003a 83F31188 		msr basepri, r3											
  88 003e BFF36F8F 		isb														
  89 0042 BFF34F8F 		dsb														
  90              	
  91              	@ 0 "" 2
  92              		.thumb
  93              		.syntax unified
  94              	.L10:
  95 0046 FEE7     		b	.L10
  96              	.L13:
  97 0048 0646     		mov	r6, r0
  98 004a 9846     		mov	r8, r3
  99 004c 1746     		mov	r7, r2
 100 004e 0C46     		mov	r4, r1
 101 0050 FFF7FEFF 		bl	xTaskGetSchedulerState
 102 0054 10B9     		cbnz	r0, .L15
 103 0056 B9F1000F 		cmp	r9, #0
 104 005a 31D1     		bne	.L40
 105              	.L15:
 106 005c FFF7FEFF 		bl	vTaskSuspendAll
 107 0060 3568     		ldr	r5, [r6]
 108 0062 B8F1000F 		cmp	r8, #0
 109 0066 34D1     		bne	.L17
 110 0068 2C42     		tst	r4, r5
 111 006a 35D1     		bne	.L18
 112              	.L19:
 113 006c B9F1000F 		cmp	r9, #0
 114 0070 39D0     		beq	.L22
 115 0072 002F     		cmp	r7, #0
 116 0074 0BBF     		itete	eq
 117 0076 4FF08061 		moveq	r1, #67108864
ARM GAS  D:\Programs\cygwin64\tmp\cceUEaky.s 			page 3


 118 007a 4FF0A061 		movne	r1, #83886080
 119 007e 0023     		moveq	r3, #0
 120 0080 4FF08073 		movne	r3, #16777216
 121 0084 B8F1000F 		cmp	r8, #0
 122 0088 08BF     		it	eq
 123 008a 1946     		moveq	r1, r3
 124 008c 4A46     		mov	r2, r9
 125 008e 2143     		orrs	r1, r1, r4
 126 0090 301D     		adds	r0, r6, #4
 127 0092 FFF7FEFF 		bl	vTaskPlaceOnUnorderedEventList
 128 0096 FFF7FEFF 		bl	xTaskResumeAll
 129 009a 38B9     		cbnz	r0, .L25
 130 009c 1D4B     		ldr	r3, .L42
 131 009e 4FF08052 		mov	r2, #268435456
 132 00a2 1A60     		str	r2, [r3]
 133              		.syntax unified
 134              	@ 403 "../Middlewares/FreeRTOS/Source/event_groups.c" 1
 135 00a4 BFF34F8F 		dsb
 136              	@ 0 "" 2
 137              	@ 403 "../Middlewares/FreeRTOS/Source/event_groups.c" 1
 138 00a8 BFF36F8F 		isb
 139              	@ 0 "" 2
 140              		.thumb
 141              		.syntax unified
 142              	.L25:
 143 00ac FFF7FEFF 		bl	uxTaskResetEventItemValue
 144 00b0 8301     		lsls	r3, r0, #6
 145 00b2 0546     		mov	r5, r0
 146 00b4 1AD5     		bpl	.L41
 147              	.L26:
 148 00b6 25F07F45 		bic	r5, r5, #-16777216
 149              	.L8:
 150 00ba 2846     		mov	r0, r5
 151 00bc BDE8F883 		pop	{r3, r4, r5, r6, r7, r8, r9, pc}
 152              	.L40:
 153              		.syntax unified
 154              	@ 195 "../Middlewares/FreeRTOS/Source/portable/GCC/ARM_CM4F/portmacro.h" 1
 155 00c0 4FF05003 			mov r3, #80												
 156 00c4 83F31188 		msr basepri, r3											
 157 00c8 BFF36F8F 		isb														
 158 00cc BFF34F8F 		dsb														
 159              	
 160              	@ 0 "" 2
 161              		.thumb
 162              		.syntax unified
 163              	.L16:
 164 00d0 FEE7     		b	.L16
 165              	.L17:
 166 00d2 34EA0503 		bics	r3, r4, r5
 167 00d6 C9D1     		bne	.L19
 168              	.L18:
 169 00d8 2FB1     		cbz	r7, .L22
 170 00da 25EA0404 		bic	r4, r5, r4
 171 00de 3460     		str	r4, [r6]
 172 00e0 FFF7FEFF 		bl	xTaskResumeAll
 173 00e4 E9E7     		b	.L8
 174              	.L22:
ARM GAS  D:\Programs\cygwin64\tmp\cceUEaky.s 			page 4


 175 00e6 FFF7FEFF 		bl	xTaskResumeAll
 176 00ea E6E7     		b	.L8
 177              	.L41:
 178 00ec FFF7FEFF 		bl	vPortEnterCritical
 179 00f0 3568     		ldr	r5, [r6]
 180 00f2 B8F1000F 		cmp	r8, #0
 181 00f6 06D1     		bne	.L27
 182 00f8 2C42     		tst	r4, r5
 183 00fa 07D0     		beq	.L29
 184              	.L28:
 185 00fc 37B1     		cbz	r7, .L29
 186 00fe 25EA0404 		bic	r4, r5, r4
 187 0102 3460     		str	r4, [r6]
 188 0104 02E0     		b	.L29
 189              	.L27:
 190 0106 34EA0503 		bics	r3, r4, r5
 191 010a F7D0     		beq	.L28
 192              	.L29:
 193 010c FFF7FEFF 		bl	vPortExitCritical
 194 0110 D1E7     		b	.L26
 195              	.L43:
 196 0112 00BF     		.align	2
 197              	.L42:
 198 0114 04ED00E0 		.word	-536810236
 200              		.section	.text.xEventGroupClearBits,"ax",%progbits
 201              		.align	1
 202              		.p2align 2,,3
 203              		.global	xEventGroupClearBits
 204              		.syntax unified
 205              		.thumb
 206              		.thumb_func
 207              		.fpu fpv4-sp-d16
 209              	xEventGroupClearBits:
 210              		@ args = 0, pretend = 0, frame = 0
 211              		@ frame_needed = 0, uses_anonymous_args = 0
 212 0000 58B1     		cbz	r0, .L51
 213 0002 11F07F4F 		tst	r1, #-16777216
 214 0006 11D0     		beq	.L47
 215              		.syntax unified
 216              	@ 195 "../Middlewares/FreeRTOS/Source/portable/GCC/ARM_CM4F/portmacro.h" 1
 217 0008 4FF05003 			mov r3, #80												
 218 000c 83F31188 		msr basepri, r3											
 219 0010 BFF36F8F 		isb														
 220 0014 BFF34F8F 		dsb														
 221              	
 222              	@ 0 "" 2
 223              		.thumb
 224              		.syntax unified
 225              	.L48:
 226 0018 FEE7     		b	.L48
 227              	.L51:
 228              		.syntax unified
 229              	@ 195 "../Middlewares/FreeRTOS/Source/portable/GCC/ARM_CM4F/portmacro.h" 1
 230 001a 4FF05003 			mov r3, #80												
 231 001e 83F31188 		msr basepri, r3											
 232 0022 BFF36F8F 		isb														
 233 0026 BFF34F8F 		dsb														
ARM GAS  D:\Programs\cygwin64\tmp\cceUEaky.s 			page 5


 234              	
 235              	@ 0 "" 2
 236              		.thumb
 237              		.syntax unified
 238              	.L46:
 239 002a FEE7     		b	.L46
 240              	.L47:
 241 002c 70B5     		push	{r4, r5, r6, lr}
 242 002e 0546     		mov	r5, r0
 243 0030 0C46     		mov	r4, r1
 244 0032 FFF7FEFF 		bl	vPortEnterCritical
 245 0036 2E68     		ldr	r6, [r5]
 246 0038 26EA0404 		bic	r4, r6, r4
 247 003c 2C60     		str	r4, [r5]
 248 003e FFF7FEFF 		bl	vPortExitCritical
 249 0042 3046     		mov	r0, r6
 250 0044 70BD     		pop	{r4, r5, r6, pc}
 252 0046 00BF     		.section	.text.xEventGroupGetBitsFromISR,"ax",%progbits
 253              		.align	1
 254              		.p2align 2,,3
 255              		.global	xEventGroupGetBitsFromISR
 256              		.syntax unified
 257              		.thumb
 258              		.thumb_func
 259              		.fpu fpv4-sp-d16
 261              	xEventGroupGetBitsFromISR:
 262              		@ args = 0, pretend = 0, frame = 0
 263              		@ frame_needed = 0, uses_anonymous_args = 0
 264              		@ link register save eliminated.
 265              		.syntax unified
 266              	@ 211 "../Middlewares/FreeRTOS/Source/portable/GCC/ARM_CM4F/portmacro.h" 1
 267 0000 EFF31183 			mrs r3, basepri											
 268 0004 4FF05002 		mov r2, #80												
 269 0008 82F31188 		msr basepri, r2											
 270 000c BFF36F8F 		isb														
 271 0010 BFF34F8F 		dsb														
 272              	
 273              	@ 0 "" 2
 274              		.thumb
 275              		.syntax unified
 276 0014 0068     		ldr	r0, [r0]
 277              		.syntax unified
 278              	@ 229 "../Middlewares/FreeRTOS/Source/portable/GCC/ARM_CM4F/portmacro.h" 1
 279 0016 83F31188 			msr basepri, r3	
 280              	@ 0 "" 2
 281              		.thumb
 282              		.syntax unified
 283 001a 7047     		bx	lr
 285              		.section	.text.xEventGroupSetBits,"ax",%progbits
 286              		.align	1
 287              		.p2align 2,,3
 288              		.global	xEventGroupSetBits
 289              		.syntax unified
 290              		.thumb
 291              		.thumb_func
 292              		.fpu fpv4-sp-d16
 294              	xEventGroupSetBits:
ARM GAS  D:\Programs\cygwin64\tmp\cceUEaky.s 			page 6


 295              		@ args = 0, pretend = 0, frame = 0
 296              		@ frame_needed = 0, uses_anonymous_args = 0
 297 0000 68B1     		cbz	r0, .L71
 298 0002 2DE9F041 		push	{r4, r5, r6, r7, r8, lr}
 299 0006 11F07F46 		ands	r6, r1, #-16777216
 300 000a 11D0     		beq	.L56
 301              		.syntax unified
 302              	@ 195 "../Middlewares/FreeRTOS/Source/portable/GCC/ARM_CM4F/portmacro.h" 1
 303 000c 4FF05003 			mov r3, #80												
 304 0010 83F31188 		msr basepri, r3											
 305 0014 BFF36F8F 		isb														
 306 0018 BFF34F8F 		dsb														
 307              	
 308              	@ 0 "" 2
 309              		.thumb
 310              		.syntax unified
 311              	.L57:
 312 001c FEE7     		b	.L57
 313              	.L71:
 314              		.syntax unified
 315              	@ 195 "../Middlewares/FreeRTOS/Source/portable/GCC/ARM_CM4F/portmacro.h" 1
 316 001e 4FF05003 			mov r3, #80												
 317 0022 83F31188 		msr basepri, r3											
 318 0026 BFF36F8F 		isb														
 319 002a BFF34F8F 		dsb														
 320              	
 321              	@ 0 "" 2
 322              		.thumb
 323              		.syntax unified
 324              	.L55:
 325 002e FEE7     		b	.L55
 326              	.L56:
 327 0030 0546     		mov	r5, r0
 328 0032 0C46     		mov	r4, r1
 329 0034 FFF7FEFF 		bl	vTaskSuspendAll
 330 0038 2968     		ldr	r1, [r5]
 331 003a 2869     		ldr	r0, [r5, #16]
 332 003c 05F10C07 		add	r7, r5, #12
 333 0040 2143     		orrs	r1, r1, r4
 334 0042 8742     		cmp	r7, r0
 335 0044 2960     		str	r1, [r5]
 336 0046 1DD0     		beq	.L58
 337 0048 3446     		mov	r4, r6
 338 004a 0BE0     		b	.L63
 339              	.L73:
 340 004c 3EB1     		cbz	r6, .L61
 341              	.L60:
 342 004e D201     		lsls	r2, r2, #7
 343 0050 41F00071 		orr	r1, r1, #33554432
 344 0054 48BF     		it	mi
 345 0056 1C43     		orrmi	r4, r4, r3
 346 0058 FFF7FEFF 		bl	vTaskRemoveFromUnorderedEventList
 347 005c 2968     		ldr	r1, [r5]
 348              	.L61:
 349 005e 4745     		cmp	r7, r8
 350 0060 4046     		mov	r0, r8
 351 0062 0DD0     		beq	.L72
ARM GAS  D:\Programs\cygwin64\tmp\cceUEaky.s 			page 7


 352              	.L63:
 353 0064 D0E90028 		ldrd	r2, r8, [r0]
 354 0068 22F07F43 		bic	r3, r2, #-16777216
 355 006c 12F0806F 		tst	r2, #67108864
 356 0070 01EA0306 		and	r6, r1, r3
 357 0074 EAD0     		beq	.L73
 358 0076 B342     		cmp	r3, r6
 359 0078 E9D0     		beq	.L60
 360 007a 4745     		cmp	r7, r8
 361 007c 4046     		mov	r0, r8
 362 007e F1D1     		bne	.L63
 363              	.L72:
 364 0080 21EA0401 		bic	r1, r1, r4
 365              	.L58:
 366 0084 2960     		str	r1, [r5]
 367 0086 FFF7FEFF 		bl	xTaskResumeAll
 368 008a 2868     		ldr	r0, [r5]
 369 008c BDE8F081 		pop	{r4, r5, r6, r7, r8, pc}
 371              		.section	.text.xEventGroupSync,"ax",%progbits
 372              		.align	1
 373              		.p2align 2,,3
 374              		.global	xEventGroupSync
 375              		.syntax unified
 376              		.thumb
 377              		.thumb_func
 378              		.fpu fpv4-sp-d16
 380              	xEventGroupSync:
 381              		@ args = 0, pretend = 0, frame = 0
 382              		@ frame_needed = 0, uses_anonymous_args = 0
 383 0000 12F07F4F 		tst	r2, #-16777216
 384 0004 08D0     		beq	.L75
 385              		.syntax unified
 386              	@ 195 "../Middlewares/FreeRTOS/Source/portable/GCC/ARM_CM4F/portmacro.h" 1
 387 0006 4FF05003 			mov r3, #80												
 388 000a 83F31188 		msr basepri, r3											
 389 000e BFF36F8F 		isb														
 390 0012 BFF34F8F 		dsb														
 391              	
 392              	@ 0 "" 2
 393              		.thumb
 394              		.syntax unified
 395              	.L76:
 396 0016 FEE7     		b	.L76
 397              	.L75:
 398 0018 42B9     		cbnz	r2, .L77
 399              		.syntax unified
 400              	@ 195 "../Middlewares/FreeRTOS/Source/portable/GCC/ARM_CM4F/portmacro.h" 1
 401 001a 4FF05003 			mov r3, #80												
 402 001e 83F31188 		msr basepri, r3											
 403 0022 BFF36F8F 		isb														
 404 0026 BFF34F8F 		dsb														
 405              	
 406              	@ 0 "" 2
 407              		.thumb
 408              		.syntax unified
 409              	.L78:
 410 002a FEE7     		b	.L78
ARM GAS  D:\Programs\cygwin64\tmp\cceUEaky.s 			page 8


 411              	.L77:
 412 002c 2DE9F041 		push	{r4, r5, r6, r7, r8, lr}
 413 0030 1F46     		mov	r7, r3
 414 0032 8846     		mov	r8, r1
 415 0034 0646     		mov	r6, r0
 416 0036 1546     		mov	r5, r2
 417 0038 FFF7FEFF 		bl	xTaskGetSchedulerState
 418 003c C0B9     		cbnz	r0, .L79
 419 003e 47B1     		cbz	r7, .L80
 420              		.syntax unified
 421              	@ 195 "../Middlewares/FreeRTOS/Source/portable/GCC/ARM_CM4F/portmacro.h" 1
 422 0040 4FF05003 			mov r3, #80												
 423 0044 83F31188 		msr basepri, r3											
 424 0048 BFF36F8F 		isb														
 425 004c BFF34F8F 		dsb														
 426              	
 427              	@ 0 "" 2
 428              		.thumb
 429              		.syntax unified
 430              	.L81:
 431 0050 FEE7     		b	.L81
 432              	.L80:
 433 0052 FFF7FEFF 		bl	vTaskSuspendAll
 434 0056 3468     		ldr	r4, [r6]
 435 0058 4146     		mov	r1, r8
 436 005a 0C43     		orrs	r4, r4, r1
 437 005c 3046     		mov	r0, r6
 438 005e FFF7FEFF 		bl	xEventGroupSetBits
 439 0062 35EA0403 		bics	r3, r5, r4
 440 0066 29D0     		beq	.L89
 441              	.L84:
 442 0068 3468     		ldr	r4, [r6]
 443 006a FFF7FEFF 		bl	xTaskResumeAll
 444 006e 2BE0     		b	.L74
 445              	.L79:
 446 0070 FFF7FEFF 		bl	vTaskSuspendAll
 447 0074 3468     		ldr	r4, [r6]
 448 0076 4146     		mov	r1, r8
 449 0078 0C43     		orrs	r4, r4, r1
 450 007a 3046     		mov	r0, r6
 451 007c FFF7FEFF 		bl	xEventGroupSetBits
 452 0080 35EA0403 		bics	r3, r5, r4
 453 0084 1AD0     		beq	.L89
 454 0086 002F     		cmp	r7, #0
 455 0088 EED0     		beq	.L84
 456 008a 3A46     		mov	r2, r7
 457 008c 45F0A061 		orr	r1, r5, #83886080
 458 0090 301D     		adds	r0, r6, #4
 459 0092 FFF7FEFF 		bl	vTaskPlaceOnUnorderedEventList
 460 0096 FFF7FEFF 		bl	xTaskResumeAll
 461 009a 38B9     		cbnz	r0, .L86
 462 009c 124B     		ldr	r3, .L96
 463 009e 4FF08052 		mov	r2, #268435456
 464 00a2 1A60     		str	r2, [r3]
 465              		.syntax unified
 466              	@ 255 "../Middlewares/FreeRTOS/Source/event_groups.c" 1
 467 00a4 BFF34F8F 		dsb
ARM GAS  D:\Programs\cygwin64\tmp\cceUEaky.s 			page 9


 468              	@ 0 "" 2
 469              	@ 255 "../Middlewares/FreeRTOS/Source/event_groups.c" 1
 470 00a8 BFF36F8F 		isb
 471              	@ 0 "" 2
 472              		.thumb
 473              		.syntax unified
 474              	.L86:
 475 00ac FFF7FEFF 		bl	uxTaskResetEventItemValue
 476 00b0 8301     		lsls	r3, r0, #6
 477 00b2 0446     		mov	r4, r0
 478 00b4 0BD5     		bpl	.L95
 479              	.L87:
 480 00b6 24F07F44 		bic	r4, r4, #-16777216
 481 00ba 05E0     		b	.L74
 482              	.L89:
 483 00bc 3368     		ldr	r3, [r6]
 484 00be 23EA0503 		bic	r3, r3, r5
 485 00c2 3360     		str	r3, [r6]
 486 00c4 FFF7FEFF 		bl	xTaskResumeAll
 487              	.L74:
 488 00c8 2046     		mov	r0, r4
 489 00ca BDE8F081 		pop	{r4, r5, r6, r7, r8, pc}
 490              	.L95:
 491 00ce FFF7FEFF 		bl	vPortEnterCritical
 492 00d2 3468     		ldr	r4, [r6]
 493 00d4 35EA0403 		bics	r3, r5, r4
 494 00d8 04BF     		itt	eq
 495 00da 24EA0505 		biceq	r5, r4, r5
 496 00de 3560     		streq	r5, [r6]
 497 00e0 FFF7FEFF 		bl	vPortExitCritical
 498 00e4 E7E7     		b	.L87
 499              	.L97:
 500 00e6 00BF     		.align	2
 501              	.L96:
 502 00e8 04ED00E0 		.word	-536810236
 504              		.section	.text.vEventGroupDelete,"ax",%progbits
 505              		.align	1
 506              		.p2align 2,,3
 507              		.global	vEventGroupDelete
 508              		.syntax unified
 509              		.thumb
 510              		.thumb_func
 511              		.fpu fpv4-sp-d16
 513              	vEventGroupDelete:
 514              		@ args = 0, pretend = 0, frame = 0
 515              		@ frame_needed = 0, uses_anonymous_args = 0
 516 0000 38B5     		push	{r3, r4, r5, lr}
 517 0002 0446     		mov	r4, r0
 518 0004 FFF7FEFF 		bl	vTaskSuspendAll
 519 0008 6368     		ldr	r3, [r4, #4]
 520 000a 7BB1     		cbz	r3, .L104
 521 000c 2069     		ldr	r0, [r4, #16]
 522 000e 04F10C05 		add	r5, r4, #12
 523 0012 A842     		cmp	r0, r5
 524 0014 03D1     		bne	.L101
 525 0016 10E0     		b	.L100
 526              	.L103:
ARM GAS  D:\Programs\cygwin64\tmp\cceUEaky.s 			page 10


 527 0018 2069     		ldr	r0, [r4, #16]
 528 001a A842     		cmp	r0, r5
 529 001c 0DD0     		beq	.L100
 530              	.L101:
 531 001e 4FF00071 		mov	r1, #33554432
 532 0022 FFF7FEFF 		bl	vTaskRemoveFromUnorderedEventList
 533 0026 6368     		ldr	r3, [r4, #4]
 534 0028 002B     		cmp	r3, #0
 535 002a F5D1     		bne	.L103
 536              	.L104:
 537 002c 2046     		mov	r0, r4
 538 002e FFF7FEFF 		bl	vPortFree
 539 0032 BDE83840 		pop	{r3, r4, r5, lr}
 540 0036 FFF7FEBF 		b	xTaskResumeAll
 541              	.L100:
 542              		.syntax unified
 543              	@ 195 "../Middlewares/FreeRTOS/Source/portable/GCC/ARM_CM4F/portmacro.h" 1
 544 003a 4FF05003 			mov r3, #80												
 545 003e 83F31188 		msr basepri, r3											
 546 0042 BFF36F8F 		isb														
 547 0046 BFF34F8F 		dsb														
 548              	
 549              	@ 0 "" 2
 550              		.thumb
 551              		.syntax unified
 552              	.L102:
 553 004a FEE7     		b	.L102
 555              		.section	.text.vEventGroupSetBitsCallback,"ax",%progbits
 556              		.align	1
 557              		.p2align 2,,3
 558              		.global	vEventGroupSetBitsCallback
 559              		.syntax unified
 560              		.thumb
 561              		.thumb_func
 562              		.fpu fpv4-sp-d16
 564              	vEventGroupSetBitsCallback:
 565              		@ args = 0, pretend = 0, frame = 0
 566              		@ frame_needed = 0, uses_anonymous_args = 0
 567 0000 0028     		cmp	r0, #0
 568 0002 3BD0     		beq	.L125
 569 0004 2DE9F041 		push	{r4, r5, r6, r7, r8, lr}
 570 0008 11F07F46 		ands	r6, r1, #-16777216
 571 000c 08D0     		beq	.L110
 572              		.syntax unified
 573              	@ 195 "../Middlewares/FreeRTOS/Source/portable/GCC/ARM_CM4F/portmacro.h" 1
 574 000e 4FF05003 			mov r3, #80												
 575 0012 83F31188 		msr basepri, r3											
 576 0016 BFF36F8F 		isb														
 577 001a BFF34F8F 		dsb														
 578              	
 579              	@ 0 "" 2
 580              		.thumb
 581              		.syntax unified
 582              	.L111:
 583 001e FEE7     		b	.L111
 584              	.L110:
 585 0020 0546     		mov	r5, r0
ARM GAS  D:\Programs\cygwin64\tmp\cceUEaky.s 			page 11


 586 0022 0C46     		mov	r4, r1
 587 0024 FFF7FEFF 		bl	vTaskSuspendAll
 588 0028 2968     		ldr	r1, [r5]
 589 002a 2869     		ldr	r0, [r5, #16]
 590 002c 05F10C07 		add	r7, r5, #12
 591 0030 2143     		orrs	r1, r1, r4
 592 0032 8742     		cmp	r7, r0
 593 0034 2960     		str	r1, [r5]
 594 0036 0CD1     		bne	.L117
 595 0038 1BE0     		b	.L112
 596              	.L127:
 597 003a 3CB1     		cbz	r4, .L115
 598              	.L114:
 599 003c DB01     		lsls	r3, r3, #7
 600 003e 41F00071 		orr	r1, r1, #33554432
 601 0042 48BF     		it	mi
 602 0044 1643     		orrmi	r6, r6, r2
 603 0046 FFF7FEFF 		bl	vTaskRemoveFromUnorderedEventList
 604 004a 2968     		ldr	r1, [r5]
 605              	.L115:
 606 004c 4745     		cmp	r7, r8
 607 004e 4046     		mov	r0, r8
 608 0050 0DD0     		beq	.L126
 609              	.L117:
 610 0052 D0E90038 		ldrd	r3, r8, [r0]
 611 0056 23F07F42 		bic	r2, r3, #-16777216
 612 005a 13F0806F 		tst	r3, #67108864
 613 005e 01EA0204 		and	r4, r1, r2
 614 0062 EAD0     		beq	.L127
 615 0064 A242     		cmp	r2, r4
 616 0066 E9D0     		beq	.L114
 617 0068 4745     		cmp	r7, r8
 618 006a 4046     		mov	r0, r8
 619 006c F1D1     		bne	.L117
 620              	.L126:
 621 006e 21EA0601 		bic	r1, r1, r6
 622              	.L112:
 623 0072 2960     		str	r1, [r5]
 624 0074 BDE8F041 		pop	{r4, r5, r6, r7, r8, lr}
 625 0078 FFF7FEBF 		b	xTaskResumeAll
 626              	.L125:
 627              		.syntax unified
 628              	@ 195 "../Middlewares/FreeRTOS/Source/portable/GCC/ARM_CM4F/portmacro.h" 1
 629 007c 4FF05003 			mov r3, #80												
 630 0080 83F31188 		msr basepri, r3											
 631 0084 BFF36F8F 		isb														
 632 0088 BFF34F8F 		dsb														
 633              	
 634              	@ 0 "" 2
 635              		.thumb
 636              		.syntax unified
 637              	.L109:
 638 008c FEE7     		b	.L109
 640 008e 00BF     		.section	.text.vEventGroupClearBitsCallback,"ax",%progbits
 641              		.align	1
 642              		.p2align 2,,3
 643              		.global	vEventGroupClearBitsCallback
ARM GAS  D:\Programs\cygwin64\tmp\cceUEaky.s 			page 12


 644              		.syntax unified
 645              		.thumb
 646              		.thumb_func
 647              		.fpu fpv4-sp-d16
 649              	vEventGroupClearBitsCallback:
 650              		@ args = 0, pretend = 0, frame = 0
 651              		@ frame_needed = 0, uses_anonymous_args = 0
 652 0000 38B5     		push	{r3, r4, r5, lr}
 653 0002 B8B1     		cbz	r0, .L134
 654 0004 11F07F4F 		tst	r1, #-16777216
 655 0008 08D0     		beq	.L131
 656              		.syntax unified
 657              	@ 195 "../Middlewares/FreeRTOS/Source/portable/GCC/ARM_CM4F/portmacro.h" 1
 658 000a 4FF05003 			mov r3, #80												
 659 000e 83F31188 		msr basepri, r3											
 660 0012 BFF36F8F 		isb														
 661 0016 BFF34F8F 		dsb														
 662              	
 663              	@ 0 "" 2
 664              		.thumb
 665              		.syntax unified
 666              	.L132:
 667 001a FEE7     		b	.L132
 668              	.L131:
 669 001c 0446     		mov	r4, r0
 670 001e 0D46     		mov	r5, r1
 671 0020 FFF7FEFF 		bl	vPortEnterCritical
 672 0024 2168     		ldr	r1, [r4]
 673 0026 21EA0501 		bic	r1, r1, r5
 674 002a 2160     		str	r1, [r4]
 675 002c BDE83840 		pop	{r3, r4, r5, lr}
 676 0030 FFF7FEBF 		b	vPortExitCritical
 677              	.L134:
 678              		.syntax unified
 679              	@ 195 "../Middlewares/FreeRTOS/Source/portable/GCC/ARM_CM4F/portmacro.h" 1
 680 0034 4FF05003 			mov r3, #80												
 681 0038 83F31188 		msr basepri, r3											
 682 003c BFF36F8F 		isb														
 683 0040 BFF34F8F 		dsb														
 684              	
 685              	@ 0 "" 2
 686              		.thumb
 687              		.syntax unified
 688              	.L130:
 689 0044 FEE7     		b	.L130
 691 0046 00BF     		.section	.text.uxEventGroupGetNumber,"ax",%progbits
 692              		.align	1
 693              		.p2align 2,,3
 694              		.global	uxEventGroupGetNumber
 695              		.syntax unified
 696              		.thumb
 697              		.thumb_func
 698              		.fpu fpv4-sp-d16
 700              	uxEventGroupGetNumber:
 701              		@ args = 0, pretend = 0, frame = 0
 702              		@ frame_needed = 0, uses_anonymous_args = 0
 703              		@ link register save eliminated.
ARM GAS  D:\Programs\cygwin64\tmp\cceUEaky.s 			page 13


 704 0000 00B1     		cbz	r0, .L135
 705 0002 8069     		ldr	r0, [r0, #24]
 706              	.L135:
 707 0004 7047     		bx	lr
 709 0006 00BF     		.section	.text.vEventGroupSetNumber,"ax",%progbits
 710              		.align	1
 711              		.p2align 2,,3
 712              		.global	vEventGroupSetNumber
 713              		.syntax unified
 714              		.thumb
 715              		.thumb_func
 716              		.fpu fpv4-sp-d16
 718              	vEventGroupSetNumber:
 719              		@ args = 0, pretend = 0, frame = 0
 720              		@ frame_needed = 0, uses_anonymous_args = 0
 721              		@ link register save eliminated.
 722 0000 8161     		str	r1, [r0, #24]
 723 0002 7047     		bx	lr
 725              		.ident	"GCC: (GNU Tools for Arm Embedded Processors 8-2018-q4-major) 8.2.1 20181213 (release) [gcc
ARM GAS  D:\Programs\cygwin64\tmp\cceUEaky.s 			page 14

