ARM GAS  D:\Programs\cygwin64\tmp\ccQ42GcX.s 			page 1


   1              		.cpu cortex-m4
   2              		.eabi_attribute 27, 1
   3              		.eabi_attribute 28, 1
   4              		.eabi_attribute 20, 1
   5              		.eabi_attribute 21, 1
   6              		.eabi_attribute 23, 3
   7              		.eabi_attribute 24, 1
   8              		.eabi_attribute 25, 1
   9              		.eabi_attribute 26, 1
  10              		.eabi_attribute 30, 2
  11              		.eabi_attribute 34, 1
  12              		.eabi_attribute 18, 4
  13              		.file	"ff.c"
  14              		.text
  15              		.section	.text.dir_clear,"ax",%progbits
  16              		.align	1
  17              		.p2align 2,,3
  18              		.arch armv7e-m
  19              		.syntax unified
  20              		.thumb
  21              		.thumb_func
  22              		.fpu fpv4-sp-d16
  24              	dir_clear:
  25              		@ args = 0, pretend = 0, frame = 0
  26              		@ frame_needed = 0, uses_anonymous_args = 0
  27 0000 2DE9F843 		push	{r3, r4, r5, r6, r7, r8, r9, lr}
  28 0004 C378     		ldrb	r3, [r0, #3]	@ zero_extendqisi2
  29 0006 0646     		mov	r6, r0
  30 0008 8846     		mov	r8, r1
  31 000a 00F13809 		add	r9, r0, #56
  32 000e 002B     		cmp	r3, #0
  33 0010 5FD1     		bne	.L25
  34              	.L3:
  35 0012 F369     		ldr	r3, [r6, #28]
  36 0014 A8F10201 		sub	r1, r8, #2
  37 0018 023B     		subs	r3, r3, #2
  38 001a 9942     		cmp	r1, r3
  39 001c 3BBF     		ittet	cc
  40 001e B6F80A80 		ldrhcc	r8, [r6, #10]
  41 0022 336B     		ldrcc	r3, [r6, #48]
  42 0024 4FF00008 		movcs	r8, #0
  43 0028 01FB0838 		mlacc	r8, r1, r8, r3
  44 002c C6F83480 		str	r8, [r6, #52]
  45 0030 4FF40072 		mov	r2, #512
  46 0034 0021     		movs	r1, #0
  47 0036 4846     		mov	r0, r9
  48 0038 FFF7FEFF 		bl	memset
  49 003c 7589     		ldrh	r5, [r6, #10]
  50 003e 6C02     		lsls	r4, r5, #9
  51 0040 B4F5004F 		cmp	r4, #32768
  52 0044 2846     		mov	r0, r5
  53 0046 2BD3     		bcc	.L26
  54 0048 4FF40044 		mov	r4, #32768
  55 004c 03E0     		b	.L9
  56              	.L12:
  57 004e 6408     		lsrs	r4, r4, #1
  58 0050 B4F5007F 		cmp	r4, #512
ARM GAS  D:\Programs\cygwin64\tmp\ccQ42GcX.s 			page 2


  59 0054 3AD9     		bls	.L27
  60              	.L9:
  61 0056 2046     		mov	r0, r4
  62 0058 FFF7FEFF 		bl	ff_memalloc
  63 005c 0746     		mov	r7, r0
  64 005e 0028     		cmp	r0, #0
  65 0060 F5D0     		beq	.L12
  66 0062 2246     		mov	r2, r4
  67 0064 0021     		movs	r1, #0
  68 0066 FFF7FEFF 		bl	memset
  69 006a 7589     		ldrh	r5, [r6, #10]
  70 006c 640A     		lsrs	r4, r4, #9
  71 006e 75B1     		cbz	r5, .L14
  72 0070 0025     		movs	r5, #0
  73 0072 03E0     		b	.L13
  74              	.L15:
  75 0074 7389     		ldrh	r3, [r6, #10]
  76 0076 2544     		add	r5, r5, r4
  77 0078 AB42     		cmp	r3, r5
  78 007a 08D9     		bls	.L14
  79              	.L13:
  80 007c 2346     		mov	r3, r4
  81 007e 08EB0502 		add	r2, r8, r5
  82 0082 3946     		mov	r1, r7
  83 0084 7078     		ldrb	r0, [r6, #1]	@ zero_extendqisi2
  84 0086 FFF7FEFF 		bl	disk_write
  85 008a 0028     		cmp	r0, #0
  86 008c F2D0     		beq	.L15
  87              	.L14:
  88 008e 3846     		mov	r0, r7
  89 0090 FFF7FEFF 		bl	ff_memfree
  90 0094 7089     		ldrh	r0, [r6, #10]
  91              	.L11:
  92 0096 281A     		subs	r0, r5, r0
  93 0098 18BF     		it	ne
  94 009a 0120     		movne	r0, #1
  95 009c BDE8F883 		pop	{r3, r4, r5, r6, r7, r8, r9, pc}
  96              	.L26:
  97 00a0 B4F5007F 		cmp	r4, #512
  98 00a4 D7D8     		bhi	.L9
  99              	.L8:
 100 00a6 002D     		cmp	r5, #0
 101 00a8 F5D0     		beq	.L11
 102 00aa 0025     		movs	r5, #0
 103 00ac 03E0     		b	.L10
 104              	.L16:
 105 00ae 7089     		ldrh	r0, [r6, #10]
 106 00b0 0135     		adds	r5, r5, #1
 107 00b2 A842     		cmp	r0, r5
 108 00b4 EFD9     		bls	.L11
 109              	.L10:
 110 00b6 0123     		movs	r3, #1
 111 00b8 05EB0802 		add	r2, r5, r8
 112 00bc 4946     		mov	r1, r9
 113 00be 7078     		ldrb	r0, [r6, #1]	@ zero_extendqisi2
 114 00c0 FFF7FEFF 		bl	disk_write
 115 00c4 0028     		cmp	r0, #0
ARM GAS  D:\Programs\cygwin64\tmp\ccQ42GcX.s 			page 3


 116 00c6 F2D0     		beq	.L16
 117 00c8 7089     		ldrh	r0, [r6, #10]
 118 00ca E4E7     		b	.L11
 119              	.L27:
 120 00cc 7589     		ldrh	r5, [r6, #10]
 121 00ce 2846     		mov	r0, r5
 122 00d0 E9E7     		b	.L8
 123              	.L25:
 124 00d2 426B     		ldr	r2, [r0, #52]
 125 00d4 4078     		ldrb	r0, [r0, #1]	@ zero_extendqisi2
 126 00d6 0123     		movs	r3, #1
 127 00d8 4946     		mov	r1, r9
 128 00da FFF7FEFF 		bl	disk_write
 129 00de 80B9     		cbnz	r0, .L17
 130 00e0 716B     		ldr	r1, [r6, #52]
 131 00e2 B36A     		ldr	r3, [r6, #40]
 132 00e4 326A     		ldr	r2, [r6, #32]
 133 00e6 F070     		strb	r0, [r6, #3]
 134 00e8 CB1A     		subs	r3, r1, r3
 135 00ea 9342     		cmp	r3, r2
 136 00ec 91D2     		bcs	.L3
 137 00ee B378     		ldrb	r3, [r6, #2]	@ zero_extendqisi2
 138 00f0 022B     		cmp	r3, #2
 139 00f2 8ED1     		bne	.L3
 140 00f4 0A44     		add	r2, r2, r1
 141 00f6 0123     		movs	r3, #1
 142 00f8 4946     		mov	r1, r9
 143 00fa 7078     		ldrb	r0, [r6, #1]	@ zero_extendqisi2
 144 00fc FFF7FEFF 		bl	disk_write
 145 0100 87E7     		b	.L3
 146              	.L17:
 147 0102 0120     		movs	r0, #1
 148 0104 BDE8F883 		pop	{r3, r4, r5, r6, r7, r8, r9, pc}
 150              		.section	.text.get_fileinfo,"ax",%progbits
 151              		.align	1
 152              		.p2align 2,,3
 153              		.syntax unified
 154              		.thumb
 155              		.thumb_func
 156              		.fpu fpv4-sp-d16
 158              	get_fileinfo:
 159              		@ args = 0, pretend = 0, frame = 0
 160              		@ frame_needed = 0, uses_anonymous_args = 0
 161 0000 2DE9F843 		push	{r3, r4, r5, r6, r7, r8, r9, lr}
 162 0004 0025     		movs	r5, #0
 163 0006 D0F80090 		ldr	r9, [r0]
 164 000a 8D75     		strb	r5, [r1, #22]
 165 000c C369     		ldr	r3, [r0, #28]
 166 000e 002B     		cmp	r3, #0
 167 0010 00F0BE80 		beq	.L28
 168 0014 036B     		ldr	r3, [r0, #48]
 169 0016 0133     		adds	r3, r3, #1
 170 0018 0C46     		mov	r4, r1
 171 001a 8046     		mov	r8, r0
 172 001c 25D0     		beq	.L30
 173 001e D9F80C20 		ldr	r2, [r9, #12]
 174 0022 505B     		ldrh	r0, [r2, r5]
ARM GAS  D:\Programs\cygwin64\tmp\ccQ42GcX.s 			page 4


 175 0024 2E46     		mov	r6, r5
 176 0026 2F46     		mov	r7, r5
 177 0028 0028     		cmp	r0, #0
 178 002a 00F0C380 		beq	.L115
 179              	.L37:
 180 002e 36B9     		cbnz	r6, .L32
 181 0030 00F52053 		add	r3, r0, #10240
 182 0034 9BB2     		uxth	r3, r3
 183 0036 B3F5006F 		cmp	r3, #2048
 184 003a C0F0BD80 		bcc	.L72
 185              	.L32:
 186 003e 40EA0640 		orr	r0, r0, r6, lsl #16
 187 0042 40F25231 		movw	r1, #850
 188 0046 FFF7FEFF 		bl	ff_uni2oem
 189 004a FF28     		cmp	r0, #255
 190 004c C7F1FF03 		rsb	r3, r7, #255
 191 0050 40F2A080 		bls	.L34
 192 0054 012B     		cmp	r3, #1
 193 0056 00F2B180 		bhi	.L116
 194 005a 0023     		movs	r3, #0
 195              	.L35:
 196 005c 002E     		cmp	r6, #0
 197 005e 18BF     		it	ne
 198 0060 0023     		movne	r3, #0
 199 0062 2344     		add	r3, r3, r4
 200 0064 0022     		movs	r2, #0
 201 0066 9A75     		strb	r2, [r3, #22]
 202 0068 A57D     		ldrb	r5, [r4, #22]	@ zero_extendqisi2
 203              	.L30:
 204 006a D8F82020 		ldr	r2, [r8, #32]
 205 006e 1378     		ldrb	r3, [r2]	@ zero_extendqisi2
 206 0070 99B2     		uxth	r1, r3
 207 0072 2029     		cmp	r1, #32
 208 0074 00F0CB80 		beq	.L75
 209 0078 0529     		cmp	r1, #5
 210 007a 08BF     		it	eq
 211 007c E523     		moveq	r3, #229
 212 007e 6372     		strb	r3, [r4, #9]
 213 0080 0123     		movs	r3, #1
 214              	.L39:
 215 0082 5178     		ldrb	r1, [r2, #1]	@ zero_extendqisi2
 216 0084 88B2     		uxth	r0, r1
 217 0086 2028     		cmp	r0, #32
 218 0088 06D0     		beq	.L41
 219 008a 0528     		cmp	r0, #5
 220 008c 04EB0300 		add	r0, r4, r3
 221 0090 08BF     		it	eq
 222 0092 E521     		moveq	r1, #229
 223 0094 4172     		strb	r1, [r0, #9]
 224 0096 0133     		adds	r3, r3, #1
 225              	.L41:
 226 0098 9178     		ldrb	r1, [r2, #2]	@ zero_extendqisi2
 227 009a 88B2     		uxth	r0, r1
 228 009c 2028     		cmp	r0, #32
 229 009e 06D0     		beq	.L43
 230 00a0 0528     		cmp	r0, #5
 231 00a2 04EB0300 		add	r0, r4, r3
ARM GAS  D:\Programs\cygwin64\tmp\ccQ42GcX.s 			page 5


 232 00a6 08BF     		it	eq
 233 00a8 E521     		moveq	r1, #229
 234 00aa 4172     		strb	r1, [r0, #9]
 235 00ac 0133     		adds	r3, r3, #1
 236              	.L43:
 237 00ae D178     		ldrb	r1, [r2, #3]	@ zero_extendqisi2
 238 00b0 88B2     		uxth	r0, r1
 239 00b2 2028     		cmp	r0, #32
 240 00b4 06D0     		beq	.L45
 241 00b6 0528     		cmp	r0, #5
 242 00b8 04EB0300 		add	r0, r4, r3
 243 00bc 08BF     		it	eq
 244 00be E521     		moveq	r1, #229
 245 00c0 4172     		strb	r1, [r0, #9]
 246 00c2 0133     		adds	r3, r3, #1
 247              	.L45:
 248 00c4 1179     		ldrb	r1, [r2, #4]	@ zero_extendqisi2
 249 00c6 88B2     		uxth	r0, r1
 250 00c8 2028     		cmp	r0, #32
 251 00ca 06D0     		beq	.L47
 252 00cc 0528     		cmp	r0, #5
 253 00ce 04EB0300 		add	r0, r4, r3
 254 00d2 08BF     		it	eq
 255 00d4 E521     		moveq	r1, #229
 256 00d6 4172     		strb	r1, [r0, #9]
 257 00d8 0133     		adds	r3, r3, #1
 258              	.L47:
 259 00da 5179     		ldrb	r1, [r2, #5]	@ zero_extendqisi2
 260 00dc 88B2     		uxth	r0, r1
 261 00de 2028     		cmp	r0, #32
 262 00e0 06D0     		beq	.L49
 263 00e2 0528     		cmp	r0, #5
 264 00e4 04EB0300 		add	r0, r4, r3
 265 00e8 08BF     		it	eq
 266 00ea E521     		moveq	r1, #229
 267 00ec 4172     		strb	r1, [r0, #9]
 268 00ee 0133     		adds	r3, r3, #1
 269              	.L49:
 270 00f0 9179     		ldrb	r1, [r2, #6]	@ zero_extendqisi2
 271 00f2 88B2     		uxth	r0, r1
 272 00f4 2028     		cmp	r0, #32
 273 00f6 06D0     		beq	.L51
 274 00f8 0528     		cmp	r0, #5
 275 00fa 04EB0300 		add	r0, r4, r3
 276 00fe 08BF     		it	eq
 277 0100 E521     		moveq	r1, #229
 278 0102 4172     		strb	r1, [r0, #9]
 279 0104 0133     		adds	r3, r3, #1
 280              	.L51:
 281 0106 D179     		ldrb	r1, [r2, #7]	@ zero_extendqisi2
 282 0108 88B2     		uxth	r0, r1
 283 010a 2028     		cmp	r0, #32
 284 010c 06D0     		beq	.L53
 285 010e 0528     		cmp	r0, #5
 286 0110 04EB0300 		add	r0, r4, r3
 287 0114 08BF     		it	eq
 288 0116 E521     		moveq	r1, #229
ARM GAS  D:\Programs\cygwin64\tmp\ccQ42GcX.s 			page 6


 289 0118 4172     		strb	r1, [r0, #9]
 290 011a 0133     		adds	r3, r3, #1
 291              	.L53:
 292 011c 117A     		ldrb	r1, [r2, #8]	@ zero_extendqisi2
 293 011e 8EB2     		uxth	r6, r1
 294 0120 202E     		cmp	r6, #32
 295 0122 0AD0     		beq	.L55
 296 0124 581C     		adds	r0, r3, #1
 297 0126 052E     		cmp	r6, #5
 298 0128 2044     		add	r0, r0, r4
 299 012a 04EB0306 		add	r6, r4, r3
 300 012e 08BF     		it	eq
 301 0130 E521     		moveq	r1, #229
 302 0132 2E27     		movs	r7, #46
 303 0134 7772     		strb	r7, [r6, #9]
 304 0136 0233     		adds	r3, r3, #2
 305 0138 4172     		strb	r1, [r0, #9]
 306              	.L55:
 307 013a 517A     		ldrb	r1, [r2, #9]	@ zero_extendqisi2
 308 013c 88B2     		uxth	r0, r1
 309 013e 2028     		cmp	r0, #32
 310 0140 06D0     		beq	.L57
 311 0142 0528     		cmp	r0, #5
 312 0144 04EB0300 		add	r0, r4, r3
 313 0148 08BF     		it	eq
 314 014a E521     		moveq	r1, #229
 315 014c 4172     		strb	r1, [r0, #9]
 316 014e 0133     		adds	r3, r3, #1
 317              	.L57:
 318 0150 917A     		ldrb	r1, [r2, #10]	@ zero_extendqisi2
 319 0152 88B2     		uxth	r0, r1
 320 0154 2028     		cmp	r0, #32
 321 0156 5CD0     		beq	.L59
 322 0158 0528     		cmp	r0, #5
 323 015a 2344     		add	r3, r3, r4
 324 015c 08BF     		it	eq
 325 015e E521     		moveq	r1, #229
 326 0160 0020     		movs	r0, #0
 327 0162 5972     		strb	r1, [r3, #9]
 328 0164 9872     		strb	r0, [r3, #10]
 329 0166 8DB3     		cbz	r5, .L61
 330              	.L64:
 331 0168 D37A     		ldrb	r3, [r2, #11]	@ zero_extendqisi2
 332 016a 2372     		strb	r3, [r4, #8]
 333 016c D08B     		ldrh	r0, [r2, #30]	@ unaligned
 334 016e 517F     		ldrb	r1, [r2, #29]	@ zero_extendqisi2
 335 0170 137F     		ldrb	r3, [r2, #28]	@ zero_extendqisi2
 336 0172 41EA0021 		orr	r1, r1, r0, lsl #8
 337 0176 43EA0123 		orr	r3, r3, r1, lsl #8
 338 017a 2360     		str	r3, [r4]
 339 017c D17D     		ldrb	r1, [r2, #23]	@ zero_extendqisi2
 340 017e 937D     		ldrb	r3, [r2, #22]	@ zero_extendqisi2
 341 0180 43EA0123 		orr	r3, r3, r1, lsl #8
 342 0184 E380     		strh	r3, [r4, #6]	@ movhi
 343 0186 517E     		ldrb	r1, [r2, #25]	@ zero_extendqisi2
 344 0188 137E     		ldrb	r3, [r2, #24]	@ zero_extendqisi2
 345 018a 43EA0123 		orr	r3, r3, r1, lsl #8
ARM GAS  D:\Programs\cygwin64\tmp\ccQ42GcX.s 			page 7


 346 018e A380     		strh	r3, [r4, #4]	@ movhi
 347              	.L28:
 348 0190 BDE8F883 		pop	{r3, r4, r5, r6, r7, r8, r9, pc}
 349              	.L34:
 350 0194 C0B1     		cbz	r0, .L74
 351 0196 002B     		cmp	r3, #0
 352 0198 3FF460AF 		beq	.L35
 353 019c E219     		adds	r2, r4, r7
 354 019e 0123     		movs	r3, #1
 355 01a0 9075     		strb	r0, [r2, #22]
 356              	.L36:
 357 01a2 D9F80C20 		ldr	r2, [r9, #12]
 358 01a6 1F44     		add	r7, r7, r3
 359 01a8 0026     		movs	r6, #0
 360              	.L33:
 361 01aa 0235     		adds	r5, r5, #2
 362 01ac 505B     		ldrh	r0, [r2, r5]
 363 01ae 0028     		cmp	r0, #0
 364 01b0 7FF43DAF 		bne	.L37
 365              	.L115:
 366 01b4 3B46     		mov	r3, r7
 367 01b6 51E7     		b	.L35
 368              	.L72:
 369 01b8 0646     		mov	r6, r0
 370 01ba F6E7     		b	.L33
 371              	.L116:
 372 01bc E319     		adds	r3, r4, r7
 373 01be 020A     		lsrs	r2, r0, #8
 374 01c0 D875     		strb	r0, [r3, #23]
 375 01c2 9A75     		strb	r2, [r3, #22]
 376 01c4 0223     		movs	r3, #2
 377 01c6 ECE7     		b	.L36
 378              	.L74:
 379 01c8 0346     		mov	r3, r0
 380 01ca 47E7     		b	.L35
 381              	.L61:
 382 01cc 637A     		ldrb	r3, [r4, #9]	@ zero_extendqisi2
 383 01ce 1946     		mov	r1, r3
 384 01d0 ABB1     		cbz	r3, .L67
 385 01d2 04F10900 		add	r0, r4, #9
 386 01d6 0021     		movs	r1, #0
 387              	.L70:
 388 01d8 A3F14105 		sub	r5, r3, #65
 389 01dc 192D     		cmp	r5, #25
 390 01de 08D8     		bhi	.L68
 391 01e0 0829     		cmp	r1, #8
 392 01e2 167B     		ldrb	r6, [r2, #12]	@ zero_extendqisi2
 393 01e4 8CBF     		ite	hi
 394 01e6 1025     		movhi	r5, #16
 395 01e8 0825     		movls	r5, #8
 396 01ea 2E42     		tst	r6, r5
 397 01ec 1CBF     		itt	ne
 398 01ee 2033     		addne	r3, r3, #32
 399 01f0 DBB2     		uxtbne	r3, r3
 400              	.L68:
 401 01f2 4373     		strb	r3, [r0, #13]
 402 01f4 10F8013F 		ldrb	r3, [r0, #1]!	@ zero_extendqisi2
ARM GAS  D:\Programs\cygwin64\tmp\ccQ42GcX.s 			page 8


 403 01f8 0131     		adds	r1, r1, #1
 404 01fa 002B     		cmp	r3, #0
 405 01fc ECD1     		bne	.L70
 406              	.L67:
 407 01fe 2144     		add	r1, r1, r4
 408 0200 0023     		movs	r3, #0
 409 0202 8B75     		strb	r3, [r1, #22]
 410 0204 137B     		ldrb	r3, [r2, #12]	@ zero_extendqisi2
 411 0206 002B     		cmp	r3, #0
 412 0208 AED1     		bne	.L64
 413 020a 6372     		strb	r3, [r4, #9]
 414 020c ACE7     		b	.L64
 415              	.L75:
 416 020e 0023     		movs	r3, #0
 417 0210 37E7     		b	.L39
 418              	.L59:
 419 0212 E118     		adds	r1, r4, r3
 420 0214 0020     		movs	r0, #0
 421 0216 4872     		strb	r0, [r1, #9]
 422 0218 002D     		cmp	r5, #0
 423 021a A5D1     		bne	.L64
 424 021c 002B     		cmp	r3, #0
 425 021e D5D1     		bne	.L61
 426 0220 3F23     		movs	r3, #63
 427 0222 A375     		strb	r3, [r4, #22]
 428 0224 0121     		movs	r1, #1
 429 0226 EAE7     		b	.L67
 431              		.section	.text.move_window.part.9,"ax",%progbits
 432              		.align	1
 433              		.p2align 2,,3
 434              		.syntax unified
 435              		.thumb
 436              		.thumb_func
 437              		.fpu fpv4-sp-d16
 439              	move_window.part.9:
 440              		@ args = 0, pretend = 0, frame = 0
 441              		@ frame_needed = 0, uses_anonymous_args = 0
 442 0000 70B5     		push	{r4, r5, r6, lr}
 443 0002 C378     		ldrb	r3, [r0, #3]	@ zero_extendqisi2
 444 0004 0446     		mov	r4, r0
 445 0006 0D46     		mov	r5, r1
 446 0008 4078     		ldrb	r0, [r0, #1]	@ zero_extendqisi2
 447 000a 04F13806 		add	r6, r4, #56
 448 000e 6BB9     		cbnz	r3, .L127
 449              	.L118:
 450 0010 2A46     		mov	r2, r5
 451 0012 3146     		mov	r1, r6
 452 0014 0123     		movs	r3, #1
 453 0016 FFF7FEFF 		bl	disk_read
 454 001a 0028     		cmp	r0, #0
 455 001c 18BF     		it	ne
 456 001e 4FF0FF35 		movne	r5, #-1
 457 0022 6563     		str	r5, [r4, #52]
 458 0024 0CBF     		ite	eq
 459 0026 0020     		moveq	r0, #0
 460 0028 0120     		movne	r0, #1
 461 002a 70BD     		pop	{r4, r5, r6, pc}
ARM GAS  D:\Programs\cygwin64\tmp\ccQ42GcX.s 			page 9


 462              	.L127:
 463 002c 0123     		movs	r3, #1
 464 002e 626B     		ldr	r2, [r4, #52]
 465 0030 3146     		mov	r1, r6
 466 0032 FFF7FEFF 		bl	disk_write
 467 0036 88B9     		cbnz	r0, .L121
 468 0038 616B     		ldr	r1, [r4, #52]
 469 003a A36A     		ldr	r3, [r4, #40]
 470 003c 226A     		ldr	r2, [r4, #32]
 471 003e E070     		strb	r0, [r4, #3]
 472 0040 CB1A     		subs	r3, r1, r3
 473 0042 9342     		cmp	r3, r2
 474 0044 6078     		ldrb	r0, [r4, #1]	@ zero_extendqisi2
 475 0046 E3D2     		bcs	.L118
 476 0048 A378     		ldrb	r3, [r4, #2]	@ zero_extendqisi2
 477 004a 022B     		cmp	r3, #2
 478 004c E0D1     		bne	.L118
 479 004e 0A44     		add	r2, r2, r1
 480 0050 0123     		movs	r3, #1
 481 0052 3146     		mov	r1, r6
 482 0054 FFF7FEFF 		bl	disk_write
 483 0058 6078     		ldrb	r0, [r4, #1]	@ zero_extendqisi2
 484 005a D9E7     		b	.L118
 485              	.L121:
 486 005c 0120     		movs	r0, #1
 487 005e 70BD     		pop	{r4, r5, r6, pc}
 489              		.section	.text.put_fat.part.11,"ax",%progbits
 490              		.align	1
 491              		.p2align 2,,3
 492              		.syntax unified
 493              		.thumb
 494              		.thumb_func
 495              		.fpu fpv4-sp-d16
 497              	put_fat.part.11:
 498              		@ args = 0, pretend = 0, frame = 0
 499              		@ frame_needed = 0, uses_anonymous_args = 0
 500 0000 2DE9F843 		push	{r3, r4, r5, r6, r7, r8, r9, lr}
 501 0004 0378     		ldrb	r3, [r0]	@ zero_extendqisi2
 502 0006 022B     		cmp	r3, #2
 503 0008 0446     		mov	r4, r0
 504 000a 0D46     		mov	r5, r1
 505 000c 1646     		mov	r6, r2
 506 000e 06D0     		beq	.L129
 507 0010 032B     		cmp	r3, #3
 508 0012 54D0     		beq	.L130
 509 0014 012B     		cmp	r3, #1
 510 0016 1BD0     		beq	.L160
 511 0018 0220     		movs	r0, #2
 512              	.L150:
 513 001a BDE8F883 		pop	{r3, r4, r5, r6, r7, r8, r9, pc}
 514              	.L129:
 515 001e 816A     		ldr	r1, [r0, #40]
 516 0020 436B     		ldr	r3, [r0, #52]
 517 0022 01EB1521 		add	r1, r1, r5, lsr #8
 518 0026 9942     		cmp	r1, r3
 519 0028 03D0     		beq	.L142
 520 002a FFF7FEFF 		bl	move_window.part.9
ARM GAS  D:\Programs\cygwin64\tmp\ccQ42GcX.s 			page 10


 521 002e 0028     		cmp	r0, #0
 522 0030 F3D1     		bne	.L150
 523              	.L142:
 524 0032 6D00     		lsls	r5, r5, #1
 525 0034 04F13803 		add	r3, r4, #56
 526 0038 05F4FF75 		and	r5, r5, #510
 527 003c 5A19     		adds	r2, r3, r5
 528 003e 5E55     		strb	r6, [r3, r5]
 529 0040 C6F30721 		ubfx	r1, r6, #8, #8
 530 0044 0123     		movs	r3, #1
 531 0046 5170     		strb	r1, [r2, #1]
 532 0048 E370     		strb	r3, [r4, #3]
 533 004a 0020     		movs	r0, #0
 534 004c BDE8F883 		pop	{r3, r4, r5, r6, r7, r8, r9, pc}
 535              	.L160:
 536 0050 816A     		ldr	r1, [r0, #40]
 537 0052 436B     		ldr	r3, [r0, #52]
 538 0054 05EB5507 		add	r7, r5, r5, lsr #1
 539 0058 01EB5721 		add	r1, r1, r7, lsr #9
 540 005c 9942     		cmp	r1, r3
 541 005e 03D0     		beq	.L135
 542 0060 FFF7FEFF 		bl	move_window.part.9
 543 0064 0028     		cmp	r0, #0
 544 0066 D8D1     		bne	.L150
 545              	.L135:
 546 0068 07F10108 		add	r8, r7, #1
 547 006c EB07     		lsls	r3, r5, #31
 548 006e C7F30807 		ubfx	r7, r7, #0, #9
 549 0072 4FEA5821 		lsr	r1, r8, #9
 550 0076 04F13809 		add	r9, r4, #56
 551 007a 43D5     		bpl	.L161
 552 007c 19F80730 		ldrb	r3, [r9, r7]	@ zero_extendqisi2
 553 0080 03F00F03 		and	r3, r3, #15
 554 0084 43EA0613 		orr	r3, r3, r6, lsl #4
 555 0088 09F80730 		strb	r3, [r9, r7]
 556 008c A26A     		ldr	r2, [r4, #40]
 557 008e 636B     		ldr	r3, [r4, #52]
 558 0090 1144     		add	r1, r1, r2
 559 0092 9942     		cmp	r1, r3
 560 0094 4FF00102 		mov	r2, #1
 561 0098 E270     		strb	r2, [r4, #3]
 562 009a 04D0     		beq	.L157
 563 009c 2046     		mov	r0, r4
 564 009e FFF7FEFF 		bl	move_window.part.9
 565 00a2 0028     		cmp	r0, #0
 566 00a4 B9D1     		bne	.L150
 567              	.L157:
 568 00a6 C8F30808 		ubfx	r8, r8, #0, #9
 569 00aa C144     		add	r9, r9, r8
 570 00ac C6F30716 		ubfx	r6, r6, #4, #8
 571              	.L140:
 572 00b0 0123     		movs	r3, #1
 573 00b2 89F80060 		strb	r6, [r9]
 574 00b6 E370     		strb	r3, [r4, #3]
 575 00b8 0020     		movs	r0, #0
 576 00ba BDE8F883 		pop	{r3, r4, r5, r6, r7, r8, r9, pc}
 577              	.L130:
ARM GAS  D:\Programs\cygwin64\tmp\ccQ42GcX.s 			page 11


 578 00be 816A     		ldr	r1, [r0, #40]
 579 00c0 436B     		ldr	r3, [r0, #52]
 580 00c2 01EBD511 		add	r1, r1, r5, lsr #7
 581 00c6 9942     		cmp	r1, r3
 582 00c8 03D0     		beq	.L144
 583 00ca FFF7FEFF 		bl	move_window.part.9
 584 00ce 0028     		cmp	r0, #0
 585 00d0 A3D1     		bne	.L150
 586              	.L144:
 587 00d2 AD00     		lsls	r5, r5, #2
 588 00d4 04F13800 		add	r0, r4, #56
 589 00d8 05F4FE75 		and	r5, r5, #508
 590 00dc 4119     		adds	r1, r0, r5
 591 00de 26F07046 		bic	r6, r6, #-268435456
 592 00e2 4B88     		ldrh	r3, [r1, #2]	@ unaligned
 593 00e4 1B04     		lsls	r3, r3, #16
 594 00e6 03F07043 		and	r3, r3, #-268435456
 595 00ea 1E43     		orrs	r6, r6, r3
 596 00ec 4655     		strb	r6, [r0, r5]
 597 00ee 370A     		lsrs	r7, r6, #8
 598 00f0 320C     		lsrs	r2, r6, #16
 599 00f2 0123     		movs	r3, #1
 600 00f4 360E     		lsrs	r6, r6, #24
 601 00f6 4F70     		strb	r7, [r1, #1]
 602 00f8 8A70     		strb	r2, [r1, #2]
 603 00fa CE70     		strb	r6, [r1, #3]
 604 00fc E370     		strb	r3, [r4, #3]
 605 00fe 0020     		movs	r0, #0
 606 0100 BDE8F883 		pop	{r3, r4, r5, r6, r7, r8, r9, pc}
 607              	.L161:
 608 0104 09F80760 		strb	r6, [r9, r7]
 609 0108 A26A     		ldr	r2, [r4, #40]
 610 010a 636B     		ldr	r3, [r4, #52]
 611 010c 1144     		add	r1, r1, r2
 612 010e 9942     		cmp	r1, r3
 613 0110 4FF00102 		mov	r2, #1
 614 0114 E270     		strb	r2, [r4, #3]
 615 0116 05D0     		beq	.L158
 616 0118 2046     		mov	r0, r4
 617 011a FFF7FEFF 		bl	move_window.part.9
 618 011e 0028     		cmp	r0, #0
 619 0120 7FF47BAF 		bne	.L150
 620              	.L158:
 621 0124 C8F30808 		ubfx	r8, r8, #0, #9
 622 0128 C144     		add	r9, r9, r8
 623 012a C6F30322 		ubfx	r2, r6, #8, #4
 624 012e 99F80030 		ldrb	r3, [r9]	@ zero_extendqisi2
 625 0132 23F00F06 		bic	r6, r3, #15
 626 0136 1643     		orrs	r6, r6, r2
 627 0138 BAE7     		b	.L140
 629 013a 00BF     		.section	.text.get_fat.isra.12,"ax",%progbits
 630              		.align	1
 631              		.p2align 2,,3
 632              		.syntax unified
 633              		.thumb
 634              		.thumb_func
 635              		.fpu fpv4-sp-d16
ARM GAS  D:\Programs\cygwin64\tmp\ccQ42GcX.s 			page 12


 637              	get_fat.isra.12:
 638              		@ args = 0, pretend = 0, frame = 0
 639              		@ frame_needed = 0, uses_anonymous_args = 0
 640 0000 0129     		cmp	r1, #1
 641 0002 0ED9     		bls	.L177
 642 0004 C269     		ldr	r2, [r0, #28]
 643 0006 9142     		cmp	r1, r2
 644 0008 F8B5     		push	{r3, r4, r5, r6, r7, lr}
 645 000a 0646     		mov	r6, r0
 646 000c 07D2     		bcs	.L179
 647 000e 0378     		ldrb	r3, [r0]	@ zero_extendqisi2
 648 0010 022B     		cmp	r3, #2
 649 0012 0C46     		mov	r4, r1
 650 0014 47D0     		beq	.L164
 651 0016 032B     		cmp	r3, #3
 652 0018 2CD0     		beq	.L165
 653 001a 012B     		cmp	r3, #1
 654 001c 03D0     		beq	.L185
 655              	.L179:
 656 001e 0120     		movs	r0, #1
 657 0020 F8BD     		pop	{r3, r4, r5, r6, r7, pc}
 658              	.L177:
 659 0022 0120     		movs	r0, #1
 660 0024 7047     		bx	lr
 661              	.L185:
 662 0026 836A     		ldr	r3, [r0, #40]
 663 0028 426B     		ldr	r2, [r0, #52]
 664 002a 01EB5107 		add	r7, r1, r1, lsr #1
 665 002e 03EB5721 		add	r1, r3, r7, lsr #9
 666 0032 9142     		cmp	r1, r2
 667 0034 05D0     		beq	.L166
 668 0036 FFF7FEFF 		bl	move_window.part.9
 669 003a 0028     		cmp	r0, #0
 670 003c 3CD1     		bne	.L171
 671 003e B36A     		ldr	r3, [r6, #40]
 672 0040 726B     		ldr	r2, [r6, #52]
 673              	.L166:
 674 0042 C7F30800 		ubfx	r0, r7, #0, #9
 675 0046 0137     		adds	r7, r7, #1
 676 0048 3044     		add	r0, r0, r6
 677 004a 03EB5721 		add	r1, r3, r7, lsr #9
 678 004e 9142     		cmp	r1, r2
 679 0050 90F83850 		ldrb	r5, [r0, #56]	@ zero_extendqisi2
 680 0054 03D0     		beq	.L172
 681 0056 3046     		mov	r0, r6
 682 0058 FFF7FEFF 		bl	move_window.part.9
 683 005c 60BB     		cbnz	r0, .L171
 684              	.L172:
 685 005e C7F30803 		ubfx	r3, r7, #0, #9
 686 0062 3344     		add	r3, r3, r6
 687 0064 93F83800 		ldrb	r0, [r3, #56]	@ zero_extendqisi2
 688 0068 E307     		lsls	r3, r4, #31
 689 006a 45EA0020 		orr	r0, r5, r0, lsl #8
 690 006e 31D5     		bpl	.L186
 691 0070 0009     		lsrs	r0, r0, #4
 692 0072 F8BD     		pop	{r3, r4, r5, r6, r7, pc}
 693              	.L165:
ARM GAS  D:\Programs\cygwin64\tmp\ccQ42GcX.s 			page 13


 694 0074 816A     		ldr	r1, [r0, #40]
 695 0076 436B     		ldr	r3, [r0, #52]
 696 0078 01EBD411 		add	r1, r1, r4, lsr #7
 697 007c 9942     		cmp	r1, r3
 698 007e 02D0     		beq	.L176
 699 0080 FFF7FEFF 		bl	move_window.part.9
 700 0084 C0B9     		cbnz	r0, .L171
 701              	.L176:
 702 0086 A100     		lsls	r1, r4, #2
 703 0088 06F13803 		add	r3, r6, #56
 704 008c 01F4FE71 		and	r1, r1, #508
 705 0090 5A18     		adds	r2, r3, r1
 706 0092 585C     		ldrb	r0, [r3, r1]	@ zero_extendqisi2
 707 0094 5188     		ldrh	r1, [r2, #2]	@ unaligned
 708 0096 5378     		ldrb	r3, [r2, #1]	@ zero_extendqisi2
 709 0098 43EA0123 		orr	r3, r3, r1, lsl #8
 710 009c 40EA0320 		orr	r0, r0, r3, lsl #8
 711 00a0 20F07040 		bic	r0, r0, #-268435456
 712 00a4 F8BD     		pop	{r3, r4, r5, r6, r7, pc}
 713              	.L164:
 714 00a6 816A     		ldr	r1, [r0, #40]
 715 00a8 436B     		ldr	r3, [r0, #52]
 716 00aa 01EB1421 		add	r1, r1, r4, lsr #8
 717 00ae 9942     		cmp	r1, r3
 718 00b0 05D0     		beq	.L174
 719 00b2 FFF7FEFF 		bl	move_window.part.9
 720 00b6 10B1     		cbz	r0, .L174
 721              	.L171:
 722 00b8 4FF0FF30 		mov	r0, #-1
 723 00bc F8BD     		pop	{r3, r4, r5, r6, r7, pc}
 724              	.L174:
 725 00be 6100     		lsls	r1, r4, #1
 726 00c0 06F13803 		add	r3, r6, #56
 727 00c4 01F4FF71 		and	r1, r1, #510
 728 00c8 5A18     		adds	r2, r3, r1
 729 00ca 585C     		ldrb	r0, [r3, r1]	@ zero_extendqisi2
 730 00cc 5378     		ldrb	r3, [r2, #1]	@ zero_extendqisi2
 731 00ce 40EA0320 		orr	r0, r0, r3, lsl #8
 732 00d2 F8BD     		pop	{r3, r4, r5, r6, r7, pc}
 733              	.L186:
 734 00d4 C0F30B00 		ubfx	r0, r0, #0, #12
 735 00d8 F8BD     		pop	{r3, r4, r5, r6, r7, pc}
 737 00da 00BF     		.section	.text.create_chain,"ax",%progbits
 738              		.align	1
 739              		.p2align 2,,3
 740              		.syntax unified
 741              		.thumb
 742              		.thumb_func
 743              		.fpu fpv4-sp-d16
 745              	create_chain:
 746              		@ args = 0, pretend = 0, frame = 0
 747              		@ frame_needed = 0, uses_anonymous_args = 0
 748 0000 2DE9F041 		push	{r4, r5, r6, r7, r8, lr}
 749 0004 0746     		mov	r7, r0
 750 0006 8846     		mov	r8, r1
 751 0008 0668     		ldr	r6, [r0]
 752 000a 0029     		cmp	r1, #0
ARM GAS  D:\Programs\cygwin64\tmp\ccQ42GcX.s 			page 14


 753 000c 51D1     		bne	.L188
 754 000e 7569     		ldr	r5, [r6, #20]
 755 0010 002D     		cmp	r5, #0
 756 0012 46D0     		beq	.L209
 757 0014 F369     		ldr	r3, [r6, #28]
 758 0016 AB42     		cmp	r3, r5
 759 0018 98BF     		it	ls
 760 001a 0125     		movls	r5, #1
 761 001c B369     		ldr	r3, [r6, #24]
 762 001e 002B     		cmp	r3, #0
 763 0020 43D0     		beq	.L201
 764              	.L241:
 765 0022 F369     		ldr	r3, [r6, #28]
 766              	.L197:
 767 0024 2C46     		mov	r4, r5
 768 0026 06E0     		b	.L202
 769              	.L240:
 770 0028 0128     		cmp	r0, #1
 771 002a 68D0     		beq	.L195
 772 002c 0130     		adds	r0, r0, #1
 773 002e 6AD0     		beq	.L192
 774 0030 AC42     		cmp	r4, r5
 775 0032 3AD0     		beq	.L201
 776 0034 F369     		ldr	r3, [r6, #28]
 777              	.L202:
 778 0036 0134     		adds	r4, r4, #1
 779 0038 9C42     		cmp	r4, r3
 780 003a 02D3     		bcc	.L199
 781 003c 012D     		cmp	r5, #1
 782 003e 34D9     		bls	.L201
 783 0040 0224     		movs	r4, #2
 784              	.L199:
 785 0042 2146     		mov	r1, r4
 786 0044 3868     		ldr	r0, [r7]
 787 0046 FFF7FEFF 		bl	get_fat.isra.12
 788 004a 0028     		cmp	r0, #0
 789 004c ECD1     		bne	.L240
 790 004e 012C     		cmp	r4, #1
 791 0050 55D9     		bls	.L195
 792              	.L198:
 793 0052 F369     		ldr	r3, [r6, #28]
 794 0054 A342     		cmp	r3, r4
 795 0056 52D9     		bls	.L195
 796 0058 4FF0FF32 		mov	r2, #-1
 797 005c 2146     		mov	r1, r4
 798 005e 3046     		mov	r0, r6
 799 0060 FFF7FEFF 		bl	put_fat.part.11
 800 0064 0028     		cmp	r0, #0
 801 0066 48D1     		bne	.L203
 802 0068 B8F1000F 		cmp	r8, #0
 803 006c 0CD0     		beq	.L207
 804 006e B8F1010F 		cmp	r8, #1
 805 0072 44D9     		bls	.L195
 806 0074 F369     		ldr	r3, [r6, #28]
 807 0076 9845     		cmp	r8, r3
 808 0078 41D2     		bcs	.L195
 809 007a 4146     		mov	r1, r8
ARM GAS  D:\Programs\cygwin64\tmp\ccQ42GcX.s 			page 15


 810 007c 2246     		mov	r2, r4
 811 007e 3046     		mov	r0, r6
 812 0080 FFF7FEFF 		bl	put_fat.part.11
 813 0084 0028     		cmp	r0, #0
 814 0086 38D1     		bne	.L203
 815              	.L207:
 816 0088 D6E90623 		ldrd	r2, r3, [r6, #24]
 817 008c 023B     		subs	r3, r3, #2
 818 008e 9A42     		cmp	r2, r3
 819 0090 7461     		str	r4, [r6, #20]
 820 0092 01D8     		bhi	.L206
 821 0094 013A     		subs	r2, r2, #1
 822 0096 B261     		str	r2, [r6, #24]
 823              	.L206:
 824 0098 3379     		ldrb	r3, [r6, #4]	@ zero_extendqisi2
 825 009a 43F00103 		orr	r3, r3, #1
 826 009e 3371     		strb	r3, [r6, #4]
 827 00a0 04E0     		b	.L187
 828              	.L209:
 829 00a2 B369     		ldr	r3, [r6, #24]
 830 00a4 0125     		movs	r5, #1
 831 00a6 002B     		cmp	r3, #0
 832 00a8 BBD1     		bne	.L241
 833              	.L201:
 834 00aa 0024     		movs	r4, #0
 835              	.L187:
 836 00ac 2046     		mov	r0, r4
 837 00ae BDE8F081 		pop	{r4, r5, r6, r7, r8, pc}
 838              	.L188:
 839 00b2 3046     		mov	r0, r6
 840 00b4 FFF7FEFF 		bl	get_fat.isra.12
 841 00b8 0128     		cmp	r0, #1
 842 00ba 0446     		mov	r4, r0
 843 00bc 1FD9     		bls	.L195
 844 00be 421C     		adds	r2, r0, #1
 845 00c0 21D0     		beq	.L192
 846 00c2 F369     		ldr	r3, [r6, #28]
 847 00c4 8342     		cmp	r3, r0
 848 00c6 F1D8     		bhi	.L187
 849 00c8 B269     		ldr	r2, [r6, #24]
 850 00ca 002A     		cmp	r2, #0
 851 00cc EDD0     		beq	.L201
 852 00ce 08F10104 		add	r4, r8, #1
 853 00d2 A342     		cmp	r3, r4
 854 00d4 98BF     		it	ls
 855 00d6 0224     		movls	r4, #2
 856 00d8 2146     		mov	r1, r4
 857 00da 3868     		ldr	r0, [r7]
 858 00dc FFF7FEFF 		bl	get_fat.isra.12
 859 00e0 0128     		cmp	r0, #1
 860 00e2 0CD0     		beq	.L195
 861 00e4 431C     		adds	r3, r0, #1
 862 00e6 0ED0     		beq	.L192
 863 00e8 90B1     		cbz	r0, .L196
 864 00ea 7569     		ldr	r5, [r6, #20]
 865 00ec F369     		ldr	r3, [r6, #28]
 866 00ee 012D     		cmp	r5, #1
ARM GAS  D:\Programs\cygwin64\tmp\ccQ42GcX.s 			page 16


 867 00f0 13D9     		bls	.L210
 868 00f2 9D42     		cmp	r5, r3
 869 00f4 28BF     		it	cs
 870 00f6 4546     		movcs	r5, r8
 871 00f8 94E7     		b	.L197
 872              	.L203:
 873 00fa 0128     		cmp	r0, #1
 874 00fc 03D0     		beq	.L192
 875              	.L195:
 876 00fe 0124     		movs	r4, #1
 877 0100 2046     		mov	r0, r4
 878 0102 BDE8F081 		pop	{r4, r5, r6, r7, r8, pc}
 879              	.L192:
 880 0106 4FF0FF34 		mov	r4, #-1
 881 010a 2046     		mov	r0, r4
 882 010c BDE8F081 		pop	{r4, r5, r6, r7, r8, pc}
 883              	.L196:
 884 0110 002C     		cmp	r4, #0
 885 0112 9ED1     		bne	.L198
 886 0114 F369     		ldr	r3, [r6, #28]
 887 0116 4546     		mov	r5, r8
 888 0118 84E7     		b	.L197
 889              	.L210:
 890 011a 4546     		mov	r5, r8
 891 011c 82E7     		b	.L197
 893 011e 00BF     		.section	.text.remove_chain,"ax",%progbits
 894              		.align	1
 895              		.p2align 2,,3
 896              		.syntax unified
 897              		.thumb
 898              		.thumb_func
 899              		.fpu fpv4-sp-d16
 901              	remove_chain:
 902              		@ args = 0, pretend = 0, frame = 0
 903              		@ frame_needed = 0, uses_anonymous_args = 0
 904 0000 0129     		cmp	r1, #1
 905 0002 F8B5     		push	{r3, r4, r5, r6, r7, lr}
 906 0004 0568     		ldr	r5, [r0]
 907 0006 28D9     		bls	.L243
 908 0008 EB69     		ldr	r3, [r5, #28]
 909 000a 8B42     		cmp	r3, r1
 910 000c 0C46     		mov	r4, r1
 911 000e 24D9     		bls	.L243
 912 0010 0746     		mov	r7, r0
 913 0012 F2B9     		cbnz	r2, .L256
 914 0014 2846     		mov	r0, r5
 915              	.L249:
 916 0016 2146     		mov	r1, r4
 917 0018 FFF7FEFF 		bl	get_fat.isra.12
 918 001c 2146     		mov	r1, r4
 919 001e 0646     		mov	r6, r0
 920 0020 0022     		movs	r2, #0
 921 0022 68B3     		cbz	r0, .L248
 922 0024 012E     		cmp	r6, #1
 923 0026 2846     		mov	r0, r5
 924 0028 17D0     		beq	.L243
 925 002a 731C     		adds	r3, r6, #1
ARM GAS  D:\Programs\cygwin64\tmp\ccQ42GcX.s 			page 17


 926 002c 2AD0     		beq	.L251
 927 002e 012C     		cmp	r4, #1
 928 0030 13D9     		bls	.L243
 929 0032 EB69     		ldr	r3, [r5, #28]
 930 0034 9C42     		cmp	r4, r3
 931 0036 10D2     		bcs	.L243
 932 0038 FFF7FEFF 		bl	put_fat.part.11
 933 003c 70B9     		cbnz	r0, .L245
 934 003e D5E90632 		ldrd	r3, r2, [r5, #24]
 935 0042 911E     		subs	r1, r2, #2
 936 0044 8B42     		cmp	r3, r1
 937 0046 0AD3     		bcc	.L257
 938              	.L247:
 939 0048 B242     		cmp	r2, r6
 940 004a 19D9     		bls	.L248
 941 004c 3868     		ldr	r0, [r7]
 942 004e 3446     		mov	r4, r6
 943 0050 E1E7     		b	.L249
 944              	.L256:
 945 0052 012A     		cmp	r2, #1
 946 0054 01D9     		bls	.L243
 947 0056 9342     		cmp	r3, r2
 948 0058 08D8     		bhi	.L258
 949              	.L243:
 950 005a 0220     		movs	r0, #2
 951              	.L245:
 952 005c F8BD     		pop	{r3, r4, r5, r6, r7, pc}
 953              	.L257:
 954 005e 2979     		ldrb	r1, [r5, #4]	@ zero_extendqisi2
 955 0060 0133     		adds	r3, r3, #1
 956 0062 41F00101 		orr	r1, r1, #1
 957 0066 AB61     		str	r3, [r5, #24]
 958 0068 2971     		strb	r1, [r5, #4]
 959 006a EDE7     		b	.L247
 960              	.L258:
 961 006c 1146     		mov	r1, r2
 962 006e 2846     		mov	r0, r5
 963 0070 4FF0FF32 		mov	r2, #-1
 964 0074 FFF7FEFF 		bl	put_fat.part.11
 965 0078 0028     		cmp	r0, #0
 966 007a EFD1     		bne	.L245
 967 007c 3868     		ldr	r0, [r7]
 968 007e CAE7     		b	.L249
 969              	.L248:
 970 0080 0020     		movs	r0, #0
 971 0082 F8BD     		pop	{r3, r4, r5, r6, r7, pc}
 972              	.L251:
 973 0084 0120     		movs	r0, #1
 974 0086 F8BD     		pop	{r3, r4, r5, r6, r7, pc}
 976              		.section	.text.dir_next.constprop.17,"ax",%progbits
 977              		.align	1
 978              		.p2align 2,,3
 979              		.syntax unified
 980              		.thumb
 981              		.thumb_func
 982              		.fpu fpv4-sp-d16
 984              	dir_next.constprop.17:
ARM GAS  D:\Programs\cygwin64\tmp\ccQ42GcX.s 			page 18


 985              		@ args = 0, pretend = 0, frame = 0
 986              		@ frame_needed = 0, uses_anonymous_args = 0
 987 0000 F8B5     		push	{r3, r4, r5, r6, r7, lr}
 988 0002 4569     		ldr	r5, [r0, #20]
 989 0004 2035     		adds	r5, r5, #32
 990 0006 B5F5001F 		cmp	r5, #2097152
 991 000a 0446     		mov	r4, r0
 992 000c 03D3     		bcc	.L260
 993              	.L265:
 994 000e 0023     		movs	r3, #0
 995 0010 E361     		str	r3, [r4, #28]
 996 0012 0420     		movs	r0, #4
 997 0014 F8BD     		pop	{r3, r4, r5, r6, r7, pc}
 998              	.L260:
 999 0016 C369     		ldr	r3, [r0, #28]
 1000 0018 002B     		cmp	r3, #0
 1001 001a 31D0     		beq	.L268
 1002 001c C5F30807 		ubfx	r7, r5, #0, #9
 1003 0020 0668     		ldr	r6, [r0]
 1004 0022 F7B9     		cbnz	r7, .L263
 1005 0024 8169     		ldr	r1, [r0, #24]
 1006 0026 0133     		adds	r3, r3, #1
 1007 0028 C361     		str	r3, [r0, #28]
 1008 002a 01B3     		cbz	r1, .L273
 1009 002c 7389     		ldrh	r3, [r6, #10]
 1010 002e 013B     		subs	r3, r3, #1
 1011 0030 13EA5523 		ands	r3, r3, r5, lsr #9
 1012 0034 15D1     		bne	.L263
 1013 0036 3046     		mov	r0, r6
 1014 0038 FFF7FEFF 		bl	get_fat.isra.12
 1015 003c 0128     		cmp	r0, #1
 1016 003e 1DD9     		bls	.L269
 1017 0040 431C     		adds	r3, r0, #1
 1018 0042 19D0     		beq	.L270
 1019 0044 F369     		ldr	r3, [r6, #28]
 1020 0046 9842     		cmp	r0, r3
 1021 0048 E1D2     		bcs	.L265
 1022 004a 023B     		subs	r3, r3, #2
 1023 004c 821E     		subs	r2, r0, #2
 1024 004e 9A42     		cmp	r2, r3
 1025 0050 3CBF     		itt	cc
 1026 0052 7389     		ldrhcc	r3, [r6, #10]
 1027 0054 316B     		ldrcc	r1, [r6, #48]
 1028 0056 A061     		str	r0, [r4, #24]
 1029 0058 34BF     		ite	cc
 1030 005a 02FB0313 		mlacc	r3, r2, r3, r1
 1031 005e 3B46     		movcs	r3, r7
 1032 0060 E361     		str	r3, [r4, #28]
 1033              	.L263:
 1034 0062 3836     		adds	r6, r6, #56
 1035 0064 3E44     		add	r6, r6, r7
 1036 0066 2662     		str	r6, [r4, #32]
 1037 0068 6561     		str	r5, [r4, #20]
 1038 006a 0020     		movs	r0, #0
 1039 006c F8BD     		pop	{r3, r4, r5, r6, r7, pc}
 1040              	.L273:
 1041 006e 3389     		ldrh	r3, [r6, #8]
ARM GAS  D:\Programs\cygwin64\tmp\ccQ42GcX.s 			page 19


 1042 0070 B3EB551F 		cmp	r3, r5, lsr #5
 1043 0074 F5D8     		bhi	.L263
 1044 0076 CAE7     		b	.L265
 1045              	.L270:
 1046 0078 0120     		movs	r0, #1
 1047 007a F8BD     		pop	{r3, r4, r5, r6, r7, pc}
 1048              	.L269:
 1049 007c 0220     		movs	r0, #2
 1050 007e F8BD     		pop	{r3, r4, r5, r6, r7, pc}
 1051              	.L268:
 1052 0080 0420     		movs	r0, #4
 1053 0082 F8BD     		pop	{r3, r4, r5, r6, r7, pc}
 1055              		.section	.text.sync_fs,"ax",%progbits
 1056              		.align	1
 1057              		.p2align 2,,3
 1058              		.syntax unified
 1059              		.thumb
 1060              		.thumb_func
 1061              		.fpu fpv4-sp-d16
 1063              	sync_fs:
 1064              		@ args = 0, pretend = 0, frame = 0
 1065              		@ frame_needed = 0, uses_anonymous_args = 0
 1066 0000 F8B5     		push	{r3, r4, r5, r6, r7, lr}
 1067 0002 C378     		ldrb	r3, [r0, #3]	@ zero_extendqisi2
 1068 0004 0446     		mov	r4, r0
 1069 0006 5BB9     		cbnz	r3, .L282
 1070              	.L276:
 1071 0008 2378     		ldrb	r3, [r4]	@ zero_extendqisi2
 1072 000a 032B     		cmp	r3, #3
 1073 000c 23D0     		beq	.L283
 1074              	.L279:
 1075 000e 0022     		movs	r2, #0
 1076 0010 6078     		ldrb	r0, [r4, #1]	@ zero_extendqisi2
 1077 0012 1146     		mov	r1, r2
 1078 0014 FFF7FEFF 		bl	disk_ioctl
 1079 0018 0030     		adds	r0, r0, #0
 1080 001a 18BF     		it	ne
 1081 001c 0120     		movne	r0, #1
 1082 001e F8BD     		pop	{r3, r4, r5, r6, r7, pc}
 1083              	.L282:
 1084 0020 00F13805 		add	r5, r0, #56
 1085 0024 426B     		ldr	r2, [r0, #52]
 1086 0026 4078     		ldrb	r0, [r0, #1]	@ zero_extendqisi2
 1087 0028 2946     		mov	r1, r5
 1088 002a 0123     		movs	r3, #1
 1089 002c FFF7FEFF 		bl	disk_write
 1090 0030 0028     		cmp	r0, #0
 1091 0032 4AD1     		bne	.L280
 1092 0034 616B     		ldr	r1, [r4, #52]
 1093 0036 A36A     		ldr	r3, [r4, #40]
 1094 0038 226A     		ldr	r2, [r4, #32]
 1095 003a E070     		strb	r0, [r4, #3]
 1096 003c CB1A     		subs	r3, r1, r3
 1097 003e 9342     		cmp	r3, r2
 1098 0040 E2D2     		bcs	.L276
 1099 0042 A378     		ldrb	r3, [r4, #2]	@ zero_extendqisi2
 1100 0044 022B     		cmp	r3, #2
ARM GAS  D:\Programs\cygwin64\tmp\ccQ42GcX.s 			page 20


 1101 0046 DFD1     		bne	.L276
 1102 0048 0A44     		add	r2, r2, r1
 1103 004a 0123     		movs	r3, #1
 1104 004c 2946     		mov	r1, r5
 1105 004e 6078     		ldrb	r0, [r4, #1]	@ zero_extendqisi2
 1106 0050 FFF7FEFF 		bl	disk_write
 1107 0054 D8E7     		b	.L276
 1108              	.L283:
 1109 0056 2679     		ldrb	r6, [r4, #4]	@ zero_extendqisi2
 1110 0058 012E     		cmp	r6, #1
 1111 005a D8D1     		bne	.L279
 1112 005c 04F13803 		add	r3, r4, #56
 1113 0060 1846     		mov	r0, r3
 1114 0062 4FF40072 		mov	r2, #512
 1115 0066 0021     		movs	r1, #0
 1116 0068 FFF7FEFF 		bl	memset
 1117 006c 0346     		mov	r3, r0
 1118 006e D4E90505 		ldrd	r0, r5, [r4, #20]
 1119 0072 626A     		ldr	r2, [r4, #36]
 1120 0074 84F82052 		strb	r5, [r4, #544]
 1121 0078 2F0A     		lsrs	r7, r5, #8
 1122 007a 1946     		mov	r1, r3
 1123 007c 3346     		mov	r3, r6
 1124 007e 2E0C     		lsrs	r6, r5, #16
 1125 0080 2D0E     		lsrs	r5, r5, #24
 1126 0082 84F82262 		strb	r6, [r4, #546]
 1127 0086 84F82352 		strb	r5, [r4, #547]
 1128 008a 060A     		lsrs	r6, r0, #8
 1129 008c 050C     		lsrs	r5, r0, #16
 1130 008e 84F82402 		strb	r0, [r4, #548]
 1131 0092 000E     		lsrs	r0, r0, #24
 1132 0094 0132     		adds	r2, r2, #1
 1133 0096 84F82172 		strb	r7, [r4, #545]
 1134 009a 84F82562 		strb	r6, [r4, #549]
 1135 009e 84F82652 		strb	r5, [r4, #550]
 1136 00a2 84F82702 		strb	r0, [r4, #551]
 1137 00a6 5527     		movs	r7, #85
 1138 00a8 0948     		ldr	r0, .L284
 1139 00aa 0A4D     		ldr	r5, .L284+4
 1140 00ac C4F81C02 		str	r0, [r4, #540]
 1141 00b0 AA26     		movs	r6, #170
 1142 00b2 6263     		str	r2, [r4, #52]
 1143 00b4 84F83672 		strb	r7, [r4, #566]
 1144 00b8 84F83762 		strb	r6, [r4, #567]
 1145 00bc A563     		str	r5, [r4, #56]
 1146 00be 6078     		ldrb	r0, [r4, #1]	@ zero_extendqisi2
 1147 00c0 FFF7FEFF 		bl	disk_write
 1148 00c4 0023     		movs	r3, #0
 1149 00c6 2371     		strb	r3, [r4, #4]
 1150 00c8 A1E7     		b	.L279
 1151              	.L280:
 1152 00ca 0120     		movs	r0, #1
 1153 00cc F8BD     		pop	{r3, r4, r5, r6, r7, pc}
 1154              	.L285:
 1155 00ce 00BF     		.align	2
 1156              	.L284:
 1157 00d0 72724161 		.word	1631679090
ARM GAS  D:\Programs\cygwin64\tmp\ccQ42GcX.s 			page 21


 1158 00d4 52526141 		.word	1096897106
 1160              		.section	.text.dir_read.constprop.16,"ax",%progbits
 1161              		.align	1
 1162              		.p2align 2,,3
 1163              		.syntax unified
 1164              		.thumb
 1165              		.thumb_func
 1166              		.fpu fpv4-sp-d16
 1168              	dir_read.constprop.16:
 1169              		@ args = 0, pretend = 0, frame = 8
 1170              		@ frame_needed = 0, uses_anonymous_args = 0
 1171 0000 2DE9F04F 		push	{r4, r5, r6, r7, r8, r9, r10, fp, lr}
 1172 0004 D0F81CA0 		ldr	r10, [r0, #28]
 1173 0008 0568     		ldr	r5, [r0]
 1174 000a 83B0     		sub	sp, sp, #12
 1175 000c 0446     		mov	r4, r0
 1176 000e BAF1000F 		cmp	r10, #0
 1177 0012 31D0     		beq	.L376
 1178 0014 4FF0FF09 		mov	r9, #255
 1179 0018 A64F     		ldr	r7, .L417
 1180 001a 4E46     		mov	r6, r9
 1181 001c 05F13808 		add	r8, r5, #56
 1182              	.L287:
 1183 0020 6A6B     		ldr	r2, [r5, #52]
 1184 0022 5245     		cmp	r2, r10
 1185 0024 14D0     		beq	.L289
 1186 0026 EB78     		ldrb	r3, [r5, #3]	@ zero_extendqisi2
 1187 0028 6878     		ldrb	r0, [r5, #1]	@ zero_extendqisi2
 1188 002a 002B     		cmp	r3, #0
 1189 002c 48D1     		bne	.L413
 1190              	.L290:
 1191 002e 0123     		movs	r3, #1
 1192 0030 5246     		mov	r2, r10
 1193 0032 4146     		mov	r1, r8
 1194 0034 FFF7FEFF 		bl	disk_read
 1195 0038 40B1     		cbz	r0, .L293
 1196 003a 4FF0FF33 		mov	r3, #-1
 1197 003e 6B63     		str	r3, [r5, #52]
 1198              	.L411:
 1199 0040 0120     		movs	r0, #1
 1200              	.L292:
 1201 0042 0023     		movs	r3, #0
 1202 0044 E361     		str	r3, [r4, #28]
 1203 0046 03B0     		add	sp, sp, #12
 1204              		@ sp needed
 1205 0048 BDE8F08F 		pop	{r4, r5, r6, r7, r8, r9, r10, fp, pc}
 1206              	.L293:
 1207 004c C5F834A0 		str	r10, [r5, #52]
 1208              	.L289:
 1209 0050 226A     		ldr	r2, [r4, #32]
 1210 0052 1178     		ldrb	r1, [r2]	@ zero_extendqisi2
 1211 0054 81B1     		cbz	r1, .L376
 1212 0056 D37A     		ldrb	r3, [r2, #11]	@ zero_extendqisi2
 1213 0058 E529     		cmp	r1, #229
 1214 005a 03F03F03 		and	r3, r3, #63
 1215 005e A371     		strb	r3, [r4, #6]
 1216 0060 05D0     		beq	.L410
ARM GAS  D:\Programs\cygwin64\tmp\ccQ42GcX.s 			page 22


 1217 0062 2E29     		cmp	r1, #46
 1218 0064 03D0     		beq	.L410
 1219 0066 23F02000 		bic	r0, r3, #32
 1220 006a 0828     		cmp	r0, #8
 1221 006c 63D1     		bne	.L297
 1222              	.L410:
 1223 006e 6369     		ldr	r3, [r4, #20]
 1224              	.L409:
 1225 0070 FF26     		movs	r6, #255
 1226              	.L296:
 1227 0072 2033     		adds	r3, r3, #32
 1228 0074 BB42     		cmp	r3, r7
 1229 0076 01D9     		bls	.L414
 1230              	.L376:
 1231 0078 0420     		movs	r0, #4
 1232 007a E2E7     		b	.L292
 1233              	.L414:
 1234 007c D4F81CA0 		ldr	r10, [r4, #28]
 1235 0080 BAF1000F 		cmp	r10, #0
 1236 0084 F8D0     		beq	.L376
 1237 0086 C3F30801 		ubfx	r1, r3, #0, #9
 1238 008a 2268     		ldr	r2, [r4]
 1239 008c 99B9     		cbnz	r1, .L328
 1240 008e A169     		ldr	r1, [r4, #24]
 1241 0090 0AF1010A 		add	r10, r10, #1
 1242 0094 C4F81CA0 		str	r10, [r4, #28]
 1243 0098 51BB     		cbnz	r1, .L329
 1244 009a 1189     		ldrh	r1, [r2, #8]
 1245 009c B1EB531F 		cmp	r1, r3, lsr #5
 1246 00a0 EAD9     		bls	.L376
 1247              	.L330:
 1248 00a2 3832     		adds	r2, r2, #56
 1249 00a4 2262     		str	r2, [r4, #32]
 1250 00a6 6361     		str	r3, [r4, #20]
 1251 00a8 BAF1000F 		cmp	r10, #0
 1252 00ac B8D1     		bne	.L287
 1253              	.L412:
 1254 00ae 0020     		movs	r0, #0
 1255 00b0 03B0     		add	sp, sp, #12
 1256              		@ sp needed
 1257 00b2 BDE8F08F 		pop	{r4, r5, r6, r7, r8, r9, r10, fp, pc}
 1258              	.L328:
 1259 00b6 3832     		adds	r2, r2, #56
 1260 00b8 1144     		add	r1, r1, r2
 1261 00ba 2162     		str	r1, [r4, #32]
 1262 00bc 6361     		str	r3, [r4, #20]
 1263 00be AFE7     		b	.L287
 1264              	.L413:
 1265 00c0 0123     		movs	r3, #1
 1266 00c2 4146     		mov	r1, r8
 1267 00c4 FFF7FEFF 		bl	disk_write
 1268 00c8 0028     		cmp	r0, #0
 1269 00ca B9D1     		bne	.L411
 1270 00cc 696B     		ldr	r1, [r5, #52]
 1271 00ce AB6A     		ldr	r3, [r5, #40]
 1272 00d0 2A6A     		ldr	r2, [r5, #32]
 1273 00d2 E870     		strb	r0, [r5, #3]
ARM GAS  D:\Programs\cygwin64\tmp\ccQ42GcX.s 			page 23


 1274 00d4 CB1A     		subs	r3, r1, r3
 1275 00d6 9342     		cmp	r3, r2
 1276 00d8 6878     		ldrb	r0, [r5, #1]	@ zero_extendqisi2
 1277 00da A8D2     		bcs	.L290
 1278 00dc AB78     		ldrb	r3, [r5, #2]	@ zero_extendqisi2
 1279 00de 022B     		cmp	r3, #2
 1280 00e0 A5D1     		bne	.L290
 1281 00e2 0A44     		add	r2, r2, r1
 1282 00e4 0123     		movs	r3, #1
 1283 00e6 4146     		mov	r1, r8
 1284 00e8 FFF7FEFF 		bl	disk_write
 1285 00ec 6878     		ldrb	r0, [r5, #1]	@ zero_extendqisi2
 1286 00ee 9EE7     		b	.L290
 1287              	.L329:
 1288 00f0 5089     		ldrh	r0, [r2, #10]
 1289 00f2 0138     		subs	r0, r0, #1
 1290 00f4 10EA532B 		ands	fp, r0, r3, lsr #9
 1291 00f8 D3D1     		bne	.L330
 1292 00fa 1046     		mov	r0, r2
 1293 00fc 0193     		str	r3, [sp, #4]
 1294 00fe 0092     		str	r2, [sp]
 1295 0100 FFF7FEFF 		bl	get_fat.isra.12
 1296 0104 0128     		cmp	r0, #1
 1297 0106 40F2D380 		bls	.L377
 1298 010a 431C     		adds	r3, r0, #1
 1299 010c 98D0     		beq	.L411
 1300 010e 009A     		ldr	r2, [sp]
 1301 0110 D169     		ldr	r1, [r2, #28]
 1302 0112 8842     		cmp	r0, r1
 1303 0114 B0D2     		bcs	.L376
 1304 0116 0239     		subs	r1, r1, #2
 1305 0118 A0F1020C 		sub	ip, r0, #2
 1306 011c 8C45     		cmp	ip, r1
 1307 011e A061     		str	r0, [r4, #24]
 1308 0120 019B     		ldr	r3, [sp, #4]
 1309 0122 80F0C080 		bcs	.L415
 1310 0126 B2F80AA0 		ldrh	r10, [r2, #10]
 1311 012a 116B     		ldr	r1, [r2, #48]
 1312 012c 0CFB0A1A 		mla	r10, ip, r10, r1
 1313 0130 C4F81CA0 		str	r10, [r4, #28]
 1314 0134 B5E7     		b	.L330
 1315              	.L297:
 1316 0136 0F2B     		cmp	r3, #15
 1317 0138 40F07481 		bne	.L298
 1318 013c 4806     		lsls	r0, r1, #25
 1319 013e 6369     		ldr	r3, [r4, #20]
 1320 0140 40F1AD80 		bpl	.L299
 1321 0144 92F80D90 		ldrb	r9, [r2, #13]	@ zero_extendqisi2
 1322 0148 2363     		str	r3, [r4, #48]
 1323 014a 01F0BF06 		and	r6, r1, #191
 1324              	.L300:
 1325 014e 517B     		ldrb	r1, [r2, #13]	@ zero_extendqisi2
 1326 0150 4945     		cmp	r1, r9
 1327 0152 8DD1     		bne	.L409
 1328 0154 D07E     		ldrb	r0, [r2, #27]	@ zero_extendqisi2
 1329 0156 917E     		ldrb	r1, [r2, #26]	@ zero_extendqisi2
 1330 0158 51EA0021 		orrs	r1, r1, r0, lsl #8
ARM GAS  D:\Programs\cygwin64\tmp\ccQ42GcX.s 			page 24


 1331 015c 88D1     		bne	.L409
 1332 015e 1178     		ldrb	r1, [r2]	@ zero_extendqisi2
 1333 0160 9078     		ldrb	r0, [r2, #2]	@ zero_extendqisi2
 1334 0162 92F801C0 		ldrb	ip, [r2, #1]	@ zero_extendqisi2
 1335 0166 21F04001 		bic	r1, r1, #64
 1336 016a 0139     		subs	r1, r1, #1
 1337 016c 01EB410E 		add	lr, r1, r1, lsl #1
 1338 0170 01EB8E01 		add	r1, r1, lr, lsl #2
 1339 0174 FE29     		cmp	r1, #254
 1340 0176 0091     		str	r1, [sp]
 1341 0178 4CEA002C 		orr	ip, ip, r0, lsl #8
 1342 017c 3FF678AF 		bhi	.L409
 1343 0180 D5F80CA0 		ldr	r10, [r5, #12]
 1344 0184 2AF811C0 		strh	ip, [r10, r1, lsl #1]	@ movhi
 1345 0188 1079     		ldrb	r0, [r2, #4]	@ zero_extendqisi2
 1346 018a 92F803E0 		ldrb	lr, [r2, #3]	@ zero_extendqisi2
 1347 018e 4EEA002E 		orr	lr, lr, r0, lsl #8
 1348 0192 481C     		adds	r0, r1, #1
 1349 0194 BCF1000F 		cmp	ip, #0
 1350 0198 40F08E80 		bne	.L301
 1351 019c 4FF6FF71 		movw	r1, #65535
 1352 01a0 8E45     		cmp	lr, r1
 1353 01a2 7FF465AF 		bne	.L409
 1354 01a6 92F806B0 		ldrb	fp, [r2, #6]	@ zero_extendqisi2
 1355 01aa 92F805C0 		ldrb	ip, [r2, #5]	@ zero_extendqisi2
 1356 01ae 4CEA0B2B 		orr	fp, ip, fp, lsl #8
 1357              	.L345:
 1358 01b2 4FF6FF71 		movw	r1, #65535
 1359 01b6 8B45     		cmp	fp, r1
 1360 01b8 7FF45AAF 		bne	.L409
 1361 01bc 92F808B0 		ldrb	fp, [r2, #8]	@ zero_extendqisi2
 1362 01c0 92F807E0 		ldrb	lr, [r2, #7]	@ zero_extendqisi2
 1363 01c4 4EEA0B2E 		orr	lr, lr, fp, lsl #8
 1364              	.L344:
 1365 01c8 4FF6FF71 		movw	r1, #65535
 1366 01cc 8E45     		cmp	lr, r1
 1367 01ce 7FF44FAF 		bne	.L409
 1368 01d2 917A     		ldrb	r1, [r2, #10]	@ zero_extendqisi2
 1369 01d4 92F809B0 		ldrb	fp, [r2, #9]	@ zero_extendqisi2
 1370 01d8 4BEA012B 		orr	fp, fp, r1, lsl #8
 1371              	.L343:
 1372 01dc 4FF6FF71 		movw	r1, #65535
 1373 01e0 8B45     		cmp	fp, r1
 1374 01e2 7FF445AF 		bne	.L409
 1375 01e6 D17B     		ldrb	r1, [r2, #15]	@ zero_extendqisi2
 1376 01e8 92F80EE0 		ldrb	lr, [r2, #14]	@ zero_extendqisi2
 1377 01ec 4EEA012E 		orr	lr, lr, r1, lsl #8
 1378              	.L342:
 1379 01f0 4FF6FF71 		movw	r1, #65535
 1380 01f4 8E45     		cmp	lr, r1
 1381 01f6 7FF43BAF 		bne	.L409
 1382 01fa 517C     		ldrb	r1, [r2, #17]	@ zero_extendqisi2
 1383 01fc 92F810B0 		ldrb	fp, [r2, #16]	@ zero_extendqisi2
 1384 0200 4BEA012B 		orr	fp, fp, r1, lsl #8
 1385              	.L341:
 1386 0204 4FF6FF71 		movw	r1, #65535
 1387 0208 8B45     		cmp	fp, r1
ARM GAS  D:\Programs\cygwin64\tmp\ccQ42GcX.s 			page 25


 1388 020a 7FF431AF 		bne	.L409
 1389 020e D17C     		ldrb	r1, [r2, #19]	@ zero_extendqisi2
 1390 0210 92F812E0 		ldrb	lr, [r2, #18]	@ zero_extendqisi2
 1391 0214 4EEA012E 		orr	lr, lr, r1, lsl #8
 1392              	.L340:
 1393 0218 4FF6FF71 		movw	r1, #65535
 1394 021c 8E45     		cmp	lr, r1
 1395 021e 7FF427AF 		bne	.L409
 1396 0222 517D     		ldrb	r1, [r2, #21]	@ zero_extendqisi2
 1397 0224 92F814B0 		ldrb	fp, [r2, #20]	@ zero_extendqisi2
 1398 0228 4BEA012B 		orr	fp, fp, r1, lsl #8
 1399              	.L339:
 1400 022c 4FF6FF71 		movw	r1, #65535
 1401 0230 8B45     		cmp	fp, r1
 1402 0232 7FF41DAF 		bne	.L409
 1403 0236 D17D     		ldrb	r1, [r2, #23]	@ zero_extendqisi2
 1404 0238 92F816E0 		ldrb	lr, [r2, #22]	@ zero_extendqisi2
 1405 023c 4EEA012E 		orr	lr, lr, r1, lsl #8
 1406              	.L338:
 1407 0240 4FF6FF71 		movw	r1, #65535
 1408 0244 8E45     		cmp	lr, r1
 1409 0246 7FF413AF 		bne	.L409
 1410 024a 517E     		ldrb	r1, [r2, #25]	@ zero_extendqisi2
 1411 024c 92F818B0 		ldrb	fp, [r2, #24]	@ zero_extendqisi2
 1412 0250 4BEA012B 		orr	fp, fp, r1, lsl #8
 1413              	.L337:
 1414 0254 4FF6FF71 		movw	r1, #65535
 1415 0258 8B45     		cmp	fp, r1
 1416 025a 7FF409AF 		bne	.L409
 1417 025e 517F     		ldrb	r1, [r2, #29]	@ zero_extendqisi2
 1418 0260 92F81CE0 		ldrb	lr, [r2, #28]	@ zero_extendqisi2
 1419 0264 4EEA012E 		orr	lr, lr, r1, lsl #8
 1420              	.L336:
 1421 0268 4FF6FF71 		movw	r1, #65535
 1422 026c 8E45     		cmp	lr, r1
 1423 026e 7FF4FFAE 		bne	.L409
 1424 0272 D17F     		ldrb	r1, [r2, #31]	@ zero_extendqisi2
 1425 0274 92F81EB0 		ldrb	fp, [r2, #30]	@ zero_extendqisi2
 1426 0278 4BEA012B 		orr	fp, fp, r1, lsl #8
 1427              	.L335:
 1428 027c 4FF6FF71 		movw	r1, #65535
 1429 0280 8B45     		cmp	fp, r1
 1430 0282 7FF4F5AE 		bne	.L409
 1431              	.L324:
 1432 0286 1278     		ldrb	r2, [r2]	@ zero_extendqisi2
 1433 0288 5206     		lsls	r2, r2, #25
 1434 028a 05D5     		bpl	.L325
 1435 028c FF28     		cmp	r0, #255
 1436 028e 00F01881 		beq	.L375
 1437 0292 0022     		movs	r2, #0
 1438 0294 2AF81020 		strh	r2, [r10, r0, lsl #1]	@ movhi
 1439              	.L325:
 1440 0298 013E     		subs	r6, r6, #1
 1441 029a F6B2     		uxtb	r6, r6
 1442 029c E9E6     		b	.L296
 1443              	.L299:
 1444 029e B142     		cmp	r1, r6
ARM GAS  D:\Programs\cygwin64\tmp\ccQ42GcX.s 			page 26


 1445 02a0 7FF4E6AE 		bne	.L409
 1446 02a4 53E7     		b	.L300
 1447              	.L415:
 1448 02a6 3832     		adds	r2, r2, #56
 1449 02a8 C4E907B2 		strd	fp, r2, [r4, #28]
 1450 02ac 6361     		str	r3, [r4, #20]
 1451 02ae FEE6     		b	.L412
 1452              	.L377:
 1453 02b0 0220     		movs	r0, #2
 1454 02b2 C6E6     		b	.L292
 1455              	.L418:
 1456              		.align	2
 1457              	.L417:
 1458 02b4 FFFF1F00 		.word	2097151
 1459              	.L301:
 1460 02b8 FF28     		cmp	r0, #255
 1461 02ba 00F00281 		beq	.L375
 1462 02be 2AF810E0 		strh	lr, [r10, r0, lsl #1]	@ movhi
 1463 02c2 92F806C0 		ldrb	ip, [r2, #6]	@ zero_extendqisi2
 1464 02c6 92F805B0 		ldrb	fp, [r2, #5]	@ zero_extendqisi2
 1465 02ca 4000     		lsls	r0, r0, #1
 1466 02cc 4BEA0C2B 		orr	fp, fp, ip, lsl #8
 1467 02d0 01F1020C 		add	ip, r1, #2
 1468 02d4 BEF1000F 		cmp	lr, #0
 1469 02d8 00F0F580 		beq	.L416
 1470 02dc BCF1FF0F 		cmp	ip, #255
 1471 02e0 3FF4C6AE 		beq	.L409
 1472 02e4 0AEB000C 		add	ip, r10, r0
 1473 02e8 C81C     		adds	r0, r1, #3
 1474 02ea ACF802B0 		strh	fp, [ip, #2]	@ movhi
 1475 02ee 117A     		ldrb	r1, [r2, #8]	@ zero_extendqisi2
 1476 02f0 92F807E0 		ldrb	lr, [r2, #7]	@ zero_extendqisi2
 1477 02f4 4EEA012E 		orr	lr, lr, r1, lsl #8
 1478 02f8 BBF1000F 		cmp	fp, #0
 1479 02fc 3FF464AF 		beq	.L344
 1480 0300 FF28     		cmp	r0, #255
 1481 0302 00F0DE80 		beq	.L375
 1482 0306 ACF804E0 		strh	lr, [ip, #4]	@ movhi
 1483 030a 907A     		ldrb	r0, [r2, #10]	@ zero_extendqisi2
 1484 030c 92F809B0 		ldrb	fp, [r2, #9]	@ zero_extendqisi2
 1485 0310 0099     		ldr	r1, [sp]
 1486 0312 4BEA002B 		orr	fp, fp, r0, lsl #8
 1487 0316 081D     		adds	r0, r1, #4
 1488 0318 BEF1000F 		cmp	lr, #0
 1489 031c 3FF45EAF 		beq	.L343
 1490 0320 FF28     		cmp	r0, #255
 1491 0322 00F0CE80 		beq	.L375
 1492 0326 ACF806B0 		strh	fp, [ip, #6]	@ movhi
 1493 032a D07B     		ldrb	r0, [r2, #15]	@ zero_extendqisi2
 1494 032c 92F80EE0 		ldrb	lr, [r2, #14]	@ zero_extendqisi2
 1495 0330 4EEA002E 		orr	lr, lr, r0, lsl #8
 1496 0334 481D     		adds	r0, r1, #5
 1497 0336 BBF1000F 		cmp	fp, #0
 1498 033a 3FF459AF 		beq	.L342
 1499 033e FF28     		cmp	r0, #255
 1500 0340 00F0BF80 		beq	.L375
 1501 0344 ACF808E0 		strh	lr, [ip, #8]	@ movhi
ARM GAS  D:\Programs\cygwin64\tmp\ccQ42GcX.s 			page 27


 1502 0348 507C     		ldrb	r0, [r2, #17]	@ zero_extendqisi2
 1503 034a 92F810B0 		ldrb	fp, [r2, #16]	@ zero_extendqisi2
 1504 034e 4BEA002B 		orr	fp, fp, r0, lsl #8
 1505 0352 881D     		adds	r0, r1, #6
 1506 0354 BEF1000F 		cmp	lr, #0
 1507 0358 3FF454AF 		beq	.L341
 1508 035c FF28     		cmp	r0, #255
 1509 035e 00F0B080 		beq	.L375
 1510 0362 ACF80AB0 		strh	fp, [ip, #10]	@ movhi
 1511 0366 D07C     		ldrb	r0, [r2, #19]	@ zero_extendqisi2
 1512 0368 92F812E0 		ldrb	lr, [r2, #18]	@ zero_extendqisi2
 1513 036c 4EEA002E 		orr	lr, lr, r0, lsl #8
 1514 0370 C81D     		adds	r0, r1, #7
 1515 0372 BBF1000F 		cmp	fp, #0
 1516 0376 3FF44FAF 		beq	.L340
 1517 037a FF28     		cmp	r0, #255
 1518 037c 00F0A180 		beq	.L375
 1519 0380 ACF80CE0 		strh	lr, [ip, #12]	@ movhi
 1520 0384 507D     		ldrb	r0, [r2, #21]	@ zero_extendqisi2
 1521 0386 92F814B0 		ldrb	fp, [r2, #20]	@ zero_extendqisi2
 1522 038a 4BEA002B 		orr	fp, fp, r0, lsl #8
 1523 038e 01F10800 		add	r0, r1, #8
 1524 0392 BEF1000F 		cmp	lr, #0
 1525 0396 3FF449AF 		beq	.L339
 1526 039a FF28     		cmp	r0, #255
 1527 039c 3FF468AE 		beq	.L409
 1528 03a0 ACF80EB0 		strh	fp, [ip, #14]	@ movhi
 1529 03a4 D07D     		ldrb	r0, [r2, #23]	@ zero_extendqisi2
 1530 03a6 92F816E0 		ldrb	lr, [r2, #22]	@ zero_extendqisi2
 1531 03aa 4EEA002E 		orr	lr, lr, r0, lsl #8
 1532 03ae 01F10900 		add	r0, r1, #9
 1533 03b2 BBF1000F 		cmp	fp, #0
 1534 03b6 3FF443AF 		beq	.L338
 1535 03ba FF28     		cmp	r0, #255
 1536 03bc 00F08180 		beq	.L375
 1537 03c0 ACF810E0 		strh	lr, [ip, #16]	@ movhi
 1538 03c4 507E     		ldrb	r0, [r2, #25]	@ zero_extendqisi2
 1539 03c6 92F818B0 		ldrb	fp, [r2, #24]	@ zero_extendqisi2
 1540 03ca 4BEA002B 		orr	fp, fp, r0, lsl #8
 1541 03ce 01F10A00 		add	r0, r1, #10
 1542 03d2 BEF1000F 		cmp	lr, #0
 1543 03d6 3FF43DAF 		beq	.L337
 1544 03da FF28     		cmp	r0, #255
 1545 03dc 71D0     		beq	.L375
 1546 03de ACF812B0 		strh	fp, [ip, #18]	@ movhi
 1547 03e2 507F     		ldrb	r0, [r2, #29]	@ zero_extendqisi2
 1548 03e4 92F81CE0 		ldrb	lr, [r2, #28]	@ zero_extendqisi2
 1549 03e8 4EEA002E 		orr	lr, lr, r0, lsl #8
 1550 03ec 01F10B00 		add	r0, r1, #11
 1551 03f0 BBF1000F 		cmp	fp, #0
 1552 03f4 3FF438AF 		beq	.L336
 1553 03f8 FF28     		cmp	r0, #255
 1554 03fa 62D0     		beq	.L375
 1555 03fc ACF814E0 		strh	lr, [ip, #20]	@ movhi
 1556 0400 D07F     		ldrb	r0, [r2, #31]	@ zero_extendqisi2
 1557 0402 92F81EB0 		ldrb	fp, [r2, #30]	@ zero_extendqisi2
 1558 0406 4BEA002B 		orr	fp, fp, r0, lsl #8
ARM GAS  D:\Programs\cygwin64\tmp\ccQ42GcX.s 			page 28


 1559 040a 01F10C00 		add	r0, r1, #12
 1560 040e BEF1000F 		cmp	lr, #0
 1561 0412 3FF433AF 		beq	.L335
 1562 0416 FF28     		cmp	r0, #255
 1563 0418 53D0     		beq	.L375
 1564 041a 0846     		mov	r0, r1
 1565 041c 0D30     		adds	r0, r0, #13
 1566 041e ACF816B0 		strh	fp, [ip, #22]	@ movhi
 1567 0422 30E7     		b	.L324
 1568              	.L298:
 1569 0424 002E     		cmp	r6, #0
 1570 0426 48D1     		bne	.L326
 1571 0428 1178     		ldrb	r1, [r2]	@ zero_extendqisi2
 1572 042a 5078     		ldrb	r0, [r2, #1]	@ zero_extendqisi2
 1573 042c 557A     		ldrb	r5, [r2, #9]	@ zero_extendqisi2
 1574 042e CB01     		lsls	r3, r1, #7
 1575 0430 43EA5103 		orr	r3, r3, r1, lsr #1
 1576 0434 1918     		adds	r1, r3, r0
 1577 0436 C1F34603 		ubfx	r3, r1, #1, #7
 1578 043a 9078     		ldrb	r0, [r2, #2]	@ zero_extendqisi2
 1579 043c 43EAC113 		orr	r3, r3, r1, lsl #7
 1580 0440 50FA83F1 		uxtab	r1, r0, r3
 1581 0444 C1F34603 		ubfx	r3, r1, #1, #7
 1582 0448 D078     		ldrb	r0, [r2, #3]	@ zero_extendqisi2
 1583 044a 43EAC113 		orr	r3, r3, r1, lsl #7
 1584 044e 50FA83F1 		uxtab	r1, r0, r3
 1585 0452 C1F34603 		ubfx	r3, r1, #1, #7
 1586 0456 1079     		ldrb	r0, [r2, #4]	@ zero_extendqisi2
 1587 0458 43EAC113 		orr	r3, r3, r1, lsl #7
 1588 045c 50FA83F1 		uxtab	r1, r0, r3
 1589 0460 C1F34603 		ubfx	r3, r1, #1, #7
 1590 0464 5079     		ldrb	r0, [r2, #5]	@ zero_extendqisi2
 1591 0466 43EAC113 		orr	r3, r3, r1, lsl #7
 1592 046a 50FA83F1 		uxtab	r1, r0, r3
 1593 046e C1F34603 		ubfx	r3, r1, #1, #7
 1594 0472 9079     		ldrb	r0, [r2, #6]	@ zero_extendqisi2
 1595 0474 43EAC113 		orr	r3, r3, r1, lsl #7
 1596 0478 50FA83F1 		uxtab	r1, r0, r3
 1597 047c C1F34603 		ubfx	r3, r1, #1, #7
 1598 0480 D079     		ldrb	r0, [r2, #7]	@ zero_extendqisi2
 1599 0482 43EAC113 		orr	r3, r3, r1, lsl #7
 1600 0486 50FA83F1 		uxtab	r1, r0, r3
 1601 048a C1F34603 		ubfx	r3, r1, #1, #7
 1602 048e 107A     		ldrb	r0, [r2, #8]	@ zero_extendqisi2
 1603 0490 43EAC113 		orr	r3, r3, r1, lsl #7
 1604 0494 50FA83F1 		uxtab	r1, r0, r3
 1605 0498 C1F34603 		ubfx	r3, r1, #1, #7
 1606 049c 43EAC113 		orr	r3, r3, r1, lsl #7
 1607 04a0 907A     		ldrb	r0, [r2, #10]	@ zero_extendqisi2
 1608 04a2 55FA83F2 		uxtab	r2, r5, r3
 1609 04a6 C2F34603 		ubfx	r3, r2, #1, #7
 1610 04aa 43EAC213 		orr	r3, r3, r2, lsl #7
 1611 04ae 50FA83F3 		uxtab	r3, r0, r3
 1612 04b2 DBB2     		uxtb	r3, r3
 1613 04b4 4B45     		cmp	r3, r9
 1614 04b6 3FF4FAAD 		beq	.L412
 1615              	.L326:
ARM GAS  D:\Programs\cygwin64\tmp\ccQ42GcX.s 			page 29


 1616 04ba 4FF0FF33 		mov	r3, #-1
 1617 04be 2363     		str	r3, [r4, #48]
 1618 04c0 F5E5     		b	.L412
 1619              	.L375:
 1620 04c2 0646     		mov	r6, r0
 1621 04c4 D5E5     		b	.L296
 1622              	.L416:
 1623 04c6 6046     		mov	r0, ip
 1624 04c8 73E6     		b	.L345
 1626 04ca 00BF     		.section	.text.check_fs,"ax",%progbits
 1627              		.align	1
 1628              		.p2align 2,,3
 1629              		.syntax unified
 1630              		.thumb
 1631              		.thumb_func
 1632              		.fpu fpv4-sp-d16
 1634              	check_fs:
 1635              		@ args = 0, pretend = 0, frame = 0
 1636              		@ frame_needed = 0, uses_anonymous_args = 0
 1637 0000 70B5     		push	{r4, r5, r6, lr}
 1638 0002 4FF0FF36 		mov	r6, #-1
 1639 0006 0023     		movs	r3, #0
 1640 0008 B142     		cmp	r1, r6
 1641 000a 0446     		mov	r4, r0
 1642 000c C370     		strb	r3, [r0, #3]
 1643 000e 4663     		str	r6, [r0, #52]
 1644 0010 0CD0     		beq	.L420
 1645 0012 0D46     		mov	r5, r1
 1646 0014 0A46     		mov	r2, r1
 1647 0016 0123     		movs	r3, #1
 1648 0018 00F13801 		add	r1, r0, #56
 1649 001c 4078     		ldrb	r0, [r0, #1]	@ zero_extendqisi2
 1650 001e FFF7FEFF 		bl	disk_read
 1651 0022 10B1     		cbz	r0, .L440
 1652 0024 6663     		str	r6, [r4, #52]
 1653 0026 0420     		movs	r0, #4
 1654 0028 70BD     		pop	{r4, r5, r6, pc}
 1655              	.L440:
 1656 002a 6563     		str	r5, [r4, #52]
 1657              	.L420:
 1658 002c 94F83712 		ldrb	r1, [r4, #567]	@ zero_extendqisi2
 1659 0030 94F83632 		ldrb	r3, [r4, #566]	@ zero_extendqisi2
 1660 0034 4AF65522 		movw	r2, #43605
 1661 0038 43EA0123 		orr	r3, r3, r1, lsl #8
 1662 003c 9342     		cmp	r3, r2
 1663 003e 2CD1     		bne	.L425
 1664 0040 94F83830 		ldrb	r3, [r4, #56]	@ zero_extendqisi2
 1665 0044 EB2B     		cmp	r3, #235
 1666 0046 05D0     		beq	.L423
 1667 0048 1833     		adds	r3, r3, #24
 1668 004a DBB2     		uxtb	r3, r3
 1669 004c 012B     		cmp	r3, #1
 1670 004e 01D9     		bls	.L423
 1671              	.L431:
 1672 0050 0220     		movs	r0, #2
 1673 0052 70BD     		pop	{r4, r5, r6, pc}
 1674              	.L423:
ARM GAS  D:\Programs\cygwin64\tmp\ccQ42GcX.s 			page 30


 1675 0054 94F86E30 		ldrb	r3, [r4, #110]	@ zero_extendqisi2
 1676 0058 462B     		cmp	r3, #70
 1677 005a 07D1     		bne	.L424
 1678 005c 94F86F30 		ldrb	r3, [r4, #111]	@ zero_extendqisi2
 1679 0060 412B     		cmp	r3, #65
 1680 0062 03D1     		bne	.L424
 1681 0064 94F87030 		ldrb	r3, [r4, #112]	@ zero_extendqisi2
 1682 0068 542B     		cmp	r3, #84
 1683 006a 18D0     		beq	.L427
 1684              	.L424:
 1685 006c 94F88A30 		ldrb	r3, [r4, #138]	@ zero_extendqisi2
 1686 0070 462B     		cmp	r3, #70
 1687 0072 EDD1     		bne	.L431
 1688 0074 94F88B30 		ldrb	r3, [r4, #139]	@ zero_extendqisi2
 1689 0078 412B     		cmp	r3, #65
 1690 007a E9D1     		bne	.L431
 1691 007c 94F88C30 		ldrb	r3, [r4, #140]	@ zero_extendqisi2
 1692 0080 542B     		cmp	r3, #84
 1693 0082 E5D1     		bne	.L431
 1694 0084 94F88D30 		ldrb	r3, [r4, #141]	@ zero_extendqisi2
 1695 0088 332B     		cmp	r3, #51
 1696 008a E1D1     		bne	.L431
 1697 008c 94F88E30 		ldrb	r3, [r4, #142]	@ zero_extendqisi2
 1698 0090 322B     		cmp	r3, #50
 1699 0092 14BF     		ite	ne
 1700 0094 0220     		movne	r0, #2
 1701 0096 0020     		moveq	r0, #0
 1702 0098 70BD     		pop	{r4, r5, r6, pc}
 1703              	.L425:
 1704 009a 0320     		movs	r0, #3
 1705 009c 70BD     		pop	{r4, r5, r6, pc}
 1706              	.L427:
 1707 009e 0020     		movs	r0, #0
 1708 00a0 70BD     		pop	{r4, r5, r6, pc}
 1710 00a2 00BF     		.section	.text.find_volume,"ax",%progbits
 1711              		.align	1
 1712              		.p2align 2,,3
 1713              		.syntax unified
 1714              		.thumb
 1715              		.thumb_func
 1716              		.fpu fpv4-sp-d16
 1718              	find_volume:
 1719              		@ args = 0, pretend = 0, frame = 0
 1720              		@ frame_needed = 0, uses_anonymous_args = 0
 1721 0000 2DE9F843 		push	{r3, r4, r5, r6, r7, r8, r9, lr}
 1722 0004 0368     		ldr	r3, [r0]
 1723 0006 0024     		movs	r4, #0
 1724 0008 0C60     		str	r4, [r1]
 1725 000a 002B     		cmp	r3, #0
 1726 000c 00F0F180 		beq	.L542
 1727 0010 1C46     		mov	r4, r3
 1728 0012 02E0     		b	.L444
 1729              	.L544:
 1730 0014 3A2D     		cmp	r5, #58
 1731 0016 00F0E480 		beq	.L543
 1732              	.L444:
 1733 001a 14F8015B 		ldrb	r5, [r4], #1	@ zero_extendqisi2
ARM GAS  D:\Programs\cygwin64\tmp\ccQ42GcX.s 			page 31


 1734 001e 1F2D     		cmp	r5, #31
 1735 0020 F8D8     		bhi	.L544
 1736 0022 0026     		movs	r6, #0
 1737 0024 3346     		mov	r3, r6
 1738              	.L443:
 1739 0026 CC48     		ldr	r0, .L554
 1740 0028 50F82340 		ldr	r4, [r0, r3, lsl #2]
 1741 002c 002C     		cmp	r4, #0
 1742 002e 00F02781 		beq	.L483
 1743 0032 2069     		ldr	r0, [r4, #16]
 1744 0034 1546     		mov	r5, r2
 1745 0036 0F46     		mov	r7, r1
 1746 0038 FFF7FEFF 		bl	ff_req_grant
 1747 003c 0028     		cmp	r0, #0
 1748 003e 00F02281 		beq	.L484
 1749 0042 3C60     		str	r4, [r7]
 1750 0044 2378     		ldrb	r3, [r4]	@ zero_extendqisi2
 1751 0046 05F0FE05 		and	r5, r5, #254
 1752 004a 002B     		cmp	r3, #0
 1753 004c 40F0BB80 		bne	.L545
 1754              	.L446:
 1755 0050 0023     		movs	r3, #0
 1756 0052 6670     		strb	r6, [r4, #1]
 1757 0054 3046     		mov	r0, r6
 1758 0056 2370     		strb	r3, [r4]
 1759 0058 FFF7FEFF 		bl	disk_initialize
 1760 005c C207     		lsls	r2, r0, #31
 1761 005e 00F11581 		bmi	.L487
 1762 0062 15B1     		cbz	r5, .L447
 1763 0064 4307     		lsls	r3, r0, #29
 1764 0066 00F10681 		bmi	.L448
 1765              	.L447:
 1766 006a 0021     		movs	r1, #0
 1767 006c 2046     		mov	r0, r4
 1768 006e FFF7FEFF 		bl	check_fs
 1769 0072 0228     		cmp	r0, #2
 1770 0074 00F0C080 		beq	.L546
 1771 0078 0428     		cmp	r0, #4
 1772 007a 00F0FA80 		beq	.L496
 1773 007e 0128     		cmp	r0, #1
 1774 0080 98BF     		it	ls
 1775 0082 0026     		movls	r6, #0
 1776 0084 00F2F980 		bhi	.L458
 1777              	.L455:
 1778 0088 94F84420 		ldrb	r2, [r4, #68]	@ zero_extendqisi2
 1779 008c 94F84330 		ldrb	r3, [r4, #67]	@ zero_extendqisi2
 1780 0090 43EA0223 		orr	r3, r3, r2, lsl #8
 1781 0094 B3F5007F 		cmp	r3, #512
 1782 0098 40F0EF80 		bne	.L458
 1783 009c 94F84F20 		ldrb	r2, [r4, #79]	@ zero_extendqisi2
 1784 00a0 94F84E30 		ldrb	r3, [r4, #78]	@ zero_extendqisi2
 1785 00a4 53EA0223 		orrs	r3, r3, r2, lsl #8
 1786 00a8 00F0F280 		beq	.L547
 1787              	.L460:
 1788 00ac 94F84820 		ldrb	r2, [r4, #72]	@ zero_extendqisi2
 1789 00b0 2362     		str	r3, [r4, #32]
 1790 00b2 511E     		subs	r1, r2, #1
ARM GAS  D:\Programs\cygwin64\tmp\ccQ42GcX.s 			page 32


 1791 00b4 0129     		cmp	r1, #1
 1792 00b6 A270     		strb	r2, [r4, #2]
 1793 00b8 00F2DF80 		bhi	.L458
 1794 00bc 94F84500 		ldrb	r0, [r4, #69]	@ zero_extendqisi2
 1795 00c0 81B2     		uxth	r1, r0
 1796 00c2 6181     		strh	r1, [r4, #10]	@ movhi
 1797 00c4 0029     		cmp	r1, #0
 1798 00c6 00F0D880 		beq	.L458
 1799 00ca 411E     		subs	r1, r0, #1
 1800 00cc 0142     		tst	r1, r0
 1801 00ce 40F0D480 		bne	.L458
 1802 00d2 94F84A10 		ldrb	r1, [r4, #74]	@ zero_extendqisi2
 1803 00d6 94F84950 		ldrb	r5, [r4, #73]	@ zero_extendqisi2
 1804 00da 45EA0125 		orr	r5, r5, r1, lsl #8
 1805 00de 2DB2     		sxth	r5, r5
 1806 00e0 1FFA85FC 		uxth	ip, r5
 1807 00e4 1CF00F0F 		tst	ip, #15
 1808 00e8 A4F808C0 		strh	ip, [r4, #8]	@ movhi
 1809 00ec 40F0C580 		bne	.L458
 1810 00f0 94F84C70 		ldrb	r7, [r4, #76]	@ zero_extendqisi2
 1811 00f4 94F84B10 		ldrb	r1, [r4, #75]	@ zero_extendqisi2
 1812 00f8 51EA0721 		orrs	r1, r1, r7, lsl #8
 1813 00fc 09D1     		bne	.L462
 1814 00fe B4F85AE0 		ldrh	lr, [r4, #90]	@ unaligned
 1815 0102 94F85970 		ldrb	r7, [r4, #89]	@ zero_extendqisi2
 1816 0106 94F85810 		ldrb	r1, [r4, #88]	@ zero_extendqisi2
 1817 010a 47EA0E27 		orr	r7, r7, lr, lsl #8
 1818 010e 41EA0721 		orr	r1, r1, r7, lsl #8
 1819              	.L462:
 1820 0112 94F847E0 		ldrb	lr, [r4, #71]	@ zero_extendqisi2
 1821 0116 94F84670 		ldrb	r7, [r4, #70]	@ zero_extendqisi2
 1822 011a 57EA0E2E 		orrs	lr, r7, lr, lsl #8
 1823 011e 00F0AC80 		beq	.L458
 1824 0122 03FB02F2 		mul	r2, r3, r2
 1825 0126 0EEB1C17 		add	r7, lr, ip, lsr #4
 1826 012a 1744     		add	r7, r7, r2
 1827 012c B942     		cmp	r1, r7
 1828 012e C0F0A480 		bcc	.L458
 1829 0132 C91B     		subs	r1, r1, r7
 1830 0134 8142     		cmp	r1, r0
 1831 0136 B1FBF0F8 		udiv	r8, r1, r0
 1832 013a C0F09E80 		bcc	.L458
 1833 013e 8749     		ldr	r1, .L554+4
 1834 0140 8845     		cmp	r8, r1
 1835 0142 00F29A80 		bhi	.L458
 1836 0146 4FF6F579 		movw	r9, #65525
 1837 014a C845     		cmp	r8, r9
 1838 014c B644     		add	lr, lr, r6
 1839 014e 07EB0600 		add	r0, r7, r6
 1840 0152 08F10201 		add	r1, r8, #2
 1841 0156 00F2CF80 		bhi	.L463
 1842 015a 40F6F575 		movw	r5, #4085
 1843 015e A845     		cmp	r8, r5
 1844 0160 E161     		str	r1, [r4, #28]
 1845 0162 C4E9096E 		strd	r6, lr, [r4, #36]
 1846 0166 2063     		str	r0, [r4, #48]
 1847 0168 00F2FE80 		bhi	.L464
ARM GAS  D:\Programs\cygwin64\tmp\ccQ42GcX.s 			page 33


 1848 016c BCF1000F 		cmp	ip, #0
 1849 0170 00F08380 		beq	.L458
 1850 0174 02EB0E05 		add	r5, r2, lr
 1851 0178 01EB4100 		add	r0, r1, r1, lsl #1
 1852 017c 01F00102 		and	r2, r1, #1
 1853 0180 02EB5002 		add	r2, r2, r0, lsr #1
 1854 0184 E562     		str	r5, [r4, #44]
 1855 0186 0120     		movs	r0, #1
 1856              	.L475:
 1857 0188 02F2FF12 		addw	r2, r2, #511
 1858 018c B3EB522F 		cmp	r3, r2, lsr #9
 1859 0190 73D3     		bcc	.L458
 1860 0192 4FF0FF33 		mov	r3, #-1
 1861 0196 C4E90533 		strd	r3, r3, [r4, #20]
 1862 019a 8022     		movs	r2, #128
 1863 019c 2271     		strb	r2, [r4, #4]
 1864              	.L471:
 1865 019e 7049     		ldr	r1, .L554+8
 1866 01a0 704A     		ldr	r2, .L554+12
 1867 01a2 0B88     		ldrh	r3, [r1]
 1868 01a4 1568     		ldr	r5, [r2]
 1869 01a6 2070     		strb	r0, [r4]
 1870 01a8 0133     		adds	r3, r3, #1
 1871 01aa 9BB2     		uxth	r3, r3
 1872 01ac AC42     		cmp	r4, r5
 1873 01ae 0B80     		strh	r3, [r1]	@ movhi
 1874 01b0 E380     		strh	r3, [r4, #6]	@ movhi
 1875 01b2 04BF     		itt	eq
 1876 01b4 0023     		moveq	r3, #0
 1877 01b6 1360     		streq	r3, [r2]
 1878 01b8 1369     		ldr	r3, [r2, #16]
 1879 01ba 9C42     		cmp	r4, r3
 1880 01bc 4FF00000 		mov	r0, #0
 1881 01c0 0DD1     		bne	.L534
 1882 01c2 1061     		str	r0, [r2, #16]
 1883 01c4 0BE0     		b	.L534
 1884              	.L545:
 1885 01c6 6078     		ldrb	r0, [r4, #1]	@ zero_extendqisi2
 1886 01c8 FFF7FEFF 		bl	disk_status
 1887 01cc C107     		lsls	r1, r0, #31
 1888 01ce 3FF53FAF 		bmi	.L446
 1889 01d2 002D     		cmp	r5, #0
 1890 01d4 00F08E80 		beq	.L485
 1891 01d8 10F00400 		ands	r0, r0, #4
 1892 01dc 4BD1     		bne	.L448
 1893              	.L534:
 1894 01de BDE8F883 		pop	{r3, r4, r5, r6, r7, r8, r9, pc}
 1895              	.L543:
 1896 01e2 1D78     		ldrb	r5, [r3]	@ zero_extendqisi2
 1897 01e4 303D     		subs	r5, r5, #48
 1898 01e6 EEB2     		uxtb	r6, r5
 1899 01e8 092E     		cmp	r6, #9
 1900 01ea 02D8     		bhi	.L542
 1901 01ec 0233     		adds	r3, r3, #2
 1902 01ee 9C42     		cmp	r4, r3
 1903 01f0 64D0     		beq	.L548
 1904              	.L542:
ARM GAS  D:\Programs\cygwin64\tmp\ccQ42GcX.s 			page 34


 1905 01f2 0B20     		movs	r0, #11
 1906 01f4 BDE8F883 		pop	{r3, r4, r5, r6, r7, r8, r9, pc}
 1907              	.L546:
 1908 01f8 94F8FA11 		ldrb	r1, [r4, #506]	@ zero_extendqisi2
 1909 01fc 0029     		cmp	r1, #0
 1910 01fe 52D1     		bne	.L549
 1911 0200 8846     		mov	r8, r1
 1912              	.L450:
 1913 0202 94F80A72 		ldrb	r7, [r4, #522]	@ zero_extendqisi2
 1914 0206 4FB1     		cbz	r7, .L451
 1915 0208 B4F81072 		ldrh	r7, [r4, #528]	@ unaligned
 1916 020c 94F80F32 		ldrb	r3, [r4, #527]	@ zero_extendqisi2
 1917 0210 94F80E12 		ldrb	r1, [r4, #526]	@ zero_extendqisi2
 1918 0214 43EA0723 		orr	r3, r3, r7, lsl #8
 1919 0218 41EA0327 		orr	r7, r1, r3, lsl #8
 1920              	.L451:
 1921 021c 94F81A62 		ldrb	r6, [r4, #538]	@ zero_extendqisi2
 1922 0220 4EB1     		cbz	r6, .L452
 1923 0222 B4F82022 		ldrh	r2, [r4, #544]	@ unaligned
 1924 0226 94F81F32 		ldrb	r3, [r4, #543]	@ zero_extendqisi2
 1925 022a 94F81E62 		ldrb	r6, [r4, #542]	@ zero_extendqisi2
 1926 022e 43EA0223 		orr	r3, r3, r2, lsl #8
 1927 0232 46EA0326 		orr	r6, r6, r3, lsl #8
 1928              	.L452:
 1929 0236 94F82A52 		ldrb	r5, [r4, #554]	@ zero_extendqisi2
 1930 023a 4DB1     		cbz	r5, .L453
 1931 023c B4F83032 		ldrh	r3, [r4, #560]	@ unaligned
 1932 0240 94F82F52 		ldrb	r5, [r4, #559]	@ zero_extendqisi2
 1933 0244 94F82E12 		ldrb	r1, [r4, #558]	@ zero_extendqisi2
 1934 0248 45EA0325 		orr	r5, r5, r3, lsl #8
 1935 024c 41EA0525 		orr	r5, r1, r5, lsl #8
 1936              	.L453:
 1937 0250 B8F1000F 		cmp	r8, #0
 1938 0254 37D1     		bne	.L550
 1939              	.L454:
 1940 0256 002F     		cmp	r7, #0
 1941 0258 3DD1     		bne	.L551
 1942              	.L456:
 1943 025a 002E     		cmp	r6, #0
 1944 025c 43D1     		bne	.L552
 1945              	.L457:
 1946 025e 65B1     		cbz	r5, .L458
 1947 0260 2946     		mov	r1, r5
 1948 0262 2046     		mov	r0, r4
 1949 0264 FFF7FEFF 		bl	check_fs
 1950 0268 0128     		cmp	r0, #1
 1951 026a 40F28580 		bls	.L494
 1952 026e 0428     		cmp	r0, #4
 1953 0270 03D1     		bne	.L458
 1954              	.L496:
 1955 0272 0120     		movs	r0, #1
 1956 0274 B3E7     		b	.L534
 1957              	.L448:
 1958 0276 0A20     		movs	r0, #10
 1959 0278 B1E7     		b	.L534
 1960              	.L458:
 1961 027a 0D20     		movs	r0, #13
ARM GAS  D:\Programs\cygwin64\tmp\ccQ42GcX.s 			page 35


 1962 027c BDE8F883 		pop	{r3, r4, r5, r6, r7, r8, r9, pc}
 1963              	.L483:
 1964 0280 0C20     		movs	r0, #12
 1965 0282 BDE8F883 		pop	{r3, r4, r5, r6, r7, r8, r9, pc}
 1966              	.L484:
 1967 0286 0F20     		movs	r0, #15
 1968 0288 BDE8F883 		pop	{r3, r4, r5, r6, r7, r8, r9, pc}
 1969              	.L487:
 1970 028c 0320     		movs	r0, #3
 1971 028e A6E7     		b	.L534
 1972              	.L547:
 1973 0290 B4F85E10 		ldrh	r1, [r4, #94]	@ unaligned
 1974 0294 94F85D30 		ldrb	r3, [r4, #93]	@ zero_extendqisi2
 1975 0298 94F85C20 		ldrb	r2, [r4, #92]	@ zero_extendqisi2
 1976 029c 43EA0123 		orr	r3, r3, r1, lsl #8
 1977 02a0 42EA0323 		orr	r3, r2, r3, lsl #8
 1978 02a4 02E7     		b	.L460
 1979              	.L549:
 1980 02a6 B4F80082 		ldrh	r8, [r4, #512]	@ unaligned
 1981 02aa 94F8FF31 		ldrb	r3, [r4, #511]	@ zero_extendqisi2
 1982 02ae 94F8FE11 		ldrb	r1, [r4, #510]	@ zero_extendqisi2
 1983 02b2 43EA0823 		orr	r3, r3, r8, lsl #8
 1984 02b6 41EA0328 		orr	r8, r1, r3, lsl #8
 1985 02ba A2E7     		b	.L450
 1986              	.L548:
 1987 02bc 022D     		cmp	r5, #2
 1988 02be 2B46     		mov	r3, r5
 1989 02c0 97DC     		bgt	.L542
 1990 02c2 0460     		str	r4, [r0]
 1991 02c4 AFE6     		b	.L443
 1992              	.L550:
 1993 02c6 4146     		mov	r1, r8
 1994 02c8 2046     		mov	r0, r4
 1995 02ca FFF7FEFF 		bl	check_fs
 1996 02ce 0128     		cmp	r0, #1
 1997 02d0 C1D8     		bhi	.L454
 1998 02d2 4646     		mov	r6, r8
 1999 02d4 D8E6     		b	.L455
 2000              	.L551:
 2001 02d6 3946     		mov	r1, r7
 2002 02d8 2046     		mov	r0, r4
 2003 02da FFF7FEFF 		bl	check_fs
 2004 02de 0128     		cmp	r0, #1
 2005 02e0 BBD8     		bhi	.L456
 2006 02e2 3E46     		mov	r6, r7
 2007 02e4 D0E6     		b	.L455
 2008              	.L552:
 2009 02e6 3146     		mov	r1, r6
 2010 02e8 2046     		mov	r0, r4
 2011 02ea FFF7FEFF 		bl	check_fs
 2012 02ee 0128     		cmp	r0, #1
 2013 02f0 B5D8     		bhi	.L457
 2014 02f2 C9E6     		b	.L455
 2015              	.L485:
 2016 02f4 2846     		mov	r0, r5
 2017 02f6 72E7     		b	.L534
 2018              	.L463:
ARM GAS  D:\Programs\cygwin64\tmp\ccQ42GcX.s 			page 36


 2019 02f8 94F86370 		ldrb	r7, [r4, #99]	@ zero_extendqisi2
 2020 02fc 94F86220 		ldrb	r2, [r4, #98]	@ zero_extendqisi2
 2021 0300 E161     		str	r1, [r4, #28]
 2022 0302 42EA0722 		orr	r2, r2, r7, lsl #8
 2023 0306 2A43     		orrs	r2, r2, r5
 2024 0308 12B2     		sxth	r2, r2
 2025 030a C4E9096E 		strd	r6, lr, [r4, #36]
 2026 030e 2063     		str	r0, [r4, #48]
 2027 0310 002A     		cmp	r2, #0
 2028 0312 B2D1     		bne	.L458
 2029 0314 B4F86670 		ldrh	r7, [r4, #102]	@ unaligned
 2030 0318 94F86550 		ldrb	r5, [r4, #101]	@ zero_extendqisi2
 2031 031c 94F86400 		ldrb	r0, [r4, #100]	@ zero_extendqisi2
 2032 0320 8A00     		lsls	r2, r1, #2
 2033 0322 02F2FF12 		addw	r2, r2, #511
 2034 0326 45EA0721 		orr	r1, r5, r7, lsl #8
 2035 032a 40EA0121 		orr	r1, r0, r1, lsl #8
 2036 032e B3EB522F 		cmp	r3, r2, lsr #9
 2037 0332 E162     		str	r1, [r4, #44]
 2038 0334 A1D3     		bcc	.L458
 2039 0336 94F86910 		ldrb	r1, [r4, #105]	@ zero_extendqisi2
 2040 033a 94F86830 		ldrb	r3, [r4, #104]	@ zero_extendqisi2
 2041 033e 43EA0123 		orr	r3, r3, r1, lsl #8
 2042 0342 4FF0FF32 		mov	r2, #-1
 2043 0346 8021     		movs	r1, #128
 2044 0348 012B     		cmp	r3, #1
 2045 034a C4E90522 		strd	r2, r2, [r4, #20]
 2046 034e 2171     		strb	r1, [r4, #4]
 2047 0350 14D0     		beq	.L553
 2048              	.L541:
 2049 0352 0320     		movs	r0, #3
 2050 0354 23E7     		b	.L471
 2051              	.L555:
 2052 0356 00BF     		.align	2
 2053              	.L554:
 2054 0358 00000000 		.word	.LANCHOR0
 2055 035c F5FFFF0F 		.word	268435445
 2056 0360 00000000 		.word	.LANCHOR1
 2057 0364 00000000 		.word	.LANCHOR2
 2058              	.L464:
 2059 0368 BCF1000F 		cmp	ip, #0
 2060 036c 85D0     		beq	.L458
 2061 036e 7244     		add	r2, r2, lr
 2062 0370 E262     		str	r2, [r4, #44]
 2063 0372 0220     		movs	r0, #2
 2064 0374 4A00     		lsls	r2, r1, #1
 2065 0376 07E7     		b	.L475
 2066              	.L494:
 2067 0378 2E46     		mov	r6, r5
 2068 037a 85E6     		b	.L455
 2069              	.L553:
 2070 037c 636B     		ldr	r3, [r4, #52]
 2071 037e 711C     		adds	r1, r6, #1
 2072 0380 9942     		cmp	r1, r3
 2073 0382 04D0     		beq	.L470
 2074 0384 2046     		mov	r0, r4
 2075 0386 FFF7FEFF 		bl	move_window.part.9
ARM GAS  D:\Programs\cygwin64\tmp\ccQ42GcX.s 			page 37


 2076 038a 0028     		cmp	r0, #0
 2077 038c E1D1     		bne	.L541
 2078              	.L470:
 2079 038e 94F83722 		ldrb	r2, [r4, #567]	@ zero_extendqisi2
 2080 0392 94F83632 		ldrb	r3, [r4, #566]	@ zero_extendqisi2
 2081 0396 43EA0223 		orr	r3, r3, r2, lsl #8
 2082 039a 4AF65522 		movw	r2, #43605
 2083 039e 0021     		movs	r1, #0
 2084 03a0 9342     		cmp	r3, r2
 2085 03a2 2171     		strb	r1, [r4, #4]
 2086 03a4 D5D1     		bne	.L541
 2087 03a6 608F     		ldrh	r0, [r4, #58]	@ unaligned
 2088 03a8 94F83920 		ldrb	r2, [r4, #57]	@ zero_extendqisi2
 2089 03ac 94F83830 		ldrb	r3, [r4, #56]	@ zero_extendqisi2
 2090 03b0 1749     		ldr	r1, .L556
 2091 03b2 42EA0022 		orr	r2, r2, r0, lsl #8
 2092 03b6 43EA0223 		orr	r3, r3, r2, lsl #8
 2093 03ba 8B42     		cmp	r3, r1
 2094 03bc C9D1     		bne	.L541
 2095 03be B4F81E02 		ldrh	r0, [r4, #542]	@ unaligned
 2096 03c2 94F81D22 		ldrb	r2, [r4, #541]	@ zero_extendqisi2
 2097 03c6 94F81C32 		ldrb	r3, [r4, #540]	@ zero_extendqisi2
 2098 03ca 01F1FF51 		add	r1, r1, #534773760
 2099 03ce 01F50051 		add	r1, r1, #8192
 2100 03d2 42EA0022 		orr	r2, r2, r0, lsl #8
 2101 03d6 2031     		adds	r1, r1, #32
 2102 03d8 43EA0223 		orr	r3, r3, r2, lsl #8
 2103 03dc 8B42     		cmp	r3, r1
 2104 03de B8D1     		bne	.L541
 2105 03e0 B4F82262 		ldrh	r6, [r4, #546]	@ unaligned
 2106 03e4 94F82102 		ldrb	r0, [r4, #545]	@ zero_extendqisi2
 2107 03e8 B4F82652 		ldrh	r5, [r4, #550]	@ unaligned
 2108 03ec 94F82512 		ldrb	r1, [r4, #549]	@ zero_extendqisi2
 2109 03f0 94F82022 		ldrb	r2, [r4, #544]	@ zero_extendqisi2
 2110 03f4 94F82432 		ldrb	r3, [r4, #548]	@ zero_extendqisi2
 2111 03f8 40EA0620 		orr	r0, r0, r6, lsl #8
 2112 03fc 41EA0521 		orr	r1, r1, r5, lsl #8
 2113 0400 42EA0022 		orr	r2, r2, r0, lsl #8
 2114 0404 43EA0123 		orr	r3, r3, r1, lsl #8
 2115 0408 C4E90532 		strd	r3, r2, [r4, #20]
 2116 040c A1E7     		b	.L541
 2117              	.L557:
 2118 040e 00BF     		.align	2
 2119              	.L556:
 2120 0410 52526141 		.word	1096897106
 2122              		.section	.text.dir_sdi,"ax",%progbits
 2123              		.align	1
 2124              		.p2align 2,,3
 2125              		.syntax unified
 2126              		.thumb
 2127              		.thumb_func
 2128              		.fpu fpv4-sp-d16
 2130              	dir_sdi:
 2131              		@ args = 0, pretend = 0, frame = 0
 2132              		@ frame_needed = 0, uses_anonymous_args = 0
 2133 0000 B1F5001F 		cmp	r1, #2097152
 2134 0004 76D2     		bcs	.L596
ARM GAS  D:\Programs\cygwin64\tmp\ccQ42GcX.s 			page 38


 2135 0006 CA06     		lsls	r2, r1, #27
 2136 0008 2DE9F84F 		push	{r3, r4, r5, r6, r7, r8, r9, r10, fp, lr}
 2137 000c 0C46     		mov	r4, r1
 2138 000e 53D1     		bne	.L586
 2139 0010 0746     		mov	r7, r0
 2140 0012 8568     		ldr	r5, [r0, #8]
 2141 0014 D0F80090 		ldr	r9, [r0]
 2142 0018 7961     		str	r1, [r7, #20]
 2143 001a 002D     		cmp	r5, #0
 2144 001c 4FD0     		beq	.L597
 2145              	.L562:
 2146 001e B9F80A80 		ldrh	r8, [r9, #10]
 2147 0022 4FEA4828 		lsl	r8, r8, #9
 2148 0026 4445     		cmp	r4, r8
 2149 0028 C0F09C80 		bcc	.L598
 2150 002c 012D     		cmp	r5, #1
 2151 002e 43D9     		bls	.L586
 2152 0030 D9F81C30 		ldr	r3, [r9, #28]
 2153 0034 AB42     		cmp	r3, r5
 2154 0036 3FD9     		bls	.L586
 2155 0038 4E46     		mov	r6, r9
 2156              	.L567:
 2157 003a 3378     		ldrb	r3, [r6]	@ zero_extendqisi2
 2158 003c 022B     		cmp	r3, #2
 2159 003e 7AD0     		beq	.L568
 2160 0040 032B     		cmp	r3, #3
 2161 0042 5FD0     		beq	.L569
 2162 0044 012B     		cmp	r3, #1
 2163 0046 37D1     		bne	.L586
 2164 0048 B36A     		ldr	r3, [r6, #40]
 2165 004a 726B     		ldr	r2, [r6, #52]
 2166 004c 05EB550A 		add	r10, r5, r5, lsr #1
 2167 0050 03EB5A21 		add	r1, r3, r10, lsr #9
 2168 0054 9142     		cmp	r1, r2
 2169 0056 06D0     		beq	.L570
 2170 0058 3046     		mov	r0, r6
 2171 005a FFF7FEFF 		bl	move_window.part.9
 2172 005e 0028     		cmp	r0, #0
 2173 0060 7DD1     		bne	.L575
 2174 0062 B36A     		ldr	r3, [r6, #40]
 2175 0064 726B     		ldr	r2, [r6, #52]
 2176              	.L570:
 2177 0066 CAF30800 		ubfx	r0, r10, #0, #9
 2178 006a 0AF1010A 		add	r10, r10, #1
 2179 006e 3044     		add	r0, r0, r6
 2180 0070 03EB5A21 		add	r1, r3, r10, lsr #9
 2181 0074 9142     		cmp	r1, r2
 2182 0076 90F838B0 		ldrb	fp, [r0, #56]	@ zero_extendqisi2
 2183 007a 04D0     		beq	.L576
 2184 007c 3046     		mov	r0, r6
 2185 007e FFF7FEFF 		bl	move_window.part.9
 2186 0082 0028     		cmp	r0, #0
 2187 0084 6BD1     		bne	.L575
 2188              	.L576:
 2189 0086 CAF3080A 		ubfx	r10, r10, #0, #9
 2190 008a 5644     		add	r6, r6, r10
 2191 008c 96F83830 		ldrb	r3, [r6, #56]	@ zero_extendqisi2
ARM GAS  D:\Programs\cygwin64\tmp\ccQ42GcX.s 			page 39


 2192 0090 4BEA032B 		orr	fp, fp, r3, lsl #8
 2193 0094 EB07     		lsls	r3, r5, #31
 2194 0096 73D5     		bpl	.L599
 2195 0098 4FEA1B15 		lsr	r5, fp, #4
 2196              	.L577:
 2197 009c 012D     		cmp	r5, #1
 2198 009e 0BD9     		bls	.L586
 2199 00a0 D9F81C30 		ldr	r3, [r9, #28]
 2200 00a4 AB42     		cmp	r3, r5
 2201 00a6 07D9     		bls	.L586
 2202 00a8 A4EB0804 		sub	r4, r4, r8
 2203 00ac A045     		cmp	r8, r4
 2204 00ae 5BD8     		bhi	.L566
 2205 00b0 3E68     		ldr	r6, [r7]
 2206 00b2 F369     		ldr	r3, [r6, #28]
 2207 00b4 AB42     		cmp	r3, r5
 2208 00b6 C0D8     		bhi	.L567
 2209              	.L586:
 2210 00b8 0220     		movs	r0, #2
 2211 00ba BDE8F88F 		pop	{r3, r4, r5, r6, r7, r8, r9, r10, fp, pc}
 2212              	.L597:
 2213 00be 99F80030 		ldrb	r3, [r9]	@ zero_extendqisi2
 2214 00c2 022B     		cmp	r3, #2
 2215 00c4 18D8     		bhi	.L600
 2216              	.L563:
 2217 00c6 B9F80830 		ldrh	r3, [r9, #8]
 2218 00ca B3EB541F 		cmp	r3, r4, lsr #5
 2219 00ce F3D9     		bls	.L586
 2220 00d0 D9F82C20 		ldr	r2, [r9, #44]
 2221 00d4 FA61     		str	r2, [r7, #28]
 2222              	.L564:
 2223 00d6 BD61     		str	r5, [r7, #24]
 2224 00d8 002A     		cmp	r2, #0
 2225 00da EDD0     		beq	.L586
 2226 00dc 09F13809 		add	r9, r9, #56
 2227 00e0 C4F30803 		ubfx	r3, r4, #0, #9
 2228 00e4 4B44     		add	r3, r3, r9
 2229 00e6 02EB5424 		add	r4, r2, r4, lsr #9
 2230 00ea C7E90743 		strd	r4, r3, [r7, #28]
 2231 00ee 0020     		movs	r0, #0
 2232 00f0 BDE8F88F 		pop	{r3, r4, r5, r6, r7, r8, r9, r10, fp, pc}
 2233              	.L596:
 2234 00f4 0220     		movs	r0, #2
 2235 00f6 7047     		bx	lr
 2236              	.L600:
 2237 00f8 D9F82C30 		ldr	r3, [r9, #44]
 2238 00fc 002B     		cmp	r3, #0
 2239 00fe E2D0     		beq	.L563
 2240 0100 1D46     		mov	r5, r3
 2241 0102 8CE7     		b	.L562
 2242              	.L569:
 2243 0104 B16A     		ldr	r1, [r6, #40]
 2244 0106 736B     		ldr	r3, [r6, #52]
 2245 0108 01EBD511 		add	r1, r1, r5, lsr #7
 2246 010c 9942     		cmp	r1, r3
 2247 010e 03D0     		beq	.L581
 2248 0110 3046     		mov	r0, r6
ARM GAS  D:\Programs\cygwin64\tmp\ccQ42GcX.s 			page 40


 2249 0112 FFF7FEFF 		bl	move_window.part.9
 2250 0116 10BB     		cbnz	r0, .L575
 2251              	.L581:
 2252 0118 AD00     		lsls	r5, r5, #2
 2253 011a 05F4FE75 		and	r5, r5, #508
 2254 011e 3836     		adds	r6, r6, #56
 2255 0120 7219     		adds	r2, r6, r5
 2256 0122 755D     		ldrb	r5, [r6, r5]	@ zero_extendqisi2
 2257 0124 5188     		ldrh	r1, [r2, #2]	@ unaligned
 2258 0126 5378     		ldrb	r3, [r2, #1]	@ zero_extendqisi2
 2259 0128 43EA0123 		orr	r3, r3, r1, lsl #8
 2260 012c 45EA0325 		orr	r5, r5, r3, lsl #8
 2261 0130 25F07045 		bic	r5, r5, #-268435456
 2262 0134 B2E7     		b	.L577
 2263              	.L568:
 2264 0136 B16A     		ldr	r1, [r6, #40]
 2265 0138 736B     		ldr	r3, [r6, #52]
 2266 013a 01EB1521 		add	r1, r1, r5, lsr #8
 2267 013e 9942     		cmp	r1, r3
 2268 0140 03D0     		beq	.L579
 2269 0142 3046     		mov	r0, r6
 2270 0144 FFF7FEFF 		bl	move_window.part.9
 2271 0148 48B9     		cbnz	r0, .L575
 2272              	.L579:
 2273 014a 6D00     		lsls	r5, r5, #1
 2274 014c 05F4FF75 		and	r5, r5, #510
 2275 0150 3836     		adds	r6, r6, #56
 2276 0152 7319     		adds	r3, r6, r5
 2277 0154 755D     		ldrb	r5, [r6, r5]	@ zero_extendqisi2
 2278 0156 5B78     		ldrb	r3, [r3, #1]	@ zero_extendqisi2
 2279 0158 45EA0325 		orr	r5, r5, r3, lsl #8
 2280 015c 9EE7     		b	.L577
 2281              	.L575:
 2282 015e 0120     		movs	r0, #1
 2283 0160 BDE8F88F 		pop	{r3, r4, r5, r6, r7, r8, r9, r10, fp, pc}
 2284              	.L598:
 2285 0164 D9F81C30 		ldr	r3, [r9, #28]
 2286              	.L566:
 2287 0168 023B     		subs	r3, r3, #2
 2288 016a A91E     		subs	r1, r5, #2
 2289 016c 9942     		cmp	r1, r3
 2290 016e 0AD2     		bcs	.L601
 2291 0170 B9F80A20 		ldrh	r2, [r9, #10]
 2292 0174 D9F83030 		ldr	r3, [r9, #48]
 2293 0178 01FB0232 		mla	r2, r1, r2, r3
 2294 017c FA61     		str	r2, [r7, #28]
 2295 017e AAE7     		b	.L564
 2296              	.L599:
 2297 0180 CBF30B05 		ubfx	r5, fp, #0, #12
 2298 0184 8AE7     		b	.L577
 2299              	.L601:
 2300 0186 0023     		movs	r3, #0
 2301 0188 C7E90653 		strd	r5, r3, [r7, #24]
 2302 018c 94E7     		b	.L586
 2304 018e 00BF     		.section	.text.dir_find,"ax",%progbits
 2305              		.align	1
 2306              		.p2align 2,,3
ARM GAS  D:\Programs\cygwin64\tmp\ccQ42GcX.s 			page 41


 2307              		.syntax unified
 2308              		.thumb
 2309              		.thumb_func
 2310              		.fpu fpv4-sp-d16
 2312              	dir_find:
 2313              		@ args = 0, pretend = 0, frame = 24
 2314              		@ frame_needed = 0, uses_anonymous_args = 0
 2315 0000 2DE9F04F 		push	{r4, r5, r6, r7, r8, r9, r10, fp, lr}
 2316 0004 0021     		movs	r1, #0
 2317 0006 87B0     		sub	sp, sp, #28
 2318 0008 0446     		mov	r4, r0
 2319 000a 0768     		ldr	r7, [r0]
 2320 000c FFF7FEFF 		bl	dir_sdi
 2321 0010 8046     		mov	r8, r0
 2322 0012 E8B9     		cbnz	r0, .L603
 2323 0014 4FF0FF33 		mov	r3, #-1
 2324 0018 4FF0FF0B 		mov	fp, #255
 2325 001c E669     		ldr	r6, [r4, #28]
 2326 001e DFF82493 		ldr	r9, .L671+8
 2327 0022 2363     		str	r3, [r4, #48]
 2328 0024 DA46     		mov	r10, fp
 2329              	.L629:
 2330 0026 7A6B     		ldr	r2, [r7, #52]
 2331 0028 B242     		cmp	r2, r6
 2332 002a 16D0     		beq	.L604
 2333 002c FB78     		ldrb	r3, [r7, #3]	@ zero_extendqisi2
 2334 002e 7878     		ldrb	r0, [r7, #1]	@ zero_extendqisi2
 2335 0030 07F13805 		add	r5, r7, #56
 2336 0034 002B     		cmp	r3, #0
 2337 0036 40F08680 		bne	.L667
 2338              	.L605:
 2339 003a 2946     		mov	r1, r5
 2340 003c 0123     		movs	r3, #1
 2341 003e 3246     		mov	r2, r6
 2342 0040 FFF7FEFF 		bl	disk_read
 2343 0044 40B1     		cbz	r0, .L607
 2344 0046 4FF0FF33 		mov	r3, #-1
 2345 004a 7B63     		str	r3, [r7, #52]
 2346              	.L666:
 2347 004c 4FF00108 		mov	r8, #1
 2348              	.L603:
 2349 0050 4046     		mov	r0, r8
 2350 0052 07B0     		add	sp, sp, #28
 2351              		@ sp needed
 2352 0054 BDE8F08F 		pop	{r4, r5, r6, r7, r8, r9, r10, fp, pc}
 2353              	.L607:
 2354 0058 7E63     		str	r6, [r7, #52]
 2355              	.L604:
 2356 005a 256A     		ldr	r5, [r4, #32]
 2357 005c 2E78     		ldrb	r6, [r5]	@ zero_extendqisi2
 2358 005e AEB1     		cbz	r6, .L665
 2359 0060 EA7A     		ldrb	r2, [r5, #11]	@ zero_extendqisi2
 2360 0062 E52E     		cmp	r6, #229
 2361 0064 02F03F03 		and	r3, r2, #63
 2362 0068 A371     		strb	r3, [r4, #6]
 2363 006a 04D0     		beq	.L621
 2364 006c 1207     		lsls	r2, r2, #28
ARM GAS  D:\Programs\cygwin64\tmp\ccQ42GcX.s 			page 42


 2365 006e 28D5     		bpl	.L610
 2366 0070 0F2B     		cmp	r3, #15
 2367 0072 00F0A680 		beq	.L611
 2368              	.L621:
 2369 0076 4FF0FF33 		mov	r3, #-1
 2370 007a 2363     		str	r3, [r4, #48]
 2371 007c 4FF0FF0A 		mov	r10, #255
 2372              	.L612:
 2373 0080 6569     		ldr	r5, [r4, #20]
 2374 0082 2035     		adds	r5, r5, #32
 2375 0084 4D45     		cmp	r5, r9
 2376 0086 07D9     		bls	.L622
 2377              	.L626:
 2378 0088 0023     		movs	r3, #0
 2379 008a E361     		str	r3, [r4, #28]
 2380              	.L665:
 2381 008c 4FF00408 		mov	r8, #4
 2382 0090 4046     		mov	r0, r8
 2383 0092 07B0     		add	sp, sp, #28
 2384              		@ sp needed
 2385 0094 BDE8F08F 		pop	{r4, r5, r6, r7, r8, r9, r10, fp, pc}
 2386              	.L622:
 2387 0098 E669     		ldr	r6, [r4, #28]
 2388 009a 002E     		cmp	r6, #0
 2389 009c F6D0     		beq	.L665
 2390 009e C5F30802 		ubfx	r2, r5, #0, #9
 2391 00a2 2368     		ldr	r3, [r4]
 2392 00a4 42B9     		cbnz	r2, .L624
 2393 00a6 A169     		ldr	r1, [r4, #24]
 2394 00a8 0136     		adds	r6, r6, #1
 2395 00aa E661     		str	r6, [r4, #28]
 2396 00ac 0029     		cmp	r1, #0
 2397 00ae 65D1     		bne	.L625
 2398 00b0 1989     		ldrh	r1, [r3, #8]
 2399 00b2 B1EB551F 		cmp	r1, r5, lsr #5
 2400 00b6 E7D9     		bls	.L626
 2401              	.L624:
 2402 00b8 3833     		adds	r3, r3, #56
 2403 00ba 1344     		add	r3, r3, r2
 2404 00bc 2362     		str	r3, [r4, #32]
 2405 00be 6561     		str	r5, [r4, #20]
 2406 00c0 B1E7     		b	.L629
 2407              	.L610:
 2408 00c2 0F2B     		cmp	r3, #15
 2409 00c4 7DD0     		beq	.L611
 2410 00c6 BAF1000F 		cmp	r10, #0
 2411 00ca 00F0D380 		beq	.L668
 2412              	.L620:
 2413 00ce 94F82F30 		ldrb	r3, [r4, #47]	@ zero_extendqisi2
 2414 00d2 DA07     		lsls	r2, r3, #31
 2415 00d4 CFD4     		bmi	.L621
 2416 00d6 94F82420 		ldrb	r2, [r4, #36]	@ zero_extendqisi2
 2417 00da 2B78     		ldrb	r3, [r5]	@ zero_extendqisi2
 2418 00dc 9A42     		cmp	r2, r3
 2419 00de CAD1     		bne	.L621
 2420 00e0 6A78     		ldrb	r2, [r5, #1]	@ zero_extendqisi2
 2421 00e2 94F82530 		ldrb	r3, [r4, #37]	@ zero_extendqisi2
ARM GAS  D:\Programs\cygwin64\tmp\ccQ42GcX.s 			page 43


 2422 00e6 9A42     		cmp	r2, r3
 2423 00e8 C5D1     		bne	.L621
 2424 00ea AA78     		ldrb	r2, [r5, #2]	@ zero_extendqisi2
 2425 00ec 94F82630 		ldrb	r3, [r4, #38]	@ zero_extendqisi2
 2426 00f0 9A42     		cmp	r2, r3
 2427 00f2 C0D1     		bne	.L621
 2428 00f4 EA78     		ldrb	r2, [r5, #3]	@ zero_extendqisi2
 2429 00f6 94F82730 		ldrb	r3, [r4, #39]	@ zero_extendqisi2
 2430 00fa 9A42     		cmp	r2, r3
 2431 00fc BBD1     		bne	.L621
 2432 00fe 2A79     		ldrb	r2, [r5, #4]	@ zero_extendqisi2
 2433 0100 94F82830 		ldrb	r3, [r4, #40]	@ zero_extendqisi2
 2434 0104 9A42     		cmp	r2, r3
 2435 0106 B6D1     		bne	.L621
 2436 0108 6A79     		ldrb	r2, [r5, #5]	@ zero_extendqisi2
 2437 010a 94F82930 		ldrb	r3, [r4, #41]	@ zero_extendqisi2
 2438 010e 9A42     		cmp	r2, r3
 2439 0110 B1D1     		bne	.L621
 2440 0112 AA79     		ldrb	r2, [r5, #6]	@ zero_extendqisi2
 2441 0114 94F82A30 		ldrb	r3, [r4, #42]	@ zero_extendqisi2
 2442 0118 9A42     		cmp	r2, r3
 2443 011a ACD1     		bne	.L621
 2444 011c EA79     		ldrb	r2, [r5, #7]	@ zero_extendqisi2
 2445 011e 94F82B30 		ldrb	r3, [r4, #43]	@ zero_extendqisi2
 2446 0122 9A42     		cmp	r2, r3
 2447 0124 A7D1     		bne	.L621
 2448 0126 2A7A     		ldrb	r2, [r5, #8]	@ zero_extendqisi2
 2449 0128 94F82C30 		ldrb	r3, [r4, #44]	@ zero_extendqisi2
 2450 012c 9A42     		cmp	r2, r3
 2451 012e A2D1     		bne	.L621
 2452 0130 6A7A     		ldrb	r2, [r5, #9]	@ zero_extendqisi2
 2453 0132 94F82D30 		ldrb	r3, [r4, #45]	@ zero_extendqisi2
 2454 0136 9A42     		cmp	r2, r3
 2455 0138 9DD1     		bne	.L621
 2456 013a AA7A     		ldrb	r2, [r5, #10]	@ zero_extendqisi2
 2457 013c 94F82E30 		ldrb	r3, [r4, #46]	@ zero_extendqisi2
 2458 0140 9A42     		cmp	r2, r3
 2459 0142 98D1     		bne	.L621
 2460 0144 84E7     		b	.L603
 2461              	.L667:
 2462 0146 0123     		movs	r3, #1
 2463 0148 2946     		mov	r1, r5
 2464 014a FFF7FEFF 		bl	disk_write
 2465 014e 0028     		cmp	r0, #0
 2466 0150 7FF47CAF 		bne	.L666
 2467 0154 796B     		ldr	r1, [r7, #52]
 2468 0156 BB6A     		ldr	r3, [r7, #40]
 2469 0158 3A6A     		ldr	r2, [r7, #32]
 2470 015a F870     		strb	r0, [r7, #3]
 2471 015c CB1A     		subs	r3, r1, r3
 2472 015e 9342     		cmp	r3, r2
 2473 0160 7878     		ldrb	r0, [r7, #1]	@ zero_extendqisi2
 2474 0162 BFF46AAF 		bcs	.L605
 2475 0166 BB78     		ldrb	r3, [r7, #2]	@ zero_extendqisi2
 2476 0168 022B     		cmp	r3, #2
 2477 016a 7FF466AF 		bne	.L605
 2478 016e 0A44     		add	r2, r2, r1
ARM GAS  D:\Programs\cygwin64\tmp\ccQ42GcX.s 			page 44


 2479 0170 0123     		movs	r3, #1
 2480 0172 2946     		mov	r1, r5
 2481 0174 FFF7FEFF 		bl	disk_write
 2482 0178 7878     		ldrb	r0, [r7, #1]	@ zero_extendqisi2
 2483 017a 5EE7     		b	.L605
 2484              	.L625:
 2485 017c 5889     		ldrh	r0, [r3, #10]
 2486 017e 0138     		subs	r0, r0, #1
 2487 0180 10EA5520 		ands	r0, r0, r5, lsr #9
 2488 0184 98D1     		bne	.L624
 2489 0186 1846     		mov	r0, r3
 2490 0188 0192     		str	r2, [sp, #4]
 2491 018a 0093     		str	r3, [sp]
 2492 018c FFF7FEFF 		bl	get_fat.isra.12
 2493 0190 0128     		cmp	r0, #1
 2494 0192 40F2B980 		bls	.L637
 2495 0196 431C     		adds	r3, r0, #1
 2496 0198 3FF458AF 		beq	.L666
 2497 019c 009B     		ldr	r3, [sp]
 2498 019e D969     		ldr	r1, [r3, #28]
 2499 01a0 8842     		cmp	r0, r1
 2500 01a2 BFF471AF 		bcs	.L626
 2501 01a6 861E     		subs	r6, r0, #2
 2502 01a8 0239     		subs	r1, r1, #2
 2503 01aa 8E42     		cmp	r6, r1
 2504 01ac 38BF     		it	cc
 2505 01ae 196B     		ldrcc	r1, [r3, #48]
 2506 01b0 A061     		str	r0, [r4, #24]
 2507 01b2 019A     		ldr	r2, [sp, #4]
 2508 01b4 36BF     		itet	cc
 2509 01b6 5889     		ldrhcc	r0, [r3, #10]
 2510 01b8 1646     		movcs	r6, r2
 2511 01ba 06FB0016 		mlacc	r6, r6, r0, r1
 2512 01be E661     		str	r6, [r4, #28]
 2513 01c0 7AE7     		b	.L624
 2514              	.L611:
 2515 01c2 94F82F30 		ldrb	r3, [r4, #47]	@ zero_extendqisi2
 2516 01c6 5B06     		lsls	r3, r3, #25
 2517 01c8 3FF55AAF 		bmi	.L612
 2518 01cc 7006     		lsls	r0, r6, #25
 2519 01ce 4CD5     		bpl	.L614
 2520 01d0 6369     		ldr	r3, [r4, #20]
 2521 01d2 95F80DB0 		ldrb	fp, [r5, #13]	@ zero_extendqisi2
 2522 01d6 2363     		str	r3, [r4, #48]
 2523 01d8 06F0BF06 		and	r6, r6, #191
 2524              	.L615:
 2525 01dc 6B7B     		ldrb	r3, [r5, #13]	@ zero_extendqisi2
 2526 01de 5B45     		cmp	r3, fp
 2527 01e0 45D1     		bne	.L636
 2528 01e2 EA7E     		ldrb	r2, [r5, #27]	@ zero_extendqisi2
 2529 01e4 AB7E     		ldrb	r3, [r5, #26]	@ zero_extendqisi2
 2530 01e6 53EA0223 		orrs	r3, r3, r2, lsl #8
 2531 01ea 40D1     		bne	.L636
 2532 01ec 2A78     		ldrb	r2, [r5]	@ zero_extendqisi2
 2533 01ee 534B     		ldr	r3, .L671
 2534 01f0 F868     		ldr	r0, [r7, #12]
 2535 01f2 0590     		str	r0, [sp, #20]
ARM GAS  D:\Programs\cygwin64\tmp\ccQ42GcX.s 			page 45


 2536 01f4 02F03F02 		and	r2, r2, #63
 2537 01f8 013A     		subs	r2, r2, #1
 2538 01fa 02EB4201 		add	r1, r2, r2, lsl #1
 2539 01fe 02EB8102 		add	r2, r2, r1, lsl #2
 2540 0202 4FF0010C 		mov	ip, #1
 2541 0206 CDE900B7 		strd	fp, r7, [sp]
 2542 020a 9A46     		mov	r10, r3
 2543 020c CDE90284 		strd	r8, r4, [sp, #8]
 2544 0210 0746     		mov	r7, r0
 2545 0212 2C46     		mov	r4, r5
 2546 0214 0496     		str	r6, [sp, #16]
 2547 0216 6346     		mov	r3, ip
 2548 0218 1546     		mov	r5, r2
 2549 021a 0FE0     		b	.L618
 2550              	.L670:
 2551 021c FE2D     		cmp	r5, #254
 2552 021e 1DD8     		bhi	.L635
 2553 0220 FFF7FEFF 		bl	ff_wtoupper
 2554 0224 8346     		mov	fp, r0
 2555 0226 37F81500 		ldrh	r0, [r7, r5, lsl #1]
 2556 022a FFF7FEFF 		bl	ff_wtoupper
 2557 022e 8345     		cmp	fp, r0
 2558 0230 14D1     		bne	.L635
 2559 0232 3346     		mov	r3, r6
 2560 0234 4546     		mov	r5, r8
 2561              	.L617:
 2562 0236 424A     		ldr	r2, .L671+4
 2563 0238 9245     		cmp	r10, r2
 2564 023a 68D0     		beq	.L669
 2565              	.L618:
 2566 023c 1AF8011B 		ldrb	r1, [r10], #1	@ zero_extendqisi2
 2567 0240 6018     		adds	r0, r4, r1
 2568 0242 665C     		ldrb	r6, [r4, r1]	@ zero_extendqisi2
 2569 0244 4078     		ldrb	r0, [r0, #1]	@ zero_extendqisi2
 2570 0246 46EA0026 		orr	r6, r6, r0, lsl #8
 2571 024a 05F10108 		add	r8, r5, #1
 2572 024e 3046     		mov	r0, r6
 2573 0250 002B     		cmp	r3, #0
 2574 0252 E3D1     		bne	.L670
 2575 0254 4FF6FF72 		movw	r2, #65535
 2576 0258 9642     		cmp	r6, r2
 2577 025a ECD0     		beq	.L617
 2578              	.L635:
 2579 025c DDE900B7 		ldrd	fp, r7, [sp]
 2580 0260 DDE90284 		ldrd	r8, r4, [sp, #8]
 2581 0264 4FF0FF0A 		mov	r10, #255
 2582 0268 0AE7     		b	.L612
 2583              	.L614:
 2584 026a B245     		cmp	r10, r6
 2585 026c B6D0     		beq	.L615
 2586              	.L636:
 2587 026e 4FF0FF0A 		mov	r10, #255
 2588 0272 05E7     		b	.L612
 2589              	.L668:
 2590 0274 2A78     		ldrb	r2, [r5]	@ zero_extendqisi2
 2591 0276 6978     		ldrb	r1, [r5, #1]	@ zero_extendqisi2
 2592 0278 D301     		lsls	r3, r2, #7
ARM GAS  D:\Programs\cygwin64\tmp\ccQ42GcX.s 			page 46


 2593 027a 43EA5203 		orr	r3, r3, r2, lsr #1
 2594 027e 5A18     		adds	r2, r3, r1
 2595 0280 C2F34603 		ubfx	r3, r2, #1, #7
 2596 0284 A978     		ldrb	r1, [r5, #2]	@ zero_extendqisi2
 2597 0286 43EAC213 		orr	r3, r3, r2, lsl #7
 2598 028a 51FA83F3 		uxtab	r3, r1, r3
 2599 028e C3F34602 		ubfx	r2, r3, #1, #7
 2600 0292 E978     		ldrb	r1, [r5, #3]	@ zero_extendqisi2
 2601 0294 42EAC312 		orr	r2, r2, r3, lsl #7
 2602 0298 51FA82F3 		uxtab	r3, r1, r2
 2603 029c C3F34602 		ubfx	r2, r3, #1, #7
 2604 02a0 2979     		ldrb	r1, [r5, #4]	@ zero_extendqisi2
 2605 02a2 42EAC312 		orr	r2, r2, r3, lsl #7
 2606 02a6 51FA82F2 		uxtab	r2, r1, r2
 2607 02aa C2F34603 		ubfx	r3, r2, #1, #7
 2608 02ae 6979     		ldrb	r1, [r5, #5]	@ zero_extendqisi2
 2609 02b0 43EAC213 		orr	r3, r3, r2, lsl #7
 2610 02b4 51FA83F2 		uxtab	r2, r1, r3
 2611 02b8 C2F34603 		ubfx	r3, r2, #1, #7
 2612 02bc A979     		ldrb	r1, [r5, #6]	@ zero_extendqisi2
 2613 02be 43EAC213 		orr	r3, r3, r2, lsl #7
 2614 02c2 51FA83F3 		uxtab	r3, r1, r3
 2615 02c6 C3F34602 		ubfx	r2, r3, #1, #7
 2616 02ca E979     		ldrb	r1, [r5, #7]	@ zero_extendqisi2
 2617 02cc 42EAC312 		orr	r2, r2, r3, lsl #7
 2618 02d0 51FA82F3 		uxtab	r3, r1, r2
 2619 02d4 C3F34602 		ubfx	r2, r3, #1, #7
 2620 02d8 297A     		ldrb	r1, [r5, #8]	@ zero_extendqisi2
 2621 02da 42EAC312 		orr	r2, r2, r3, lsl #7
 2622 02de 51FA82F2 		uxtab	r2, r1, r2
 2623 02e2 C2F34603 		ubfx	r3, r2, #1, #7
 2624 02e6 697A     		ldrb	r1, [r5, #9]	@ zero_extendqisi2
 2625 02e8 43EAC213 		orr	r3, r3, r2, lsl #7
 2626 02ec 51FA83F2 		uxtab	r2, r1, r3
 2627 02f0 C2F34603 		ubfx	r3, r2, #1, #7
 2628 02f4 A97A     		ldrb	r1, [r5, #10]	@ zero_extendqisi2
 2629 02f6 43EAC213 		orr	r3, r3, r2, lsl #7
 2630 02fa 51FA83F3 		uxtab	r3, r1, r3
 2631 02fe DBB2     		uxtb	r3, r3
 2632 0300 9B45     		cmp	fp, r3
 2633 0302 7FF4E4AE 		bne	.L620
 2634 0306 A3E6     		b	.L603
 2635              	.L637:
 2636 0308 4FF00208 		mov	r8, #2
 2637 030c A0E6     		b	.L603
 2638              	.L669:
 2639 030e 2A46     		mov	r2, r5
 2640 0310 2546     		mov	r5, r4
 2641 0312 9C46     		mov	ip, r3
 2642 0314 2B78     		ldrb	r3, [r5]	@ zero_extendqisi2
 2643 0316 049E     		ldr	r6, [sp, #16]
 2644 0318 5906     		lsls	r1, r3, #25
 2645 031a DDE900B7 		ldrd	fp, r7, [sp]
 2646 031e DDE90284 		ldrd	r8, r4, [sp, #8]
 2647 0322 07D5     		bpl	.L619
 2648 0324 BCF1000F 		cmp	ip, #0
 2649 0328 04D0     		beq	.L619
ARM GAS  D:\Programs\cygwin64\tmp\ccQ42GcX.s 			page 47


 2650 032a 059B     		ldr	r3, [sp, #20]
 2651 032c 33F81230 		ldrh	r3, [r3, r2, lsl #1]
 2652 0330 002B     		cmp	r3, #0
 2653 0332 9CD1     		bne	.L636
 2654              	.L619:
 2655 0334 013E     		subs	r6, r6, #1
 2656 0336 5FFA86FA 		uxtb	r10, r6
 2657 033a A1E6     		b	.L612
 2658              	.L672:
 2659              		.align	2
 2660              	.L671:
 2661 033c 00000000 		.word	.LANCHOR3
 2662 0340 0D000000 		.word	.LANCHOR3+13
 2663 0344 FFFF1F00 		.word	2097151
 2665              		.section	.text.follow_path,"ax",%progbits
 2666              		.align	1
 2667              		.p2align 2,,3
 2668              		.syntax unified
 2669              		.thumb
 2670              		.thumb_func
 2671              		.fpu fpv4-sp-d16
 2673              	follow_path:
 2674              		@ args = 0, pretend = 0, frame = 16
 2675              		@ frame_needed = 0, uses_anonymous_args = 0
 2676 0000 2DE9F04F 		push	{r4, r5, r6, r7, r8, r9, r10, fp, lr}
 2677 0004 D0F800B0 		ldr	fp, [r0]
 2678 0008 85B0     		sub	sp, sp, #20
 2679 000a 0746     		mov	r7, r0
 2680              	.L674:
 2681 000c 0D46     		mov	r5, r1
 2682 000e 11F8013B 		ldrb	r3, [r1], #1	@ zero_extendqisi2
 2683 0012 2F2B     		cmp	r3, #47
 2684 0014 FAD0     		beq	.L674
 2685 0016 5C2B     		cmp	r3, #92
 2686 0018 F8D0     		beq	.L674
 2687 001a 0021     		movs	r1, #0
 2688 001c B960     		str	r1, [r7, #8]
 2689 001e 2B78     		ldrb	r3, [r5]	@ zero_extendqisi2
 2690 0020 1F2B     		cmp	r3, #31
 2691 0022 40F25E81 		bls	.L816
 2692 0026 5B46     		mov	r3, fp
 2693              	.L676:
 2694 0028 15F8010B 		ldrb	r0, [r5], #1	@ zero_extendqisi2
 2695 002c D3F80C90 		ldr	r9, [r3, #12]
 2696 0030 18BB     		cbnz	r0, .L817
 2697 0032 0446     		mov	r4, r0
 2698              	.L677:
 2699 0034 2B46     		mov	r3, r5
 2700              	.L680:
 2701 0036 1A78     		ldrb	r2, [r3]	@ zero_extendqisi2
 2702 0038 2F2A     		cmp	r2, #47
 2703 003a 1D46     		mov	r5, r3
 2704 003c 03F10103 		add	r3, r3, #1
 2705 0040 F9D0     		beq	.L680
 2706 0042 5C2A     		cmp	r2, #92
 2707 0044 F7D0     		beq	.L680
 2708 0046 2028     		cmp	r0, #32
ARM GAS  D:\Programs\cygwin64\tmp\ccQ42GcX.s 			page 48


 2709 0048 35BF     		itete	cc
 2710 004a 4FF00708 		movcc	r8, #7
 2711 004e 4FF00308 		movcs	r8, #3
 2712 0052 0421     		movcc	r1, #4
 2713 0054 0021     		movcs	r1, #0
 2714 0056 4CB1     		cbz	r4, .L687
 2715 0058 09EB4402 		add	r2, r9, r4, lsl #1
 2716              	.L690:
 2717 005c 32F8023D 		ldrh	r3, [r2, #-2]!
 2718 0060 202B     		cmp	r3, #32
 2719 0062 01D0     		beq	.L688
 2720 0064 2E2B     		cmp	r3, #46
 2721 0066 2ED1     		bne	.L689
 2722              	.L688:
 2723 0068 013C     		subs	r4, r4, #1
 2724 006a F7D1     		bne	.L690
 2725              	.L687:
 2726 006c 0023     		movs	r3, #0
 2727 006e A9F80030 		strh	r3, [r9]	@ movhi
 2728              	.L815:
 2729 0072 0620     		movs	r0, #6
 2730              	.L742:
 2731 0074 05B0     		add	sp, sp, #20
 2732              		@ sp needed
 2733 0076 BDE8F08F 		pop	{r4, r5, r6, r7, r8, r9, r10, fp, pc}
 2734              	.L817:
 2735 007a A9F10206 		sub	r6, r9, #2
 2736 007e 0024     		movs	r4, #0
 2737              	.L684:
 2738 0080 40F25231 		movw	r1, #850
 2739 0084 FFF7FEFF 		bl	ff_oem2uni
 2740 0088 0028     		cmp	r0, #0
 2741 008a F2D0     		beq	.L815
 2742 008c 1F28     		cmp	r0, #31
 2743 008e D1D9     		bls	.L677
 2744 0090 2F28     		cmp	r0, #47
 2745 0092 CFD0     		beq	.L677
 2746 0094 5C28     		cmp	r0, #92
 2747 0096 CDD0     		beq	.L677
 2748 0098 7F28     		cmp	r0, #127
 2749 009a 09D9     		bls	.L818
 2750              	.L681:
 2751 009c FF2C     		cmp	r4, #255
 2752 009e E8D0     		beq	.L815
 2753 00a0 26F8020F 		strh	r0, [r6, #2]!	@ movhi
 2754 00a4 15F8010B 		ldrb	r0, [r5], #1	@ zero_extendqisi2
 2755 00a8 0134     		adds	r4, r4, #1
 2756 00aa 0028     		cmp	r0, #0
 2757 00ac C2D0     		beq	.L677
 2758 00ae E7E7     		b	.L684
 2759              	.L818:
 2760 00b0 2228     		cmp	r0, #34
 2761 00b2 DED0     		beq	.L815
 2762 00b4 A24A     		ldr	r2, .L829
 2763 00b6 2A23     		movs	r3, #42
 2764              	.L682:
 2765 00b8 8342     		cmp	r3, r0
ARM GAS  D:\Programs\cygwin64\tmp\ccQ42GcX.s 			page 49


 2766 00ba DAD0     		beq	.L815
 2767 00bc 12F8013F 		ldrb	r3, [r2, #1]!	@ zero_extendqisi2
 2768 00c0 002B     		cmp	r3, #0
 2769 00c2 F9D1     		bne	.L682
 2770 00c4 EAE7     		b	.L681
 2771              	.L689:
 2772 00c6 0026     		movs	r6, #0
 2773 00c8 29F81460 		strh	r6, [r9, r4, lsl #1]	@ movhi
 2774 00cc B9F80020 		ldrh	r2, [r9]
 2775 00d0 202A     		cmp	r2, #32
 2776 00d2 09EB4403 		add	r3, r9, r4, lsl #1
 2777 00d6 08BF     		it	eq
 2778 00d8 4A46     		moveq	r2, r9
 2779 00da 40F0BC80 		bne	.L819
 2780              	.L691:
 2781 00de 32F8021F 		ldrh	r1, [r2, #2]!
 2782 00e2 2029     		cmp	r1, #32
 2783 00e4 06F10106 		add	r6, r6, #1
 2784 00e8 F9D0     		beq	.L691
 2785              	.L694:
 2786 00ea 33F8022D 		ldrh	r2, [r3, #-2]!
 2787 00ee 2E2A     		cmp	r2, #46
 2788 00f0 01D0     		beq	.L695
 2789 00f2 013C     		subs	r4, r4, #1
 2790 00f4 F9D1     		bne	.L694
 2791              	.L695:
 2792 00f6 2023     		movs	r3, #32
 2793 00f8 4FF02032 		mov	r2, #538976288
 2794 00fc 4FF0000A 		mov	r10, #0
 2795 0100 7A62     		str	r2, [r7, #36]	@ unaligned
 2796 0102 BA62     		str	r2, [r7, #40]	@ unaligned
 2797 0104 87F82C30 		strb	r3, [r7, #44]
 2798 0108 87F82D30 		strb	r3, [r7, #45]
 2799 010c 87F82E30 		strb	r3, [r7, #46]
 2800 0110 0822     		movs	r2, #8
 2801 0112 5346     		mov	r3, r10
 2802              	.L697:
 2803 0114 39F81600 		ldrh	r0, [r9, r6, lsl #1]
 2804 0118 0136     		adds	r6, r6, #1
 2805 011a 50B3     		cbz	r0, .L698
 2806              	.L823:
 2807 011c 2028     		cmp	r0, #32
 2808 011e 1FD0     		beq	.L699
 2809 0120 2E28     		cmp	r0, #46
 2810 0122 6DD0     		beq	.L820
 2811 0124 9245     		cmp	r10, r2
 2812 0126 77D2     		bcs	.L703
 2813 0128 B442     		cmp	r4, r6
 2814 012a 6BD0     		beq	.L730
 2815 012c 7F28     		cmp	r0, #127
 2816 012e 00F2A080 		bhi	.L821
 2817              	.L709:
 2818 0132 2B28     		cmp	r0, #43
 2819 0134 00F0E480 		beq	.L740
 2820 0138 DFF80CC2 		ldr	ip, .L829+8
 2821 013c 2C21     		movs	r1, #44
 2822              	.L715:
ARM GAS  D:\Programs\cygwin64\tmp\ccQ42GcX.s 			page 50


 2823 013e 8142     		cmp	r1, r0
 2824 0140 00F0DE80 		beq	.L740
 2825 0144 1CF8011F 		ldrb	r1, [ip, #1]!	@ zero_extendqisi2
 2826 0148 0029     		cmp	r1, #0
 2827 014a F8D1     		bne	.L715
 2828 014c A0F14101 		sub	r1, r0, #65
 2829 0150 89B2     		uxth	r1, r1
 2830 0152 1929     		cmp	r1, #25
 2831 0154 00F2E880 		bhi	.L822
 2832 0158 43F00203 		orr	r3, r3, #2
 2833 015c C0B2     		uxtb	r0, r0
 2834 015e A5E0     		b	.L713
 2835              	.L699:
 2836 0160 39F81600 		ldrh	r0, [r9, r6, lsl #1]
 2837 0164 48F00308 		orr	r8, r8, #3
 2838 0168 5FFA88F8 		uxtb	r8, r8
 2839 016c 0136     		adds	r6, r6, #1
 2840 016e 0028     		cmp	r0, #0
 2841 0170 D4D1     		bne	.L823
 2842              	.L698:
 2843 0172 97F82410 		ldrb	r1, [r7, #36]	@ zero_extendqisi2
 2844 0176 E529     		cmp	r1, #229
 2845 0178 04BF     		itt	eq
 2846 017a 0521     		moveq	r1, #5
 2847 017c 87F82410 		strbeq	r1, [r7, #36]
 2848 0180 082A     		cmp	r2, #8
 2849 0182 6CD0     		beq	.L824
 2850              	.L707:
 2851 0184 03F00C02 		and	r2, r3, #12
 2852 0188 0C2A     		cmp	r2, #12
 2853 018a 4FD0     		beq	.L720
 2854 018c 03F00302 		and	r2, r3, #3
 2855 0190 032A     		cmp	r2, #3
 2856 0192 4BD0     		beq	.L720
 2857 0194 18F0020F 		tst	r8, #2
 2858 0198 0BD1     		bne	.L723
 2859 019a D807     		lsls	r0, r3, #31
 2860 019c 44BF     		itt	mi
 2861 019e 48F01008 		orrmi	r8, r8, #16
 2862 01a2 5FFA88F8 		uxtbmi	r8, r8
 2863              	.L724:
 2864 01a6 5907     		lsls	r1, r3, #29
 2865 01a8 44BF     		itt	mi
 2866 01aa 48F00808 		orrmi	r8, r8, #8
 2867 01ae 5FFA88F8 		uxtbmi	r8, r8
 2868              	.L723:
 2869 01b2 87F82F80 		strb	r8, [r7, #47]
 2870 01b6 3846     		mov	r0, r7
 2871 01b8 FFF7FEFF 		bl	dir_find
 2872 01bc 97F82F30 		ldrb	r3, [r7, #47]	@ zero_extendqisi2
 2873 01c0 0028     		cmp	r0, #0
 2874 01c2 40D1     		bne	.L825
 2875              	.L725:
 2876 01c4 5A07     		lsls	r2, r3, #29
 2877 01c6 3FF555AF 		bmi	.L742
 2878 01ca BB79     		ldrb	r3, [r7, #6]	@ zero_extendqisi2
 2879 01cc DB06     		lsls	r3, r3, #27
ARM GAS  D:\Programs\cygwin64\tmp\ccQ42GcX.s 			page 51


 2880 01ce 40F19A80 		bpl	.L741
 2881 01d2 7B69     		ldr	r3, [r7, #20]
 2882 01d4 9BF80010 		ldrb	r1, [fp]	@ zero_extendqisi2
 2883 01d8 C3F30802 		ubfx	r2, r3, #0, #9
 2884 01dc 0BF13803 		add	r3, fp, #56
 2885 01e0 1344     		add	r3, r3, r2
 2886 01e2 0329     		cmp	r1, #3
 2887 01e4 D87E     		ldrb	r0, [r3, #27]	@ zero_extendqisi2
 2888 01e6 9A7E     		ldrb	r2, [r3, #26]	@ zero_extendqisi2
 2889 01e8 42EA0022 		orr	r2, r2, r0, lsl #8
 2890 01ec 05D1     		bne	.L726
 2891 01ee 597D     		ldrb	r1, [r3, #21]	@ zero_extendqisi2
 2892 01f0 1B7D     		ldrb	r3, [r3, #20]	@ zero_extendqisi2
 2893 01f2 43EA0123 		orr	r3, r3, r1, lsl #8
 2894 01f6 42EA0342 		orr	r2, r2, r3, lsl #16
 2895              	.L726:
 2896 01fa BA60     		str	r2, [r7, #8]
 2897 01fc 3B68     		ldr	r3, [r7]
 2898 01fe 13E7     		b	.L676
 2899              	.L820:
 2900 0200 B442     		cmp	r4, r6
 2901 0202 ADD1     		bne	.L699
 2902              	.L730:
 2903 0204 0B2A     		cmp	r2, #11
 2904 0206 00F08280 		beq	.L727
 2905              	.L708:
 2906 020a 9B00     		lsls	r3, r3, #2
 2907 020c DBB2     		uxtb	r3, r3
 2908 020e 2646     		mov	r6, r4
 2909 0210 0B22     		movs	r2, #11
 2910 0212 4FF0080A 		mov	r10, #8
 2911 0216 7DE7     		b	.L697
 2912              	.L703:
 2913 0218 0B2A     		cmp	r2, #11
 2914 021a 78D0     		beq	.L727
 2915 021c B442     		cmp	r4, r6
 2916 021e F4D0     		beq	.L708
 2917 0220 48F00308 		orr	r8, r8, #3
 2918 0224 5FFA88F8 		uxtb	r8, r8
 2919 0228 A3D3     		bcc	.L698
 2920 022a EEE7     		b	.L708
 2921              	.L720:
 2922 022c 48F00208 		orr	r8, r8, #2
 2923 0230 5FFA88F8 		uxtb	r8, r8
 2924 0234 87F82F80 		strb	r8, [r7, #47]
 2925 0238 3846     		mov	r0, r7
 2926 023a FFF7FEFF 		bl	dir_find
 2927 023e 97F82F30 		ldrb	r3, [r7, #47]	@ zero_extendqisi2
 2928 0242 0028     		cmp	r0, #0
 2929 0244 BED0     		beq	.L725
 2930              	.L825:
 2931 0246 0428     		cmp	r0, #4
 2932 0248 7FF414AF 		bne	.L742
 2933 024c 13F0040F 		tst	r3, #4
 2934 0250 08BF     		it	eq
 2935 0252 0520     		moveq	r0, #5
 2936 0254 0EE7     		b	.L742
ARM GAS  D:\Programs\cygwin64\tmp\ccQ42GcX.s 			page 52


 2937              	.L819:
 2938 0256 2E2A     		cmp	r2, #46
 2939 0258 18BF     		it	ne
 2940 025a 8846     		movne	r8, r1
 2941 025c 45E7     		b	.L694
 2942              	.L824:
 2943 025e 9B00     		lsls	r3, r3, #2
 2944 0260 DBB2     		uxtb	r3, r3
 2945 0262 03F00C02 		and	r2, r3, #12
 2946 0266 0C2A     		cmp	r2, #12
 2947 0268 E0D0     		beq	.L720
 2948 026a 18F0020F 		tst	r8, #2
 2949 026e 9AD0     		beq	.L724
 2950 0270 9FE7     		b	.L723
 2951              	.L821:
 2952 0272 48F0020C 		orr	ip, r8, #2
 2953 0276 CDE90223 		strd	r2, r3, [sp, #8]
 2954 027a 40F25231 		movw	r1, #850
 2955 027e 5FFA8CF3 		uxtb	r3, ip
 2956 0282 0193     		str	r3, [sp, #4]
 2957 0284 FFF7FEFF 		bl	ff_uni2oem
 2958 0288 10F0800F 		tst	r0, #128
 2959 028c DDE90223 		ldrd	r2, r3, [sp, #8]
 2960 0290 13D1     		bne	.L826
 2961 0292 FF28     		cmp	r0, #255
 2962 0294 16D8     		bhi	.L827
 2963              	.L711:
 2964 0296 DDF80480 		ldr	r8, [sp, #4]
 2965 029a 0028     		cmp	r0, #0
 2966 029c 7FF449AF 		bne	.L709
 2967              	.L714:
 2968 02a0 0199     		ldr	r1, [sp, #4]
 2969 02a2 41F00308 		orr	r8, r1, #3
 2970 02a6 5FFA88F8 		uxtb	r8, r8
 2971 02aa 5F20     		movs	r0, #95
 2972              	.L713:
 2973 02ac 07EB0A01 		add	r1, r7, r10
 2974 02b0 0AF1010A 		add	r10, r10, #1
 2975 02b4 81F82400 		strb	r0, [r1, #36]
 2976 02b8 2CE7     		b	.L697
 2977              	.L826:
 2978 02ba 00F07F00 		and	r0, r0, #127
 2979 02be 2149     		ldr	r1, .L829+4
 2980 02c0 085C     		ldrb	r0, [r1, r0]	@ zero_extendqisi2
 2981 02c2 E8E7     		b	.L711
 2982              	.L827:
 2983 02c4 511E     		subs	r1, r2, #1
 2984 02c6 8A45     		cmp	r10, r1
 2985 02c8 14D2     		bcs	.L828
 2986 02ca 07EB0A01 		add	r1, r7, r10
 2987 02ce 4FEA102C 		lsr	ip, r0, #8
 2988 02d2 DDF80480 		ldr	r8, [sp, #4]
 2989 02d6 81F824C0 		strb	ip, [r1, #36]
 2990 02da 0AF1010A 		add	r10, r10, #1
 2991 02de C0B2     		uxtb	r0, r0
 2992 02e0 E4E7     		b	.L713
 2993              	.L816:
ARM GAS  D:\Programs\cygwin64\tmp\ccQ42GcX.s 			page 53


 2994 02e2 8023     		movs	r3, #128
 2995 02e4 3846     		mov	r0, r7
 2996 02e6 87F82F30 		strb	r3, [r7, #47]
 2997 02ea 05B0     		add	sp, sp, #20
 2998              		@ sp needed
 2999 02ec BDE8F04F 		pop	{r4, r5, r6, r7, r8, r9, r10, fp, lr}
 3000 02f0 FFF7FEBF 		b	dir_sdi
 3001              	.L828:
 3002 02f4 48F00308 		orr	r8, r8, #3
 3003 02f8 5FFA88F8 		uxtb	r8, r8
 3004 02fc 9246     		mov	r10, r2
 3005 02fe 09E7     		b	.L697
 3006              	.L740:
 3007 0300 CDF80480 		str	r8, [sp, #4]
 3008 0304 CCE7     		b	.L714
 3009              	.L741:
 3010 0306 0520     		movs	r0, #5
 3011 0308 05B0     		add	sp, sp, #20
 3012              		@ sp needed
 3013 030a BDE8F08F 		pop	{r4, r5, r6, r7, r8, r9, r10, fp, pc}
 3014              	.L727:
 3015 030e 97F82420 		ldrb	r2, [r7, #36]	@ zero_extendqisi2
 3016 0312 48F00308 		orr	r8, r8, #3
 3017 0316 E52A     		cmp	r2, #229
 3018 0318 5FFA88F8 		uxtb	r8, r8
 3019 031c 7FF432AF 		bne	.L707
 3020 0320 0522     		movs	r2, #5
 3021 0322 87F82420 		strb	r2, [r7, #36]
 3022 0326 2DE7     		b	.L707
 3023              	.L822:
 3024 0328 A0F16101 		sub	r1, r0, #97
 3025 032c 89B2     		uxth	r1, r1
 3026 032e 1929     		cmp	r1, #25
 3027 0330 97BF     		itett	ls
 3028 0332 2038     		subls	r0, r0, #32
 3029 0334 C0B2     		uxtbhi	r0, r0
 3030 0336 C0B2     		uxtbls	r0, r0
 3031 0338 43F00103 		orrls	r3, r3, #1
 3032 033c B6E7     		b	.L713
 3033              	.L830:
 3034 033e 00BF     		.align	2
 3035              	.L829:
 3036 0340 01000000 		.word	.LC0+1
 3037 0344 00000000 		.word	.LANCHOR4
 3038 0348 01000000 		.word	.LC1+1
 3040              		.section	.text.dir_register,"ax",%progbits
 3041              		.align	1
 3042              		.p2align 2,,3
 3043              		.syntax unified
 3044              		.thumb
 3045              		.thumb_func
 3046              		.fpu fpv4-sp-d16
 3048              	dir_register:
 3049              		@ args = 0, pretend = 0, frame = 64
 3050              		@ frame_needed = 0, uses_anonymous_args = 0
 3051 0000 2DE9F04F 		push	{r4, r5, r6, r7, r8, r9, r10, fp, lr}
 3052 0004 90F82F60 		ldrb	r6, [r0, #47]	@ zero_extendqisi2
ARM GAS  D:\Programs\cygwin64\tmp\ccQ42GcX.s 			page 54


 3053 0008 16F0A006 		ands	r6, r6, #160
 3054 000c 91B0     		sub	sp, sp, #68
 3055 000e 40F06A83 		bne	.L947
 3056 0012 0368     		ldr	r3, [r0]
 3057 0014 0093     		str	r3, [sp]
 3058 0016 DB68     		ldr	r3, [r3, #12]
 3059 0018 1A88     		ldrh	r2, [r3]
 3060 001a 002A     		cmp	r2, #0
 3061 001c 00F07B83 		beq	.L948
 3062 0020 1A46     		mov	r2, r3
 3063              	.L834:
 3064 0022 32F8021F 		ldrh	r1, [r2, #2]!
 3065 0026 0136     		adds	r6, r6, #1
 3066 0028 0029     		cmp	r1, #0
 3067 002a FAD1     		bne	.L834
 3068              	.L833:
 3069 002c 00F12409 		add	r9, r0, #36
 3070 0030 0446     		mov	r4, r0
 3071 0032 99E80700 		ldm	r9, {r0, r1, r2}
 3072 0036 10AD     		add	r5, sp, #64
 3073 0038 05E90700 		stmdb	r5, {r0, r1, r2}
 3074 003c 9DF83F20 		ldrb	r2, [sp, #63]	@ zero_extendqisi2
 3075 0040 0892     		str	r2, [sp, #32]
 3076 0042 D107     		lsls	r1, r2, #31
 3077 0044 3ED4     		bmi	.L1075
 3078 0046 1346     		mov	r3, r2
 3079 0048 13F00202 		ands	r2, r3, #2
 3080 004c DDF800B0 		ldr	fp, [sp]
 3081 0050 00F0C082 		beq	.L965
 3082              	.L1083:
 3083 0054 D34A     		ldr	r2, .L1087
 3084 0056 0C36     		adds	r6, r6, #12
 3085 0058 A2FB0636 		umull	r3, r6, r2, r6
 3086 005c B308     		lsrs	r3, r6, #2
 3087 005e 0193     		str	r3, [sp, #4]
 3088 0060 0021     		movs	r1, #0
 3089 0062 0133     		adds	r3, r3, #1
 3090 0064 2046     		mov	r0, r4
 3091 0066 1D46     		mov	r5, r3
 3092 0068 FFF7FEFF 		bl	dir_sdi
 3093 006c 0746     		mov	r7, r0
 3094 006e 0028     		cmp	r0, #0
 3095 0070 40F0BB82 		bne	.L888
 3096              	.L1084:
 3097 0074 E169     		ldr	r1, [r4, #28]
 3098 0076 DFF834A3 		ldr	r10, .L1087+8
 3099 007a CDE90209 		strd	r0, r9, [sp, #8]
 3100 007e 8046     		mov	r8, r0
 3101 0080 D946     		mov	r9, fp
 3102 0082 AB46     		mov	fp, r5
 3103              	.L907:
 3104 0084 D9F83420 		ldr	r2, [r9, #52]
 3105 0088 8A42     		cmp	r2, r1
 3106 008a 05D0     		beq	.L892
 3107 008c 4846     		mov	r0, r9
 3108 008e FFF7FEFF 		bl	move_window.part.9
 3109 0092 0028     		cmp	r0, #0
ARM GAS  D:\Programs\cygwin64\tmp\ccQ42GcX.s 			page 55


 3110 0094 40F04183 		bne	.L1076
 3111              	.L892:
 3112 0098 226A     		ldr	r2, [r4, #32]
 3113 009a 1278     		ldrb	r2, [r2]	@ zero_extendqisi2
 3114 009c E52A     		cmp	r2, #229
 3115 009e 00F03582 		beq	.L890
 3116 00a2 002A     		cmp	r2, #0
 3117 00a4 00F03282 		beq	.L890
 3118 00a8 4FF00008 		mov	r8, #0
 3119              	.L893:
 3120 00ac 6569     		ldr	r5, [r4, #20]
 3121 00ae 2035     		adds	r5, r5, #32
 3122 00b0 5545     		cmp	r5, r10
 3123 00b2 40F2FB81 		bls	.L896
 3124              	.L900:
 3125 00b6 0023     		movs	r3, #0
 3126 00b8 E361     		str	r3, [r4, #28]
 3127              	.L1073:
 3128 00ba 0727     		movs	r7, #7
 3129              	.L973:
 3130 00bc 3846     		mov	r0, r7
 3131 00be 11B0     		add	sp, sp, #68
 3132              		@ sp needed
 3133 00c0 BDE8F08F 		pop	{r4, r5, r6, r7, r8, r9, r10, fp, pc}
 3134              	.L1075:
 3135 00c4 9DF83E10 		ldrb	r1, [sp, #62]	@ zero_extendqisi2
 3136 00c8 0191     		str	r1, [sp, #4]
 3137 00ca BDF83C10 		ldrh	r1, [sp, #60]
 3138 00ce 0291     		str	r1, [sp, #8]
 3139 00d0 9DF83510 		ldrb	r1, [sp, #53]	@ zero_extendqisi2
 3140 00d4 0391     		str	r1, [sp, #12]
 3141 00d6 9DF83610 		ldrb	r1, [sp, #54]	@ zero_extendqisi2
 3142 00da 0591     		str	r1, [sp, #20]
 3143 00dc 9DF83710 		ldrb	r1, [sp, #55]	@ zero_extendqisi2
 3144 00e0 0491     		str	r1, [sp, #16]
 3145 00e2 9DF83810 		ldrb	r1, [sp, #56]	@ zero_extendqisi2
 3146 00e6 0691     		str	r1, [sp, #24]
 3147 00e8 9DF83A10 		ldrb	r1, [sp, #58]	@ zero_extendqisi2
 3148 00ec 9DF834B0 		ldrb	fp, [sp, #52]	@ zero_extendqisi2
 3149 00f0 0791     		str	r1, [sp, #28]
 3150 00f2 9DF83B10 		ldrb	r1, [sp, #59]	@ zero_extendqisi2
 3151 00f6 9DF83970 		ldrb	r7, [sp, #57]	@ zero_extendqisi2
 3152 00fa AB4D     		ldr	r5, .L1087+4
 3153 00fc 0996     		str	r6, [sp, #36]
 3154 00fe 4FF0010A 		mov	r10, #1
 3155 0102 4022     		movs	r2, #64
 3156 0104 6FF02208 		mvn	r8, #34
 3157 0108 5E46     		mov	r6, fp
 3158 010a 84F82F20 		strb	r2, [r4, #47]
 3159 010e D346     		mov	fp, r10
 3160 0110 A8EB0408 		sub	r8, r8, r4
 3161 0114 8A46     		mov	r10, r1
 3162              	.L886:
 3163 0116 0020     		movs	r0, #0
 3164 0118 0699     		ldr	r1, [sp, #24]
 3165 011a 0246     		mov	r2, r0
 3166 011c 61F30702 		bfi	r2, r1, #0, #8
ARM GAS  D:\Programs\cygwin64\tmp\ccQ42GcX.s 			page 56


 3167 0120 0399     		ldr	r1, [sp, #12]
 3168 0122 66F30700 		bfi	r0, r6, #0, #8
 3169 0126 61F30F20 		bfi	r0, r1, #8, #8
 3170 012a 0599     		ldr	r1, [sp, #20]
 3171 012c 61F31740 		bfi	r0, r1, #16, #8
 3172 0130 0799     		ldr	r1, [sp, #28]
 3173 0132 67F30F22 		bfi	r2, r7, #8, #8
 3174 0136 61F31742 		bfi	r2, r1, #16, #8
 3175 013a 0499     		ldr	r1, [sp, #16]
 3176 013c 61F31F60 		bfi	r0, r1, #24, #8
 3177 0140 0299     		ldr	r1, [sp, #8]
 3178 0142 A185     		strh	r1, [r4, #44]	@ movhi
 3179 0144 6AF31F62 		bfi	r2, r10, #24, #8
 3180 0148 0199     		ldr	r1, [sp, #4]
 3181 014a 84F82E10 		strb	r1, [r4, #46]
 3182 014e BBF1050F 		cmp	fp, #5
 3183 0152 C4E90902 		strd	r0, r2, [r4, #36]
 3184 0156 40F2A781 		bls	.L950
 3185 015a 1888     		ldrh	r0, [r3]
 3186 015c 5A46     		mov	r2, fp
 3187 015e 0028     		cmp	r0, #0
 3188 0160 00F09F80 		beq	.L836
 3189              	.L854:
 3190 0164 00F00101 		and	r1, r0, #1
 3191 0168 01EB4201 		add	r1, r1, r2, lsl #1
 3192 016c 11F4803F 		tst	r1, #65536
 3193 0170 4FEA5002 		lsr	r2, r0, #1
 3194 0174 18BF     		it	ne
 3195 0176 6940     		eorne	r1, r1, r5
 3196 0178 02F00102 		and	r2, r2, #1
 3197 017c 02EB4101 		add	r1, r2, r1, lsl #1
 3198 0180 11F4803F 		tst	r1, #65536
 3199 0184 4FEA9002 		lsr	r2, r0, #2
 3200 0188 18BF     		it	ne
 3201 018a 6940     		eorne	r1, r1, r5
 3202 018c 02F00102 		and	r2, r2, #1
 3203 0190 02EB4102 		add	r2, r2, r1, lsl #1
 3204 0194 12F4803F 		tst	r2, #65536
 3205 0198 4FEAD001 		lsr	r1, r0, #3
 3206 019c 18BF     		it	ne
 3207 019e 6A40     		eorne	r2, r2, r5
 3208 01a0 01F00101 		and	r1, r1, #1
 3209 01a4 01EB4202 		add	r2, r1, r2, lsl #1
 3210 01a8 12F4803F 		tst	r2, #65536
 3211 01ac 4FEA1011 		lsr	r1, r0, #4
 3212 01b0 18BF     		it	ne
 3213 01b2 6A40     		eorne	r2, r2, r5
 3214 01b4 01F00101 		and	r1, r1, #1
 3215 01b8 01EB4201 		add	r1, r1, r2, lsl #1
 3216 01bc 11F4803F 		tst	r1, #65536
 3217 01c0 4FEA5012 		lsr	r2, r0, #5
 3218 01c4 18BF     		it	ne
 3219 01c6 6940     		eorne	r1, r1, r5
 3220 01c8 02F00102 		and	r2, r2, #1
 3221 01cc 02EB4101 		add	r1, r2, r1, lsl #1
 3222 01d0 11F4803F 		tst	r1, #65536
 3223 01d4 4FEA9012 		lsr	r2, r0, #6
ARM GAS  D:\Programs\cygwin64\tmp\ccQ42GcX.s 			page 57


 3224 01d8 18BF     		it	ne
 3225 01da 6940     		eorne	r1, r1, r5
 3226 01dc 02F00102 		and	r2, r2, #1
 3227 01e0 02EB4102 		add	r2, r2, r1, lsl #1
 3228 01e4 12F4803F 		tst	r2, #65536
 3229 01e8 4FEAD011 		lsr	r1, r0, #7
 3230 01ec 18BF     		it	ne
 3231 01ee 6A40     		eorne	r2, r2, r5
 3232 01f0 01F00101 		and	r1, r1, #1
 3233 01f4 01EB4202 		add	r2, r1, r2, lsl #1
 3234 01f8 12F4803F 		tst	r2, #65536
 3235 01fc 4FEA1021 		lsr	r1, r0, #8
 3236 0200 18BF     		it	ne
 3237 0202 6A40     		eorne	r2, r2, r5
 3238 0204 01F00101 		and	r1, r1, #1
 3239 0208 01EB4201 		add	r1, r1, r2, lsl #1
 3240 020c 11F4803F 		tst	r1, #65536
 3241 0210 4FEA5022 		lsr	r2, r0, #9
 3242 0214 18BF     		it	ne
 3243 0216 6940     		eorne	r1, r1, r5
 3244 0218 02F00102 		and	r2, r2, #1
 3245 021c 02EB4101 		add	r1, r2, r1, lsl #1
 3246 0220 11F4803F 		tst	r1, #65536
 3247 0224 4FEA9022 		lsr	r2, r0, #10
 3248 0228 18BF     		it	ne
 3249 022a 6940     		eorne	r1, r1, r5
 3250 022c 02F00102 		and	r2, r2, #1
 3251 0230 02EB4102 		add	r2, r2, r1, lsl #1
 3252 0234 12F4803F 		tst	r2, #65536
 3253 0238 4FEAD021 		lsr	r1, r0, #11
 3254 023c 18BF     		it	ne
 3255 023e 6A40     		eorne	r2, r2, r5
 3256 0240 01F00101 		and	r1, r1, #1
 3257 0244 01EB4202 		add	r2, r1, r2, lsl #1
 3258 0248 12F4803F 		tst	r2, #65536
 3259 024c 4FEA1031 		lsr	r1, r0, #12
 3260 0250 18BF     		it	ne
 3261 0252 6A40     		eorne	r2, r2, r5
 3262 0254 01F00101 		and	r1, r1, #1
 3263 0258 01EB4201 		add	r1, r1, r2, lsl #1
 3264 025c 11F4803F 		tst	r1, #65536
 3265 0260 4FEA5032 		lsr	r2, r0, #13
 3266 0264 18BF     		it	ne
 3267 0266 6940     		eorne	r1, r1, r5
 3268 0268 02F00102 		and	r2, r2, #1
 3269 026c 02EB4101 		add	r1, r2, r1, lsl #1
 3270 0270 11F4803F 		tst	r1, #65536
 3271 0274 4FEA9032 		lsr	r2, r0, #14
 3272 0278 18BF     		it	ne
 3273 027a 6940     		eorne	r1, r1, r5
 3274 027c 02F00102 		and	r2, r2, #1
 3275 0280 02EB4102 		add	r2, r2, r1, lsl #1
 3276 0284 D103     		lsls	r1, r2, #15
 3277 0286 4FEAD030 		lsr	r0, r0, #15
 3278 028a 48BF     		it	mi
 3279 028c 6A40     		eormi	r2, r2, r5
 3280 028e 00EB4202 		add	r2, r0, r2, lsl #1
ARM GAS  D:\Programs\cygwin64\tmp\ccQ42GcX.s 			page 58


 3281 0292 D003     		lsls	r0, r2, #15
 3282 0294 33F8020F 		ldrh	r0, [r3, #2]!
 3283 0298 48BF     		it	mi
 3284 029a 6A40     		eormi	r2, r2, r5
 3285 029c 0028     		cmp	r0, #0
 3286 029e 7FF461AF 		bne	.L854
 3287              	.L836:
 3288 02a2 02F00F00 		and	r0, r2, #15
 3289 02a6 00F13003 		add	r3, r0, #48
 3290 02aa 392B     		cmp	r3, #57
 3291 02ac 88BF     		it	hi
 3292 02ae 00F13703 		addhi	r3, r0, #55
 3293 02b2 0F2A     		cmp	r2, #15
 3294 02b4 8DF83330 		strb	r3, [sp, #51]
 3295 02b8 4FEA1210 		lsr	r0, r2, #4
 3296 02bc 40F29C81 		bls	.L856
 3297 02c0 00F00F0C 		and	ip, r0, #15
 3298 02c4 0CF13003 		add	r3, ip, #48
 3299 02c8 392B     		cmp	r3, #57
 3300 02ca 88BF     		it	hi
 3301 02cc 0CF13703 		addhi	r3, ip, #55
 3302 02d0 0F28     		cmp	r0, #15
 3303 02d2 8DF83230 		strb	r3, [sp, #50]
 3304 02d6 4FEA122C 		lsr	ip, r2, #8
 3305 02da 40F29E81 		bls	.L858
 3306 02de 0CF00F00 		and	r0, ip, #15
 3307 02e2 00F13003 		add	r3, r0, #48
 3308 02e6 392B     		cmp	r3, #57
 3309 02e8 88BF     		it	hi
 3310 02ea 00F13703 		addhi	r3, r0, #55
 3311 02ee BCF10F0F 		cmp	ip, #15
 3312 02f2 8DF83130 		strb	r3, [sp, #49]
 3313 02f6 4FEA1230 		lsr	r0, r2, #12
 3314 02fa 40F2CB81 		bls	.L860
 3315 02fe 00F00F0C 		and	ip, r0, #15
 3316 0302 0CF13003 		add	r3, ip, #48
 3317 0306 392B     		cmp	r3, #57
 3318 0308 88BF     		it	hi
 3319 030a 0CF13703 		addhi	r3, ip, #55
 3320 030e 0F28     		cmp	r0, #15
 3321 0310 8DF83030 		strb	r3, [sp, #48]
 3322 0314 4FEA124C 		lsr	ip, r2, #16
 3323 0318 40F2CA81 		bls	.L862
 3324 031c 0CF00F00 		and	r0, ip, #15
 3325 0320 00F13003 		add	r3, r0, #48
 3326 0324 392B     		cmp	r3, #57
 3327 0326 88BF     		it	hi
 3328 0328 00F13703 		addhi	r3, r0, #55
 3329 032c BCF10F0F 		cmp	ip, #15
 3330 0330 8DF82F30 		strb	r3, [sp, #47]
 3331 0334 4FEA1250 		lsr	r0, r2, #20
 3332 0338 40F2C381 		bls	.L864
 3333 033c 00F00F0C 		and	ip, r0, #15
 3334 0340 0CF13003 		add	r3, ip, #48
 3335 0344 392B     		cmp	r3, #57
 3336 0346 88BF     		it	hi
 3337 0348 0CF13703 		addhi	r3, ip, #55
ARM GAS  D:\Programs\cygwin64\tmp\ccQ42GcX.s 			page 59


 3338 034c 0F28     		cmp	r0, #15
 3339 034e 8DF82E30 		strb	r3, [sp, #46]
 3340 0352 4FEA126C 		lsr	ip, r2, #24
 3341 0356 40F2BD81 		bls	.L866
 3342 035a 0CF00F00 		and	r0, ip, #15
 3343 035e 00F13003 		add	r3, r0, #48
 3344 0362 392B     		cmp	r3, #57
 3345 0364 88BF     		it	hi
 3346 0366 00F13703 		addhi	r3, r0, #55
 3347 036a BCF10F0F 		cmp	ip, #15
 3348 036e 8DF82D30 		strb	r3, [sp, #45]
 3349 0372 4FEA1272 		lsr	r2, r2, #28
 3350 0376 40F29681 		bls	.L868
 3351 037a D2B2     		uxtb	r2, r2
 3352 037c 02F13003 		add	r3, r2, #48
 3353 0380 392B     		cmp	r3, #57
 3354 0382 88BF     		it	hi
 3355 0384 02F13703 		addhi	r3, r2, #55
 3356 0388 202E     		cmp	r6, #32
 3357 038a 8DF82C30 		strb	r3, [sp, #44]
 3358 038e 18BF     		it	ne
 3359 0390 4FF0FF33 		movne	r3, #-1
 3360 0394 00F0B981 		beq	.L1077
 3361              	.L870:
 3362 0398 04F12300 		add	r0, r4, #35
 3363 039c 1844     		add	r0, r0, r3
 3364 039e 4A46     		mov	r2, r9
 3365 03a0 0AE0     		b	.L874
 3366              	.L1088:
 3367 03a2 00BF     		.align	2
 3368              	.L1087:
 3369 03a4 4FECC44E 		.word	1321528399
 3370 03a8 21100100 		.word	69665
 3371 03ac FFFF1F00 		.word	2097151
 3372              	.L1078:
 3373 03b0 12F8011F 		ldrb	r1, [r2, #1]!	@ zero_extendqisi2
 3374 03b4 2029     		cmp	r1, #32
 3375 03b6 03D0     		beq	.L873
 3376              	.L874:
 3377 03b8 9042     		cmp	r0, r2
 3378 03ba 08EB020C 		add	ip, r8, r2
 3379 03be F7D1     		bne	.L1078
 3380              	.L873:
 3381 03c0 072B     		cmp	r3, #7
 3382 03c2 40F28E80 		bls	.L1079
 3383 03c6 0CF10102 		add	r2, ip, #1
 3384 03ca 2020     		movs	r0, #32
 3385 03cc 072A     		cmp	r2, #7
 3386 03ce 09F80C00 		strb	r0, [r9, ip]
 3387 03d2 5AD8     		bhi	.L876
 3388              	.L959:
 3389 03d4 4FF0200C 		mov	ip, #32
 3390              	.L877:
 3391 03d8 501C     		adds	r0, r2, #1
 3392 03da 0828     		cmp	r0, #8
 3393 03dc 09F802C0 		strb	ip, [r9, r2]
 3394 03e0 53D0     		beq	.L876
ARM GAS  D:\Programs\cygwin64\tmp\ccQ42GcX.s 			page 60


 3395 03e2 072B     		cmp	r3, #7
 3396 03e4 7AD8     		bhi	.L960
 3397 03e6 10A9     		add	r1, sp, #64
 3398 03e8 01EB030C 		add	ip, r1, r3
 3399 03ec 0133     		adds	r3, r3, #1
 3400 03ee 1CF814EC 		ldrb	lr, [ip, #-20]	@ zero_extendqisi2
 3401              	.L878:
 3402 03f2 09F800E0 		strb	lr, [r9, r0]
 3403 03f6 02F1020C 		add	ip, r2, #2
 3404 03fa BCF1080F 		cmp	ip, #8
 3405 03fe 44D0     		beq	.L876
 3406 0400 072B     		cmp	r3, #7
 3407 0402 00F2C180 		bhi	.L961
 3408 0406 10A9     		add	r1, sp, #64
 3409 0408 C818     		adds	r0, r1, r3
 3410 040a 0133     		adds	r3, r3, #1
 3411 040c 10F814EC 		ldrb	lr, [r0, #-20]	@ zero_extendqisi2
 3412              	.L879:
 3413 0410 09F80CE0 		strb	lr, [r9, ip]
 3414 0414 D01C     		adds	r0, r2, #3
 3415 0416 0828     		cmp	r0, #8
 3416 0418 37D0     		beq	.L876
 3417 041a 072B     		cmp	r3, #7
 3418 041c 00F2B780 		bhi	.L962
 3419 0420 10A9     		add	r1, sp, #64
 3420 0422 01EB030C 		add	ip, r1, r3
 3421 0426 0133     		adds	r3, r3, #1
 3422 0428 1CF814EC 		ldrb	lr, [ip, #-20]	@ zero_extendqisi2
 3423              	.L880:
 3424 042c 09F800E0 		strb	lr, [r9, r0]
 3425 0430 02F1040C 		add	ip, r2, #4
 3426 0434 BCF1080F 		cmp	ip, #8
 3427 0438 27D0     		beq	.L876
 3428 043a 072B     		cmp	r3, #7
 3429 043c 00F2AA80 		bhi	.L963
 3430 0440 10A9     		add	r1, sp, #64
 3431 0442 C818     		adds	r0, r1, r3
 3432 0444 0133     		adds	r3, r3, #1
 3433 0446 10F814EC 		ldrb	lr, [r0, #-20]	@ zero_extendqisi2
 3434              	.L881:
 3435 044a 09F80CE0 		strb	lr, [r9, ip]
 3436 044e 501D     		adds	r0, r2, #5
 3437 0450 0828     		cmp	r0, #8
 3438 0452 1AD0     		beq	.L876
 3439 0454 072B     		cmp	r3, #7
 3440 0456 00F2A080 		bhi	.L964
 3441 045a 10A9     		add	r1, sp, #64
 3442 045c 01EB030C 		add	ip, r1, r3
 3443 0460 0133     		adds	r3, r3, #1
 3444 0462 1CF814EC 		ldrb	lr, [ip, #-20]	@ zero_extendqisi2
 3445              	.L882:
 3446 0466 09F800E0 		strb	lr, [r9, r0]
 3447 046a 02F1060C 		add	ip, r2, #6
 3448 046e BCF1080F 		cmp	ip, #8
 3449 0472 0AD0     		beq	.L876
 3450 0474 072B     		cmp	r3, #7
 3451 0476 40F09380 		bne	.L883
ARM GAS  D:\Programs\cygwin64\tmp\ccQ42GcX.s 			page 61


 3452 047a 9DF83330 		ldrb	r3, [sp, #51]	@ zero_extendqisi2
 3453 047e 09F80C30 		strb	r3, [r9, ip]
 3454 0482 12B9     		cbnz	r2, .L876
 3455              	.L944:
 3456 0484 2023     		movs	r3, #32
 3457 0486 84F82B30 		strb	r3, [r4, #43]
 3458              	.L876:
 3459 048a 2046     		mov	r0, r4
 3460 048c FFF7FEFF 		bl	dir_find
 3461 0490 0028     		cmp	r0, #0
 3462 0492 40F09180 		bne	.L884
 3463              	.L1082:
 3464 0496 0BF1010B 		add	fp, fp, #1
 3465 049a BBF1640F 		cmp	fp, #100
 3466 049e 3FF40CAE 		beq	.L1073
 3467 04a2 009B     		ldr	r3, [sp]
 3468 04a4 DB68     		ldr	r3, [r3, #12]
 3469 04a6 36E6     		b	.L886
 3470              	.L950:
 3471 04a8 5A46     		mov	r2, fp
 3472 04aa FAE6     		b	.L836
 3473              	.L896:
 3474 04ac E169     		ldr	r1, [r4, #28]
 3475 04ae 0029     		cmp	r1, #0
 3476 04b0 3FF403AE 		beq	.L1073
 3477 04b4 C5F30807 		ubfx	r7, r5, #0, #9
 3478 04b8 2668     		ldr	r6, [r4]
 3479 04ba 57B9     		cbnz	r7, .L898
 3480 04bc A269     		ldr	r2, [r4, #24]
 3481 04be 0131     		adds	r1, r1, #1
 3482 04c0 E161     		str	r1, [r4, #28]
 3483 04c2 002A     		cmp	r2, #0
 3484 04c4 40F0B280 		bne	.L899
 3485 04c8 3289     		ldrh	r2, [r6, #8]
 3486 04ca B2EB551F 		cmp	r2, r5, lsr #5
 3487 04ce 7FF6F2AD 		bls	.L900
 3488              	.L898:
 3489 04d2 3836     		adds	r6, r6, #56
 3490 04d4 3744     		add	r7, r7, r6
 3491 04d6 2762     		str	r7, [r4, #32]
 3492 04d8 6561     		str	r5, [r4, #20]
 3493 04da D3E5     		b	.L907
 3494              	.L960:
 3495 04dc 4FF0200E 		mov	lr, #32
 3496 04e0 87E7     		b	.L878
 3497              	.L1079:
 3498 04e2 10AA     		add	r2, sp, #64
 3499 04e4 D018     		adds	r0, r2, r3
 3500 04e6 0CF10102 		add	r2, ip, #1
 3501 04ea 10F8140C 		ldrb	r0, [r0, #-20]	@ zero_extendqisi2
 3502 04ee 09F80C00 		strb	r0, [r9, ip]
 3503 04f2 072A     		cmp	r2, #7
 3504 04f4 03F10103 		add	r3, r3, #1
 3505 04f8 C7D8     		bhi	.L876
 3506              	.L946:
 3507 04fa 082B     		cmp	r3, #8
 3508 04fc 3FF46AAF 		beq	.L959
ARM GAS  D:\Programs\cygwin64\tmp\ccQ42GcX.s 			page 62


 3509 0500 10A9     		add	r1, sp, #64
 3510 0502 C818     		adds	r0, r1, r3
 3511 0504 0133     		adds	r3, r3, #1
 3512 0506 10F814CC 		ldrb	ip, [r0, #-20]	@ zero_extendqisi2
 3513 050a 65E7     		b	.L877
 3514              	.L890:
 3515 050c 08F10108 		add	r8, r8, #1
 3516 0510 C345     		cmp	fp, r8
 3517 0512 7FF4CBAD 		bne	.L893
 3518 0516 019B     		ldr	r3, [sp, #4]
 3519 0518 DDE90279 		ldrd	r7, r9, [sp, #8]
 3520 051c 002B     		cmp	r3, #0
 3521 051e 40F0E780 		bne	.L1080
 3522              	.L895:
 3523 0522 009B     		ldr	r3, [sp]
 3524 0524 E169     		ldr	r1, [r4, #28]
 3525 0526 5B6B     		ldr	r3, [r3, #52]
 3526 0528 9942     		cmp	r1, r3
 3527 052a 05D0     		beq	.L909
 3528 052c 0098     		ldr	r0, [sp]
 3529 052e FFF7FEFF 		bl	move_window.part.9
 3530 0532 0028     		cmp	r0, #0
 3531 0534 40F0E480 		bne	.L972
 3532              	.L909:
 3533 0538 2022     		movs	r2, #32
 3534 053a 0021     		movs	r1, #0
 3535 053c 206A     		ldr	r0, [r4, #32]
 3536 053e FFF7FEFF 		bl	memset
 3537 0542 236A     		ldr	r3, [r4, #32]
 3538 0544 1A1D     		adds	r2, r3, #4
 3539 0546 9145     		cmp	r9, r2
 3540 0548 04D2     		bcs	.L940
 3541 054a 04F12802 		add	r2, r4, #40
 3542 054e 9342     		cmp	r3, r2
 3543 0550 C0F05182 		bcc	.L1081
 3544              	.L940:
 3545 0554 626A     		ldr	r2, [r4, #36]
 3546 0556 1A60     		str	r2, [r3]	@ unaligned
 3547 0558 A26A     		ldr	r2, [r4, #40]
 3548 055a 5A60     		str	r2, [r3, #4]	@ unaligned
 3549              	.L1072:
 3550 055c 94F82C20 		ldrb	r2, [r4, #44]	@ zero_extendqisi2
 3551 0560 1A72     		strb	r2, [r3, #8]
 3552 0562 94F82D20 		ldrb	r2, [r4, #45]	@ zero_extendqisi2
 3553 0566 5A72     		strb	r2, [r3, #9]
 3554 0568 94F82E20 		ldrb	r2, [r4, #46]	@ zero_extendqisi2
 3555 056c 9A72     		strb	r2, [r3, #10]
 3556 056e 94F82F30 		ldrb	r3, [r4, #47]	@ zero_extendqisi2
 3557 0572 216A     		ldr	r1, [r4, #32]
 3558 0574 03F01803 		and	r3, r3, #24
 3559 0578 0B73     		strb	r3, [r1, #12]
 3560 057a 009B     		ldr	r3, [sp]
 3561 057c 0122     		movs	r2, #1
 3562 057e 3846     		mov	r0, r7
 3563 0580 DA70     		strb	r2, [r3, #3]
 3564 0582 11B0     		add	sp, sp, #68
 3565              		@ sp needed
ARM GAS  D:\Programs\cygwin64\tmp\ccQ42GcX.s 			page 63


 3566 0584 BDE8F08F 		pop	{r4, r5, r6, r7, r8, r9, r10, fp, pc}
 3567              	.L961:
 3568 0588 4FF0200E 		mov	lr, #32
 3569 058c 40E7     		b	.L879
 3570              	.L962:
 3571 058e 4FF0200E 		mov	lr, #32
 3572 0592 4BE7     		b	.L880
 3573              	.L963:
 3574 0594 4FF0200E 		mov	lr, #32
 3575 0598 57E7     		b	.L881
 3576              	.L964:
 3577 059a 4FF0200E 		mov	lr, #32
 3578 059e 62E7     		b	.L882
 3579              	.L883:
 3580 05a0 2023     		movs	r3, #32
 3581 05a2 09F80C30 		strb	r3, [r9, ip]
 3582 05a6 002A     		cmp	r2, #0
 3583 05a8 3FF46CAF 		beq	.L944
 3584 05ac 2046     		mov	r0, r4
 3585 05ae FFF7FEFF 		bl	dir_find
 3586 05b2 0028     		cmp	r0, #0
 3587 05b4 3FF46FAF 		beq	.L1082
 3588              	.L884:
 3589 05b8 0428     		cmp	r0, #4
 3590 05ba 099E     		ldr	r6, [sp, #36]
 3591 05bc 0746     		mov	r7, r0
 3592 05be 7FF47DAD 		bne	.L973
 3593 05c2 089B     		ldr	r3, [sp, #32]
 3594 05c4 84F82F30 		strb	r3, [r4, #47]
 3595 05c8 13F00202 		ands	r2, r3, #2
 3596 05cc D4F800B0 		ldr	fp, [r4]
 3597 05d0 7FF440AD 		bne	.L1083
 3598              	.L965:
 3599 05d4 0123     		movs	r3, #1
 3600 05d6 0021     		movs	r1, #0
 3601 05d8 2046     		mov	r0, r4
 3602 05da 0192     		str	r2, [sp, #4]
 3603 05dc 1D46     		mov	r5, r3
 3604 05de FFF7FEFF 		bl	dir_sdi
 3605 05e2 0746     		mov	r7, r0
 3606 05e4 0028     		cmp	r0, #0
 3607 05e6 3FF445AD 		beq	.L1084
 3608              	.L888:
 3609 05ea 042F     		cmp	r7, #4
 3610 05ec 3FF465AD 		beq	.L1073
 3611 05f0 3846     		mov	r0, r7
 3612 05f2 11B0     		add	sp, sp, #68
 3613              		@ sp needed
 3614 05f4 BDE8F08F 		pop	{r4, r5, r6, r7, r8, r9, r10, fp, pc}
 3615              	.L856:
 3616 05f8 7E23     		movs	r3, #126
 3617 05fa 202E     		cmp	r6, #32
 3618 05fc 8DF83230 		strb	r3, [sp, #50]
 3619 0600 4FF00603 		mov	r3, #6
 3620 0604 7FF4C8AE 		bne	.L870
 3621              	.L872:
 3622 0608 10AA     		add	r2, sp, #64
ARM GAS  D:\Programs\cygwin64\tmp\ccQ42GcX.s 			page 64


 3623 060a 1A44     		add	r2, r2, r3
 3624 060c 0133     		adds	r3, r3, #1
 3625 060e 12F8142C 		ldrb	r2, [r2, #-20]	@ zero_extendqisi2
 3626 0612 84F82420 		strb	r2, [r4, #36]
 3627 0616 0122     		movs	r2, #1
 3628 0618 6FE7     		b	.L946
 3629              	.L858:
 3630 061a 7E23     		movs	r3, #126
 3631 061c 202E     		cmp	r6, #32
 3632 061e 8DF83130 		strb	r3, [sp, #49]
 3633 0622 4FF00503 		mov	r3, #5
 3634 0626 7FF4B7AE 		bne	.L870
 3635 062a EDE7     		b	.L872
 3636              	.L899:
 3637 062c 7089     		ldrh	r0, [r6, #10]
 3638 062e 0138     		subs	r0, r0, #1
 3639 0630 10EA5523 		ands	r3, r0, r5, lsr #9
 3640 0634 7FF44DAF 		bne	.L898
 3641 0638 1146     		mov	r1, r2
 3642 063a 3046     		mov	r0, r6
 3643 063c FFF7FEFF 		bl	get_fat.isra.12
 3644 0640 0128     		cmp	r0, #1
 3645 0642 0246     		mov	r2, r0
 3646 0644 40F2D481 		bls	.L901
 3647 0648 411C     		adds	r1, r0, #1
 3648 064a 68D0     		beq	.L905
 3649 064c F169     		ldr	r1, [r6, #28]
 3650 064e 8842     		cmp	r0, r1
 3651 0650 14D3     		bcc	.L904
 3652 0652 A169     		ldr	r1, [r4, #24]
 3653 0654 2046     		mov	r0, r4
 3654 0656 FFF7FEFF 		bl	create_chain
 3655 065a 0028     		cmp	r0, #0
 3656 065c 3FF42DAD 		beq	.L1073
 3657 0660 0128     		cmp	r0, #1
 3658 0662 00F0C581 		beq	.L901
 3659 0666 431C     		adds	r3, r0, #1
 3660 0668 59D0     		beq	.L905
 3661 066a 0146     		mov	r1, r0
 3662 066c 0490     		str	r0, [sp, #16]
 3663 066e 3046     		mov	r0, r6
 3664 0670 FFF7FEFF 		bl	dir_clear
 3665 0674 0028     		cmp	r0, #0
 3666 0676 52D1     		bne	.L905
 3667 0678 F169     		ldr	r1, [r6, #28]
 3668 067a 049A     		ldr	r2, [sp, #16]
 3669              	.L904:
 3670 067c A261     		str	r2, [r4, #24]
 3671 067e 0239     		subs	r1, r1, #2
 3672 0680 023A     		subs	r2, r2, #2
 3673 0682 8A42     		cmp	r2, r1
 3674 0684 3BBF     		ittet	cc
 3675 0686 7089     		ldrhcc	r0, [r6, #10]
 3676 0688 316B     		ldrcc	r1, [r6, #48]
 3677 068a 0021     		movcs	r1, #0
 3678 068c 02FB0011 		mlacc	r1, r2, r0, r1
 3679 0690 E161     		str	r1, [r4, #28]
ARM GAS  D:\Programs\cygwin64\tmp\ccQ42GcX.s 			page 65


 3680 0692 1EE7     		b	.L898
 3681              	.L860:
 3682 0694 7E23     		movs	r3, #126
 3683 0696 202E     		cmp	r6, #32
 3684 0698 8DF83030 		strb	r3, [sp, #48]
 3685 069c 4FF00403 		mov	r3, #4
 3686 06a0 7FF47AAE 		bne	.L870
 3687 06a4 B0E7     		b	.L872
 3688              	.L868:
 3689 06a6 7E23     		movs	r3, #126
 3690 06a8 8DF82C30 		strb	r3, [sp, #44]
 3691 06ac 0023     		movs	r3, #0
 3692 06ae ABE7     		b	.L872
 3693              	.L862:
 3694 06b0 7E23     		movs	r3, #126
 3695 06b2 202E     		cmp	r6, #32
 3696 06b4 8DF82F30 		strb	r3, [sp, #47]
 3697 06b8 4FF00303 		mov	r3, #3
 3698 06bc 7FF46CAE 		bne	.L870
 3699 06c0 A2E7     		b	.L872
 3700              	.L864:
 3701 06c2 7E23     		movs	r3, #126
 3702 06c4 202E     		cmp	r6, #32
 3703 06c6 8DF82E30 		strb	r3, [sp, #46]
 3704 06ca 4FF00203 		mov	r3, #2
 3705 06ce 7FF463AE 		bne	.L870
 3706 06d2 99E7     		b	.L872
 3707              	.L866:
 3708 06d4 7E23     		movs	r3, #126
 3709 06d6 202E     		cmp	r6, #32
 3710 06d8 8DF82D30 		strb	r3, [sp, #45]
 3711 06dc 4FF00103 		mov	r3, #1
 3712 06e0 7FF45AAE 		bne	.L870
 3713 06e4 90E7     		b	.L872
 3714              	.L947:
 3715 06e6 0627     		movs	r7, #6
 3716 06e8 3846     		mov	r0, r7
 3717 06ea 11B0     		add	sp, sp, #68
 3718              		@ sp needed
 3719 06ec BDE8F08F 		pop	{r4, r5, r6, r7, r8, r9, r10, fp, pc}
 3720              	.L1080:
 3721 06f0 6169     		ldr	r1, [r4, #20]
 3722 06f2 2046     		mov	r0, r4
 3723 06f4 A1EB4311 		sub	r1, r1, r3, lsl #5
 3724 06f8 1E46     		mov	r6, r3
 3725 06fa FFF7FEFF 		bl	dir_sdi
 3726 06fe 80B1     		cbz	r0, .L1085
 3727              	.L972:
 3728 0700 0746     		mov	r7, r0
 3729 0702 3846     		mov	r0, r7
 3730 0704 11B0     		add	sp, sp, #68
 3731              		@ sp needed
 3732 0706 BDE8F08F 		pop	{r4, r5, r6, r7, r8, r9, r10, fp, pc}
 3733              	.L1077:
 3734 070a 84F82460 		strb	r6, [r4, #36]
 3735 070e 4FF0FF33 		mov	r3, #-1
 3736 0712 0122     		movs	r2, #1
ARM GAS  D:\Programs\cygwin64\tmp\ccQ42GcX.s 			page 66


 3737 0714 5EE6     		b	.L959
 3738              	.L948:
 3739 0716 1646     		mov	r6, r2
 3740 0718 88E4     		b	.L833
 3741              	.L1076:
 3742 071a 0746     		mov	r7, r0
 3743 071c 65E7     		b	.L888
 3744              	.L905:
 3745 071e 0127     		movs	r7, #1
 3746 0720 CCE4     		b	.L973
 3747              	.L1085:
 3748 0722 94F82420 		ldrb	r2, [r4, #36]	@ zero_extendqisi2
 3749 0726 94F82550 		ldrb	r5, [r4, #37]	@ zero_extendqisi2
 3750 072a 94F82610 		ldrb	r1, [r4, #38]	@ zero_extendqisi2
 3751 072e 0197     		str	r7, [sp, #4]
 3752 0730 D301     		lsls	r3, r2, #7
 3753 0732 43EA5203 		orr	r3, r3, r2, lsr #1
 3754 0736 5A19     		adds	r2, r3, r5
 3755 0738 C2F34603 		ubfx	r3, r2, #1, #7
 3756 073c 43EAC213 		orr	r3, r3, r2, lsl #7
 3757 0740 51FA83F2 		uxtab	r2, r1, r3
 3758 0744 C2F34603 		ubfx	r3, r2, #1, #7
 3759 0748 94F82750 		ldrb	r5, [r4, #39]	@ zero_extendqisi2
 3760 074c 94F82810 		ldrb	r1, [r4, #40]	@ zero_extendqisi2
 3761 0750 009F     		ldr	r7, [sp]
 3762 0752 CDF80890 		str	r9, [sp, #8]
 3763 0756 43EAC213 		orr	r3, r3, r2, lsl #7
 3764 075a 55FA83F2 		uxtab	r2, r5, r3
 3765 075e C2F34603 		ubfx	r3, r2, #1, #7
 3766 0762 43EAC213 		orr	r3, r3, r2, lsl #7
 3767 0766 51FA83F2 		uxtab	r2, r1, r3
 3768 076a C2F34603 		ubfx	r3, r2, #1, #7
 3769 076e 94F82950 		ldrb	r5, [r4, #41]	@ zero_extendqisi2
 3770 0772 94F82A10 		ldrb	r1, [r4, #42]	@ zero_extendqisi2
 3771 0776 43EAC213 		orr	r3, r3, r2, lsl #7
 3772 077a 55FA83F2 		uxtab	r2, r5, r3
 3773 077e C2F34603 		ubfx	r3, r2, #1, #7
 3774 0782 43EAC213 		orr	r3, r3, r2, lsl #7
 3775 0786 51FA83F2 		uxtab	r2, r1, r3
 3776 078a C2F34603 		ubfx	r3, r2, #1, #7
 3777 078e 94F82B50 		ldrb	r5, [r4, #43]	@ zero_extendqisi2
 3778 0792 94F82C10 		ldrb	r1, [r4, #44]	@ zero_extendqisi2
 3779 0796 43EAC213 		orr	r3, r3, r2, lsl #7
 3780 079a 55FA83F2 		uxtab	r2, r5, r3
 3781 079e C2F34603 		ubfx	r3, r2, #1, #7
 3782 07a2 43EAC213 		orr	r3, r3, r2, lsl #7
 3783 07a6 51FA83F2 		uxtab	r2, r1, r3
 3784 07aa 94F82D50 		ldrb	r5, [r4, #45]	@ zero_extendqisi2
 3785 07ae 94F82E10 		ldrb	r1, [r4, #46]	@ zero_extendqisi2
 3786 07b2 C2F34603 		ubfx	r3, r2, #1, #7
 3787 07b6 43EAC213 		orr	r3, r3, r2, lsl #7
 3788 07ba 55FA83F3 		uxtab	r3, r5, r3
 3789 07be C3F3460A 		ubfx	r10, r3, #1, #7
 3790 07c2 4AEAC31A 		orr	r10, r10, r3, lsl #7
 3791 07c6 51FA8AFA 		uxtab	r10, r1, r10
 3792 07ca 8346     		mov	fp, r0
 3793 07cc 5FFA8AFA 		uxtb	r10, r10
ARM GAS  D:\Programs\cygwin64\tmp\ccQ42GcX.s 			page 67


 3794 07d0 FF25     		movs	r5, #255
 3795 07d2 25E0     		b	.L939
 3796              	.L915:
 3797 07d4 DD70     		strb	r5, [r3, #3]
 3798 07d6 1D71     		strb	r5, [r3, #4]
 3799              	.L914:
 3800 07d8 5D71     		strb	r5, [r3, #5]
 3801 07da 9D71     		strb	r5, [r3, #6]
 3802              	.L917:
 3803 07dc DD71     		strb	r5, [r3, #7]
 3804 07de 1D72     		strb	r5, [r3, #8]
 3805              	.L919:
 3806 07e0 5D72     		strb	r5, [r3, #9]
 3807 07e2 9D72     		strb	r5, [r3, #10]
 3808              	.L921:
 3809 07e4 9D73     		strb	r5, [r3, #14]
 3810 07e6 DD73     		strb	r5, [r3, #15]
 3811              	.L923:
 3812 07e8 1D74     		strb	r5, [r3, #16]
 3813 07ea 5D74     		strb	r5, [r3, #17]
 3814              	.L925:
 3815 07ec 9D74     		strb	r5, [r3, #18]
 3816 07ee DD74     		strb	r5, [r3, #19]
 3817              	.L927:
 3818 07f0 1D75     		strb	r5, [r3, #20]
 3819 07f2 5D75     		strb	r5, [r3, #21]
 3820              	.L929:
 3821 07f4 9D75     		strb	r5, [r3, #22]
 3822 07f6 DD75     		strb	r5, [r3, #23]
 3823              	.L931:
 3824 07f8 1D76     		strb	r5, [r3, #24]
 3825 07fa 5D76     		strb	r5, [r3, #25]
 3826              	.L933:
 3827 07fc 1D77     		strb	r5, [r3, #28]
 3828 07fe 5D77     		strb	r5, [r3, #29]
 3829              	.L935:
 3830 0800 9D77     		strb	r5, [r3, #30]
 3831 0802 DD77     		strb	r5, [r3, #31]
 3832              	.L937:
 3833 0804 40F04000 		orr	r0, r0, #64
 3834              	.L938:
 3835 0808 0122     		movs	r2, #1
 3836 080a 1870     		strb	r0, [r3]
 3837 080c 2046     		mov	r0, r4
 3838 080e FA70     		strb	r2, [r7, #3]
 3839 0810 FFF7FEFF 		bl	dir_next.constprop.17
 3840 0814 0028     		cmp	r0, #0
 3841 0816 7FF473AF 		bne	.L972
 3842 081a 013E     		subs	r6, r6, #1
 3843 081c 00F00481 		beq	.L1086
 3844              	.L939:
 3845 0820 E169     		ldr	r1, [r4, #28]
 3846 0822 7B6B     		ldr	r3, [r7, #52]
 3847 0824 9942     		cmp	r1, r3
 3848 0826 05D0     		beq	.L913
 3849 0828 3846     		mov	r0, r7
 3850 082a FFF7FEFF 		bl	move_window.part.9
ARM GAS  D:\Programs\cygwin64\tmp\ccQ42GcX.s 			page 68


 3851 082e 0028     		cmp	r0, #0
 3852 0830 7FF466AF 		bne	.L972
 3853              	.L913:
 3854 0834 F0B2     		uxtb	r0, r6
 3855 0836 421E     		subs	r2, r0, #1
 3856 0838 236A     		ldr	r3, [r4, #32]
 3857 083a F968     		ldr	r1, [r7, #12]
 3858 083c 83F80DA0 		strb	r10, [r3, #13]
 3859 0840 02EB420C 		add	ip, r2, r2, lsl #1
 3860 0844 02EB8C02 		add	r2, r2, ip, lsl #2
 3861 0848 4FF00F0C 		mov	ip, #15
 3862 084c 83F80BC0 		strb	ip, [r3, #11]
 3863 0850 83F80CB0 		strb	fp, [r3, #12]
 3864 0854 83F81AB0 		strb	fp, [r3, #26]
 3865 0858 83F81BB0 		strb	fp, [r3, #27]
 3866 085c 31F812C0 		ldrh	ip, [r1, r2, lsl #1]
 3867 0860 83F801C0 		strb	ip, [r3, #1]
 3868 0864 4FEA1C2E 		lsr	lr, ip, #8
 3869 0868 83F802E0 		strb	lr, [r3, #2]
 3870 086c 4FEA420E 		lsl	lr, r2, #1
 3871 0870 BCF1000F 		cmp	ip, #0
 3872 0874 AED0     		beq	.L915
 3873 0876 4FF6FF78 		movw	r8, #65535
 3874 087a C445     		cmp	ip, r8
 3875 087c AAD0     		beq	.L915
 3876 087e 0132     		adds	r2, r2, #1
 3877 0880 4FEA420C 		lsl	ip, r2, #1
 3878 0884 31F81220 		ldrh	r2, [r1, r2, lsl #1]
 3879 0888 DA70     		strb	r2, [r3, #3]
 3880 088a 4FEA1229 		lsr	r9, r2, #8
 3881 088e 83F80490 		strb	r9, [r3, #4]
 3882 0892 002A     		cmp	r2, #0
 3883 0894 A0D0     		beq	.L914
 3884 0896 4245     		cmp	r2, r8
 3885 0898 9ED0     		beq	.L914
 3886 089a 01EB0C02 		add	r2, r1, ip
 3887 089e B2F802C0 		ldrh	ip, [r2, #2]
 3888 08a2 83F805C0 		strb	ip, [r3, #5]
 3889 08a6 4FEA1C29 		lsr	r9, ip, #8
 3890 08aa 83F80690 		strb	r9, [r3, #6]
 3891 08ae BCF1000F 		cmp	ip, #0
 3892 08b2 93D0     		beq	.L917
 3893 08b4 C445     		cmp	ip, r8
 3894 08b6 91D0     		beq	.L917
 3895 08b8 B2F804C0 		ldrh	ip, [r2, #4]
 3896 08bc 83F807C0 		strb	ip, [r3, #7]
 3897 08c0 4FEA1C29 		lsr	r9, ip, #8
 3898 08c4 83F80890 		strb	r9, [r3, #8]
 3899 08c8 BCF1000F 		cmp	ip, #0
 3900 08cc 88D0     		beq	.L919
 3901 08ce C445     		cmp	ip, r8
 3902 08d0 86D0     		beq	.L919
 3903 08d2 B2F806C0 		ldrh	ip, [r2, #6]
 3904 08d6 83F809C0 		strb	ip, [r3, #9]
 3905 08da 4FEA1C29 		lsr	r9, ip, #8
 3906 08de 83F80A90 		strb	r9, [r3, #10]
 3907 08e2 BCF1000F 		cmp	ip, #0
ARM GAS  D:\Programs\cygwin64\tmp\ccQ42GcX.s 			page 69


 3908 08e6 3FF47DAF 		beq	.L921
 3909 08ea C445     		cmp	ip, r8
 3910 08ec 3FF47AAF 		beq	.L921
 3911 08f0 B2F808C0 		ldrh	ip, [r2, #8]
 3912 08f4 83F80EC0 		strb	ip, [r3, #14]
 3913 08f8 4FEA1C28 		lsr	r8, ip, #8
 3914 08fc 83F80F80 		strb	r8, [r3, #15]
 3915 0900 BCF1000F 		cmp	ip, #0
 3916 0904 3FF470AF 		beq	.L923
 3917 0908 4FF6FF78 		movw	r8, #65535
 3918 090c C445     		cmp	ip, r8
 3919 090e 3FF46BAF 		beq	.L923
 3920 0912 B2F80AC0 		ldrh	ip, [r2, #10]
 3921 0916 83F810C0 		strb	ip, [r3, #16]
 3922 091a 4FEA1C29 		lsr	r9, ip, #8
 3923 091e 83F81190 		strb	r9, [r3, #17]
 3924 0922 BCF1000F 		cmp	ip, #0
 3925 0926 3FF461AF 		beq	.L925
 3926 092a C445     		cmp	ip, r8
 3927 092c 3FF45EAF 		beq	.L925
 3928 0930 B2F80CC0 		ldrh	ip, [r2, #12]
 3929 0934 83F812C0 		strb	ip, [r3, #18]
 3930 0938 4FEA1C29 		lsr	r9, ip, #8
 3931 093c 83F81390 		strb	r9, [r3, #19]
 3932 0940 BCF1000F 		cmp	ip, #0
 3933 0944 3FF454AF 		beq	.L927
 3934 0948 C445     		cmp	ip, r8
 3935 094a 3FF451AF 		beq	.L927
 3936 094e B2F80EC0 		ldrh	ip, [r2, #14]
 3937 0952 83F814C0 		strb	ip, [r3, #20]
 3938 0956 4FEA1C29 		lsr	r9, ip, #8
 3939 095a 83F81590 		strb	r9, [r3, #21]
 3940 095e BCF1000F 		cmp	ip, #0
 3941 0962 3FF447AF 		beq	.L929
 3942 0966 C445     		cmp	ip, r8
 3943 0968 3FF444AF 		beq	.L929
 3944 096c B2F810C0 		ldrh	ip, [r2, #16]
 3945 0970 83F816C0 		strb	ip, [r3, #22]
 3946 0974 4FEA1C29 		lsr	r9, ip, #8
 3947 0978 83F81790 		strb	r9, [r3, #23]
 3948 097c BCF1000F 		cmp	ip, #0
 3949 0980 3FF43AAF 		beq	.L931
 3950 0984 C445     		cmp	ip, r8
 3951 0986 3FF437AF 		beq	.L931
 3952 098a B2F812C0 		ldrh	ip, [r2, #18]
 3953 098e 83F818C0 		strb	ip, [r3, #24]
 3954 0992 4FEA1C28 		lsr	r8, ip, #8
 3955 0996 83F81980 		strb	r8, [r3, #25]
 3956 099a BCF1000F 		cmp	ip, #0
 3957 099e 3FF42DAF 		beq	.L933
 3958 09a2 4FF6FF79 		movw	r9, #65535
 3959 09a6 CC45     		cmp	ip, r9
 3960 09a8 3FF428AF 		beq	.L933
 3961 09ac B2F814C0 		ldrh	ip, [r2, #20]
 3962 09b0 83F81CC0 		strb	ip, [r3, #28]
 3963 09b4 4FEA1C28 		lsr	r8, ip, #8
 3964 09b8 83F81D80 		strb	r8, [r3, #29]
ARM GAS  D:\Programs\cygwin64\tmp\ccQ42GcX.s 			page 70


 3965 09bc BCF1000F 		cmp	ip, #0
 3966 09c0 3FF41EAF 		beq	.L935
 3967 09c4 CC45     		cmp	ip, r9
 3968 09c6 3FF41BAF 		beq	.L935
 3969 09ca D28A     		ldrh	r2, [r2, #22]
 3970 09cc 9A77     		strb	r2, [r3, #30]
 3971 09ce 02F1FF3C 		add	ip, r2, #-1
 3972 09d2 1FFA8CFC 		uxth	ip, ip
 3973 09d6 4FF6FD78 		movw	r8, #65533
 3974 09da 120A     		lsrs	r2, r2, #8
 3975 09dc C445     		cmp	ip, r8
 3976 09de DA77     		strb	r2, [r3, #31]
 3977 09e0 3FF610AF 		bhi	.L937
 3978 09e4 7144     		add	r1, r1, lr
 3979 09e6 4A8B     		ldrh	r2, [r1, #26]
 3980 09e8 002A     		cmp	r2, #0
 3981 09ea 7FF40DAF 		bne	.L938
 3982 09ee 09E7     		b	.L937
 3983              	.L901:
 3984 09f0 0227     		movs	r7, #2
 3985 09f2 FFF763BB 		b	.L973
 3986              	.L1081:
 3987 09f6 94F82420 		ldrb	r2, [r4, #36]	@ zero_extendqisi2
 3988 09fa 1A70     		strb	r2, [r3]
 3989 09fc 94F82520 		ldrb	r2, [r4, #37]	@ zero_extendqisi2
 3990 0a00 5A70     		strb	r2, [r3, #1]
 3991 0a02 94F82620 		ldrb	r2, [r4, #38]	@ zero_extendqisi2
 3992 0a06 9A70     		strb	r2, [r3, #2]
 3993 0a08 94F82720 		ldrb	r2, [r4, #39]	@ zero_extendqisi2
 3994 0a0c DA70     		strb	r2, [r3, #3]
 3995 0a0e 94F82820 		ldrb	r2, [r4, #40]	@ zero_extendqisi2
 3996 0a12 1A71     		strb	r2, [r3, #4]
 3997 0a14 94F82920 		ldrb	r2, [r4, #41]	@ zero_extendqisi2
 3998 0a18 5A71     		strb	r2, [r3, #5]
 3999 0a1a 94F82A20 		ldrb	r2, [r4, #42]	@ zero_extendqisi2
 4000 0a1e 9A71     		strb	r2, [r3, #6]
 4001 0a20 94F82B20 		ldrb	r2, [r4, #43]	@ zero_extendqisi2
 4002 0a24 DA71     		strb	r2, [r3, #7]
 4003 0a26 99E5     		b	.L1072
 4004              	.L1086:
 4005 0a28 DDE90179 		ldrd	r7, r9, [sp, #4]
 4006 0a2c 79E5     		b	.L895
 4008 0a2e 00BF     		.section	.text.f_mount,"ax",%progbits
 4009              		.align	1
 4010              		.p2align 2,,3
 4011              		.global	f_mount
 4012              		.syntax unified
 4013              		.thumb
 4014              		.thumb_func
 4015              		.fpu fpv4-sp-d16
 4017              	f_mount:
 4018              		@ args = 0, pretend = 0, frame = 8
 4019              		@ frame_needed = 0, uses_anonymous_args = 0
 4020 0000 F0B5     		push	{r4, r5, r6, r7, lr}
 4021 0002 83B0     		sub	sp, sp, #12
 4022 0004 CDE90010 		strd	r1, r0, [sp]
 4023 0008 0846     		mov	r0, r1
ARM GAS  D:\Programs\cygwin64\tmp\ccQ42GcX.s 			page 71


 4024 000a 11B9     		cbnz	r1, .L1090
 4025 000c 4BE0     		b	.L1094
 4026              	.L1131:
 4027 000e 3A2B     		cmp	r3, #58
 4028 0010 41D0     		beq	.L1130
 4029              	.L1090:
 4030 0012 10F8013B 		ldrb	r3, [r0], #1	@ zero_extendqisi2
 4031 0016 1F2B     		cmp	r3, #31
 4032 0018 F9D8     		bhi	.L1131
 4033 001a 0026     		movs	r6, #0
 4034              	.L1092:
 4035 001c 254F     		ldr	r7, .L1134
 4036 001e 57F82650 		ldr	r5, [r7, r6, lsl #2]
 4037 0022 1446     		mov	r4, r2
 4038 0024 85B1     		cbz	r5, .L1095
 4039 0026 244B     		ldr	r3, .L1134+4
 4040 0028 2869     		ldr	r0, [r5, #16]
 4041 002a 1A68     		ldr	r2, [r3]
 4042 002c 9542     		cmp	r5, r2
 4043 002e 04BF     		itt	eq
 4044 0030 0022     		moveq	r2, #0
 4045 0032 1A60     		streq	r2, [r3]
 4046 0034 1A69     		ldr	r2, [r3, #16]
 4047 0036 9542     		cmp	r5, r2
 4048 0038 04BF     		itt	eq
 4049 003a 0022     		moveq	r2, #0
 4050 003c 1A61     		streq	r2, [r3, #16]
 4051 003e FFF7FEFF 		bl	ff_del_syncobj
 4052 0042 20B3     		cbz	r0, .L1100
 4053 0044 0023     		movs	r3, #0
 4054 0046 2B70     		strb	r3, [r5]
 4055              	.L1095:
 4056 0048 0199     		ldr	r1, [sp, #4]
 4057 004a 39B1     		cbz	r1, .L1099
 4058 004c 0023     		movs	r3, #0
 4059 004e 01F8103B 		strb	r3, [r1], #16
 4060 0052 F0B2     		uxtb	r0, r6
 4061 0054 FFF7FEFF 		bl	ff_cre_syncobj
 4062 0058 C8B1     		cbz	r0, .L1100
 4063 005a 0199     		ldr	r1, [sp, #4]
 4064              	.L1099:
 4065 005c 47F82610 		str	r1, [r7, r6, lsl #2]
 4066 0060 14B9     		cbnz	r4, .L1132
 4067              	.L1105:
 4068 0062 2046     		mov	r0, r4
 4069 0064 03B0     		add	sp, sp, #12
 4070              		@ sp needed
 4071 0066 F0BD     		pop	{r4, r5, r6, r7, pc}
 4072              	.L1132:
 4073 0068 0022     		movs	r2, #0
 4074 006a 01A9     		add	r1, sp, #4
 4075 006c 6846     		mov	r0, sp
 4076 006e FFF7FEFF 		bl	find_volume
 4077 0072 019B     		ldr	r3, [sp, #4]
 4078 0074 0446     		mov	r4, r0
 4079 0076 002B     		cmp	r3, #0
 4080 0078 F3D0     		beq	.L1105
ARM GAS  D:\Programs\cygwin64\tmp\ccQ42GcX.s 			page 72


 4081 007a 0C28     		cmp	r0, #12
 4082 007c F1D0     		beq	.L1105
 4083 007e 0B28     		cmp	r0, #11
 4084 0080 11D0     		beq	.L1094
 4085 0082 0F28     		cmp	r0, #15
 4086 0084 EDD0     		beq	.L1105
 4087 0086 1869     		ldr	r0, [r3, #16]
 4088 0088 FFF7FEFF 		bl	ff_rel_grant
 4089 008c E9E7     		b	.L1105
 4090              	.L1100:
 4091 008e 0224     		movs	r4, #2
 4092 0090 2046     		mov	r0, r4
 4093 0092 03B0     		add	sp, sp, #12
 4094              		@ sp needed
 4095 0094 F0BD     		pop	{r4, r5, r6, r7, pc}
 4096              	.L1130:
 4097 0096 0E78     		ldrb	r6, [r1]	@ zero_extendqisi2
 4098 0098 303E     		subs	r6, r6, #48
 4099 009a F3B2     		uxtb	r3, r6
 4100 009c 092B     		cmp	r3, #9
 4101 009e 02D8     		bhi	.L1094
 4102 00a0 0231     		adds	r1, r1, #2
 4103 00a2 8842     		cmp	r0, r1
 4104 00a4 03D0     		beq	.L1133
 4105              	.L1094:
 4106 00a6 0B24     		movs	r4, #11
 4107 00a8 2046     		mov	r0, r4
 4108 00aa 03B0     		add	sp, sp, #12
 4109              		@ sp needed
 4110 00ac F0BD     		pop	{r4, r5, r6, r7, pc}
 4111              	.L1133:
 4112 00ae 022E     		cmp	r6, #2
 4113 00b0 F9DC     		bgt	.L1094
 4114 00b2 B3E7     		b	.L1092
 4115              	.L1135:
 4116              		.align	2
 4117              	.L1134:
 4118 00b4 00000000 		.word	.LANCHOR0
 4119 00b8 00000000 		.word	.LANCHOR2
 4121              		.section	.text.f_open,"ax",%progbits
 4122              		.align	1
 4123              		.p2align 2,,3
 4124              		.global	f_open
 4125              		.syntax unified
 4126              		.thumb
 4127              		.thumb_func
 4128              		.fpu fpv4-sp-d16
 4130              	f_open:
 4131              		@ args = 0, pretend = 0, frame = 64
 4132              		@ frame_needed = 0, uses_anonymous_args = 0
 4133 0000 2DE9F04F 		push	{r4, r5, r6, r7, r8, r9, r10, fp, lr}
 4134 0004 91B0     		sub	sp, sp, #68
 4135 0006 0191     		str	r1, [sp, #4]
 4136 0008 0028     		cmp	r0, #0
 4137 000a 5ED0     		beq	.L1210
 4138 000c 02F03F07 		and	r7, r2, #63
 4139 0010 0446     		mov	r4, r0
ARM GAS  D:\Programs\cygwin64\tmp\ccQ42GcX.s 			page 73


 4140 0012 1646     		mov	r6, r2
 4141 0014 02A9     		add	r1, sp, #8
 4142 0016 3A46     		mov	r2, r7
 4143 0018 01A8     		add	r0, sp, #4
 4144 001a FFF7FEFF 		bl	find_volume
 4145 001e 0546     		mov	r5, r0
 4146 0020 68B1     		cbz	r0, .L1299
 4147              	.L1138:
 4148 0022 029A     		ldr	r2, [sp, #8]
 4149 0024 0023     		movs	r3, #0
 4150 0026 2360     		str	r3, [r4]
 4151 0028 2AB1     		cbz	r2, .L1238
 4152 002a 0C2D     		cmp	r5, #12
 4153 002c 03D0     		beq	.L1238
 4154 002e 0B2D     		cmp	r5, #11
 4155 0030 01D0     		beq	.L1238
 4156 0032 0F2D     		cmp	r5, #15
 4157 0034 3AD1     		bne	.L1194
 4158              	.L1238:
 4159 0036 2846     		mov	r0, r5
 4160 0038 11B0     		add	sp, sp, #68
 4161              		@ sp needed
 4162 003a BDE8F08F 		pop	{r4, r5, r6, r7, r8, r9, r10, fp, pc}
 4163              	.L1299:
 4164 003e 029B     		ldr	r3, [sp, #8]
 4165 0040 0393     		str	r3, [sp, #12]
 4166 0042 4FF40070 		mov	r0, #512
 4167 0046 FFF7FEFF 		bl	ff_memalloc
 4168 004a 029B     		ldr	r3, [sp, #8]
 4169 004c 8046     		mov	r8, r0
 4170 004e 0028     		cmp	r0, #0
 4171 0050 40D0     		beq	.L1300
 4172 0052 D860     		str	r0, [r3, #12]
 4173 0054 0199     		ldr	r1, [sp, #4]
 4174 0056 03A8     		add	r0, sp, #12
 4175 0058 FFF7FEFF 		bl	follow_path
 4176 005c 06F01C03 		and	r3, r6, #28
 4177 0060 8246     		mov	r10, r0
 4178 0062 50BB     		cbnz	r0, .L1140
 4179 0064 9DF93B20 		ldrsb	r2, [sp, #59]
 4180 0068 002A     		cmp	r2, #0
 4181 006a C0F24A82 		blt	.L1141
 4182 006e DFF8C094 		ldr	r9, .L1315
 4183 0072 039A     		ldr	r2, [sp, #12]
 4184 0074 D9F80010 		ldr	r1, [r9]
 4185 0078 0598     		ldr	r0, [sp, #20]
 4186 007a DDF820E0 		ldr	lr, [sp, #32]
 4187 007e 27F0010A 		bic	r10, r7, #1
 4188 0082 69B3     		cbz	r1, .L1142
 4189 0084 8A42     		cmp	r2, r1
 4190 0086 00F0EA81 		beq	.L1301
 4191              	.L1143:
 4192 008a D9F81010 		ldr	r1, [r9, #16]
 4193 008e 61B3     		cbz	r1, .L1146
 4194 0090 8A42     		cmp	r2, r1
 4195 0092 3ED0     		beq	.L1302
 4196              	.L1148:
ARM GAS  D:\Programs\cygwin64\tmp\ccQ42GcX.s 			page 74


 4197 0094 002B     		cmp	r3, #0
 4198 0096 00F03E82 		beq	.L1303
 4199 009a 4046     		mov	r0, r8
 4200 009c FFF7FEFF 		bl	ff_memfree
 4201 00a0 029A     		ldr	r2, [sp, #8]
 4202 00a2 0023     		movs	r3, #0
 4203 00a4 2360     		str	r3, [r4]
 4204 00a6 1225     		movs	r5, #18
 4205 00a8 002A     		cmp	r2, #0
 4206 00aa C4D0     		beq	.L1238
 4207              	.L1194:
 4208 00ac 1069     		ldr	r0, [r2, #16]
 4209 00ae FFF7FEFF 		bl	ff_rel_grant
 4210 00b2 2846     		mov	r0, r5
 4211 00b4 11B0     		add	sp, sp, #68
 4212              		@ sp needed
 4213 00b6 BDE8F08F 		pop	{r4, r5, r6, r7, r8, r9, r10, fp, pc}
 4214              	.L1140:
 4215 00ba 002B     		cmp	r3, #0
 4216 00bc 40F0A381 		bne	.L1159
 4217              	.L1160:
 4218 00c0 4046     		mov	r0, r8
 4219 00c2 FFF7FEFF 		bl	ff_memfree
 4220 00c6 5546     		mov	r5, r10
 4221 00c8 ABE7     		b	.L1138
 4222              	.L1210:
 4223 00ca 0925     		movs	r5, #9
 4224 00cc 2846     		mov	r0, r5
 4225 00ce 11B0     		add	sp, sp, #68
 4226              		@ sp needed
 4227 00d0 BDE8F08F 		pop	{r4, r5, r6, r7, r8, r9, r10, fp, pc}
 4228              	.L1300:
 4229 00d4 DBB1     		cbz	r3, .L1211
 4230 00d6 1869     		ldr	r0, [r3, #16]
 4231 00d8 FFF7FEFF 		bl	ff_rel_grant
 4232 00dc 1125     		movs	r5, #17
 4233 00de AAE7     		b	.L1238
 4234              	.L1142:
 4235 00e0 D9F81010 		ldr	r1, [r9, #16]
 4236 00e4 09B1     		cbz	r1, .L1146
 4237 00e6 8A42     		cmp	r2, r1
 4238 00e8 34D0     		beq	.L1304
 4239              	.L1146:
 4240 00ea 002B     		cmp	r3, #0
 4241 00ec 3BD0     		beq	.L1305
 4242 00ee 9DF812B0 		ldrb	fp, [sp, #18]	@ zero_extendqisi2
 4243 00f2 1BF0110B 		ands	fp, fp, #17
 4244 00f6 00F06781 		beq	.L1306
 4245 00fa 4046     		mov	r0, r8
 4246 00fc FFF7FEFF 		bl	ff_memfree
 4247 0100 029A     		ldr	r2, [sp, #8]
 4248 0102 0023     		movs	r3, #0
 4249 0104 2360     		str	r3, [r4]
 4250 0106 002A     		cmp	r2, #0
 4251 0108 3FD0     		beq	.L1195
 4252              	.L1220:
 4253 010a 0725     		movs	r5, #7
ARM GAS  D:\Programs\cygwin64\tmp\ccQ42GcX.s 			page 75


 4254 010c CEE7     		b	.L1194
 4255              	.L1211:
 4256 010e 1125     		movs	r5, #17
 4257 0110 91E7     		b	.L1238
 4258              	.L1302:
 4259 0112 D9F81410 		ldr	r1, [r9, #20]
 4260 0116 8142     		cmp	r1, r0
 4261 0118 BCD1     		bne	.L1148
 4262 011a D9F81810 		ldr	r1, [r9, #24]
 4263 011e 7145     		cmp	r1, lr
 4264 0120 B8D1     		bne	.L1148
 4265              	.L1237:
 4266 0122 0121     		movs	r1, #1
 4267              	.L1145:
 4268 0124 BAF1000F 		cmp	r10, #0
 4269 0128 40F06081 		bne	.L1307
 4270 012c 09EB0111 		add	r1, r9, r1, lsl #4
 4271 0130 8989     		ldrh	r1, [r1, #12]
 4272 0132 B1F5807F 		cmp	r1, #256
 4273 0136 D8D1     		bne	.L1146
 4274 0138 002B     		cmp	r3, #0
 4275 013a 00F09C81 		beq	.L1281
 4276 013e 4046     		mov	r0, r8
 4277 0140 FFF7FEFF 		bl	ff_memfree
 4278 0144 029A     		ldr	r2, [sp, #8]
 4279 0146 C4F800A0 		str	r10, [r4]
 4280 014a 002A     		cmp	r2, #0
 4281 014c 00F05981 		beq	.L1292
 4282              	.L1235:
 4283 0150 1025     		movs	r5, #16
 4284 0152 ABE7     		b	.L1194
 4285              	.L1304:
 4286 0154 D9F81410 		ldr	r1, [r9, #20]
 4287 0158 8142     		cmp	r1, r0
 4288 015a C6D1     		bne	.L1146
 4289 015c D9F81810 		ldr	r1, [r9, #24]
 4290 0160 8E45     		cmp	lr, r1
 4291 0162 C2D1     		bne	.L1146
 4292 0164 DDE7     		b	.L1237
 4293              	.L1305:
 4294 0166 9DF81230 		ldrb	r3, [sp, #18]	@ zero_extendqisi2
 4295 016a 13F0100B 		ands	fp, r3, #16
 4296 016e 40F06B81 		bne	.L1308
 4297 0172 B107     		lsls	r1, r6, #30
 4298 0174 0BD5     		bpl	.L1170
 4299 0176 DB07     		lsls	r3, r3, #31
 4300 0178 09D5     		bpl	.L1170
 4301 017a 4046     		mov	r0, r8
 4302 017c FFF7FEFF 		bl	ff_memfree
 4303 0180 029A     		ldr	r2, [sp, #8]
 4304 0182 C4F800B0 		str	fp, [r4]
 4305 0186 002A     		cmp	r2, #0
 4306 0188 BFD1     		bne	.L1220
 4307              	.L1195:
 4308 018a 0725     		movs	r5, #7
 4309 018c 53E7     		b	.L1238
 4310              	.L1170:
ARM GAS  D:\Programs\cygwin64\tmp\ccQ42GcX.s 			page 76


 4311 018e 3107     		lsls	r1, r6, #28
 4312 0190 DDF808B0 		ldr	fp, [sp, #8]
 4313 0194 00F10781 		bmi	.L1207
 4314              	.L1165:
 4315 0198 D9F80010 		ldr	r1, [r9]
 4316 019c DBF83430 		ldr	r3, [fp, #52]
 4317 01a0 0B9E     		ldr	r6, [sp, #44]
 4318 01a2 9142     		cmp	r1, r2
 4319 01a4 C4E90936 		strd	r3, r6, [r4, #36]
 4320 01a8 00F00281 		beq	.L1309
 4321              	.L1172:
 4322 01ac D9F810C0 		ldr	ip, [r9, #16]
 4323 01b0 9445     		cmp	ip, r2
 4324 01b2 11D0     		beq	.L1310
 4325              	.L1174:
 4326 01b4 0029     		cmp	r1, #0
 4327 01b6 00F08981 		beq	.L1216
 4328 01ba BCF1000F 		cmp	ip, #0
 4329 01be 00F09981 		beq	.L1217
 4330              	.L1181:
 4331 01c2 0025     		movs	r5, #0
 4332 01c4 4046     		mov	r0, r8
 4333 01c6 2561     		str	r5, [r4, #16]
 4334 01c8 FFF7FEFF 		bl	ff_memfree
 4335 01cc 029A     		ldr	r2, [sp, #8]
 4336 01ce 2560     		str	r5, [r4]
 4337 01d0 002A     		cmp	r2, #0
 4338 01d2 73D0     		beq	.L1293
 4339              	.L1231:
 4340 01d4 0225     		movs	r5, #2
 4341 01d6 69E7     		b	.L1194
 4342              	.L1310:
 4343 01d8 D9F81430 		ldr	r3, [r9, #20]
 4344 01dc 9842     		cmp	r0, r3
 4345 01de E9D1     		bne	.L1174
 4346 01e0 D9F81830 		ldr	r3, [r9, #24]
 4347 01e4 7345     		cmp	r3, lr
 4348 01e6 E5D1     		bne	.L1174
 4349 01e8 0121     		movs	r1, #1
 4350              	.L1173:
 4351 01ea 0B01     		lsls	r3, r1, #4
 4352 01ec 09EB0302 		add	r2, r9, r3
 4353 01f0 9289     		ldrh	r2, [r2, #12]
 4354 01f2 BAF1000F 		cmp	r10, #0
 4355 01f6 00F0F480 		beq	.L1311
 4356 01fa 002A     		cmp	r2, #0
 4357 01fc E1D1     		bne	.L1181
 4358 01fe 01F1010C 		add	ip, r1, #1
 4359 0202 4FF48072 		mov	r2, #256
 4360              	.L1178:
 4361 0206 C4F810C0 		str	ip, [r4, #16]
 4362 020a 9BF80010 		ldrb	r1, [fp]	@ zero_extendqisi2
 4363 020e F07E     		ldrb	r0, [r6, #27]	@ zero_extendqisi2
 4364 0210 4B44     		add	r3, r3, r9
 4365 0212 96F81A90 		ldrb	r9, [r6, #26]	@ zero_extendqisi2
 4366 0216 9A81     		strh	r2, [r3, #12]	@ movhi
 4367 0218 0329     		cmp	r1, #3
ARM GAS  D:\Programs\cygwin64\tmp\ccQ42GcX.s 			page 77


 4368 021a 49EA0029 		orr	r9, r9, r0, lsl #8
 4369 021e 05D1     		bne	.L1183
 4370 0220 727D     		ldrb	r2, [r6, #21]	@ zero_extendqisi2
 4371 0222 337D     		ldrb	r3, [r6, #20]	@ zero_extendqisi2
 4372 0224 43EA0223 		orr	r3, r3, r2, lsl #8
 4373 0228 49EA0349 		orr	r9, r9, r3, lsl #16
 4374              	.L1183:
 4375 022c C4F80890 		str	r9, [r4, #8]
 4376 0230 F18B     		ldrh	r1, [r6, #30]	@ unaligned
 4377 0232 737F     		ldrb	r3, [r6, #29]	@ zero_extendqisi2
 4378 0234 367F     		ldrb	r6, [r6, #28]	@ zero_extendqisi2
 4379 0236 BBF80620 		ldrh	r2, [fp, #6]
 4380 023a A280     		strh	r2, [r4, #4]	@ movhi
 4381 023c 43EA0123 		orr	r3, r3, r1, lsl #8
 4382 0240 46EA0326 		orr	r6, r6, r3, lsl #8
 4383 0244 0021     		movs	r1, #0
 4384 0246 04F1300A 		add	r10, r4, #48
 4385 024a C4F800B0 		str	fp, [r4]
 4386 024e E660     		str	r6, [r4, #12]
 4387 0250 E162     		str	r1, [r4, #44]
 4388 0252 6175     		strb	r1, [r4, #21]
 4389 0254 2162     		str	r1, [r4, #32]
 4390 0256 A161     		str	r1, [r4, #24]
 4391 0258 2775     		strb	r7, [r4, #20]
 4392 025a 5046     		mov	r0, r10
 4393 025c 4FF40072 		mov	r2, #512
 4394 0260 FFF7FEFF 		bl	memset
 4395 0264 BB06     		lsls	r3, r7, #26
 4396 0266 35D5     		bpl	.L1184
 4397 0268 002E     		cmp	r6, #0
 4398 026a 33D0     		beq	.L1184
 4399 026c BBF80A70 		ldrh	r7, [fp, #10]
 4400 0270 A661     		str	r6, [r4, #24]
 4401 0272 7F02     		lsls	r7, r7, #9
 4402              	.L1287:
 4403 0274 B742     		cmp	r7, r6
 4404 0276 80F00A81 		bcs	.L1186
 4405 027a 4946     		mov	r1, r9
 4406 027c 2068     		ldr	r0, [r4]
 4407 027e FFF7FEFF 		bl	get_fat.isra.12
 4408 0282 0128     		cmp	r0, #1
 4409 0284 8146     		mov	r9, r0
 4410 0286 10D9     		bls	.L1187
 4411 0288 B0F1FF3F 		cmp	r0, #-1
 4412 028c A6EB0706 		sub	r6, r6, r7
 4413 0290 F0D1     		bne	.L1287
 4414 0292 E061     		str	r0, [r4, #28]
 4415              	.L1298:
 4416 0294 4046     		mov	r0, r8
 4417 0296 FFF7FEFF 		bl	ff_memfree
 4418 029a 029A     		ldr	r2, [sp, #8]
 4419 029c 0023     		movs	r3, #0
 4420 029e 2360     		str	r3, [r4]
 4421 02a0 0125     		movs	r5, #1
 4422 02a2 002A     		cmp	r2, #0
 4423 02a4 7FF402AF 		bne	.L1194
 4424 02a8 C5E6     		b	.L1238
ARM GAS  D:\Programs\cygwin64\tmp\ccQ42GcX.s 			page 78


 4425              	.L1187:
 4426 02aa E061     		str	r0, [r4, #28]
 4427              	.L1296:
 4428 02ac 4046     		mov	r0, r8
 4429 02ae FFF7FEFF 		bl	ff_memfree
 4430 02b2 029A     		ldr	r2, [sp, #8]
 4431 02b4 0023     		movs	r3, #0
 4432 02b6 2360     		str	r3, [r4]
 4433 02b8 002A     		cmp	r2, #0
 4434 02ba 8BD1     		bne	.L1231
 4435              	.L1293:
 4436 02bc 0225     		movs	r5, #2
 4437 02be BAE6     		b	.L1238
 4438              	.L1314:
 4439 02c0 07EB5622 		add	r2, r7, r6, lsr #9
 4440 02c4 2262     		str	r2, [r4, #32]
 4441 02c6 4878     		ldrb	r0, [r1, #1]	@ zero_extendqisi2
 4442 02c8 0123     		movs	r3, #1
 4443 02ca 5146     		mov	r1, r10
 4444 02cc FFF7FEFF 		bl	disk_read
 4445 02d0 0028     		cmp	r0, #0
 4446 02d2 DFD1     		bne	.L1298
 4447              	.L1184:
 4448 02d4 4046     		mov	r0, r8
 4449 02d6 FFF7FEFF 		bl	ff_memfree
 4450 02da 029A     		ldr	r2, [sp, #8]
 4451 02dc 002A     		cmp	r2, #0
 4452 02de 7FF4E5AE 		bne	.L1194
 4453 02e2 A8E6     		b	.L1238
 4454              	.L1313:
 4455 02e4 3607     		lsls	r6, r6, #28
 4456 02e6 DDF808B0 		ldr	fp, [sp, #8]
 4457 02ea 7FF555AF 		bpl	.L1165
 4458              	.L1163:
 4459 02ee DDF82CA0 		ldr	r10, [sp, #44]
 4460 02f2 9BF80030 		ldrb	r3, [fp]	@ zero_extendqisi2
 4461 02f6 9AF81B20 		ldrb	r2, [r10, #27]	@ zero_extendqisi2
 4462 02fa 9AF81A60 		ldrb	r6, [r10, #26]	@ zero_extendqisi2
 4463 02fe 032B     		cmp	r3, #3
 4464 0300 46EA0226 		orr	r6, r6, r2, lsl #8
 4465 0304 07D1     		bne	.L1166
 4466 0306 9AF81520 		ldrb	r2, [r10, #21]	@ zero_extendqisi2
 4467 030a 9AF81430 		ldrb	r3, [r10, #20]	@ zero_extendqisi2
 4468 030e 43EA0223 		orr	r3, r3, r2, lsl #8
 4469 0312 46EA0346 		orr	r6, r6, r3, lsl #16
 4470              	.L1166:
 4471 0316 FFF7FEFF 		bl	get_fattime
 4472 031a 010A     		lsrs	r1, r0, #8
 4473 031c 020C     		lsrs	r2, r0, #16
 4474 031e 030E     		lsrs	r3, r0, #24
 4475 0320 8AF81020 		strb	r2, [r10, #16]
 4476 0324 8AF80E00 		strb	r0, [r10, #14]
 4477 0328 8AF80F10 		strb	r1, [r10, #15]
 4478 032c 8AF81130 		strb	r3, [r10, #17]
 4479 0330 0B9B     		ldr	r3, [sp, #44]
 4480 0332 DDF808B0 		ldr	fp, [sp, #8]
 4481 0336 2022     		movs	r2, #32
ARM GAS  D:\Programs\cygwin64\tmp\ccQ42GcX.s 			page 79


 4482 0338 DA72     		strb	r2, [r3, #11]
 4483 033a 0B9B     		ldr	r3, [sp, #44]
 4484 033c 0022     		movs	r2, #0
 4485 033e 9A76     		strb	r2, [r3, #26]
 4486 0340 DA76     		strb	r2, [r3, #27]
 4487 0342 9BF80010 		ldrb	r1, [fp]	@ zero_extendqisi2
 4488 0346 0329     		cmp	r1, #3
 4489 0348 01D1     		bne	.L1167
 4490 034a 1A75     		strb	r2, [r3, #20]
 4491 034c 5A75     		strb	r2, [r3, #21]
 4492              	.L1167:
 4493 034e 0B99     		ldr	r1, [sp, #44]
 4494 0350 0022     		movs	r2, #0
 4495 0352 0123     		movs	r3, #1
 4496 0354 CA61     		str	r2, [r1, #28]	@ unaligned
 4497 0356 8BF80330 		strb	r3, [fp, #3]
 4498 035a 06B3     		cbz	r6, .L1169
 4499 035c DBF83430 		ldr	r3, [fp, #52]
 4500 0360 0093     		str	r3, [sp]
 4501 0362 03A8     		add	r0, sp, #12
 4502 0364 3146     		mov	r1, r6
 4503 0366 FFF7FEFF 		bl	remove_chain
 4504 036a 8246     		mov	r10, r0
 4505 036c 0028     		cmp	r0, #0
 4506 036e 7FF4A7AE 		bne	.L1160
 4507 0372 DDF808B0 		ldr	fp, [sp, #8]
 4508 0376 009B     		ldr	r3, [sp]
 4509 0378 DBF83420 		ldr	r2, [fp, #52]
 4510 037c 9342     		cmp	r3, r2
 4511 037e 06F1FF36 		add	r6, r6, #-1
 4512 0382 00F0BB80 		beq	.L1312
 4513 0386 5846     		mov	r0, fp
 4514 0388 1946     		mov	r1, r3
 4515 038a FFF7FEFF 		bl	move_window.part.9
 4516 038e DDF808B0 		ldr	fp, [sp, #8]
 4517 0392 8246     		mov	r10, r0
 4518 0394 CBF81460 		str	r6, [fp, #20]
 4519 0398 0028     		cmp	r0, #0
 4520 039a 7FF491AE 		bne	.L1160
 4521              	.L1169:
 4522 039e 039A     		ldr	r2, [sp, #12]
 4523 03a0 0598     		ldr	r0, [sp, #20]
 4524 03a2 DDF820E0 		ldr	lr, [sp, #32]
 4525              	.L1207:
 4526 03a6 47F04007 		orr	r7, r7, #64
 4527 03aa 27F0010A 		bic	r10, r7, #1
 4528 03ae F3E6     		b	.L1165
 4529              	.L1309:
 4530 03b0 D9F80430 		ldr	r3, [r9, #4]
 4531 03b4 8342     		cmp	r3, r0
 4532 03b6 7FF4F9AE 		bne	.L1172
 4533 03ba D9F80830 		ldr	r3, [r9, #8]
 4534 03be 7345     		cmp	r3, lr
 4535 03c0 7FF4F4AE 		bne	.L1172
 4536 03c4 0021     		movs	r1, #0
 4537 03c6 10E7     		b	.L1173
 4538              	.L1306:
ARM GAS  D:\Programs\cygwin64\tmp\ccQ42GcX.s 			page 80


 4539 03c8 7307     		lsls	r3, r6, #29
 4540 03ca 8BD5     		bpl	.L1313
 4541 03cc 4046     		mov	r0, r8
 4542 03ce FFF7FEFF 		bl	ff_memfree
 4543 03d2 029A     		ldr	r2, [sp, #8]
 4544 03d4 C4F800B0 		str	fp, [r4]
 4545 03d8 0825     		movs	r5, #8
 4546 03da 002A     		cmp	r2, #0
 4547 03dc 7FF466AE 		bne	.L1194
 4548 03e0 29E6     		b	.L1238
 4549              	.L1311:
 4550 03e2 0132     		adds	r2, r2, #1
 4551 03e4 92B2     		uxth	r2, r2
 4552 03e6 01F1010C 		add	ip, r1, #1
 4553 03ea 0CE7     		b	.L1178
 4554              	.L1307:
 4555 03ec 002B     		cmp	r3, #0
 4556 03ee 42D0     		beq	.L1281
 4557 03f0 4046     		mov	r0, r8
 4558 03f2 FFF7FEFF 		bl	ff_memfree
 4559 03f6 029A     		ldr	r2, [sp, #8]
 4560 03f8 0023     		movs	r3, #0
 4561 03fa 2360     		str	r3, [r4]
 4562 03fc 002A     		cmp	r2, #0
 4563 03fe 7FF4A7AE 		bne	.L1235
 4564              	.L1292:
 4565 0402 1025     		movs	r5, #16
 4566 0404 17E6     		b	.L1238
 4567              	.L1159:
 4568 0406 0428     		cmp	r0, #4
 4569 0408 7FF45AAE 		bne	.L1160
 4570 040c DFF82091 		ldr	r9, .L1315
 4571 0410 D9F80030 		ldr	r3, [r9]
 4572 0414 63B1     		cbz	r3, .L1161
 4573 0416 D9F81030 		ldr	r3, [r9, #16]
 4574 041a 4BB1     		cbz	r3, .L1161
 4575 041c 4046     		mov	r0, r8
 4576 041e FFF7FEFF 		bl	ff_memfree
 4577 0422 029A     		ldr	r2, [sp, #8]
 4578 0424 2560     		str	r5, [r4]
 4579 0426 1225     		movs	r5, #18
 4580 0428 002A     		cmp	r2, #0
 4581 042a 7FF43FAE 		bne	.L1194
 4582 042e 02E6     		b	.L1238
 4583              	.L1161:
 4584 0430 03A8     		add	r0, sp, #12
 4585 0432 FFF7FEFF 		bl	dir_register
 4586 0436 47F00807 		orr	r7, r7, #8
 4587 043a 8246     		mov	r10, r0
 4588 043c 0028     		cmp	r0, #0
 4589 043e 7FF43FAE 		bne	.L1160
 4590 0442 DDF808B0 		ldr	fp, [sp, #8]
 4591 0446 52E7     		b	.L1163
 4592              	.L1308:
 4593 0448 4046     		mov	r0, r8
 4594 044a FFF7FEFF 		bl	ff_memfree
 4595 044e 029A     		ldr	r2, [sp, #8]
ARM GAS  D:\Programs\cygwin64\tmp\ccQ42GcX.s 			page 81


 4596 0450 0023     		movs	r3, #0
 4597 0452 2360     		str	r3, [r4]
 4598 0454 0425     		movs	r5, #4
 4599 0456 002A     		cmp	r2, #0
 4600 0458 7FF428AE 		bne	.L1194
 4601 045c EBE5     		b	.L1238
 4602              	.L1301:
 4603 045e D9F80410 		ldr	r1, [r9, #4]
 4604 0462 8842     		cmp	r0, r1
 4605 0464 7FF411AE 		bne	.L1143
 4606 0468 D9F80810 		ldr	r1, [r9, #8]
 4607 046c 8E45     		cmp	lr, r1
 4608 046e 7FF40CAE 		bne	.L1143
 4609 0472 2946     		mov	r1, r5
 4610 0474 56E6     		b	.L1145
 4611              	.L1281:
 4612 0476 4046     		mov	r0, r8
 4613 0478 0093     		str	r3, [sp]
 4614 047a FFF7FEFF 		bl	ff_memfree
 4615 047e 029A     		ldr	r2, [sp, #8]
 4616 0480 009B     		ldr	r3, [sp]
 4617 0482 2360     		str	r3, [r4]
 4618 0484 1025     		movs	r5, #16
 4619 0486 002A     		cmp	r2, #0
 4620 0488 7FF410AE 		bne	.L1194
 4621 048c D3E5     		b	.L1238
 4622              	.L1186:
 4623 048e C6F30803 		ubfx	r3, r6, #0, #9
 4624 0492 C4F81C90 		str	r9, [r4, #28]
 4625 0496 002B     		cmp	r3, #0
 4626 0498 3FF41CAF 		beq	.L1184
 4627 049c 0299     		ldr	r1, [sp, #8]
 4628 049e CB69     		ldr	r3, [r1, #28]
 4629 04a0 A9F10209 		sub	r9, r9, #2
 4630 04a4 023B     		subs	r3, r3, #2
 4631 04a6 9945     		cmp	r9, r3
 4632 04a8 BFF400AF 		bcs	.L1296
 4633 04ac 4F89     		ldrh	r7, [r1, #10]
 4634 04ae 0B6B     		ldr	r3, [r1, #48]
 4635 04b0 09FB0737 		mla	r7, r9, r7, r3
 4636 04b4 002F     		cmp	r7, #0
 4637 04b6 7FF403AF 		bne	.L1314
 4638 04ba 4046     		mov	r0, r8
 4639 04bc FFF7FEFF 		bl	ff_memfree
 4640 04c0 029A     		ldr	r2, [sp, #8]
 4641 04c2 2760     		str	r7, [r4]
 4642 04c4 002A     		cmp	r2, #0
 4643 04c6 7FF485AE 		bne	.L1231
 4644 04ca F7E6     		b	.L1293
 4645              	.L1216:
 4646 04cc 4FF0010C 		mov	ip, #1
 4647              	.L1175:
 4648 04d0 0B01     		lsls	r3, r1, #4
 4649 04d2 09EB0301 		add	r1, r9, r3
 4650 04d6 BAF1000F 		cmp	r10, #0
 4651 04da 4FF0000A 		mov	r10, #0
 4652 04de 49F80320 		str	r2, [r9, r3]
ARM GAS  D:\Programs\cygwin64\tmp\ccQ42GcX.s 			page 82


 4653 04e2 C1E9010E 		strd	r0, lr, [r1, #4]
 4654 04e6 A1F80CA0 		strh	r10, [r1, #12]	@ movhi
 4655 04ea 14BF     		ite	ne
 4656 04ec 4FF48072 		movne	r2, #256
 4657 04f0 0122     		moveq	r2, #1
 4658 04f2 88E6     		b	.L1178
 4659              	.L1217:
 4660 04f4 4FF0020C 		mov	ip, #2
 4661 04f8 0121     		movs	r1, #1
 4662 04fa E9E7     		b	.L1175
 4663              	.L1312:
 4664 04fc CBF81460 		str	r6, [fp, #20]
 4665 0500 4DE7     		b	.L1169
 4666              	.L1141:
 4667 0502 4046     		mov	r0, r8
 4668 0504 FFF7FEFF 		bl	ff_memfree
 4669 0508 029A     		ldr	r2, [sp, #8]
 4670 050a 2560     		str	r5, [r4]
 4671 050c 0625     		movs	r5, #6
 4672 050e 002A     		cmp	r2, #0
 4673 0510 7FF4CCAD 		bne	.L1194
 4674 0514 8FE5     		b	.L1238
 4675              	.L1303:
 4676 0516 4046     		mov	r0, r8
 4677 0518 0093     		str	r3, [sp]
 4678 051a FFF7FEFF 		bl	ff_memfree
 4679 051e 029A     		ldr	r2, [sp, #8]
 4680 0520 009B     		ldr	r3, [sp]
 4681 0522 2360     		str	r3, [r4]
 4682 0524 1225     		movs	r5, #18
 4683 0526 002A     		cmp	r2, #0
 4684 0528 7FF4C0AD 		bne	.L1194
 4685 052c 83E5     		b	.L1238
 4686              	.L1316:
 4687 052e 00BF     		.align	2
 4688              	.L1315:
 4689 0530 00000000 		.word	.LANCHOR2
 4691              		.section	.text.f_read,"ax",%progbits
 4692              		.align	1
 4693              		.p2align 2,,3
 4694              		.global	f_read
 4695              		.syntax unified
 4696              		.thumb
 4697              		.thumb_func
 4698              		.fpu fpv4-sp-d16
 4700              	f_read:
 4701              		@ args = 0, pretend = 0, frame = 24
 4702              		@ frame_needed = 0, uses_anonymous_args = 0
 4703 0000 2DE9F04F 		push	{r4, r5, r6, r7, r8, r9, r10, fp, lr}
 4704 0004 9A46     		mov	r10, r3
 4705 0006 0023     		movs	r3, #0
 4706 0008 87B0     		sub	sp, sp, #28
 4707 000a CAF80030 		str	r3, [r10]
 4708 000e 48B1     		cbz	r0, .L1417
 4709 0010 0368     		ldr	r3, [r0]
 4710 0012 0546     		mov	r5, r0
 4711 0014 33B1     		cbz	r3, .L1417
ARM GAS  D:\Programs\cygwin64\tmp\ccQ42GcX.s 			page 83


 4712 0016 0F46     		mov	r7, r1
 4713 0018 1978     		ldrb	r1, [r3]	@ zero_extendqisi2
 4714 001a 19B1     		cbz	r1, .L1417
 4715 001c 8088     		ldrh	r0, [r0, #4]
 4716 001e D988     		ldrh	r1, [r3, #6]
 4717 0020 8842     		cmp	r0, r1
 4718 0022 05D0     		beq	.L1419
 4719              	.L1417:
 4720 0024 4FF00908 		mov	r8, #9
 4721              	.L1319:
 4722 0028 4046     		mov	r0, r8
 4723 002a 07B0     		add	sp, sp, #28
 4724              		@ sp needed
 4725 002c BDE8F08F 		pop	{r4, r5, r6, r7, r8, r9, r10, fp, pc}
 4726              	.L1419:
 4727 0030 1869     		ldr	r0, [r3, #16]
 4728 0032 1446     		mov	r4, r2
 4729 0034 FFF7FEFF 		bl	ff_req_grant
 4730 0038 0028     		cmp	r0, #0
 4731 003a 00F01D81 		beq	.L1362
 4732 003e 2B68     		ldr	r3, [r5]
 4733 0040 5878     		ldrb	r0, [r3, #1]	@ zero_extendqisi2
 4734 0042 FFF7FEFF 		bl	disk_status
 4735 0046 C107     		lsls	r1, r0, #31
 4736 0048 00F12481 		bmi	.L1321
 4737 004c 95F81580 		ldrb	r8, [r5, #21]	@ zero_extendqisi2
 4738 0050 D5F800B0 		ldr	fp, [r5]
 4739 0054 B8F1000F 		cmp	r8, #0
 4740 0058 40F0AA80 		bne	.L1420
 4741 005c 2B7D     		ldrb	r3, [r5, #20]	@ zero_extendqisi2
 4742 005e DA07     		lsls	r2, r3, #31
 4743 0060 40F10081 		bpl	.L1421
 4744 0064 A969     		ldr	r1, [r5, #24]
 4745 0066 EB68     		ldr	r3, [r5, #12]
 4746 0068 5B1A     		subs	r3, r3, r1
 4747 006a A342     		cmp	r3, r4
 4748 006c 1E46     		mov	r6, r3
 4749 006e 28BF     		it	cs
 4750 0070 2646     		movcs	r6, r4
 4751 0072 002E     		cmp	r6, #0
 4752 0074 4ED0     		beq	.L1361
 4753 0076 05F13402 		add	r2, r5, #52
 4754 007a CDE90482 		strd	r8, r2, [sp, #16]
 4755 007e 05F13003 		add	r3, r5, #48
 4756 0082 9946     		mov	r9, r3
 4757              	.L1325:
 4758 0084 C1F30803 		ubfx	r3, r1, #0, #9
 4759 0088 002B     		cmp	r3, #0
 4760 008a 5ED1     		bne	.L1328
 4761 008c BBF80A40 		ldrh	r4, [fp, #10]
 4762 0090 4B0A     		lsrs	r3, r1, #9
 4763 0092 013C     		subs	r4, r4, #1
 4764 0094 1C40     		ands	r4, r4, r3
 4765 0096 00F0A380 		beq	.L1329
 4766 009a E869     		ldr	r0, [r5, #28]
 4767 009c DBF81C30 		ldr	r3, [fp, #28]
 4768 00a0 0238     		subs	r0, r0, #2
ARM GAS  D:\Programs\cygwin64\tmp\ccQ42GcX.s 			page 84


 4769 00a2 023B     		subs	r3, r3, #2
 4770 00a4 9842     		cmp	r0, r3
 4771 00a6 80F0A980 		bcs	.L1340
 4772              	.L1423:
 4773 00aa BBF80A30 		ldrh	r3, [fp, #10]
 4774 00ae DBF83020 		ldr	r2, [fp, #48]
 4775 00b2 0292     		str	r2, [sp, #8]
 4776 00b4 03FB00F1 		mul	r1, r3, r0
 4777 00b8 12EB0108 		adds	r8, r2, r1
 4778 00bc 0391     		str	r1, [sp, #12]
 4779 00be 00F09D80 		beq	.L1340
 4780 00c2 B6F5007F 		cmp	r6, #512
 4781 00c6 A044     		add	r8, r8, r4
 4782 00c8 28D3     		bcc	.L1342
 4783 00ca 720A     		lsrs	r2, r6, #9
 4784 00cc 0192     		str	r2, [sp, #4]
 4785 00ce A218     		adds	r2, r4, r2
 4786 00d0 9A42     		cmp	r2, r3
 4787 00d2 84BF     		itt	hi
 4788 00d4 1B1B     		subhi	r3, r3, r4
 4789 00d6 0193     		strhi	r3, [sp, #4]
 4790 00d8 019B     		ldr	r3, [sp, #4]
 4791 00da 9BF80100 		ldrb	r0, [fp, #1]	@ zero_extendqisi2
 4792 00de 4246     		mov	r2, r8
 4793 00e0 3946     		mov	r1, r7
 4794 00e2 FFF7FEFF 		bl	disk_read
 4795 00e6 0028     		cmp	r0, #0
 4796 00e8 40F0B780 		bne	.L1416
 4797 00ec 95F91430 		ldrsb	r3, [r5, #20]
 4798 00f0 002B     		cmp	r3, #0
 4799 00f2 C0F2DA80 		blt	.L1345
 4800              	.L1347:
 4801 00f6 019B     		ldr	r3, [sp, #4]
 4802 00f8 5A02     		lsls	r2, r3, #9
 4803              	.L1346:
 4804 00fa DAF80030 		ldr	r3, [r10]
 4805 00fe A969     		ldr	r1, [r5, #24]
 4806 0100 1344     		add	r3, r3, r2
 4807 0102 1144     		add	r1, r1, r2
 4808 0104 B61A     		subs	r6, r6, r2
 4809 0106 CAF80030 		str	r3, [r10]
 4810 010a 1744     		add	r7, r7, r2
 4811 010c A961     		str	r1, [r5, #24]
 4812 010e B9D1     		bne	.L1325
 4813 0110 DDF81080 		ldr	r8, [sp, #16]
 4814              	.L1361:
 4815 0114 BBF1000F 		cmp	fp, #0
 4816 0118 5AD1     		bne	.L1418
 4817 011a 85E7     		b	.L1319
 4818              	.L1342:
 4819 011c 2A6A     		ldr	r2, [r5, #32]
 4820 011e 4245     		cmp	r2, r8
 4821 0120 0ED0     		beq	.L1353
 4822 0122 95F91430 		ldrsb	r3, [r5, #20]
 4823 0126 9BF80100 		ldrb	r0, [fp, #1]	@ zero_extendqisi2
 4824 012a 002B     		cmp	r3, #0
 4825 012c C0F29080 		blt	.L1422
ARM GAS  D:\Programs\cygwin64\tmp\ccQ42GcX.s 			page 85


 4826              	.L1354:
 4827 0130 0123     		movs	r3, #1
 4828 0132 4246     		mov	r2, r8
 4829 0134 4946     		mov	r1, r9
 4830 0136 FFF7FEFF 		bl	disk_read
 4831 013a 0028     		cmp	r0, #0
 4832 013c 40F08D80 		bne	.L1416
 4833              	.L1353:
 4834 0140 AB69     		ldr	r3, [r5, #24]
 4835 0142 C5F82080 		str	r8, [r5, #32]
 4836 0146 C3F30803 		ubfx	r3, r3, #0, #9
 4837              	.L1328:
 4838 014a C3F50072 		rsb	r2, r3, #512
 4839 014e 181D     		adds	r0, r3, #4
 4840 0150 B242     		cmp	r2, r6
 4841 0152 4844     		add	r0, r0, r9
 4842 0154 4B44     		add	r3, r3, r9
 4843 0156 07F10401 		add	r1, r7, #4
 4844 015a 28BF     		it	cs
 4845 015c 3246     		movcs	r2, r6
 4846 015e 8B42     		cmp	r3, r1
 4847 0160 38BF     		it	cc
 4848 0162 8742     		cmpcc	r7, r0
 4849 0164 56D3     		bcc	.L1356
 4850 0166 511E     		subs	r1, r2, #1
 4851 0168 0729     		cmp	r1, #7
 4852 016a 53D9     		bls	.L1356
 4853 016c 22F00300 		bic	r0, r2, #3
 4854 0170 3844     		add	r0, r0, r7
 4855 0172 3946     		mov	r1, r7
 4856 0174 1C46     		mov	r4, r3
 4857              	.L1357:
 4858 0176 54F804CB 		ldr	ip, [r4], #4	@ unaligned
 4859 017a 41F804CB 		str	ip, [r1], #4	@ unaligned
 4860 017e 8142     		cmp	r1, r0
 4861 0180 F9D1     		bne	.L1357
 4862 0182 22F00301 		bic	r1, r2, #3
 4863 0186 9142     		cmp	r1, r2
 4864 0188 A2EB0100 		sub	r0, r2, r1
 4865 018c 07EB0104 		add	r4, r7, r1
 4866 0190 03EB010C 		add	ip, r3, r1
 4867 0194 B1D0     		beq	.L1346
 4868 0196 5B5C     		ldrb	r3, [r3, r1]	@ zero_extendqisi2
 4869 0198 7B54     		strb	r3, [r7, r1]
 4870 019a 0128     		cmp	r0, #1
 4871 019c ADD0     		beq	.L1346
 4872 019e 9CF80130 		ldrb	r3, [ip, #1]	@ zero_extendqisi2
 4873 01a2 6370     		strb	r3, [r4, #1]
 4874 01a4 0228     		cmp	r0, #2
 4875 01a6 A8D0     		beq	.L1346
 4876 01a8 9CF80230 		ldrb	r3, [ip, #2]	@ zero_extendqisi2
 4877 01ac A370     		strb	r3, [r4, #2]
 4878 01ae A4E7     		b	.L1346
 4879              	.L1420:
 4880 01b0 BBF1000F 		cmp	fp, #0
 4881 01b4 3FF438AF 		beq	.L1319
 4882 01b8 B8F10C0F 		cmp	r8, #12
ARM GAS  D:\Programs\cygwin64\tmp\ccQ42GcX.s 			page 86


 4883 01bc 3FF434AF 		beq	.L1319
 4884 01c0 B8F10B0F 		cmp	r8, #11
 4885 01c4 3FF430AF 		beq	.L1319
 4886 01c8 B8F10F0F 		cmp	r8, #15
 4887 01cc 3FF42CAF 		beq	.L1319
 4888              	.L1418:
 4889 01d0 DBF81000 		ldr	r0, [fp, #16]
 4890 01d4 FFF7FEFF 		bl	ff_rel_grant
 4891 01d8 4046     		mov	r0, r8
 4892 01da 07B0     		add	sp, sp, #28
 4893              		@ sp needed
 4894 01dc BDE8F08F 		pop	{r4, r5, r6, r7, r8, r9, r10, fp, pc}
 4895              	.L1329:
 4896 01e0 09BB     		cbnz	r1, .L1331
 4897 01e2 A868     		ldr	r0, [r5, #8]
 4898              	.L1332:
 4899 01e4 0128     		cmp	r0, #1
 4900 01e6 09D9     		bls	.L1340
 4901 01e8 431C     		adds	r3, r0, #1
 4902 01ea 36D0     		beq	.L1416
 4903 01ec DBF81C30 		ldr	r3, [fp, #28]
 4904 01f0 E861     		str	r0, [r5, #28]
 4905 01f2 023B     		subs	r3, r3, #2
 4906 01f4 0238     		subs	r0, r0, #2
 4907 01f6 9842     		cmp	r0, r3
 4908 01f8 FFF457AF 		bcc	.L1423
 4909              	.L1340:
 4910 01fc 4FF00208 		mov	r8, #2
 4911 0200 85F81580 		strb	r8, [r5, #21]
 4912 0204 DBF81000 		ldr	r0, [fp, #16]
 4913 0208 FFF7FEFF 		bl	ff_rel_grant
 4914 020c 4046     		mov	r0, r8
 4915 020e 07B0     		add	sp, sp, #28
 4916              		@ sp needed
 4917 0210 BDE8F08F 		pop	{r4, r5, r6, r7, r8, r9, r10, fp, pc}
 4918              	.L1356:
 4919 0214 791E     		subs	r1, r7, #1
 4920 0216 9C18     		adds	r4, r3, r2
 4921              	.L1359:
 4922 0218 13F8010B 		ldrb	r0, [r3], #1	@ zero_extendqisi2
 4923 021c 01F8010F 		strb	r0, [r1, #1]!
 4924 0220 9C42     		cmp	r4, r3
 4925 0222 F9D1     		bne	.L1359
 4926 0224 69E7     		b	.L1346
 4927              	.L1331:
 4928 0226 E96A     		ldr	r1, [r5, #44]
 4929 0228 2868     		ldr	r0, [r5]
 4930 022a 41B3     		cbz	r1, .L1333
 4931 022c 4A68     		ldr	r2, [r1, #4]
 4932 022e 4089     		ldrh	r0, [r0, #10]
 4933 0230 B3FBF0F0 		udiv	r0, r3, r0
 4934 0234 0B1D     		adds	r3, r1, #4
 4935 0236 002A     		cmp	r2, #0
 4936 0238 E0D0     		beq	.L1340
 4937 023a 9042     		cmp	r0, r2
 4938 023c 02D2     		bcs	.L1336
 4939 023e 31E0     		b	.L1335
ARM GAS  D:\Programs\cygwin64\tmp\ccQ42GcX.s 			page 87


 4940              	.L1411:
 4941 0240 8242     		cmp	r2, r0
 4942 0242 2FD8     		bhi	.L1335
 4943              	.L1336:
 4944 0244 801A     		subs	r0, r0, r2
 4945 0246 53F8082F 		ldr	r2, [r3, #8]!
 4946 024a 002A     		cmp	r2, #0
 4947 024c F8D1     		bne	.L1411
 4948 024e D5E7     		b	.L1340
 4949              	.L1422:
 4950 0250 0123     		movs	r3, #1
 4951 0252 4946     		mov	r1, r9
 4952 0254 FFF7FEFF 		bl	disk_write
 4953 0258 A8B1     		cbz	r0, .L1355
 4954              	.L1416:
 4955 025a 4FF00108 		mov	r8, #1
 4956 025e 85F81580 		strb	r8, [r5, #21]
 4957 0262 B5E7     		b	.L1418
 4958              	.L1421:
 4959 0264 BBF1000F 		cmp	fp, #0
 4960 0268 41D0     		beq	.L1363
 4961 026a DBF81000 		ldr	r0, [fp, #16]
 4962 026e FFF7FEFF 		bl	ff_rel_grant
 4963 0272 4FF00708 		mov	r8, #7
 4964 0276 D7E6     		b	.L1319
 4965              	.L1362:
 4966 0278 4FF00F08 		mov	r8, #15
 4967 027c D4E6     		b	.L1319
 4968              	.L1333:
 4969 027e E969     		ldr	r1, [r5, #28]
 4970 0280 FFF7FEFF 		bl	get_fat.isra.12
 4971 0284 AEE7     		b	.L1332
 4972              	.L1355:
 4973 0286 2B7D     		ldrb	r3, [r5, #20]	@ zero_extendqisi2
 4974 0288 03F07F03 		and	r3, r3, #127
 4975 028c 2B75     		strb	r3, [r5, #20]
 4976 028e 9BF80100 		ldrb	r0, [fp, #1]	@ zero_extendqisi2
 4977 0292 4DE7     		b	.L1354
 4978              	.L1321:
 4979 0294 2B68     		ldr	r3, [r5]
 4980 0296 002B     		cmp	r3, #0
 4981 0298 3FF4C4AE 		beq	.L1417
 4982 029c 1869     		ldr	r0, [r3, #16]
 4983 029e FFF7FEFF 		bl	ff_rel_grant
 4984 02a2 BFE6     		b	.L1417
 4985              	.L1335:
 4986 02a4 5B68     		ldr	r3, [r3, #4]
 4987 02a6 1844     		add	r0, r0, r3
 4988 02a8 9CE7     		b	.L1332
 4989              	.L1345:
 4990 02aa 2B6A     		ldr	r3, [r5, #32]
 4991 02ac 019A     		ldr	r2, [sp, #4]
 4992 02ae A3EB0808 		sub	r8, r3, r8
 4993 02b2 9045     		cmp	r8, r2
 4994 02b4 BFF41FAF 		bcs	.L1347
 4995 02b8 029A     		ldr	r2, [sp, #8]
 4996 02ba 9B1A     		subs	r3, r3, r2
ARM GAS  D:\Programs\cygwin64\tmp\ccQ42GcX.s 			page 88


 4997 02bc 039A     		ldr	r2, [sp, #12]
 4998 02be 1B1B     		subs	r3, r3, r4
 4999 02c0 9B1A     		subs	r3, r3, r2
 5000 02c2 5B02     		lsls	r3, r3, #9
 5001 02c4 191D     		adds	r1, r3, #4
 5002 02c6 3944     		add	r1, r1, r7
 5003 02c8 05F13002 		add	r2, r5, #48
 5004 02cc 8A42     		cmp	r2, r1
 5005 02ce 4FEA4828 		lsl	r8, r8, #9
 5006 02d2 3B44     		add	r3, r3, r7
 5007 02d4 02D2     		bcs	.L1364
 5008 02d6 0599     		ldr	r1, [sp, #20]
 5009 02d8 8B42     		cmp	r3, r1
 5010 02da 0BD3     		bcc	.L1348
 5011              	.L1364:
 5012 02dc 03F50070 		add	r0, r3, #512
 5013              	.L1350:
 5014 02e0 52F8041B 		ldr	r1, [r2], #4	@ unaligned
 5015 02e4 43F8041B 		str	r1, [r3], #4	@ unaligned
 5016 02e8 8342     		cmp	r3, r0
 5017 02ea F9D1     		bne	.L1350
 5018 02ec 03E7     		b	.L1347
 5019              	.L1363:
 5020 02ee 4FF00708 		mov	r8, #7
 5021 02f2 99E6     		b	.L1319
 5022              	.L1348:
 5023 02f4 08F1FF38 		add	r8, r8, #-1
 5024 02f8 07EB0803 		add	r3, r7, r8
 5025 02fc 05F50C70 		add	r0, r5, #560
 5026              	.L1351:
 5027 0300 12F8011B 		ldrb	r1, [r2], #1	@ zero_extendqisi2
 5028 0304 03F8011F 		strb	r1, [r3, #1]!
 5029 0308 9042     		cmp	r0, r2
 5030 030a F9D1     		bne	.L1351
 5031 030c F3E6     		b	.L1347
 5033 030e 00BF     		.section	.text.f_write,"ax",%progbits
 5034              		.align	1
 5035              		.p2align 2,,3
 5036              		.global	f_write
 5037              		.syntax unified
 5038              		.thumb
 5039              		.thumb_func
 5040              		.fpu fpv4-sp-d16
 5042              	f_write:
 5043              		@ args = 0, pretend = 0, frame = 24
 5044              		@ frame_needed = 0, uses_anonymous_args = 0
 5045 0000 2DE9F04F 		push	{r4, r5, r6, r7, r8, r9, r10, fp, lr}
 5046 0004 9946     		mov	r9, r3
 5047 0006 0023     		movs	r3, #0
 5048 0008 87B0     		sub	sp, sp, #28
 5049 000a C9F80030 		str	r3, [r9]
 5050 000e 50B1     		cbz	r0, .L1537
 5051 0010 0368     		ldr	r3, [r0]
 5052 0012 0446     		mov	r4, r0
 5053 0014 3BB1     		cbz	r3, .L1537
 5054 0016 1746     		mov	r7, r2
 5055 0018 1A78     		ldrb	r2, [r3]	@ zero_extendqisi2
ARM GAS  D:\Programs\cygwin64\tmp\ccQ42GcX.s 			page 89


 5056 001a 22B1     		cbz	r2, .L1537
 5057 001c 0E46     		mov	r6, r1
 5058 001e DA88     		ldrh	r2, [r3, #6]
 5059 0020 8188     		ldrh	r1, [r0, #4]
 5060 0022 9142     		cmp	r1, r2
 5061 0024 05D0     		beq	.L1538
 5062              	.L1537:
 5063 0026 4FF0090B 		mov	fp, #9
 5064              	.L1475:
 5065 002a 5846     		mov	r0, fp
 5066 002c 07B0     		add	sp, sp, #28
 5067              		@ sp needed
 5068 002e BDE8F08F 		pop	{r4, r5, r6, r7, r8, r9, r10, fp, pc}
 5069              	.L1538:
 5070 0032 1869     		ldr	r0, [r3, #16]
 5071 0034 FFF7FEFF 		bl	ff_req_grant
 5072 0038 0028     		cmp	r0, #0
 5073 003a 00F03F81 		beq	.L1472
 5074 003e 2368     		ldr	r3, [r4]
 5075 0040 5878     		ldrb	r0, [r3, #1]	@ zero_extendqisi2
 5076 0042 FFF7FEFF 		bl	disk_status
 5077 0046 C007     		lsls	r0, r0, #31
 5078 0048 00F14381 		bmi	.L1428
 5079 004c 94F815B0 		ldrb	fp, [r4, #21]	@ zero_extendqisi2
 5080 0050 D4F800A0 		ldr	r10, [r4]
 5081 0054 BBF1000F 		cmp	fp, #0
 5082 0058 40F0C580 		bne	.L1539
 5083 005c 227D     		ldrb	r2, [r4, #20]	@ zero_extendqisi2
 5084 005e 9107     		lsls	r1, r2, #30
 5085 0060 40F12281 		bpl	.L1540
 5086 0064 A369     		ldr	r3, [r4, #24]
 5087 0066 FB42     		cmn	r3, r7
 5088 0068 00D3     		bcc	.L1432
 5089 006a DF43     		mvns	r7, r3
 5090              	.L1432:
 5091 006c 002F     		cmp	r7, #0
 5092 006e 6CD0     		beq	.L1470
 5093 0070 04F13002 		add	r2, r4, #48
 5094 0074 0192     		str	r2, [sp, #4]
 5095 0076 04F50C72 		add	r2, r4, #560
 5096 007a CDE904B2 		strd	fp, r2, [sp, #16]
 5097              	.L1469:
 5098 007e C3F30802 		ubfx	r2, r3, #0, #9
 5099 0082 002A     		cmp	r2, #0
 5100 0084 74D1     		bne	.L1434
 5101 0086 BAF80A80 		ldrh	r8, [r10, #10]
 5102 008a 580A     		lsrs	r0, r3, #9
 5103 008c 08F1FF38 		add	r8, r8, #-1
 5104 0090 18EA0008 		ands	r8, r8, r0
 5105 0094 10D1     		bne	.L1436
 5106 0096 002B     		cmp	r3, #0
 5107 0098 40F0D280 		bne	.L1437
 5108 009c A068     		ldr	r0, [r4, #8]
 5109 009e 0028     		cmp	r0, #0
 5110 00a0 00F01F81 		beq	.L1541
 5111              	.L1438:
 5112 00a4 0128     		cmp	r0, #1
ARM GAS  D:\Programs\cygwin64\tmp\ccQ42GcX.s 			page 90


 5113 00a6 00F0B680 		beq	.L1450
 5114 00aa 431C     		adds	r3, r0, #1
 5115 00ac 00F0F080 		beq	.L1463
 5116 00b0 A368     		ldr	r3, [r4, #8]
 5117 00b2 E061     		str	r0, [r4, #28]
 5118 00b4 03B9     		cbnz	r3, .L1436
 5119 00b6 A060     		str	r0, [r4, #8]
 5120              	.L1436:
 5121 00b8 94F91430 		ldrsb	r3, [r4, #20]
 5122 00bc 002B     		cmp	r3, #0
 5123 00be C0F2DA80 		blt	.L1542
 5124              	.L1448:
 5125 00c2 E369     		ldr	r3, [r4, #28]
 5126 00c4 DAF81C20 		ldr	r2, [r10, #28]
 5127 00c8 023B     		subs	r3, r3, #2
 5128 00ca 023A     		subs	r2, r2, #2
 5129 00cc 9342     		cmp	r3, r2
 5130 00ce 80F0A280 		bcs	.L1450
 5131 00d2 BAF80A20 		ldrh	r2, [r10, #10]
 5132 00d6 DAF83010 		ldr	r1, [r10, #48]
 5133 00da 0291     		str	r1, [sp, #8]
 5134 00dc 02FB03F3 		mul	r3, r2, r3
 5135 00e0 11EB030B 		adds	fp, r1, r3
 5136 00e4 0393     		str	r3, [sp, #12]
 5137 00e6 00F09680 		beq	.L1450
 5138 00ea B7F5007F 		cmp	r7, #512
 5139 00ee C344     		add	fp, fp, r8
 5140 00f0 32D3     		bcc	.L1452
 5141 00f2 7D0A     		lsrs	r5, r7, #9
 5142 00f4 08EB0503 		add	r3, r8, r5
 5143 00f8 9342     		cmp	r3, r2
 5144 00fa 88BF     		it	hi
 5145 00fc A2EB0805 		subhi	r5, r2, r8
 5146 0100 2B46     		mov	r3, r5
 5147 0102 5A46     		mov	r2, fp
 5148 0104 3146     		mov	r1, r6
 5149 0106 9AF80100 		ldrb	r0, [r10, #1]	@ zero_extendqisi2
 5150 010a FFF7FEFF 		bl	disk_write
 5151 010e 0028     		cmp	r0, #0
 5152 0110 40F0BE80 		bne	.L1463
 5153 0114 236A     		ldr	r3, [r4, #32]
 5154 0116 A3EB0B0B 		sub	fp, r3, fp
 5155 011a AB45     		cmp	fp, r5
 5156 011c C0F0FA80 		bcc	.L1543
 5157              	.L1455:
 5158 0120 6D02     		lsls	r5, r5, #9
 5159 0122 7019     		adds	r0, r6, r5
 5160              	.L1461:
 5161 0124 A369     		ldr	r3, [r4, #24]
 5162 0126 E268     		ldr	r2, [r4, #12]
 5163 0128 D9F80010 		ldr	r1, [r9]
 5164 012c 2B44     		add	r3, r3, r5
 5165 012e 9A42     		cmp	r2, r3
 5166 0130 38BF     		it	cc
 5167 0132 1A46     		movcc	r2, r3
 5168 0134 2944     		add	r1, r1, r5
 5169 0136 7F1B     		subs	r7, r7, r5
ARM GAS  D:\Programs\cygwin64\tmp\ccQ42GcX.s 			page 91


 5170 0138 C9F80010 		str	r1, [r9]
 5171 013c 0646     		mov	r6, r0
 5172 013e E260     		str	r2, [r4, #12]
 5173 0140 A361     		str	r3, [r4, #24]
 5174 0142 9CD1     		bne	.L1469
 5175 0144 DDF810B0 		ldr	fp, [sp, #16]
 5176 0148 227D     		ldrb	r2, [r4, #20]	@ zero_extendqisi2
 5177              	.L1470:
 5178 014a 42F04002 		orr	r2, r2, #64
 5179 014e 2275     		strb	r2, [r4, #20]
 5180 0150 BAF1000F 		cmp	r10, #0
 5181 0154 57D1     		bne	.L1471
 5182 0156 68E7     		b	.L1475
 5183              	.L1452:
 5184 0158 236A     		ldr	r3, [r4, #32]
 5185 015a A269     		ldr	r2, [r4, #24]
 5186 015c 5B45     		cmp	r3, fp
 5187 015e 03D0     		beq	.L1462
 5188 0160 E368     		ldr	r3, [r4, #12]
 5189 0162 9342     		cmp	r3, r2
 5190 0164 00F2CB80 		bhi	.L1544
 5191              	.L1462:
 5192 0168 C4F820B0 		str	fp, [r4, #32]
 5193 016c C2F30802 		ubfx	r2, r2, #0, #9
 5194              	.L1434:
 5195 0170 019B     		ldr	r3, [sp, #4]
 5196 0172 C2F50075 		rsb	r5, r2, #512
 5197 0176 111D     		adds	r1, r2, #4
 5198 0178 1944     		add	r1, r1, r3
 5199 017a 1A44     		add	r2, r2, r3
 5200 017c BD42     		cmp	r5, r7
 5201 017e 06F10403 		add	r3, r6, #4
 5202 0182 28BF     		it	cs
 5203 0184 3D46     		movcs	r5, r7
 5204 0186 9A42     		cmp	r2, r3
 5205 0188 38BF     		it	cc
 5206 018a 8E42     		cmpcc	r6, r1
 5207 018c 4FD3     		bcc	.L1464
 5208 018e 6B1E     		subs	r3, r5, #1
 5209 0190 072B     		cmp	r3, #7
 5210 0192 4CD9     		bls	.L1464
 5211 0194 25F00301 		bic	r1, r5, #3
 5212 0198 1144     		add	r1, r1, r2
 5213 019a 1346     		mov	r3, r2
 5214 019c 3046     		mov	r0, r6
 5215              	.L1465:
 5216 019e 50F804CB 		ldr	ip, [r0], #4	@ unaligned
 5217 01a2 43F804CB 		str	ip, [r3], #4	@ unaligned
 5218 01a6 8B42     		cmp	r3, r1
 5219 01a8 F9D1     		bne	.L1465
 5220 01aa 25F00303 		bic	r3, r5, #3
 5221 01ae 9D42     		cmp	r5, r3
 5222 01b0 A5EB0301 		sub	r1, r5, r3
 5223 01b4 02EB030C 		add	ip, r2, r3
 5224 01b8 06EB0300 		add	r0, r6, r3
 5225 01bc 0ED0     		beq	.L1468
 5226 01be 16F803E0 		ldrb	lr, [r6, r3]	@ zero_extendqisi2
ARM GAS  D:\Programs\cygwin64\tmp\ccQ42GcX.s 			page 92


 5227 01c2 02F803E0 		strb	lr, [r2, r3]
 5228 01c6 0129     		cmp	r1, #1
 5229 01c8 07D0     		beq	.L1536
 5230 01ca 4378     		ldrb	r3, [r0, #1]	@ zero_extendqisi2
 5231 01cc 8CF80130 		strb	r3, [ip, #1]
 5232 01d0 0229     		cmp	r1, #2
 5233 01d2 1CBF     		itt	ne
 5234 01d4 8378     		ldrbne	r3, [r0, #2]	@ zero_extendqisi2
 5235 01d6 8CF80230 		strbne	r3, [ip, #2]
 5236              	.L1536:
 5237 01da 7019     		adds	r0, r6, r5
 5238              	.L1468:
 5239 01dc 237D     		ldrb	r3, [r4, #20]	@ zero_extendqisi2
 5240 01de 63F07F03 		orn	r3, r3, #127
 5241 01e2 2375     		strb	r3, [r4, #20]
 5242 01e4 9EE7     		b	.L1461
 5243              	.L1539:
 5244 01e6 BAF1000F 		cmp	r10, #0
 5245 01ea 3FF41EAF 		beq	.L1475
 5246 01ee BBF10C0F 		cmp	fp, #12
 5247 01f2 3FF41AAF 		beq	.L1475
 5248 01f6 BBF10B0F 		cmp	fp, #11
 5249 01fa 3FF416AF 		beq	.L1475
 5250 01fe BBF10F0F 		cmp	fp, #15
 5251 0202 3FF412AF 		beq	.L1475
 5252              	.L1471:
 5253 0206 DAF81000 		ldr	r0, [r10, #16]
 5254 020a FFF7FEFF 		bl	ff_rel_grant
 5255 020e 5846     		mov	r0, fp
 5256 0210 07B0     		add	sp, sp, #28
 5257              		@ sp needed
 5258 0212 BDE8F08F 		pop	{r4, r5, r6, r7, r8, r9, r10, fp, pc}
 5259              	.L1450:
 5260 0216 4FF0020B 		mov	fp, #2
 5261 021a 84F815B0 		strb	fp, [r4, #21]
 5262 021e DAF81000 		ldr	r0, [r10, #16]
 5263 0222 FFF7FEFF 		bl	ff_rel_grant
 5264 0226 5846     		mov	r0, fp
 5265 0228 07B0     		add	sp, sp, #28
 5266              		@ sp needed
 5267 022a BDE8F08F 		pop	{r4, r5, r6, r7, r8, r9, r10, fp, pc}
 5268              	.L1464:
 5269 022e 531E     		subs	r3, r2, #1
 5270 0230 7019     		adds	r0, r6, r5
 5271              	.L1467:
 5272 0232 16F8012B 		ldrb	r2, [r6], #1	@ zero_extendqisi2
 5273 0236 03F8012F 		strb	r2, [r3, #1]!
 5274 023a B042     		cmp	r0, r6
 5275 023c F9D1     		bne	.L1467
 5276 023e CDE7     		b	.L1468
 5277              	.L1437:
 5278 0240 E26A     		ldr	r2, [r4, #44]
 5279 0242 002A     		cmp	r2, #0
 5280 0244 3DD0     		beq	.L1440
 5281 0246 2168     		ldr	r1, [r4]
 5282 0248 5368     		ldr	r3, [r2, #4]
 5283 024a 4989     		ldrh	r1, [r1, #10]
ARM GAS  D:\Programs\cygwin64\tmp\ccQ42GcX.s 			page 93


 5284 024c B0FBF1F0 		udiv	r0, r0, r1
 5285 0250 0432     		adds	r2, r2, #4
 5286 0252 4BB1     		cbz	r3, .L1534
 5287 0254 9842     		cmp	r0, r3
 5288 0256 02D2     		bcs	.L1443
 5289 0258 4BE0     		b	.L1442
 5290              	.L1527:
 5291 025a 8342     		cmp	r3, r0
 5292 025c 49D8     		bhi	.L1442
 5293              	.L1443:
 5294 025e C01A     		subs	r0, r0, r3
 5295 0260 52F8083F 		ldr	r3, [r2, #8]!
 5296 0264 002B     		cmp	r3, #0
 5297 0266 F8D1     		bne	.L1527
 5298              	.L1534:
 5299 0268 237D     		ldrb	r3, [r4, #20]	@ zero_extendqisi2
 5300 026a DDF810B0 		ldr	fp, [sp, #16]
 5301 026e 43F04003 		orr	r3, r3, #64
 5302 0272 2375     		strb	r3, [r4, #20]
 5303 0274 C7E7     		b	.L1471
 5304              	.L1542:
 5305 0276 0123     		movs	r3, #1
 5306 0278 226A     		ldr	r2, [r4, #32]
 5307 027a 9AF80100 		ldrb	r0, [r10, #1]	@ zero_extendqisi2
 5308 027e 0199     		ldr	r1, [sp, #4]
 5309 0280 FFF7FEFF 		bl	disk_write
 5310 0284 20B9     		cbnz	r0, .L1463
 5311 0286 237D     		ldrb	r3, [r4, #20]	@ zero_extendqisi2
 5312 0288 03F07F03 		and	r3, r3, #127
 5313 028c 2375     		strb	r3, [r4, #20]
 5314 028e 18E7     		b	.L1448
 5315              	.L1463:
 5316 0290 4FF0010B 		mov	fp, #1
 5317 0294 84F815B0 		strb	fp, [r4, #21]
 5318 0298 DAF81000 		ldr	r0, [r10, #16]
 5319 029c FFF7FEFF 		bl	ff_rel_grant
 5320 02a0 5846     		mov	r0, fp
 5321 02a2 07B0     		add	sp, sp, #28
 5322              		@ sp needed
 5323 02a4 BDE8F08F 		pop	{r4, r5, r6, r7, r8, r9, r10, fp, pc}
 5324              	.L1540:
 5325 02a8 BAF1000F 		cmp	r10, #0
 5326 02ac 52D0     		beq	.L1473
 5327 02ae DAF81000 		ldr	r0, [r10, #16]
 5328 02b2 FFF7FEFF 		bl	ff_rel_grant
 5329 02b6 4FF0070B 		mov	fp, #7
 5330 02ba B6E6     		b	.L1475
 5331              	.L1472:
 5332 02bc 4FF00F0B 		mov	fp, #15
 5333 02c0 B3E6     		b	.L1475
 5334              	.L1440:
 5335 02c2 E169     		ldr	r1, [r4, #28]
 5336 02c4 2046     		mov	r0, r4
 5337 02c6 FFF7FEFF 		bl	create_chain
 5338 02ca 0028     		cmp	r0, #0
 5339 02cc 7FF4EAAE 		bne	.L1438
 5340 02d0 CAE7     		b	.L1534
ARM GAS  D:\Programs\cygwin64\tmp\ccQ42GcX.s 			page 94


 5341              	.L1428:
 5342 02d2 2368     		ldr	r3, [r4]
 5343 02d4 002B     		cmp	r3, #0
 5344 02d6 3FF4A6AE 		beq	.L1537
 5345 02da 1869     		ldr	r0, [r3, #16]
 5346 02dc FFF7FEFF 		bl	ff_rel_grant
 5347 02e0 A1E6     		b	.L1537
 5348              	.L1541:
 5349 02e2 4146     		mov	r1, r8
 5350 02e4 2046     		mov	r0, r4
 5351 02e6 FFF7FEFF 		bl	create_chain
 5352 02ea 0028     		cmp	r0, #0
 5353 02ec 7FF4DAAE 		bne	.L1438
 5354 02f0 BAE7     		b	.L1534
 5355              	.L1442:
 5356 02f2 5368     		ldr	r3, [r2, #4]
 5357 02f4 1844     		add	r0, r0, r3
 5358 02f6 0028     		cmp	r0, #0
 5359 02f8 7FF4D4AE 		bne	.L1438
 5360 02fc B4E7     		b	.L1534
 5361              	.L1544:
 5362 02fe 0123     		movs	r3, #1
 5363 0300 5A46     		mov	r2, fp
 5364 0302 0199     		ldr	r1, [sp, #4]
 5365 0304 9AF80100 		ldrb	r0, [r10, #1]	@ zero_extendqisi2
 5366 0308 FFF7FEFF 		bl	disk_read
 5367 030c 0028     		cmp	r0, #0
 5368 030e BFD1     		bne	.L1463
 5369 0310 A269     		ldr	r2, [r4, #24]
 5370 0312 29E7     		b	.L1462
 5371              	.L1543:
 5372 0314 029A     		ldr	r2, [sp, #8]
 5373 0316 0199     		ldr	r1, [sp, #4]
 5374 0318 9B1A     		subs	r3, r3, r2
 5375 031a 039A     		ldr	r2, [sp, #12]
 5376 031c 9B1A     		subs	r3, r3, r2
 5377 031e A3EB0803 		sub	r3, r3, r8
 5378 0322 5B02     		lsls	r3, r3, #9
 5379 0324 1A1D     		adds	r2, r3, #4
 5380 0326 3244     		add	r2, r2, r6
 5381 0328 9142     		cmp	r1, r2
 5382 032a 06EB4B2B 		add	fp, r6, fp, lsl #9
 5383 032e 3344     		add	r3, r3, r6
 5384 0330 03D2     		bcs	.L1474
 5385 0332 04F13402 		add	r2, r4, #52
 5386 0336 9342     		cmp	r3, r2
 5387 0338 0FD3     		bcc	.L1456
 5388              	.L1474:
 5389 033a 019A     		ldr	r2, [sp, #4]
 5390 033c 0598     		ldr	r0, [sp, #20]
 5391              	.L1458:
 5392 033e 53F8041B 		ldr	r1, [r3], #4	@ unaligned
 5393 0342 42F8041B 		str	r1, [r2], #4	@ unaligned
 5394 0346 8242     		cmp	r2, r0
 5395 0348 F9D1     		bne	.L1458
 5396              	.L1459:
 5397 034a 237D     		ldrb	r3, [r4, #20]	@ zero_extendqisi2
ARM GAS  D:\Programs\cygwin64\tmp\ccQ42GcX.s 			page 95


 5398 034c 03F07F03 		and	r3, r3, #127
 5399 0350 2375     		strb	r3, [r4, #20]
 5400 0352 E5E6     		b	.L1455
 5401              	.L1473:
 5402 0354 4FF0070B 		mov	fp, #7
 5403 0358 67E6     		b	.L1475
 5404              	.L1456:
 5405 035a 04F12F03 		add	r3, r4, #47
 5406 035e 0BF50071 		add	r1, fp, #512
 5407              	.L1460:
 5408 0362 1BF8012B 		ldrb	r2, [fp], #1	@ zero_extendqisi2
 5409 0366 03F8012F 		strb	r2, [r3, #1]!
 5410 036a 5945     		cmp	r1, fp
 5411 036c F9D1     		bne	.L1460
 5412 036e ECE7     		b	.L1459
 5414              		.section	.text.f_sync,"ax",%progbits
 5415              		.align	1
 5416              		.p2align 2,,3
 5417              		.global	f_sync
 5418              		.syntax unified
 5419              		.thumb
 5420              		.thumb_func
 5421              		.fpu fpv4-sp-d16
 5423              	f_sync:
 5424              		@ args = 0, pretend = 0, frame = 0
 5425              		@ frame_needed = 0, uses_anonymous_args = 0
 5426 0000 F8B5     		push	{r3, r4, r5, r6, r7, lr}
 5427 0002 38B1     		cbz	r0, .L1585
 5428 0004 0368     		ldr	r3, [r0]
 5429 0006 2BB1     		cbz	r3, .L1585
 5430 0008 1A78     		ldrb	r2, [r3]	@ zero_extendqisi2
 5431 000a 1AB1     		cbz	r2, .L1585
 5432 000c 8188     		ldrh	r1, [r0, #4]
 5433 000e DA88     		ldrh	r2, [r3, #6]
 5434 0010 9142     		cmp	r1, r2
 5435 0012 02D0     		beq	.L1586
 5436              	.L1585:
 5437 0014 0924     		movs	r4, #9
 5438              	.L1564:
 5439 0016 2046     		mov	r0, r4
 5440 0018 F8BD     		pop	{r3, r4, r5, r6, r7, pc}
 5441              	.L1586:
 5442 001a 0546     		mov	r5, r0
 5443 001c 1869     		ldr	r0, [r3, #16]
 5444 001e FFF7FEFF 		bl	ff_req_grant
 5445 0022 0028     		cmp	r0, #0
 5446 0024 59D0     		beq	.L1561
 5447 0026 2B68     		ldr	r3, [r5]
 5448 0028 5878     		ldrb	r0, [r3, #1]	@ zero_extendqisi2
 5449 002a FFF7FEFF 		bl	disk_status
 5450 002e C207     		lsls	r2, r0, #31
 5451 0030 56D4     		bmi	.L1550
 5452 0032 2B7D     		ldrb	r3, [r5, #20]	@ zero_extendqisi2
 5453 0034 2E68     		ldr	r6, [r5]
 5454 0036 13F04004 		ands	r4, r3, #64
 5455 003a 06D1     		bne	.L1551
 5456 003c 002E     		cmp	r6, #0
ARM GAS  D:\Programs\cygwin64\tmp\ccQ42GcX.s 			page 96


 5457 003e 68D0     		beq	.L1587
 5458              	.L1553:
 5459 0040 3069     		ldr	r0, [r6, #16]
 5460 0042 FFF7FEFF 		bl	ff_rel_grant
 5461 0046 2046     		mov	r0, r4
 5462 0048 F8BD     		pop	{r3, r4, r5, r6, r7, pc}
 5463              	.L1551:
 5464 004a 1B06     		lsls	r3, r3, #24
 5465 004c 4FD4     		bmi	.L1588
 5466              	.L1554:
 5467 004e FFF7FEFF 		bl	get_fattime
 5468 0052 696A     		ldr	r1, [r5, #36]
 5469 0054 736B     		ldr	r3, [r6, #52]
 5470 0056 9942     		cmp	r1, r3
 5471 0058 0746     		mov	r7, r0
 5472 005a 04D0     		beq	.L1559
 5473 005c 3046     		mov	r0, r6
 5474 005e FFF7FEFF 		bl	move_window.part.9
 5475 0062 0446     		mov	r4, r0
 5476 0064 98BB     		cbnz	r0, .L1560
 5477              	.L1559:
 5478 0066 AB6A     		ldr	r3, [r5, #40]
 5479 0068 DA7A     		ldrb	r2, [r3, #11]	@ zero_extendqisi2
 5480 006a 42F02002 		orr	r2, r2, #32
 5481 006e DA72     		strb	r2, [r3, #11]
 5482 0070 AA68     		ldr	r2, [r5, #8]
 5483 0072 2968     		ldr	r1, [r5]
 5484 0074 9A76     		strb	r2, [r3, #26]
 5485 0076 C2F30720 		ubfx	r0, r2, #8, #8
 5486 007a D876     		strb	r0, [r3, #27]
 5487 007c 0978     		ldrb	r1, [r1]	@ zero_extendqisi2
 5488 007e 0329     		cmp	r1, #3
 5489 0080 03D1     		bne	.L1558
 5490 0082 120C     		lsrs	r2, r2, #16
 5491 0084 110A     		lsrs	r1, r2, #8
 5492 0086 1A75     		strb	r2, [r3, #20]
 5493 0088 5975     		strb	r1, [r3, #21]
 5494              	.L1558:
 5495 008a EA68     		ldr	r2, [r5, #12]
 5496 008c 9F75     		strb	r7, [r3, #22]
 5497 008e 0021     		movs	r1, #0
 5498 0090 100A     		lsrs	r0, r2, #8
 5499 0092 62F30701 		bfi	r1, r2, #0, #8
 5500 0096 60F30F21 		bfi	r1, r0, #8, #8
 5501 009a 100C     		lsrs	r0, r2, #16
 5502 009c 60F31741 		bfi	r1, r0, #16, #8
 5503 00a0 120E     		lsrs	r2, r2, #24
 5504 00a2 62F31F61 		bfi	r1, r2, #24, #8
 5505 00a6 D961     		str	r1, [r3, #28]	@ unaligned
 5506 00a8 3C0A     		lsrs	r4, r7, #8
 5507 00aa 380C     		lsrs	r0, r7, #16
 5508 00ac 0022     		movs	r2, #0
 5509 00ae 0121     		movs	r1, #1
 5510 00b0 3F0E     		lsrs	r7, r7, #24
 5511 00b2 DC75     		strb	r4, [r3, #23]
 5512 00b4 1876     		strb	r0, [r3, #24]
 5513 00b6 5F76     		strb	r7, [r3, #25]
ARM GAS  D:\Programs\cygwin64\tmp\ccQ42GcX.s 			page 97


 5514 00b8 9A74     		strb	r2, [r3, #18]
 5515 00ba DA74     		strb	r2, [r3, #19]
 5516 00bc 3046     		mov	r0, r6
 5517 00be F170     		strb	r1, [r6, #3]
 5518 00c0 FFF7FEFF 		bl	sync_fs
 5519 00c4 2B7D     		ldrb	r3, [r5, #20]	@ zero_extendqisi2
 5520 00c6 23F04003 		bic	r3, r3, #64
 5521 00ca 0446     		mov	r4, r0
 5522 00cc 2B75     		strb	r3, [r5, #20]
 5523              	.L1560:
 5524 00ce 0C2C     		cmp	r4, #12
 5525 00d0 A1D0     		beq	.L1564
 5526 00d2 0B2C     		cmp	r4, #11
 5527 00d4 9FD0     		beq	.L1564
 5528 00d6 0F2C     		cmp	r4, #15
 5529 00d8 B2D1     		bne	.L1553
 5530              	.L1561:
 5531 00da 0F24     		movs	r4, #15
 5532 00dc 2046     		mov	r0, r4
 5533 00de F8BD     		pop	{r3, r4, r5, r6, r7, pc}
 5534              	.L1550:
 5535 00e0 2B68     		ldr	r3, [r5]
 5536 00e2 002B     		cmp	r3, #0
 5537 00e4 96D0     		beq	.L1585
 5538 00e6 1869     		ldr	r0, [r3, #16]
 5539 00e8 FFF7FEFF 		bl	ff_rel_grant
 5540 00ec 92E7     		b	.L1585
 5541              	.L1588:
 5542 00ee 0123     		movs	r3, #1
 5543 00f0 2A6A     		ldr	r2, [r5, #32]
 5544 00f2 7078     		ldrb	r0, [r6, #1]	@ zero_extendqisi2
 5545 00f4 05F13001 		add	r1, r5, #48
 5546 00f8 FFF7FEFF 		bl	disk_write
 5547 00fc 20B9     		cbnz	r0, .L1589
 5548 00fe 2B7D     		ldrb	r3, [r5, #20]	@ zero_extendqisi2
 5549 0100 03F07F03 		and	r3, r3, #127
 5550 0104 2B75     		strb	r3, [r5, #20]
 5551 0106 A2E7     		b	.L1554
 5552              	.L1589:
 5553 0108 3069     		ldr	r0, [r6, #16]
 5554 010a FFF7FEFF 		bl	ff_rel_grant
 5555 010e 0124     		movs	r4, #1
 5556 0110 81E7     		b	.L1564
 5557              	.L1587:
 5558 0112 3446     		mov	r4, r6
 5559 0114 7FE7     		b	.L1564
 5561 0116 00BF     		.section	.text.f_close,"ax",%progbits
 5562              		.align	1
 5563              		.p2align 2,,3
 5564              		.global	f_close
 5565              		.syntax unified
 5566              		.thumb
 5567              		.thumb_func
 5568              		.fpu fpv4-sp-d16
 5570              	f_close:
 5571              		@ args = 0, pretend = 0, frame = 0
 5572              		@ frame_needed = 0, uses_anonymous_args = 0
ARM GAS  D:\Programs\cygwin64\tmp\ccQ42GcX.s 			page 98


 5573 0000 70B5     		push	{r4, r5, r6, lr}
 5574 0002 0546     		mov	r5, r0
 5575 0004 FFF7FEFF 		bl	f_sync
 5576 0008 0446     		mov	r4, r0
 5577 000a 08B1     		cbz	r0, .L1620
 5578              	.L1591:
 5579 000c 2046     		mov	r0, r4
 5580 000e 70BD     		pop	{r4, r5, r6, pc}
 5581              	.L1620:
 5582 0010 3DB1     		cbz	r5, .L1619
 5583 0012 2B68     		ldr	r3, [r5]
 5584 0014 2BB1     		cbz	r3, .L1619
 5585 0016 1A78     		ldrb	r2, [r3]	@ zero_extendqisi2
 5586 0018 1AB1     		cbz	r2, .L1619
 5587 001a A988     		ldrh	r1, [r5, #4]
 5588 001c DA88     		ldrh	r2, [r3, #6]
 5589 001e 9142     		cmp	r1, r2
 5590 0020 02D0     		beq	.L1621
 5591              	.L1619:
 5592 0022 0924     		movs	r4, #9
 5593 0024 2046     		mov	r0, r4
 5594 0026 70BD     		pop	{r4, r5, r6, pc}
 5595              	.L1621:
 5596 0028 1869     		ldr	r0, [r3, #16]
 5597 002a FFF7FEFF 		bl	ff_req_grant
 5598 002e 0028     		cmp	r0, #0
 5599 0030 2DD0     		beq	.L1602
 5600 0032 2B68     		ldr	r3, [r5]
 5601 0034 5878     		ldrb	r0, [r3, #1]	@ zero_extendqisi2
 5602 0036 FFF7FEFF 		bl	disk_status
 5603 003a C307     		lsls	r3, r0, #31
 5604 003c 06D5     		bpl	.L1622
 5605 003e 2B68     		ldr	r3, [r5]
 5606 0040 002B     		cmp	r3, #0
 5607 0042 EED0     		beq	.L1619
 5608 0044 1869     		ldr	r0, [r3, #16]
 5609 0046 FFF7FEFF 		bl	ff_rel_grant
 5610 004a EAE7     		b	.L1619
 5611              	.L1622:
 5612 004c 2B69     		ldr	r3, [r5, #16]
 5613 004e 2A68     		ldr	r2, [r5]
 5614 0050 013B     		subs	r3, r3, #1
 5615 0052 012B     		cmp	r3, #1
 5616 0054 15D8     		bhi	.L1623
 5617 0056 0F48     		ldr	r0, .L1625
 5618 0058 1B01     		lsls	r3, r3, #4
 5619 005a C618     		adds	r6, r0, r3
 5620 005c B189     		ldrh	r1, [r6, #12]
 5621 005e B1F5807F 		cmp	r1, #256
 5622 0062 10D0     		beq	.L1624
 5623 0064 81B1     		cbz	r1, .L1598
 5624 0066 0139     		subs	r1, r1, #1
 5625 0068 C618     		adds	r6, r0, r3
 5626 006a 89B2     		uxth	r1, r1
 5627 006c B181     		strh	r1, [r6, #12]	@ movhi
 5628 006e 59B1     		cbz	r1, .L1598
 5629              	.L1601:
ARM GAS  D:\Programs\cygwin64\tmp\ccQ42GcX.s 			page 99


 5630 0070 0023     		movs	r3, #0
 5631 0072 2B60     		str	r3, [r5]
 5632              	.L1596:
 5633 0074 002A     		cmp	r2, #0
 5634 0076 C9D0     		beq	.L1591
 5635 0078 1069     		ldr	r0, [r2, #16]
 5636 007a FFF7FEFF 		bl	ff_rel_grant
 5637 007e 2046     		mov	r0, r4
 5638 0080 70BD     		pop	{r4, r5, r6, pc}
 5639              	.L1623:
 5640 0082 0224     		movs	r4, #2
 5641 0084 F6E7     		b	.L1596
 5642              	.L1624:
 5643 0086 B481     		strh	r4, [r6, #12]	@ movhi
 5644              	.L1598:
 5645 0088 0021     		movs	r1, #0
 5646 008a C150     		str	r1, [r0, r3]
 5647 008c F0E7     		b	.L1601
 5648              	.L1602:
 5649 008e 0F24     		movs	r4, #15
 5650 0090 BCE7     		b	.L1591
 5651              	.L1626:
 5652 0092 00BF     		.align	2
 5653              	.L1625:
 5654 0094 00000000 		.word	.LANCHOR2
 5656              		.section	.text.f_lseek,"ax",%progbits
 5657              		.align	1
 5658              		.p2align 2,,3
 5659              		.global	f_lseek
 5660              		.syntax unified
 5661              		.thumb
 5662              		.thumb_func
 5663              		.fpu fpv4-sp-d16
 5665              	f_lseek:
 5666              		@ args = 0, pretend = 0, frame = 8
 5667              		@ frame_needed = 0, uses_anonymous_args = 0
 5668 0000 2DE9F04F 		push	{r4, r5, r6, r7, r8, r9, r10, fp, lr}
 5669 0004 83B0     		sub	sp, sp, #12
 5670 0006 48B1     		cbz	r0, .L1737
 5671 0008 0368     		ldr	r3, [r0]
 5672 000a 0446     		mov	r4, r0
 5673 000c 33B1     		cbz	r3, .L1737
 5674 000e 1A78     		ldrb	r2, [r3]	@ zero_extendqisi2
 5675 0010 22B1     		cbz	r2, .L1737
 5676 0012 0D46     		mov	r5, r1
 5677 0014 DA88     		ldrh	r2, [r3, #6]
 5678 0016 8188     		ldrh	r1, [r0, #4]
 5679 0018 9142     		cmp	r1, r2
 5680 001a 04D0     		beq	.L1739
 5681              	.L1737:
 5682 001c 0926     		movs	r6, #9
 5683              	.L1690:
 5684 001e 3046     		mov	r0, r6
 5685 0020 03B0     		add	sp, sp, #12
 5686              		@ sp needed
 5687 0022 BDE8F08F 		pop	{r4, r5, r6, r7, r8, r9, r10, fp, pc}
 5688              	.L1739:
ARM GAS  D:\Programs\cygwin64\tmp\ccQ42GcX.s 			page 100


 5689 0026 1869     		ldr	r0, [r3, #16]
 5690 0028 FFF7FEFF 		bl	ff_req_grant
 5691 002c 0028     		cmp	r0, #0
 5692 002e 00F0EE80 		beq	.L1681
 5693 0032 2368     		ldr	r3, [r4]
 5694 0034 5878     		ldrb	r0, [r3, #1]	@ zero_extendqisi2
 5695 0036 FFF7FEFF 		bl	disk_status
 5696 003a C007     		lsls	r0, r0, #31
 5697 003c 00F1F480 		bmi	.L1631
 5698 0040 667D     		ldrb	r6, [r4, #21]	@ zero_extendqisi2
 5699 0042 2768     		ldr	r7, [r4]
 5700 0044 002E     		cmp	r6, #0
 5701 0046 40F07781 		bne	.L1740
 5702 004a E26A     		ldr	r2, [r4, #44]
 5703 004c 002A     		cmp	r2, #0
 5704 004e 5CD0     		beq	.L1634
 5705 0050 691C     		adds	r1, r5, #1
 5706 0052 00F0AF80 		beq	.L1741
 5707 0056 E368     		ldr	r3, [r4, #12]
 5708 0058 9D42     		cmp	r5, r3
 5709 005a 28BF     		it	cs
 5710 005c 1D46     		movcs	r5, r3
 5711 005e A561     		str	r5, [r4, #24]
 5712 0060 002D     		cmp	r5, #0
 5713 0062 4CD0     		beq	.L1646
 5714 0064 5368     		ldr	r3, [r2, #4]
 5715 0066 7989     		ldrh	r1, [r7, #10]
 5716 0068 05F1FF3C 		add	ip, r5, #-1
 5717 006c 4FEA5C2C 		lsr	ip, ip, #9
 5718 0070 0432     		adds	r2, r2, #4
 5719 0072 BCFBF1F0 		udiv	r0, ip, r1
 5720 0076 53B1     		cbz	r3, .L1687
 5721 0078 9842     		cmp	r0, r3
 5722 007a 03D2     		bcs	.L1650
 5723 007c C3E0     		b	.L1649
 5724              	.L1733:
 5725 007e 8342     		cmp	r3, r0
 5726 0080 00F2C180 		bhi	.L1649
 5727              	.L1650:
 5728 0084 C01A     		subs	r0, r0, r3
 5729 0086 52F8083F 		ldr	r3, [r2, #8]!
 5730 008a 002B     		cmp	r3, #0
 5731 008c F7D1     		bne	.L1733
 5732              	.L1687:
 5733 008e 6FF00102 		mvn	r2, #1
 5734              	.L1648:
 5735 0092 F869     		ldr	r0, [r7, #28]
 5736 0094 E361     		str	r3, [r4, #28]
 5737 0096 831E     		subs	r3, r0, #2
 5738 0098 9342     		cmp	r3, r2
 5739 009a 40F2AE80 		bls	.L1669
 5740 009e 3B6B     		ldr	r3, [r7, #48]
 5741 00a0 02FB0133 		mla	r3, r2, r1, r3
 5742 00a4 002B     		cmp	r3, #0
 5743 00a6 00F0A880 		beq	.L1669
 5744 00aa C5F30805 		ubfx	r5, r5, #0, #9
 5745 00ae C5B1     		cbz	r5, .L1738
ARM GAS  D:\Programs\cygwin64\tmp\ccQ42GcX.s 			page 101


 5746 00b0 0139     		subs	r1, r1, #1
 5747 00b2 01EA0C0C 		and	ip, r1, ip
 5748 00b6 226A     		ldr	r2, [r4, #32]
 5749 00b8 0CEB0305 		add	r5, ip, r3
 5750 00bc AA42     		cmp	r2, r5
 5751 00be 10D0     		beq	.L1738
 5752 00c0 94F91430 		ldrsb	r3, [r4, #20]
 5753 00c4 7878     		ldrb	r0, [r7, #1]	@ zero_extendqisi2
 5754 00c6 002B     		cmp	r3, #0
 5755 00c8 04F13008 		add	r8, r4, #48
 5756 00cc C0F22481 		blt	.L1742
 5757              	.L1655:
 5758 00d0 4146     		mov	r1, r8
 5759 00d2 0123     		movs	r3, #1
 5760 00d4 2A46     		mov	r2, r5
 5761 00d6 FFF7FEFF 		bl	disk_read
 5762 00da 0028     		cmp	r0, #0
 5763 00dc 40F0EE80 		bne	.L1678
 5764 00e0 2562     		str	r5, [r4, #32]
 5765              	.L1738:
 5766 00e2 3869     		ldr	r0, [r7, #16]
 5767 00e4 FFF7FEFF 		bl	ff_rel_grant
 5768              	.L1743:
 5769 00e8 3046     		mov	r0, r6
 5770 00ea 03B0     		add	sp, sp, #12
 5771              		@ sp needed
 5772 00ec BDE8F08F 		pop	{r4, r5, r6, r7, r8, r9, r10, fp, pc}
 5773              	.L1636:
 5774 00f0 0223     		movs	r3, #2
 5775 00f2 BAF1010F 		cmp	r10, #1
 5776 00f6 1360     		str	r3, [r2]
 5777 00f8 00F28F80 		bhi	.L1680
 5778 00fc 1126     		movs	r6, #17
 5779              	.L1646:
 5780 00fe 002F     		cmp	r7, #0
 5781 0100 8DD0     		beq	.L1690
 5782              	.L1748:
 5783 0102 3869     		ldr	r0, [r7, #16]
 5784 0104 FFF7FEFF 		bl	ff_rel_grant
 5785 0108 EEE7     		b	.L1743
 5786              	.L1634:
 5787 010a E368     		ldr	r3, [r4, #12]
 5788 010c AB42     		cmp	r3, r5
 5789 010e 04D2     		bcs	.L1657
 5790 0110 227D     		ldrb	r2, [r4, #20]	@ zero_extendqisi2
 5791 0112 12F0020F 		tst	r2, #2
 5792 0116 08BF     		it	eq
 5793 0118 1D46     		moveq	r5, r3
 5794              	.L1657:
 5795 011a 0022     		movs	r2, #0
 5796 011c A369     		ldr	r3, [r4, #24]
 5797 011e A261     		str	r2, [r4, #24]
 5798 0120 002D     		cmp	r5, #0
 5799 0122 ECD0     		beq	.L1646
 5800 0124 B7F80A90 		ldrh	r9, [r7, #10]
 5801 0128 4FEA4929 		lsl	r9, r9, #9
 5802 012c 002B     		cmp	r3, #0
ARM GAS  D:\Programs\cygwin64\tmp\ccQ42GcX.s 			page 102


 5803 012e 38D0     		beq	.L1659
 5804 0130 013B     		subs	r3, r3, #1
 5805 0132 6A1E     		subs	r2, r5, #1
 5806 0134 B3FBF9F1 		udiv	r1, r3, r9
 5807 0138 B2FBF9F2 		udiv	r2, r2, r9
 5808 013c 8A42     		cmp	r2, r1
 5809 013e 30D3     		bcc	.L1659
 5810 0140 C9F10002 		rsb	r2, r9, #0
 5811 0144 1340     		ands	r3, r3, r2
 5812 0146 D4F81C80 		ldr	r8, [r4, #28]
 5813 014a A361     		str	r3, [r4, #24]
 5814 014c ED1A     		subs	r5, r5, r3
 5815              	.L1660:
 5816 014e B8F1000F 		cmp	r8, #0
 5817 0152 00F09280 		beq	.L1664
 5818 0156 4D45     		cmp	r5, r9
 5819 0158 15D8     		bhi	.L1670
 5820 015a 7AE0     		b	.L1665
 5821              	.L1745:
 5822 015c FFF7FEFF 		bl	create_chain
 5823 0160 8046     		mov	r8, r0
 5824 0162 0028     		cmp	r0, #0
 5825 0164 00F0E480 		beq	.L1744
 5826              	.L1667:
 5827 0168 B8F1FF3F 		cmp	r8, #-1
 5828 016c 00F0A680 		beq	.L1678
 5829 0170 B8F1010F 		cmp	r8, #1
 5830 0174 41D9     		bls	.L1669
 5831 0176 FB69     		ldr	r3, [r7, #28]
 5832 0178 4345     		cmp	r3, r8
 5833 017a 3ED9     		bls	.L1669
 5834 017c A945     		cmp	r9, r5
 5835 017e C4F81C80 		str	r8, [r4, #28]
 5836 0182 A369     		ldr	r3, [r4, #24]
 5837 0184 65D2     		bcs	.L1665
 5838              	.L1670:
 5839 0186 4B44     		add	r3, r3, r9
 5840 0188 A361     		str	r3, [r4, #24]
 5841 018a 237D     		ldrb	r3, [r4, #20]	@ zero_extendqisi2
 5842 018c 9B07     		lsls	r3, r3, #30
 5843 018e 4146     		mov	r1, r8
 5844 0190 2046     		mov	r0, r4
 5845 0192 A5EB0905 		sub	r5, r5, r9
 5846 0196 E1D4     		bmi	.L1745
 5847 0198 2068     		ldr	r0, [r4]
 5848 019a FFF7FEFF 		bl	get_fat.isra.12
 5849 019e 8046     		mov	r8, r0
 5850 01a0 E2E7     		b	.L1667
 5851              	.L1659:
 5852 01a2 D4F80880 		ldr	r8, [r4, #8]
 5853 01a6 B8F1000F 		cmp	r8, #0
 5854 01aa 45D0     		beq	.L1746
 5855 01ac 0023     		movs	r3, #0
 5856              	.L1661:
 5857 01ae C4F81C80 		str	r8, [r4, #28]
 5858 01b2 CCE7     		b	.L1660
 5859              	.L1741:
ARM GAS  D:\Programs\cygwin64\tmp\ccQ42GcX.s 			page 103


 5860 01b4 9046     		mov	r8, r2
 5861 01b6 D4F80890 		ldr	r9, [r4, #8]
 5862 01ba 58F804AB 		ldr	r10, [r8], #4
 5863 01be B9F1000F 		cmp	r9, #0
 5864 01c2 95D0     		beq	.L1636
 5865 01c4 0223     		movs	r3, #2
 5866 01c6 3846     		mov	r0, r7
 5867 01c8 0193     		str	r3, [sp, #4]
 5868              	.L1645:
 5869 01ca 4D46     		mov	r5, r9
 5870 01cc 4FF0000B 		mov	fp, #0
 5871 01d0 04E0     		b	.L1640
 5872              	.L1637:
 5873 01d2 421C     		adds	r2, r0, #1
 5874 01d4 75D0     		beq	.L1747
 5875 01d6 8542     		cmp	r5, r0
 5876 01d8 79D1     		bne	.L1639
 5877 01da 2068     		ldr	r0, [r4]
 5878              	.L1640:
 5879 01dc 2946     		mov	r1, r5
 5880 01de FFF7FEFF 		bl	get_fat.isra.12
 5881 01e2 0128     		cmp	r0, #1
 5882 01e4 05F10105 		add	r5, r5, #1
 5883 01e8 0BF1010B 		add	fp, fp, #1
 5884 01ec F1D8     		bhi	.L1637
 5885 01ee 0226     		movs	r6, #2
 5886 01f0 6675     		strb	r6, [r4, #21]
 5887 01f2 002F     		cmp	r7, #0
 5888 01f4 7FF475AF 		bne	.L1738
 5889 01f8 11E7     		b	.L1690
 5890              	.L1669:
 5891 01fa 0226     		movs	r6, #2
 5892 01fc 6675     		strb	r6, [r4, #21]
 5893 01fe 3869     		ldr	r0, [r7, #16]
 5894 0200 FFF7FEFF 		bl	ff_rel_grant
 5895 0204 0BE7     		b	.L1690
 5896              	.L1649:
 5897 0206 5368     		ldr	r3, [r2, #4]
 5898 0208 0344     		add	r3, r3, r0
 5899 020a 9A1E     		subs	r2, r3, #2
 5900 020c 41E7     		b	.L1648
 5901              	.L1681:
 5902 020e 0F26     		movs	r6, #15
 5903 0210 05E7     		b	.L1690
 5904              	.L1750:
 5905 0212 E36A     		ldr	r3, [r4, #44]
 5906 0214 9046     		mov	r8, r2
 5907 0216 019A     		ldr	r2, [sp, #4]
 5908 0218 1A60     		str	r2, [r3]
 5909              	.L1680:
 5910 021a 0023     		movs	r3, #0
 5911 021c C8F80030 		str	r3, [r8]
 5912 0220 002F     		cmp	r7, #0
 5913 0222 7FF46EAF 		bne	.L1748
 5914 0226 FAE6     		b	.L1690
 5915              	.L1631:
 5916 0228 2368     		ldr	r3, [r4]
ARM GAS  D:\Programs\cygwin64\tmp\ccQ42GcX.s 			page 104


 5917 022a 002B     		cmp	r3, #0
 5918 022c 3FF4F6AE 		beq	.L1737
 5919 0230 1869     		ldr	r0, [r3, #16]
 5920 0232 FFF7FEFF 		bl	ff_rel_grant
 5921 0236 F1E6     		b	.L1737
 5922              	.L1746:
 5923 0238 4146     		mov	r1, r8
 5924 023a 2046     		mov	r0, r4
 5925 023c FFF7FEFF 		bl	create_chain
 5926 0240 0128     		cmp	r0, #1
 5927 0242 8046     		mov	r8, r0
 5928 0244 D9D0     		beq	.L1669
 5929 0246 B0F1FF3F 		cmp	r0, #-1
 5930 024a 37D0     		beq	.L1678
 5931 024c A060     		str	r0, [r4, #8]
 5932 024e A369     		ldr	r3, [r4, #24]
 5933 0250 ADE7     		b	.L1661
 5934              	.L1665:
 5935 0252 2B44     		add	r3, r3, r5
 5936 0254 C5F30802 		ubfx	r2, r5, #0, #9
 5937 0258 A361     		str	r3, [r4, #24]
 5938 025a 002A     		cmp	r2, #0
 5939 025c 6AD0     		beq	.L1689
 5940 025e FA69     		ldr	r2, [r7, #28]
 5941 0260 A8F10208 		sub	r8, r8, #2
 5942 0264 023A     		subs	r2, r2, #2
 5943 0266 9045     		cmp	r8, r2
 5944 0268 C7D2     		bcs	.L1669
 5945 026a 7A89     		ldrh	r2, [r7, #10]
 5946 026c 396B     		ldr	r1, [r7, #48]
 5947 026e 08FB0212 		mla	r2, r8, r2, r1
 5948 0272 002A     		cmp	r2, #0
 5949 0274 C1D0     		beq	.L1669
 5950 0276 02EB5528 		add	r8, r2, r5, lsr #9
 5951              	.L1664:
 5952 027a E268     		ldr	r2, [r4, #12]
 5953 027c 9A42     		cmp	r2, r3
 5954 027e C3F30801 		ubfx	r1, r3, #0, #9
 5955 0282 04D2     		bcs	.L1673
 5956 0284 227D     		ldrb	r2, [r4, #20]	@ zero_extendqisi2
 5957 0286 E360     		str	r3, [r4, #12]
 5958 0288 42F04003 		orr	r3, r2, #64
 5959 028c 2375     		strb	r3, [r4, #20]
 5960              	.L1673:
 5961 028e 0029     		cmp	r1, #0
 5962 0290 3FF427AF 		beq	.L1738
 5963 0294 226A     		ldr	r2, [r4, #32]
 5964 0296 4245     		cmp	r2, r8
 5965 0298 3FF423AF 		beq	.L1738
 5966 029c 94F91430 		ldrsb	r3, [r4, #20]
 5967 02a0 7878     		ldrb	r0, [r7, #1]	@ zero_extendqisi2
 5968 02a2 002B     		cmp	r3, #0
 5969 02a4 04F13005 		add	r5, r4, #48
 5970 02a8 22DB     		blt	.L1749
 5971              	.L1674:
 5972 02aa 2946     		mov	r1, r5
 5973 02ac 0123     		movs	r3, #1
ARM GAS  D:\Programs\cygwin64\tmp\ccQ42GcX.s 			page 105


 5974 02ae 4246     		mov	r2, r8
 5975 02b0 FFF7FEFF 		bl	disk_read
 5976 02b4 10B9     		cbnz	r0, .L1678
 5977 02b6 C4F82080 		str	r8, [r4, #32]
 5978 02ba 12E7     		b	.L1738
 5979              	.L1678:
 5980 02bc 0126     		movs	r6, #1
 5981 02be 6675     		strb	r6, [r4, #21]
 5982 02c0 0FE7     		b	.L1738
 5983              	.L1747:
 5984 02c2 0126     		movs	r6, #1
 5985 02c4 6675     		strb	r6, [r4, #21]
 5986 02c6 002F     		cmp	r7, #0
 5987 02c8 7FF40BAF 		bne	.L1738
 5988 02cc A7E6     		b	.L1690
 5989              	.L1639:
 5990 02ce 019B     		ldr	r3, [sp, #4]
 5991 02d0 0233     		adds	r3, r3, #2
 5992 02d2 9A45     		cmp	r10, r3
 5993 02d4 0193     		str	r3, [sp, #4]
 5994 02d6 17D3     		bcc	.L1641
 5995 02d8 4246     		mov	r2, r8
 5996 02da 42F808BB 		str	fp, [r2], #8
 5997 02de C8F80490 		str	r9, [r8, #4]
 5998 02e2 FB69     		ldr	r3, [r7, #28]
 5999 02e4 9842     		cmp	r0, r3
 6000 02e6 94D2     		bcs	.L1750
 6001 02e8 9046     		mov	r8, r2
 6002              	.L1642:
 6003 02ea 8146     		mov	r9, r0
 6004 02ec 2068     		ldr	r0, [r4]
 6005 02ee 6CE7     		b	.L1645
 6006              	.L1749:
 6007 02f0 0123     		movs	r3, #1
 6008 02f2 2946     		mov	r1, r5
 6009 02f4 FFF7FEFF 		bl	disk_write
 6010 02f8 0028     		cmp	r0, #0
 6011 02fa DFD1     		bne	.L1678
 6012 02fc 237D     		ldrb	r3, [r4, #20]	@ zero_extendqisi2
 6013 02fe 03F07F03 		and	r3, r3, #127
 6014 0302 2375     		strb	r3, [r4, #20]
 6015 0304 7878     		ldrb	r0, [r7, #1]	@ zero_extendqisi2
 6016 0306 D0E7     		b	.L1674
 6017              	.L1641:
 6018 0308 FB69     		ldr	r3, [r7, #28]
 6019 030a 8342     		cmp	r3, r0
 6020 030c EDD8     		bhi	.L1642
 6021 030e E36A     		ldr	r3, [r4, #44]
 6022 0310 019A     		ldr	r2, [sp, #4]
 6023 0312 1A60     		str	r2, [r3]
 6024 0314 1126     		movs	r6, #17
 6025 0316 E4E6     		b	.L1738
 6026              	.L1742:
 6027 0318 0123     		movs	r3, #1
 6028 031a 4146     		mov	r1, r8
 6029 031c FFF7FEFF 		bl	disk_write
 6030 0320 0028     		cmp	r0, #0
ARM GAS  D:\Programs\cygwin64\tmp\ccQ42GcX.s 			page 106


 6031 0322 CBD1     		bne	.L1678
 6032 0324 237D     		ldrb	r3, [r4, #20]	@ zero_extendqisi2
 6033 0326 03F07F03 		and	r3, r3, #127
 6034 032a 2375     		strb	r3, [r4, #20]
 6035 032c 7878     		ldrb	r0, [r7, #1]	@ zero_extendqisi2
 6036 032e CFE6     		b	.L1655
 6037              	.L1744:
 6038 0330 A369     		ldr	r3, [r4, #24]
 6039 0332 A2E7     		b	.L1664
 6040              	.L1689:
 6041 0334 9046     		mov	r8, r2
 6042 0336 A0E7     		b	.L1664
 6043              	.L1740:
 6044 0338 002F     		cmp	r7, #0
 6045 033a 3FF470AE 		beq	.L1690
 6046 033e 0C2E     		cmp	r6, #12
 6047 0340 3FF46DAE 		beq	.L1690
 6048 0344 0B2E     		cmp	r6, #11
 6049 0346 3FF46AAE 		beq	.L1690
 6050 034a 0F2E     		cmp	r6, #15
 6051 034c 3FF467AE 		beq	.L1690
 6052 0350 C7E6     		b	.L1738
 6054 0352 00BF     		.section	.text.f_opendir,"ax",%progbits
 6055              		.align	1
 6056              		.p2align 2,,3
 6057              		.global	f_opendir
 6058              		.syntax unified
 6059              		.thumb
 6060              		.thumb_func
 6061              		.fpu fpv4-sp-d16
 6063              	f_opendir:
 6064              		@ args = 0, pretend = 0, frame = 16
 6065              		@ frame_needed = 0, uses_anonymous_args = 0
 6066 0000 2DE9F041 		push	{r4, r5, r6, r7, r8, lr}
 6067 0004 84B0     		sub	sp, sp, #16
 6068 0006 0191     		str	r1, [sp, #4]
 6069 0008 0028     		cmp	r0, #0
 6070 000a 5FD0     		beq	.L1770
 6071 000c 0546     		mov	r5, r0
 6072 000e 0022     		movs	r2, #0
 6073 0010 03A9     		add	r1, sp, #12
 6074 0012 01A8     		add	r0, sp, #4
 6075 0014 FFF7FEFF 		bl	find_volume
 6076 0018 0446     		mov	r4, r0
 6077 001a 48B1     		cbz	r0, .L1791
 6078              	.L1753:
 6079 001c 039B     		ldr	r3, [sp, #12]
 6080 001e 0022     		movs	r2, #0
 6081 0020 2A60     		str	r2, [r5]
 6082 0022 0BB1     		cbz	r3, .L1777
 6083 0024 0C2C     		cmp	r4, #12
 6084 0026 5CD1     		bne	.L1792
 6085              	.L1777:
 6086 0028 2046     		mov	r0, r4
 6087 002a 04B0     		add	sp, sp, #16
 6088              		@ sp needed
 6089 002c BDE8F081 		pop	{r4, r5, r6, r7, r8, pc}
ARM GAS  D:\Programs\cygwin64\tmp\ccQ42GcX.s 			page 107


 6090              	.L1791:
 6091 0030 039B     		ldr	r3, [sp, #12]
 6092 0032 2B60     		str	r3, [r5]
 6093 0034 4FF40070 		mov	r0, #512
 6094 0038 FFF7FEFF 		bl	ff_memalloc
 6095 003c 039B     		ldr	r3, [sp, #12]
 6096 003e 0646     		mov	r6, r0
 6097 0040 0028     		cmp	r0, #0
 6098 0042 48D0     		beq	.L1793
 6099 0044 D860     		str	r0, [r3, #12]
 6100 0046 0199     		ldr	r1, [sp, #4]
 6101 0048 2846     		mov	r0, r5
 6102 004a FFF7FEFF 		bl	follow_path
 6103 004e 0446     		mov	r4, r0
 6104 0050 58BB     		cbnz	r0, .L1755
 6105 0052 95F92F30 		ldrsb	r3, [r5, #47]
 6106 0056 002B     		cmp	r3, #0
 6107 0058 53DB     		blt	.L1794
 6108 005a AB79     		ldrb	r3, [r5, #6]	@ zero_extendqisi2
 6109 005c DB06     		lsls	r3, r3, #27
 6110 005e 45D5     		bpl	.L1758
 6111 0060 039A     		ldr	r2, [sp, #12]
 6112 0062 296A     		ldr	r1, [r5, #32]
 6113 0064 1078     		ldrb	r0, [r2]	@ zero_extendqisi2
 6114 0066 CC7E     		ldrb	r4, [r1, #27]	@ zero_extendqisi2
 6115 0068 8B7E     		ldrb	r3, [r1, #26]	@ zero_extendqisi2
 6116 006a 0328     		cmp	r0, #3
 6117 006c 43EA0423 		orr	r3, r3, r4, lsl #8
 6118 0070 05D1     		bne	.L1759
 6119 0072 487D     		ldrb	r0, [r1, #21]	@ zero_extendqisi2
 6120 0074 097D     		ldrb	r1, [r1, #20]	@ zero_extendqisi2
 6121 0076 41EA0021 		orr	r1, r1, r0, lsl #8
 6122 007a 43EA0143 		orr	r3, r3, r1, lsl #16
 6123              	.L1759:
 6124 007e AB60     		str	r3, [r5, #8]
 6125              	.L1757:
 6126 0080 D388     		ldrh	r3, [r2, #6]
 6127 0082 AB80     		strh	r3, [r5, #4]	@ movhi
 6128 0084 0021     		movs	r1, #0
 6129 0086 2846     		mov	r0, r5
 6130 0088 FFF7FEFF 		bl	dir_sdi
 6131 008c 0446     		mov	r4, r0
 6132 008e 60B9     		cbnz	r0, .L1755
 6133 0090 AA68     		ldr	r2, [r5, #8]
 6134 0092 002A     		cmp	r2, #0
 6135 0094 37D1     		bne	.L1795
 6136 0096 2861     		str	r0, [r5, #16]
 6137 0098 3046     		mov	r0, r6
 6138 009a FFF7FEFF 		bl	ff_memfree
 6139              	.L1767:
 6140 009e 039B     		ldr	r3, [sp, #12]
 6141 00a0 6BB9     		cbnz	r3, .L1768
 6142 00a2 2046     		mov	r0, r4
 6143 00a4 04B0     		add	sp, sp, #16
 6144              		@ sp needed
 6145 00a6 BDE8F081 		pop	{r4, r5, r6, r7, r8, pc}
 6146              	.L1755:
ARM GAS  D:\Programs\cygwin64\tmp\ccQ42GcX.s 			page 108


 6147 00aa 3046     		mov	r0, r6
 6148 00ac FFF7FEFF 		bl	ff_memfree
 6149 00b0 042C     		cmp	r4, #4
 6150 00b2 B3D1     		bne	.L1753
 6151 00b4 039B     		ldr	r3, [sp, #12]
 6152 00b6 0022     		movs	r2, #0
 6153 00b8 2A60     		str	r2, [r5]
 6154 00ba F3B1     		cbz	r3, .L1769
 6155              	.L1775:
 6156 00bc 0524     		movs	r4, #5
 6157              	.L1768:
 6158 00be 1869     		ldr	r0, [r3, #16]
 6159 00c0 FFF7FEFF 		bl	ff_rel_grant
 6160 00c4 2046     		mov	r0, r4
 6161 00c6 04B0     		add	sp, sp, #16
 6162              		@ sp needed
 6163 00c8 BDE8F081 		pop	{r4, r5, r6, r7, r8, pc}
 6164              	.L1770:
 6165 00cc 0924     		movs	r4, #9
 6166 00ce 2046     		mov	r0, r4
 6167 00d0 04B0     		add	sp, sp, #16
 6168              		@ sp needed
 6169 00d2 BDE8F081 		pop	{r4, r5, r6, r7, r8, pc}
 6170              	.L1793:
 6171 00d6 93B1     		cbz	r3, .L1771
 6172 00d8 1869     		ldr	r0, [r3, #16]
 6173 00da FFF7FEFF 		bl	ff_rel_grant
 6174 00de 1124     		movs	r4, #17
 6175 00e0 A2E7     		b	.L1777
 6176              	.L1792:
 6177 00e2 0B2C     		cmp	r4, #11
 6178 00e4 A0D0     		beq	.L1777
 6179 00e6 0F2C     		cmp	r4, #15
 6180 00e8 9ED0     		beq	.L1777
 6181 00ea E8E7     		b	.L1768
 6182              	.L1758:
 6183 00ec 3046     		mov	r0, r6
 6184 00ee FFF7FEFF 		bl	ff_memfree
 6185 00f2 039B     		ldr	r3, [sp, #12]
 6186 00f4 2C60     		str	r4, [r5]
 6187 00f6 002B     		cmp	r3, #0
 6188 00f8 E0D1     		bne	.L1775
 6189              	.L1769:
 6190 00fa 0524     		movs	r4, #5
 6191 00fc 94E7     		b	.L1777
 6192              	.L1771:
 6193 00fe 1124     		movs	r4, #17
 6194 0100 92E7     		b	.L1777
 6195              	.L1794:
 6196 0102 039A     		ldr	r2, [sp, #12]
 6197 0104 BCE7     		b	.L1757
 6198              	.L1795:
 6199 0106 254B     		ldr	r3, .L1798
 6200 0108 2F68     		ldr	r7, [r5]
 6201 010a D3F80080 		ldr	r8, [r3]
 6202 010e 4745     		cmp	r7, r8
 6203 0110 2CD0     		beq	.L1796
ARM GAS  D:\Programs\cygwin64\tmp\ccQ42GcX.s 			page 109


 6204              	.L1761:
 6205 0112 D3F810E0 		ldr	lr, [r3, #16]
 6206 0116 BE45     		cmp	lr, r7
 6207 0118 11D0     		beq	.L1797
 6208              	.L1763:
 6209 011a B8F1000F 		cmp	r8, #0
 6210 011e 2ED0     		beq	.L1773
 6211 0120 0121     		movs	r1, #1
 6212 0122 BEF1000F 		cmp	lr, #0
 6213 0126 2BD0     		beq	.L1765
 6214 0128 0024     		movs	r4, #0
 6215 012a 2C61     		str	r4, [r5, #16]
 6216 012c 3046     		mov	r0, r6
 6217 012e FFF7FEFF 		bl	ff_memfree
 6218 0132 039B     		ldr	r3, [sp, #12]
 6219 0134 2C60     		str	r4, [r5]
 6220 0136 1224     		movs	r4, #18
 6221 0138 002B     		cmp	r3, #0
 6222 013a C0D1     		bne	.L1768
 6223 013c 74E7     		b	.L1777
 6224              	.L1797:
 6225 013e 5869     		ldr	r0, [r3, #20]
 6226 0140 8242     		cmp	r2, r0
 6227 0142 EAD1     		bne	.L1763
 6228 0144 9869     		ldr	r0, [r3, #24]
 6229 0146 8446     		mov	ip, r0
 6230 0148 6869     		ldr	r0, [r5, #20]
 6231 014a 8445     		cmp	ip, r0
 6232 014c 08BF     		it	eq
 6233 014e 0121     		moveq	r1, #1
 6234 0150 E3D1     		bne	.L1763
 6235              	.L1762:
 6236 0152 0801     		lsls	r0, r1, #4
 6237 0154 1A18     		adds	r2, r3, r0
 6238 0156 9789     		ldrh	r7, [r2, #12]
 6239 0158 0137     		adds	r7, r7, #1
 6240 015a BFB2     		uxth	r7, r7
 6241              	.L1764:
 6242 015c 0344     		add	r3, r3, r0
 6243 015e 0131     		adds	r1, r1, #1
 6244 0160 2961     		str	r1, [r5, #16]
 6245 0162 3046     		mov	r0, r6
 6246 0164 9F81     		strh	r7, [r3, #12]	@ movhi
 6247 0166 FFF7FEFF 		bl	ff_memfree
 6248 016a 98E7     		b	.L1767
 6249              	.L1796:
 6250 016c 5868     		ldr	r0, [r3, #4]
 6251 016e 8242     		cmp	r2, r0
 6252 0170 CFD1     		bne	.L1761
 6253 0172 9968     		ldr	r1, [r3, #8]
 6254 0174 6869     		ldr	r0, [r5, #20]
 6255 0176 8842     		cmp	r0, r1
 6256 0178 CBD1     		bne	.L1761
 6257 017a 2146     		mov	r1, r4
 6258 017c E9E7     		b	.L1762
 6259              	.L1773:
 6260 017e 4146     		mov	r1, r8
ARM GAS  D:\Programs\cygwin64\tmp\ccQ42GcX.s 			page 110


 6261              	.L1765:
 6262 0180 0801     		lsls	r0, r1, #4
 6263 0182 03EB000E 		add	lr, r3, r0
 6264 0186 1F50     		str	r7, [r3, r0]
 6265 0188 CEF80420 		str	r2, [lr, #4]
 6266 018c 6F69     		ldr	r7, [r5, #20]
 6267 018e CEF80870 		str	r7, [lr, #8]
 6268 0192 0022     		movs	r2, #0
 6269 0194 AEF80C20 		strh	r2, [lr, #12]	@ movhi
 6270 0198 0127     		movs	r7, #1
 6271 019a DFE7     		b	.L1764
 6272              	.L1799:
 6273              		.align	2
 6274              	.L1798:
 6275 019c 00000000 		.word	.LANCHOR2
 6277              		.section	.text.f_closedir,"ax",%progbits
 6278              		.align	1
 6279              		.p2align 2,,3
 6280              		.global	f_closedir
 6281              		.syntax unified
 6282              		.thumb
 6283              		.thumb_func
 6284              		.fpu fpv4-sp-d16
 6286              	f_closedir:
 6287              		@ args = 0, pretend = 0, frame = 0
 6288              		@ frame_needed = 0, uses_anonymous_args = 0
 6289 0000 70B5     		push	{r4, r5, r6, lr}
 6290 0002 38B1     		cbz	r0, .L1831
 6291 0004 0368     		ldr	r3, [r0]
 6292 0006 2BB1     		cbz	r3, .L1831
 6293 0008 1A78     		ldrb	r2, [r3]	@ zero_extendqisi2
 6294 000a 1AB1     		cbz	r2, .L1831
 6295 000c 8188     		ldrh	r1, [r0, #4]
 6296 000e DA88     		ldrh	r2, [r3, #6]
 6297 0010 9142     		cmp	r1, r2
 6298 0012 02D0     		beq	.L1832
 6299              	.L1831:
 6300 0014 0924     		movs	r4, #9
 6301              	.L1802:
 6302 0016 2046     		mov	r0, r4
 6303 0018 70BD     		pop	{r4, r5, r6, pc}
 6304              	.L1832:
 6305 001a 0546     		mov	r5, r0
 6306 001c 1869     		ldr	r0, [r3, #16]
 6307 001e FFF7FEFF 		bl	ff_req_grant
 6308 0022 08B3     		cbz	r0, .L1813
 6309 0024 2B68     		ldr	r3, [r5]
 6310 0026 5878     		ldrb	r0, [r3, #1]	@ zero_extendqisi2
 6311 0028 FFF7FEFF 		bl	disk_status
 6312 002c 10F00100 		ands	r0, r0, #1
 6313 0030 23D1     		bne	.L1804
 6314 0032 2B69     		ldr	r3, [r5, #16]
 6315 0034 2A68     		ldr	r2, [r5]
 6316 0036 63B1     		cbz	r3, .L1806
 6317 0038 013B     		subs	r3, r3, #1
 6318 003a 012B     		cmp	r3, #1
 6319 003c 12D8     		bhi	.L1814
ARM GAS  D:\Programs\cygwin64\tmp\ccQ42GcX.s 			page 111


 6320 003e 134C     		ldr	r4, .L1835
 6321 0040 1B01     		lsls	r3, r3, #4
 6322 0042 E618     		adds	r6, r4, r3
 6323 0044 B189     		ldrh	r1, [r6, #12]
 6324 0046 B1F5807F 		cmp	r1, #256
 6325 004a 1DD0     		beq	.L1833
 6326 004c 71B9     		cbnz	r1, .L1834
 6327              	.L1809:
 6328 004e 0021     		movs	r1, #0
 6329 0050 E150     		str	r1, [r4, r3]
 6330              	.L1806:
 6331 0052 0024     		movs	r4, #0
 6332 0054 2C60     		str	r4, [r5]
 6333              	.L1807:
 6334 0056 002A     		cmp	r2, #0
 6335 0058 DDD0     		beq	.L1802
 6336 005a 1069     		ldr	r0, [r2, #16]
 6337 005c FFF7FEFF 		bl	ff_rel_grant
 6338 0060 2046     		mov	r0, r4
 6339 0062 70BD     		pop	{r4, r5, r6, pc}
 6340              	.L1814:
 6341 0064 0224     		movs	r4, #2
 6342 0066 F6E7     		b	.L1807
 6343              	.L1813:
 6344 0068 0F24     		movs	r4, #15
 6345 006a D4E7     		b	.L1802
 6346              	.L1834:
 6347 006c 0139     		subs	r1, r1, #1
 6348 006e E018     		adds	r0, r4, r3
 6349 0070 89B2     		uxth	r1, r1
 6350 0072 8181     		strh	r1, [r0, #12]	@ movhi
 6351 0074 0029     		cmp	r1, #0
 6352 0076 ECD1     		bne	.L1806
 6353 0078 E9E7     		b	.L1809
 6354              	.L1804:
 6355 007a 2B68     		ldr	r3, [r5]
 6356 007c 002B     		cmp	r3, #0
 6357 007e C9D0     		beq	.L1831
 6358 0080 1869     		ldr	r0, [r3, #16]
 6359 0082 FFF7FEFF 		bl	ff_rel_grant
 6360 0086 C5E7     		b	.L1831
 6361              	.L1833:
 6362 0088 B081     		strh	r0, [r6, #12]	@ movhi
 6363 008a E0E7     		b	.L1809
 6364              	.L1836:
 6365              		.align	2
 6366              	.L1835:
 6367 008c 00000000 		.word	.LANCHOR2
 6369              		.section	.text.f_readdir,"ax",%progbits
 6370              		.align	1
 6371              		.p2align 2,,3
 6372              		.global	f_readdir
 6373              		.syntax unified
 6374              		.thumb
 6375              		.thumb_func
 6376              		.fpu fpv4-sp-d16
 6378              	f_readdir:
ARM GAS  D:\Programs\cygwin64\tmp\ccQ42GcX.s 			page 112


 6379              		@ args = 0, pretend = 0, frame = 0
 6380              		@ frame_needed = 0, uses_anonymous_args = 0
 6381 0000 2DE9F041 		push	{r4, r5, r6, r7, r8, lr}
 6382 0004 38B1     		cbz	r0, .L1871
 6383 0006 0368     		ldr	r3, [r0]
 6384 0008 2BB1     		cbz	r3, .L1871
 6385 000a 1A78     		ldrb	r2, [r3]	@ zero_extendqisi2
 6386 000c 1AB1     		cbz	r2, .L1871
 6387 000e 8488     		ldrh	r4, [r0, #4]
 6388 0010 DA88     		ldrh	r2, [r3, #6]
 6389 0012 9442     		cmp	r4, r2
 6390 0014 03D0     		beq	.L1872
 6391              	.L1871:
 6392 0016 0925     		movs	r5, #9
 6393              	.L1839:
 6394 0018 2846     		mov	r0, r5
 6395 001a BDE8F081 		pop	{r4, r5, r6, r7, r8, pc}
 6396              	.L1872:
 6397 001e 0446     		mov	r4, r0
 6398 0020 1869     		ldr	r0, [r3, #16]
 6399 0022 0E46     		mov	r6, r1
 6400 0024 FFF7FEFF 		bl	ff_req_grant
 6401 0028 50B3     		cbz	r0, .L1849
 6402 002a 2368     		ldr	r3, [r4]
 6403 002c 5878     		ldrb	r0, [r3, #1]	@ zero_extendqisi2
 6404 002e FFF7FEFF 		bl	disk_status
 6405 0032 C307     		lsls	r3, r0, #31
 6406 0034 45D4     		bmi	.L1842
 6407 0036 D4F80080 		ldr	r8, [r4]
 6408 003a 2EB3     		cbz	r6, .L1873
 6409 003c 4FF40070 		mov	r0, #512
 6410 0040 FFF7FEFF 		bl	ff_memalloc
 6411 0044 0746     		mov	r7, r0
 6412 0046 98B3     		cbz	r0, .L1874
 6413 0048 C8F80C00 		str	r0, [r8, #12]
 6414 004c 2046     		mov	r0, r4
 6415 004e FFF7FEFF 		bl	dir_read.constprop.16
 6416 0052 10F0FB0F 		tst	r0, #251
 6417 0056 0546     		mov	r5, r0
 6418 0058 09D1     		bne	.L1847
 6419 005a 3146     		mov	r1, r6
 6420 005c 2046     		mov	r0, r4
 6421 005e FFF7FEFF 		bl	get_fileinfo
 6422 0062 2046     		mov	r0, r4
 6423 0064 FFF7FEFF 		bl	dir_next.constprop.17
 6424 0068 0428     		cmp	r0, #4
 6425 006a 0546     		mov	r5, r0
 6426 006c 15D0     		beq	.L1875
 6427              	.L1847:
 6428 006e 3846     		mov	r0, r7
 6429 0070 FFF7FEFF 		bl	ff_memfree
 6430              	.L1845:
 6431 0074 0C2D     		cmp	r5, #12
 6432 0076 CFD0     		beq	.L1839
 6433 0078 0B2D     		cmp	r5, #11
 6434 007a CDD0     		beq	.L1839
 6435 007c 0F2D     		cmp	r5, #15
ARM GAS  D:\Programs\cygwin64\tmp\ccQ42GcX.s 			page 113


 6436 007e 10D1     		bne	.L1848
 6437              	.L1849:
 6438 0080 0F25     		movs	r5, #15
 6439 0082 2846     		mov	r0, r5
 6440 0084 BDE8F081 		pop	{r4, r5, r6, r7, r8, pc}
 6441              	.L1873:
 6442 0088 3146     		mov	r1, r6
 6443 008a 2046     		mov	r0, r4
 6444 008c FFF7FEFF 		bl	dir_sdi
 6445 0090 0546     		mov	r5, r0
 6446 0092 B8F1000F 		cmp	r8, #0
 6447 0096 EDD1     		bne	.L1845
 6448 0098 BEE7     		b	.L1839
 6449              	.L1875:
 6450 009a 3846     		mov	r0, r7
 6451 009c FFF7FEFF 		bl	ff_memfree
 6452 00a0 0025     		movs	r5, #0
 6453              	.L1848:
 6454 00a2 D8F81000 		ldr	r0, [r8, #16]
 6455 00a6 FFF7FEFF 		bl	ff_rel_grant
 6456 00aa 2846     		mov	r0, r5
 6457 00ac BDE8F081 		pop	{r4, r5, r6, r7, r8, pc}
 6458              	.L1874:
 6459 00b0 B8F1000F 		cmp	r8, #0
 6460 00b4 0CD0     		beq	.L1850
 6461 00b6 D8F81000 		ldr	r0, [r8, #16]
 6462 00ba FFF7FEFF 		bl	ff_rel_grant
 6463 00be 1125     		movs	r5, #17
 6464 00c0 AAE7     		b	.L1839
 6465              	.L1842:
 6466 00c2 2368     		ldr	r3, [r4]
 6467 00c4 002B     		cmp	r3, #0
 6468 00c6 A6D0     		beq	.L1871
 6469 00c8 1869     		ldr	r0, [r3, #16]
 6470 00ca FFF7FEFF 		bl	ff_rel_grant
 6471 00ce A2E7     		b	.L1871
 6472              	.L1850:
 6473 00d0 1125     		movs	r5, #17
 6474 00d2 A1E7     		b	.L1839
 6476              		.section	.text.f_stat,"ax",%progbits
 6477              		.align	1
 6478              		.p2align 2,,3
 6479              		.global	f_stat
 6480              		.syntax unified
 6481              		.thumb
 6482              		.thumb_func
 6483              		.fpu fpv4-sp-d16
 6485              	f_stat:
 6486              		@ args = 0, pretend = 0, frame = 64
 6487              		@ frame_needed = 0, uses_anonymous_args = 0
 6488 0000 70B5     		push	{r4, r5, r6, lr}
 6489 0002 90B0     		sub	sp, sp, #64
 6490 0004 0E46     		mov	r6, r1
 6491 0006 0190     		str	r0, [sp, #4]
 6492 0008 0022     		movs	r2, #0
 6493 000a 03A9     		add	r1, sp, #12
 6494 000c 01A8     		add	r0, sp, #4
ARM GAS  D:\Programs\cygwin64\tmp\ccQ42GcX.s 			page 114


 6495 000e FFF7FEFF 		bl	find_volume
 6496 0012 58B1     		cbz	r0, .L1901
 6497 0014 0446     		mov	r4, r0
 6498              	.L1877:
 6499 0016 039B     		ldr	r3, [sp, #12]
 6500 0018 2BB1     		cbz	r3, .L1879
 6501 001a 0C2C     		cmp	r4, #12
 6502 001c 03D0     		beq	.L1879
 6503 001e 0B2C     		cmp	r4, #11
 6504 0020 01D0     		beq	.L1879
 6505 0022 0F2C     		cmp	r4, #15
 6506 0024 1FD1     		bne	.L1882
 6507              	.L1879:
 6508 0026 2046     		mov	r0, r4
 6509 0028 10B0     		add	sp, sp, #64
 6510              		@ sp needed
 6511 002a 70BD     		pop	{r4, r5, r6, pc}
 6512              	.L1901:
 6513 002c 4FF40070 		mov	r0, #512
 6514 0030 FFF7FEFF 		bl	ff_memalloc
 6515 0034 039B     		ldr	r3, [sp, #12]
 6516 0036 0546     		mov	r5, r0
 6517 0038 F8B1     		cbz	r0, .L1902
 6518 003a D860     		str	r0, [r3, #12]
 6519 003c 0199     		ldr	r1, [sp, #4]
 6520 003e 03A8     		add	r0, sp, #12
 6521 0040 FFF7FEFF 		bl	follow_path
 6522 0044 0446     		mov	r4, r0
 6523 0046 A0B9     		cbnz	r0, .L1880
 6524 0048 9DF93B30 		ldrsb	r3, [sp, #59]
 6525 004c 002B     		cmp	r3, #0
 6526 004e 1ADB     		blt	.L1903
 6527 0050 0EB3     		cbz	r6, .L1883
 6528 0052 3146     		mov	r1, r6
 6529 0054 03A8     		add	r0, sp, #12
 6530 0056 FFF7FEFF 		bl	get_fileinfo
 6531 005a 2846     		mov	r0, r5
 6532 005c FFF7FEFF 		bl	ff_memfree
 6533 0060 039B     		ldr	r3, [sp, #12]
 6534 0062 002B     		cmp	r3, #0
 6535 0064 DFD0     		beq	.L1879
 6536              	.L1882:
 6537 0066 1869     		ldr	r0, [r3, #16]
 6538 0068 FFF7FEFF 		bl	ff_rel_grant
 6539 006c 2046     		mov	r0, r4
 6540 006e 10B0     		add	sp, sp, #64
 6541              		@ sp needed
 6542 0070 70BD     		pop	{r4, r5, r6, pc}
 6543              	.L1880:
 6544 0072 2846     		mov	r0, r5
 6545 0074 FFF7FEFF 		bl	ff_memfree
 6546 0078 CDE7     		b	.L1877
 6547              	.L1902:
 6548 007a 9BB1     		cbz	r3, .L1885
 6549 007c 1869     		ldr	r0, [r3, #16]
 6550 007e FFF7FEFF 		bl	ff_rel_grant
 6551 0082 1124     		movs	r4, #17
ARM GAS  D:\Programs\cygwin64\tmp\ccQ42GcX.s 			page 115


 6552 0084 CFE7     		b	.L1879
 6553              	.L1903:
 6554 0086 2846     		mov	r0, r5
 6555 0088 FFF7FEFF 		bl	ff_memfree
 6556 008c 039B     		ldr	r3, [sp, #12]
 6557 008e 0624     		movs	r4, #6
 6558 0090 002B     		cmp	r3, #0
 6559 0092 E8D1     		bne	.L1882
 6560 0094 C7E7     		b	.L1879
 6561              	.L1883:
 6562 0096 2846     		mov	r0, r5
 6563 0098 FFF7FEFF 		bl	ff_memfree
 6564 009c 039B     		ldr	r3, [sp, #12]
 6565 009e 002B     		cmp	r3, #0
 6566 00a0 E1D1     		bne	.L1882
 6567 00a2 C0E7     		b	.L1879
 6568              	.L1885:
 6569 00a4 1124     		movs	r4, #17
 6570 00a6 BEE7     		b	.L1879
 6572              		.section	.text.f_getfree,"ax",%progbits
 6573              		.align	1
 6574              		.p2align 2,,3
 6575              		.global	f_getfree
 6576              		.syntax unified
 6577              		.thumb
 6578              		.thumb_func
 6579              		.fpu fpv4-sp-d16
 6581              	f_getfree:
 6582              		@ args = 0, pretend = 0, frame = 16
 6583              		@ frame_needed = 0, uses_anonymous_args = 0
 6584 0000 2DE9F047 		push	{r4, r5, r6, r7, r8, r9, r10, lr}
 6585 0004 84B0     		sub	sp, sp, #16
 6586 0006 0F46     		mov	r7, r1
 6587 0008 0190     		str	r0, [sp, #4]
 6588 000a 1446     		mov	r4, r2
 6589 000c 03A9     		add	r1, sp, #12
 6590 000e 0022     		movs	r2, #0
 6591 0010 01A8     		add	r0, sp, #4
 6592 0012 FFF7FEFF 		bl	find_volume
 6593 0016 039D     		ldr	r5, [sp, #12]
 6594 0018 8046     		mov	r8, r0
 6595 001a 0028     		cmp	r0, #0
 6596 001c 43D1     		bne	.L1905
 6597 001e D5E90636 		ldrd	r3, r6, [r5, #24]
 6598 0022 B21E     		subs	r2, r6, #2
 6599 0024 9342     		cmp	r3, r2
 6600 0026 2560     		str	r5, [r4]
 6601 0028 07D8     		bhi	.L1906
 6602 002a 3B60     		str	r3, [r7]
 6603              	.L1907:
 6604 002c 2869     		ldr	r0, [r5, #16]
 6605 002e FFF7FEFF 		bl	ff_rel_grant
 6606              	.L1922:
 6607 0032 4046     		mov	r0, r8
 6608 0034 04B0     		add	sp, sp, #16
 6609              		@ sp needed
 6610 0036 BDE8F087 		pop	{r4, r5, r6, r7, r8, r9, r10, pc}
ARM GAS  D:\Programs\cygwin64\tmp\ccQ42GcX.s 			page 116


 6611              	.L1906:
 6612 003a 2878     		ldrb	r0, [r5]	@ zero_extendqisi2
 6613 003c 0128     		cmp	r0, #1
 6614 003e 41D0     		beq	.L1940
 6615 0040 A96A     		ldr	r1, [r5, #40]
 6616 0042 4446     		mov	r4, r8
 6617 0044 C146     		mov	r9, r8
 6618              	.L1921:
 6619 0046 64B9     		cbnz	r4, .L1914
 6620 0048 6B6B     		ldr	r3, [r5, #52]
 6621 004a 9942     		cmp	r1, r3
 6622 004c 01F1010A 		add	r10, r1, #1
 6623 0050 5CD0     		beq	.L1923
 6624 0052 2846     		mov	r0, r5
 6625 0054 FFF7FEFF 		bl	move_window.part.9
 6626 0058 039D     		ldr	r5, [sp, #12]
 6627 005a 0028     		cmp	r0, #0
 6628 005c 58D1     		bne	.L1941
 6629 005e 2878     		ldrb	r0, [r5]	@ zero_extendqisi2
 6630 0060 5146     		mov	r1, r10
 6631              	.L1914:
 6632 0062 05F13803 		add	r3, r5, #56
 6633 0066 03EB040C 		add	ip, r3, r4
 6634 006a 0228     		cmp	r0, #2
 6635 006c 1B5D     		ldrb	r3, [r3, r4]	@ zero_extendqisi2
 6636 006e 9CF80120 		ldrb	r2, [ip, #1]	@ zero_extendqisi2
 6637 0072 44D0     		beq	.L1942
 6638 0074 BCF802C0 		ldrh	ip, [ip, #2]	@ unaligned
 6639 0078 42EA0C22 		orr	r2, r2, ip, lsl #8
 6640 007c 43EA0223 		orr	r3, r3, r2, lsl #8
 6641 0080 33F07043 		bics	r3, r3, #-268435456
 6642 0084 08BF     		it	eq
 6643 0086 09F10109 		addeq	r9, r9, #1
 6644 008a 0434     		adds	r4, r4, #4
 6645              	.L1919:
 6646 008c 013E     		subs	r6, r6, #1
 6647 008e C4F30804 		ubfx	r4, r4, #0, #9
 6648 0092 D8D1     		bne	.L1921
 6649 0094 C7F80090 		str	r9, [r7]
 6650 0098 2B79     		ldrb	r3, [r5, #4]	@ zero_extendqisi2
 6651 009a C5F81890 		str	r9, [r5, #24]
 6652 009e 43F00103 		orr	r3, r3, #1
 6653 00a2 2B71     		strb	r3, [r5, #4]
 6654 00a4 C2E7     		b	.L1907
 6655              	.L1905:
 6656 00a6 002D     		cmp	r5, #0
 6657 00a8 C3D0     		beq	.L1922
 6658              	.L1916:
 6659 00aa B8F10C0F 		cmp	r8, #12
 6660 00ae C0D0     		beq	.L1922
 6661 00b0 B8F10B0F 		cmp	r8, #11
 6662 00b4 BDD0     		beq	.L1922
 6663 00b6 B8F10F0F 		cmp	r8, #15
 6664 00ba B7D1     		bne	.L1907
 6665 00bc 4046     		mov	r0, r8
 6666 00be 04B0     		add	sp, sp, #16
 6667              		@ sp needed
ARM GAS  D:\Programs\cygwin64\tmp\ccQ42GcX.s 			page 117


 6668 00c0 BDE8F087 		pop	{r4, r5, r6, r7, r8, r9, r10, pc}
 6669              	.L1940:
 6670 00c4 0224     		movs	r4, #2
 6671 00c6 4646     		mov	r6, r8
 6672 00c8 07E0     		b	.L1913
 6673              	.L1945:
 6674 00ca 0128     		cmp	r0, #1
 6675 00cc 2AD0     		beq	.L1943
 6676 00ce 00B9     		cbnz	r0, .L1912
 6677 00d0 0136     		adds	r6, r6, #1
 6678              	.L1912:
 6679 00d2 039B     		ldr	r3, [sp, #12]
 6680 00d4 DA69     		ldr	r2, [r3, #28]
 6681 00d6 A242     		cmp	r2, r4
 6682 00d8 2ED9     		bls	.L1944
 6683              	.L1913:
 6684 00da 2146     		mov	r1, r4
 6685 00dc 2846     		mov	r0, r5
 6686 00de FFF7FEFF 		bl	get_fat.isra.12
 6687 00e2 431C     		adds	r3, r0, #1
 6688 00e4 04F10104 		add	r4, r4, #1
 6689 00e8 EFD1     		bne	.L1945
 6690 00ea 039D     		ldr	r5, [sp, #12]
 6691 00ec 3E60     		str	r6, [r7]
 6692 00ee 2B79     		ldrb	r3, [r5, #4]	@ zero_extendqisi2
 6693 00f0 AE61     		str	r6, [r5, #24]
 6694 00f2 43F00103 		orr	r3, r3, #1
 6695 00f6 2B71     		strb	r3, [r5, #4]
 6696 00f8 4FF00108 		mov	r8, #1
 6697 00fc 96E7     		b	.L1907
 6698              	.L1942:
 6699 00fe 53EA0223 		orrs	r3, r3, r2, lsl #8
 6700 0102 08BF     		it	eq
 6701 0104 09F10109 		addeq	r9, r9, #1
 6702 0108 0234     		adds	r4, r4, #2
 6703 010a BFE7     		b	.L1919
 6704              	.L1923:
 6705 010c 5146     		mov	r1, r10
 6706 010e A8E7     		b	.L1914
 6707              	.L1941:
 6708 0110 C7F80090 		str	r9, [r7]
 6709 0114 2B79     		ldrb	r3, [r5, #4]	@ zero_extendqisi2
 6710 0116 C5F81890 		str	r9, [r5, #24]
 6711 011a 43F00103 		orr	r3, r3, #1
 6712 011e 8046     		mov	r8, r0
 6713 0120 2B71     		strb	r3, [r5, #4]
 6714 0122 C2E7     		b	.L1916
 6715              	.L1943:
 6716 0124 039D     		ldr	r5, [sp, #12]
 6717 0126 3E60     		str	r6, [r7]
 6718 0128 2B79     		ldrb	r3, [r5, #4]	@ zero_extendqisi2
 6719 012a AE61     		str	r6, [r5, #24]
 6720 012c 43F00103 		orr	r3, r3, #1
 6721 0130 2B71     		strb	r3, [r5, #4]
 6722 0132 4FF00208 		mov	r8, #2
 6723 0136 79E7     		b	.L1907
 6724              	.L1944:
ARM GAS  D:\Programs\cygwin64\tmp\ccQ42GcX.s 			page 118


 6725 0138 3E60     		str	r6, [r7]
 6726 013a 1A79     		ldrb	r2, [r3, #4]	@ zero_extendqisi2
 6727 013c 9E61     		str	r6, [r3, #24]
 6728 013e 42F00102 		orr	r2, r2, #1
 6729 0142 1A71     		strb	r2, [r3, #4]
 6730 0144 1D46     		mov	r5, r3
 6731 0146 71E7     		b	.L1907
 6733              		.section	.text.f_truncate,"ax",%progbits
 6734              		.align	1
 6735              		.p2align 2,,3
 6736              		.global	f_truncate
 6737              		.syntax unified
 6738              		.thumb
 6739              		.thumb_func
 6740              		.fpu fpv4-sp-d16
 6742              	f_truncate:
 6743              		@ args = 0, pretend = 0, frame = 0
 6744              		@ frame_needed = 0, uses_anonymous_args = 0
 6745 0000 70B5     		push	{r4, r5, r6, lr}
 6746 0002 38B1     		cbz	r0, .L2014
 6747 0004 0368     		ldr	r3, [r0]
 6748 0006 2BB1     		cbz	r3, .L2014
 6749 0008 1A78     		ldrb	r2, [r3]	@ zero_extendqisi2
 6750 000a 1AB1     		cbz	r2, .L2014
 6751 000c 8188     		ldrh	r1, [r0, #4]
 6752 000e DA88     		ldrh	r2, [r3, #6]
 6753 0010 9142     		cmp	r1, r2
 6754 0012 02D0     		beq	.L2015
 6755              	.L2014:
 6756 0014 0925     		movs	r5, #9
 6757              	.L1981:
 6758 0016 2846     		mov	r0, r5
 6759 0018 70BD     		pop	{r4, r5, r6, pc}
 6760              	.L2015:
 6761 001a 0446     		mov	r4, r0
 6762 001c 1869     		ldr	r0, [r3, #16]
 6763 001e FFF7FEFF 		bl	ff_req_grant
 6764 0022 0028     		cmp	r0, #0
 6765 0024 76D0     		beq	.L1974
 6766 0026 2368     		ldr	r3, [r4]
 6767 0028 5878     		ldrb	r0, [r3, #1]	@ zero_extendqisi2
 6768 002a FFF7FEFF 		bl	disk_status
 6769 002e C507     		lsls	r5, r0, #31
 6770 0030 72D4     		bmi	.L1951
 6771 0032 657D     		ldrb	r5, [r4, #21]	@ zero_extendqisi2
 6772 0034 2668     		ldr	r6, [r4]
 6773 0036 05BB     		cbnz	r5, .L2016
 6774 0038 237D     		ldrb	r3, [r4, #20]	@ zero_extendqisi2
 6775 003a 9807     		lsls	r0, r3, #30
 6776 003c 2BD5     		bpl	.L2017
 6777 003e A369     		ldr	r3, [r4, #24]
 6778 0040 E268     		ldr	r2, [r4, #12]
 6779 0042 9342     		cmp	r3, r2
 6780 0044 12D2     		bcs	.L1957
 6781 0046 6BBB     		cbnz	r3, .L1958
 6782 0048 0022     		movs	r2, #0
 6783 004a A168     		ldr	r1, [r4, #8]
ARM GAS  D:\Programs\cygwin64\tmp\ccQ42GcX.s 			page 119


 6784 004c 2046     		mov	r0, r4
 6785 004e FFF7FEFF 		bl	remove_chain
 6786 0052 237D     		ldrb	r3, [r4, #20]	@ zero_extendqisi2
 6787 0054 A269     		ldr	r2, [r4, #24]
 6788 0056 E260     		str	r2, [r4, #12]
 6789 0058 43F04003 		orr	r3, r3, #64
 6790 005c 0022     		movs	r2, #0
 6791 005e 2375     		strb	r3, [r4, #20]
 6792 0060 0146     		mov	r1, r0
 6793 0062 A260     		str	r2, [r4, #8]
 6794 0064 0028     		cmp	r0, #0
 6795 0066 7AD1     		bne	.L2018
 6796 0068 1B06     		lsls	r3, r3, #24
 6797 006a 2ED4     		bmi	.L1965
 6798              	.L1957:
 6799 006c 002E     		cmp	r6, #0
 6800 006e D2D0     		beq	.L1981
 6801              	.L1966:
 6802 0070 3069     		ldr	r0, [r6, #16]
 6803 0072 FFF7FEFF 		bl	ff_rel_grant
 6804 0076 2846     		mov	r0, r5
 6805 0078 70BD     		pop	{r4, r5, r6, pc}
 6806              	.L2016:
 6807 007a 002E     		cmp	r6, #0
 6808 007c CBD0     		beq	.L1981
 6809 007e 0C2D     		cmp	r5, #12
 6810 0080 06D0     		beq	.L1972
 6811 0082 0B2D     		cmp	r5, #11
 6812 0084 01D1     		bne	.L1955
 6813              	.L1973:
 6814 0086 0B25     		movs	r5, #11
 6815 0088 C5E7     		b	.L1981
 6816              	.L1955:
 6817 008a 0F2D     		cmp	r5, #15
 6818 008c C3D0     		beq	.L1981
 6819 008e EFE7     		b	.L1966
 6820              	.L1972:
 6821 0090 0C25     		movs	r5, #12
 6822 0092 2846     		mov	r0, r5
 6823 0094 70BD     		pop	{r4, r5, r6, pc}
 6824              	.L2017:
 6825 0096 002E     		cmp	r6, #0
 6826 0098 51D0     		beq	.L1978
 6827 009a 3069     		ldr	r0, [r6, #16]
 6828 009c FFF7FEFF 		bl	ff_rel_grant
 6829 00a0 0725     		movs	r5, #7
 6830 00a2 B8E7     		b	.L1981
 6831              	.L1958:
 6832 00a4 E169     		ldr	r1, [r4, #28]
 6833 00a6 3046     		mov	r0, r6
 6834 00a8 FFF7FEFF 		bl	get_fat.isra.12
 6835 00ac 411C     		adds	r1, r0, #1
 6836 00ae 48D0     		beq	.L1961
 6837 00b0 0128     		cmp	r0, #1
 6838 00b2 39D0     		beq	.L2019
 6839 00b4 F369     		ldr	r3, [r6, #28]
 6840 00b6 8342     		cmp	r3, r0
ARM GAS  D:\Programs\cygwin64\tmp\ccQ42GcX.s 			page 120


 6841 00b8 15D8     		bhi	.L1964
 6842 00ba 237D     		ldrb	r3, [r4, #20]	@ zero_extendqisi2
 6843 00bc A269     		ldr	r2, [r4, #24]
 6844 00be E260     		str	r2, [r4, #12]
 6845 00c0 43F04003 		orr	r3, r3, #64
 6846 00c4 2375     		strb	r3, [r4, #20]
 6847              	.L2013:
 6848 00c6 1A06     		lsls	r2, r3, #24
 6849 00c8 D2D5     		bpl	.L1966
 6850              	.L1965:
 6851 00ca 0123     		movs	r3, #1
 6852 00cc 226A     		ldr	r2, [r4, #32]
 6853 00ce 7078     		ldrb	r0, [r6, #1]	@ zero_extendqisi2
 6854 00d0 04F13001 		add	r1, r4, #48
 6855 00d4 FFF7FEFF 		bl	disk_write
 6856 00d8 0028     		cmp	r0, #0
 6857 00da 3DD1     		bne	.L2020
 6858 00dc 237D     		ldrb	r3, [r4, #20]	@ zero_extendqisi2
 6859 00de 03F07F03 		and	r3, r3, #127
 6860 00e2 2375     		strb	r3, [r4, #20]
 6861 00e4 C4E7     		b	.L1966
 6862              	.L1964:
 6863 00e6 0146     		mov	r1, r0
 6864 00e8 E269     		ldr	r2, [r4, #28]
 6865 00ea 2046     		mov	r0, r4
 6866 00ec FFF7FEFF 		bl	remove_chain
 6867 00f0 237D     		ldrb	r3, [r4, #20]	@ zero_extendqisi2
 6868 00f2 A269     		ldr	r2, [r4, #24]
 6869 00f4 E260     		str	r2, [r4, #12]
 6870 00f6 43F04003 		orr	r3, r3, #64
 6871 00fa 0146     		mov	r1, r0
 6872 00fc 2375     		strb	r3, [r4, #20]
 6873 00fe 0028     		cmp	r0, #0
 6874 0100 E1D0     		beq	.L2013
 6875 0102 6075     		strb	r0, [r4, #21]
 6876              	.L1976:
 6877 0104 0C29     		cmp	r1, #12
 6878 0106 C3D0     		beq	.L1972
 6879 0108 0B29     		cmp	r1, #11
 6880 010a BCD0     		beq	.L1973
 6881 010c 0F29     		cmp	r1, #15
 6882 010e 18BF     		it	ne
 6883 0110 0D46     		movne	r5, r1
 6884 0112 ADD1     		bne	.L1966
 6885              	.L1974:
 6886 0114 0F25     		movs	r5, #15
 6887 0116 7EE7     		b	.L1981
 6888              	.L1951:
 6889 0118 2368     		ldr	r3, [r4]
 6890 011a 002B     		cmp	r3, #0
 6891 011c 3FF47AAF 		beq	.L2014
 6892 0120 1869     		ldr	r0, [r3, #16]
 6893 0122 FFF7FEFF 		bl	ff_rel_grant
 6894 0126 75E7     		b	.L2014
 6895              	.L2019:
 6896 0128 237D     		ldrb	r3, [r4, #20]	@ zero_extendqisi2
 6897 012a A269     		ldr	r2, [r4, #24]
ARM GAS  D:\Programs\cygwin64\tmp\ccQ42GcX.s 			page 121


 6898 012c E260     		str	r2, [r4, #12]
 6899 012e 43F04003 		orr	r3, r3, #64
 6900 0132 0225     		movs	r5, #2
 6901 0134 2375     		strb	r3, [r4, #20]
 6902 0136 6575     		strb	r5, [r4, #21]
 6903 0138 002E     		cmp	r6, #0
 6904 013a 99D1     		bne	.L1966
 6905 013c 6BE7     		b	.L1981
 6906              	.L1978:
 6907 013e 0725     		movs	r5, #7
 6908 0140 69E7     		b	.L1981
 6909              	.L1961:
 6910 0142 237D     		ldrb	r3, [r4, #20]	@ zero_extendqisi2
 6911 0144 A269     		ldr	r2, [r4, #24]
 6912 0146 E260     		str	r2, [r4, #12]
 6913 0148 43F04003 		orr	r3, r3, #64
 6914 014c 0125     		movs	r5, #1
 6915 014e 2375     		strb	r3, [r4, #20]
 6916 0150 6575     		strb	r5, [r4, #21]
 6917 0152 002E     		cmp	r6, #0
 6918 0154 8CD1     		bne	.L1966
 6919 0156 5EE7     		b	.L1981
 6920              	.L2020:
 6921 0158 0125     		movs	r5, #1
 6922 015a 6575     		strb	r5, [r4, #21]
 6923 015c 88E7     		b	.L1966
 6924              	.L2018:
 6925 015e 6075     		strb	r0, [r4, #21]
 6926 0160 002E     		cmp	r6, #0
 6927 0162 CFD1     		bne	.L1976
 6928 0164 0546     		mov	r5, r0
 6929 0166 56E7     		b	.L1981
 6931              		.section	.text.f_unlink,"ax",%progbits
 6932              		.align	1
 6933              		.p2align 2,,3
 6934              		.global	f_unlink
 6935              		.syntax unified
 6936              		.thumb
 6937              		.thumb_func
 6938              		.fpu fpv4-sp-d16
 6940              	f_unlink:
 6941              		@ args = 0, pretend = 0, frame = 120
 6942              		@ frame_needed = 0, uses_anonymous_args = 0
 6943 0000 2DE9F047 		push	{r4, r5, r6, r7, r8, r9, r10, lr}
 6944 0004 9EB0     		sub	sp, sp, #120
 6945 0006 0222     		movs	r2, #2
 6946 0008 0190     		str	r0, [sp, #4]
 6947 000a 03A9     		add	r1, sp, #12
 6948 000c 01A8     		add	r0, sp, #4
 6949 000e FFF7FEFF 		bl	find_volume
 6950 0012 68B1     		cbz	r0, .L2086
 6951 0014 0446     		mov	r4, r0
 6952              	.L2022:
 6953 0016 039B     		ldr	r3, [sp, #12]
 6954 0018 33B1     		cbz	r3, .L2053
 6955 001a 0C2C     		cmp	r4, #12
 6956 001c 04D0     		beq	.L2053
ARM GAS  D:\Programs\cygwin64\tmp\ccQ42GcX.s 			page 122


 6957 001e 0B2C     		cmp	r4, #11
 6958 0020 02D0     		beq	.L2053
 6959 0022 0F2C     		cmp	r4, #15
 6960 0024 40F08380 		bne	.L2027
 6961              	.L2053:
 6962 0028 2046     		mov	r0, r4
 6963 002a 1EB0     		add	sp, sp, #120
 6964              		@ sp needed
 6965 002c BDE8F087 		pop	{r4, r5, r6, r7, r8, r9, r10, pc}
 6966              	.L2086:
 6967 0030 039B     		ldr	r3, [sp, #12]
 6968 0032 0493     		str	r3, [sp, #16]
 6969 0034 4FF40070 		mov	r0, #512
 6970 0038 FFF7FEFF 		bl	ff_memalloc
 6971 003c 039B     		ldr	r3, [sp, #12]
 6972 003e 0646     		mov	r6, r0
 6973 0040 0028     		cmp	r0, #0
 6974 0042 7BD0     		beq	.L2087
 6975 0044 D860     		str	r0, [r3, #12]
 6976 0046 0199     		ldr	r1, [sp, #4]
 6977 0048 04A8     		add	r0, sp, #16
 6978 004a FFF7FEFF 		bl	follow_path
 6979 004e 0446     		mov	r4, r0
 6980 0050 0028     		cmp	r0, #0
 6981 0052 5AD1     		bne	.L2025
 6982 0054 594B     		ldr	r3, .L2091
 6983 0056 049D     		ldr	r5, [sp, #16]
 6984 0058 1A68     		ldr	r2, [r3]
 6985 005a 0699     		ldr	r1, [sp, #24]
 6986 005c 099F     		ldr	r7, [sp, #36]
 6987 005e 0AB1     		cbz	r2, .L2026
 6988 0060 9542     		cmp	r5, r2
 6989 0062 56D0     		beq	.L2088
 6990              	.L2026:
 6991 0064 1A69     		ldr	r2, [r3, #16]
 6992 0066 12B1     		cbz	r2, .L2028
 6993 0068 AA42     		cmp	r2, r5
 6994 006a 00F08980 		beq	.L2089
 6995              	.L2028:
 6996 006e 9DF93F30 		ldrsb	r3, [sp, #63]
 6997 0072 002B     		cmp	r3, #0
 6998 0074 68DB     		blt	.L2029
 6999 0076 9DF81630 		ldrb	r3, [sp, #22]	@ zero_extendqisi2
 7000 007a D907     		lsls	r1, r3, #31
 7001 007c 6CD4     		bmi	.L2084
 7002 007e 039C     		ldr	r4, [sp, #12]
 7003 0080 0C9A     		ldr	r2, [sp, #48]
 7004 0082 2178     		ldrb	r1, [r4]	@ zero_extendqisi2
 7005 0084 D07E     		ldrb	r0, [r2, #27]	@ zero_extendqisi2
 7006 0086 92F81AA0 		ldrb	r10, [r2, #26]	@ zero_extendqisi2
 7007 008a 0329     		cmp	r1, #3
 7008 008c 4AEA002A 		orr	r10, r10, r0, lsl #8
 7009 0090 05D1     		bne	.L2031
 7010 0092 517D     		ldrb	r1, [r2, #21]	@ zero_extendqisi2
 7011 0094 127D     		ldrb	r2, [r2, #20]	@ zero_extendqisi2
 7012 0096 42EA0122 		orr	r2, r2, r1, lsl #8
 7013 009a 4AEA024A 		orr	r10, r10, r2, lsl #16
ARM GAS  D:\Programs\cygwin64\tmp\ccQ42GcX.s 			page 123


 7014              	.L2031:
 7015 009e DA06     		lsls	r2, r3, #27
 7016 00a0 77D4     		bmi	.L2090
 7017              	.L2032:
 7018 00a2 1099     		ldr	r1, [sp, #64]
 7019 00a4 4B1C     		adds	r3, r1, #1
 7020 00a6 04D0     		beq	.L2037
 7021 00a8 04A8     		add	r0, sp, #16
 7022 00aa FFF7FEFF 		bl	dir_sdi
 7023 00ae 0446     		mov	r4, r0
 7024 00b0 58BB     		cbnz	r0, .L2025
 7025              	.L2037:
 7026 00b2 4FF0E509 		mov	r9, #229
 7027 00b6 4FF00108 		mov	r8, #1
 7028 00ba 04E0     		b	.L2036
 7029              	.L2080:
 7030 00bc FFF7FEFF 		bl	dir_next.constprop.17
 7031 00c0 0446     		mov	r4, r0
 7032 00c2 0028     		cmp	r0, #0
 7033 00c4 52D1     		bne	.L2041
 7034              	.L2036:
 7035 00c6 0B9A     		ldr	r2, [sp, #44]
 7036 00c8 6B6B     		ldr	r3, [r5, #52]
 7037 00ca 9A42     		cmp	r2, r3
 7038 00cc 2846     		mov	r0, r5
 7039 00ce 1146     		mov	r1, r2
 7040 00d0 04D0     		beq	.L2042
 7041 00d2 FFF7FEFF 		bl	move_window.part.9
 7042 00d6 0446     		mov	r4, r0
 7043 00d8 0028     		cmp	r0, #0
 7044 00da 47D1     		bne	.L2041
 7045              	.L2042:
 7046 00dc 0C9B     		ldr	r3, [sp, #48]
 7047 00de 83F80090 		strb	r9, [r3]
 7048 00e2 85F80380 		strb	r8, [r5, #3]
 7049 00e6 099B     		ldr	r3, [sp, #36]
 7050 00e8 BB42     		cmp	r3, r7
 7051 00ea 04A8     		add	r0, sp, #16
 7052 00ec E6D3     		bcc	.L2080
 7053 00ee BAF1000F 		cmp	r10, #0
 7054 00f2 06D0     		beq	.L2044
 7055 00f4 5146     		mov	r1, r10
 7056 00f6 04A8     		add	r0, sp, #16
 7057 00f8 0022     		movs	r2, #0
 7058 00fa FFF7FEFF 		bl	remove_chain
 7059 00fe 0446     		mov	r4, r0
 7060 0100 18B9     		cbnz	r0, .L2025
 7061              	.L2044:
 7062 0102 0398     		ldr	r0, [sp, #12]
 7063 0104 FFF7FEFF 		bl	sync_fs
 7064 0108 0446     		mov	r4, r0
 7065              	.L2025:
 7066 010a 3046     		mov	r0, r6
 7067 010c FFF7FEFF 		bl	ff_memfree
 7068 0110 81E7     		b	.L2022
 7069              	.L2088:
 7070 0112 5A68     		ldr	r2, [r3, #4]
ARM GAS  D:\Programs\cygwin64\tmp\ccQ42GcX.s 			page 124


 7071 0114 9142     		cmp	r1, r2
 7072 0116 A5D1     		bne	.L2026
 7073 0118 9A68     		ldr	r2, [r3, #8]
 7074 011a 9742     		cmp	r7, r2
 7075 011c A2D1     		bne	.L2026
 7076              	.L2085:
 7077 011e 3046     		mov	r0, r6
 7078 0120 FFF7FEFF 		bl	ff_memfree
 7079 0124 039B     		ldr	r3, [sp, #12]
 7080 0126 1024     		movs	r4, #16
 7081 0128 002B     		cmp	r3, #0
 7082 012a 3FF47DAF 		beq	.L2053
 7083              	.L2027:
 7084 012e 1869     		ldr	r0, [r3, #16]
 7085 0130 FFF7FEFF 		bl	ff_rel_grant
 7086 0134 2046     		mov	r0, r4
 7087 0136 1EB0     		add	sp, sp, #120
 7088              		@ sp needed
 7089 0138 BDE8F087 		pop	{r4, r5, r6, r7, r8, r9, r10, pc}
 7090              	.L2087:
 7091 013c A3B1     		cbz	r3, .L2046
 7092 013e 1869     		ldr	r0, [r3, #16]
 7093 0140 FFF7FEFF 		bl	ff_rel_grant
 7094 0144 1124     		movs	r4, #17
 7095 0146 6FE7     		b	.L2053
 7096              	.L2029:
 7097 0148 3046     		mov	r0, r6
 7098 014a FFF7FEFF 		bl	ff_memfree
 7099 014e 039B     		ldr	r3, [sp, #12]
 7100 0150 0624     		movs	r4, #6
 7101 0152 002B     		cmp	r3, #0
 7102 0154 EBD1     		bne	.L2027
 7103 0156 67E7     		b	.L2053
 7104              	.L2084:
 7105 0158 3046     		mov	r0, r6
 7106 015a FFF7FEFF 		bl	ff_memfree
 7107 015e 039B     		ldr	r3, [sp, #12]
 7108 0160 0724     		movs	r4, #7
 7109 0162 002B     		cmp	r3, #0
 7110 0164 E3D1     		bne	.L2027
 7111 0166 5FE7     		b	.L2053
 7112              	.L2046:
 7113 0168 1124     		movs	r4, #17
 7114 016a 5DE7     		b	.L2053
 7115              	.L2041:
 7116 016c 042C     		cmp	r4, #4
 7117 016e CCD1     		bne	.L2025
 7118 0170 3046     		mov	r0, r6
 7119 0172 FFF7FEFF 		bl	ff_memfree
 7120 0176 039B     		ldr	r3, [sp, #12]
 7121 0178 0224     		movs	r4, #2
 7122 017a 002B     		cmp	r3, #0
 7123 017c D7D1     		bne	.L2027
 7124 017e 53E7     		b	.L2053
 7125              	.L2089:
 7126 0180 5A69     		ldr	r2, [r3, #20]
 7127 0182 8A42     		cmp	r2, r1
ARM GAS  D:\Programs\cygwin64\tmp\ccQ42GcX.s 			page 125


 7128 0184 7FF473AF 		bne	.L2028
 7129 0188 9B69     		ldr	r3, [r3, #24]
 7130 018a BB42     		cmp	r3, r7
 7131 018c 7FF46FAF 		bne	.L2028
 7132 0190 C5E7     		b	.L2085
 7133              	.L2090:
 7134 0192 11A8     		add	r0, sp, #68
 7135 0194 0021     		movs	r1, #0
 7136 0196 1194     		str	r4, [sp, #68]
 7137 0198 CDF84CA0 		str	r10, [sp, #76]
 7138 019c FFF7FEFF 		bl	dir_sdi
 7139 01a0 0446     		mov	r4, r0
 7140 01a2 0028     		cmp	r0, #0
 7141 01a4 B1D1     		bne	.L2025
 7142 01a6 11A8     		add	r0, sp, #68
 7143 01a8 FFF7FEFF 		bl	dir_read.constprop.16
 7144 01ac 0446     		mov	r4, r0
 7145 01ae 0028     		cmp	r0, #0
 7146 01b0 D2D0     		beq	.L2084
 7147 01b2 0428     		cmp	r0, #4
 7148 01b4 A9D1     		bne	.L2025
 7149 01b6 049D     		ldr	r5, [sp, #16]
 7150 01b8 099F     		ldr	r7, [sp, #36]
 7151 01ba 72E7     		b	.L2032
 7152              	.L2092:
 7153              		.align	2
 7154              	.L2091:
 7155 01bc 00000000 		.word	.LANCHOR2
 7157              		.section	.text.f_mkdir,"ax",%progbits
 7158              		.align	1
 7159              		.p2align 2,,3
 7160              		.global	f_mkdir
 7161              		.syntax unified
 7162              		.thumb
 7163              		.thumb_func
 7164              		.fpu fpv4-sp-d16
 7166              	f_mkdir:
 7167              		@ args = 0, pretend = 0, frame = 88
 7168              		@ frame_needed = 0, uses_anonymous_args = 0
 7169 0000 2DE9F04F 		push	{r4, r5, r6, r7, r8, r9, r10, fp, lr}
 7170 0004 97B0     		sub	sp, sp, #92
 7171 0006 0222     		movs	r2, #2
 7172 0008 0190     		str	r0, [sp, #4]
 7173 000a 03A9     		add	r1, sp, #12
 7174 000c 01A8     		add	r0, sp, #4
 7175 000e FFF7FEFF 		bl	find_volume
 7176 0012 60B1     		cbz	r0, .L2132
 7177 0014 0446     		mov	r4, r0
 7178              	.L2094:
 7179 0016 039B     		ldr	r3, [sp, #12]
 7180 0018 2BB1     		cbz	r3, .L2115
 7181 001a 0C2C     		cmp	r4, #12
 7182 001c 03D0     		beq	.L2115
 7183 001e 0B2C     		cmp	r4, #11
 7184 0020 01D0     		beq	.L2115
 7185 0022 0F2C     		cmp	r4, #15
 7186 0024 1BD1     		bne	.L2098
ARM GAS  D:\Programs\cygwin64\tmp\ccQ42GcX.s 			page 126


 7187              	.L2115:
 7188 0026 2046     		mov	r0, r4
 7189 0028 17B0     		add	sp, sp, #92
 7190              		@ sp needed
 7191 002a BDE8F08F 		pop	{r4, r5, r6, r7, r8, r9, r10, fp, pc}
 7192              	.L2132:
 7193 002e 039B     		ldr	r3, [sp, #12]
 7194 0030 0993     		str	r3, [sp, #36]
 7195 0032 0546     		mov	r5, r0
 7196 0034 4FF40070 		mov	r0, #512
 7197 0038 FFF7FEFF 		bl	ff_memalloc
 7198 003c 039B     		ldr	r3, [sp, #12]
 7199 003e 0646     		mov	r6, r0
 7200 0040 D0B1     		cbz	r0, .L2133
 7201 0042 D860     		str	r0, [r3, #12]
 7202 0044 0199     		ldr	r1, [sp, #4]
 7203 0046 09A8     		add	r0, sp, #36
 7204 0048 FFF7FEFF 		bl	follow_path
 7205 004c 0446     		mov	r4, r0
 7206 004e 68B9     		cbnz	r0, .L2097
 7207 0050 3046     		mov	r0, r6
 7208 0052 FFF7FEFF 		bl	ff_memfree
 7209 0056 039B     		ldr	r3, [sp, #12]
 7210 0058 0824     		movs	r4, #8
 7211 005a 002B     		cmp	r3, #0
 7212 005c E3D0     		beq	.L2115
 7213              	.L2098:
 7214 005e 1869     		ldr	r0, [r3, #16]
 7215 0060 FFF7FEFF 		bl	ff_rel_grant
 7216 0064 2046     		mov	r0, r4
 7217 0066 17B0     		add	sp, sp, #92
 7218              		@ sp needed
 7219 0068 BDE8F08F 		pop	{r4, r5, r6, r7, r8, r9, r10, fp, pc}
 7220              	.L2097:
 7221 006c 0428     		cmp	r0, #4
 7222 006e 0BD0     		beq	.L2134
 7223              	.L2099:
 7224 0070 3046     		mov	r0, r6
 7225 0072 FFF7FEFF 		bl	ff_memfree
 7226 0076 CEE7     		b	.L2094
 7227              	.L2133:
 7228 0078 23B1     		cbz	r3, .L2112
 7229 007a 1869     		ldr	r0, [r3, #16]
 7230 007c FFF7FEFF 		bl	ff_rel_grant
 7231 0080 1124     		movs	r4, #17
 7232 0082 D0E7     		b	.L2115
 7233              	.L2112:
 7234 0084 1124     		movs	r4, #17
 7235 0086 CEE7     		b	.L2115
 7236              	.L2134:
 7237 0088 2946     		mov	r1, r5
 7238 008a 039B     		ldr	r3, [sp, #12]
 7239 008c 0493     		str	r3, [sp, #16]
 7240 008e 04A8     		add	r0, sp, #16
 7241 0090 FFF7FEFF 		bl	create_chain
 7242 0094 0546     		mov	r5, r0
 7243 0096 40B9     		cbnz	r0, .L2135
ARM GAS  D:\Programs\cygwin64\tmp\ccQ42GcX.s 			page 127


 7244 0098 FFF7FEFF 		bl	get_fattime
 7245 009c 0724     		movs	r4, #7
 7246              	.L2104:
 7247 009e 2946     		mov	r1, r5
 7248 00a0 04A8     		add	r0, sp, #16
 7249 00a2 0022     		movs	r2, #0
 7250 00a4 FFF7FEFF 		bl	remove_chain
 7251 00a8 E2E7     		b	.L2099
 7252              	.L2135:
 7253 00aa 0128     		cmp	r0, #1
 7254 00ac 00F0A380 		beq	.L2101
 7255 00b0 431C     		adds	r3, r0, #1
 7256 00b2 00F09C80 		beq	.L2102
 7257 00b6 FFF7FEFF 		bl	get_fattime
 7258 00ba 2946     		mov	r1, r5
 7259 00bc 0746     		mov	r7, r0
 7260 00be 0398     		ldr	r0, [sp, #12]
 7261 00c0 FFF7FEFF 		bl	dir_clear
 7262 00c4 0446     		mov	r4, r0
 7263 00c6 0028     		cmp	r0, #0
 7264 00c8 E9D1     		bne	.L2104
 7265 00ca 039B     		ldr	r3, [sp, #12]
 7266 00cc 03F13800 		add	r0, r3, #56
 7267 00d0 4FF02032 		mov	r2, #538976288
 7268 00d4 9A63     		str	r2, [r3, #56]	@ unaligned
 7269 00d6 4260     		str	r2, [r0, #4]	@ unaligned
 7270 00d8 C0F80720 		str	r2, [r0, #7]	@ unaligned
 7271 00dc 1C78     		ldrb	r4, [r3]	@ zero_extendqisi2
 7272 00de 1021     		movs	r1, #16
 7273 00e0 FAB2     		uxtb	r2, r7
 7274 00e2 C7F3072B 		ubfx	fp, r7, #8, #8
 7275 00e6 C7F3074A 		ubfx	r10, r7, #16, #8
 7276 00ea 4FF02E0C 		mov	ip, #46
 7277 00ee 3F0E     		lsrs	r7, r7, #24
 7278 00f0 5FFA85F9 		uxtb	r9, r5
 7279 00f4 C5F30728 		ubfx	r8, r5, #8, #8
 7280 00f8 032C     		cmp	r4, #3
 7281 00fa 83F84310 		strb	r1, [r3, #67]
 7282 00fe 83F838C0 		strb	ip, [r3, #56]
 7283 0102 0146     		mov	r1, r0
 7284 0104 83F84E20 		strb	r2, [r3, #78]
 7285 0108 83F84FB0 		strb	fp, [r3, #79]
 7286 010c 83F850A0 		strb	r10, [r3, #80]
 7287 0110 83F85170 		strb	r7, [r3, #81]
 7288 0114 83F85290 		strb	r9, [r3, #82]
 7289 0118 83F85380 		strb	r8, [r3, #83]
 7290 011c 06D1     		bne	.L2105
 7291 011e 2C0C     		lsrs	r4, r5, #16
 7292 0120 4FEA142C 		lsr	ip, r4, #8
 7293 0124 83F84C40 		strb	r4, [r3, #76]
 7294 0128 83F84DC0 		strb	ip, [r3, #77]
 7295              	.L2105:
 7296 012c 03F15C04 		add	r4, r3, #92
 7297 0130 8442     		cmp	r4, r0
 7298 0132 05D9     		bls	.L2114
 7299 0134 03F15800 		add	r0, r3, #88
 7300 0138 03F13C04 		add	r4, r3, #60
ARM GAS  D:\Programs\cygwin64\tmp\ccQ42GcX.s 			page 128


 7301 013c A042     		cmp	r0, r4
 7302 013e 50D3     		bcc	.L2109
 7303              	.L2114:
 7304 0140 986B     		ldr	r0, [r3, #56]	@ unaligned
 7305 0142 D96B     		ldr	r1, [r3, #60]	@ unaligned
 7306 0144 9865     		str	r0, [r3, #88]	@ unaligned
 7307 0146 D965     		str	r1, [r3, #92]	@ unaligned
 7308 0148 186C     		ldr	r0, [r3, #64]	@ unaligned
 7309 014a 596C     		ldr	r1, [r3, #68]	@ unaligned
 7310 014c 1866     		str	r0, [r3, #96]	@ unaligned
 7311 014e 5966     		str	r1, [r3, #100]	@ unaligned
 7312 0150 986C     		ldr	r0, [r3, #72]	@ unaligned
 7313 0152 D96C     		ldr	r1, [r3, #76]	@ unaligned
 7314 0154 9866     		str	r0, [r3, #104]	@ unaligned
 7315 0156 D966     		str	r1, [r3, #108]	@ unaligned
 7316 0158 186D     		ldr	r0, [r3, #80]	@ unaligned
 7317 015a 596D     		ldr	r1, [r3, #84]	@ unaligned
 7318 015c 1867     		str	r0, [r3, #112]	@ unaligned
 7319 015e 5967     		str	r1, [r3, #116]	@ unaligned
 7320              	.L2108:
 7321 0160 039B     		ldr	r3, [sp, #12]
 7322 0162 0B99     		ldr	r1, [sp, #44]
 7323 0164 1878     		ldrb	r0, [r3]	@ zero_extendqisi2
 7324 0166 83F87210 		strb	r1, [r3, #114]
 7325 016a C1F30724 		ubfx	r4, r1, #8, #8
 7326 016e 83F87340 		strb	r4, [r3, #115]
 7327 0172 0328     		cmp	r0, #3
 7328 0174 4FF02E04 		mov	r4, #46
 7329 0178 83F85940 		strb	r4, [r3, #89]
 7330 017c 05D1     		bne	.L2110
 7331 017e 090C     		lsrs	r1, r1, #16
 7332 0180 080A     		lsrs	r0, r1, #8
 7333 0182 83F86C10 		strb	r1, [r3, #108]
 7334 0186 83F86D00 		strb	r0, [r3, #109]
 7335              	.L2110:
 7336 018a 0121     		movs	r1, #1
 7337 018c 09A8     		add	r0, sp, #36
 7338 018e D970     		strb	r1, [r3, #3]
 7339 0190 0092     		str	r2, [sp]
 7340 0192 FFF7FEFF 		bl	dir_register
 7341 0196 0446     		mov	r4, r0
 7342 0198 0028     		cmp	r0, #0
 7343 019a 80D1     		bne	.L2104
 7344 019c 009A     		ldr	r2, [sp]
 7345 019e 039B     		ldr	r3, [sp, #12]
 7346 01a0 62F30704 		bfi	r4, r2, #0, #8
 7347 01a4 6BF30F24 		bfi	r4, fp, #8, #8
 7348 01a8 119A     		ldr	r2, [sp, #68]
 7349 01aa 6AF31744 		bfi	r4, r10, #16, #8
 7350 01ae 67F31F64 		bfi	r4, r7, #24, #8
 7351 01b2 C2F81640 		str	r4, [r2, #22]	@ unaligned
 7352 01b6 119A     		ldr	r2, [sp, #68]
 7353 01b8 82F81A90 		strb	r9, [r2, #26]
 7354 01bc 82F81B80 		strb	r8, [r2, #27]
 7355 01c0 1978     		ldrb	r1, [r3]	@ zero_extendqisi2
 7356 01c2 0329     		cmp	r1, #3
 7357 01c4 03D1     		bne	.L2111
ARM GAS  D:\Programs\cygwin64\tmp\ccQ42GcX.s 			page 129


 7358 01c6 2D0C     		lsrs	r5, r5, #16
 7359 01c8 290A     		lsrs	r1, r5, #8
 7360 01ca 1575     		strb	r5, [r2, #20]
 7361 01cc 5175     		strb	r1, [r2, #21]
 7362              	.L2111:
 7363 01ce 1199     		ldr	r1, [sp, #68]
 7364 01d0 1020     		movs	r0, #16
 7365 01d2 0122     		movs	r2, #1
 7366 01d4 C872     		strb	r0, [r1, #11]
 7367 01d6 1846     		mov	r0, r3
 7368 01d8 DA70     		strb	r2, [r3, #3]
 7369 01da FFF7FEFF 		bl	sync_fs
 7370 01de 0446     		mov	r4, r0
 7371 01e0 46E7     		b	.L2099
 7372              	.L2109:
 7373 01e2 11F8013B 		ldrb	r3, [r1], #1	@ zero_extendqisi2
 7374 01e6 CB77     		strb	r3, [r1, #31]
 7375 01e8 8142     		cmp	r1, r0
 7376 01ea FAD1     		bne	.L2109
 7377 01ec B8E7     		b	.L2108
 7378              	.L2102:
 7379 01ee FFF7FEFF 		bl	get_fattime
 7380 01f2 0124     		movs	r4, #1
 7381 01f4 53E7     		b	.L2104
 7382              	.L2101:
 7383 01f6 FFF7FEFF 		bl	get_fattime
 7384 01fa 0224     		movs	r4, #2
 7385 01fc 4FE7     		b	.L2104
 7387              		.section	.text.f_rename,"ax",%progbits
 7388              		.align	1
 7389              		.p2align 2,,3
 7390              		.global	f_rename
 7391              		.syntax unified
 7392              		.thumb
 7393              		.thumb_func
 7394              		.fpu fpv4-sp-d16
 7396              	f_rename:
 7397              		@ args = 0, pretend = 0, frame = 160
 7398              		@ frame_needed = 0, uses_anonymous_args = 0
 7399 0000 2DE9F04F 		push	{r4, r5, r6, r7, r8, r9, r10, fp, lr}
 7400 0004 A9B0     		sub	sp, sp, #164
 7401 0006 0E46     		mov	r6, r1
 7402 0008 0390     		str	r0, [sp, #12]
 7403 000a 39B1     		cbz	r1, .L2137
 7404 000c 0B46     		mov	r3, r1
 7405 000e 01E0     		b	.L2138
 7406              	.L2240:
 7407 0010 3A2A     		cmp	r2, #58
 7408 0012 3BD0     		beq	.L2239
 7409              	.L2138:
 7410 0014 13F8012B 		ldrb	r2, [r3], #1	@ zero_extendqisi2
 7411 0018 1F2A     		cmp	r2, #31
 7412 001a F9D8     		bhi	.L2240
 7413              	.L2137:
 7414 001c 0222     		movs	r2, #2
 7415 001e 05A9     		add	r1, sp, #20
 7416 0020 03A8     		add	r0, sp, #12
ARM GAS  D:\Programs\cygwin64\tmp\ccQ42GcX.s 			page 130


 7417 0022 FFF7FEFF 		bl	find_volume
 7418 0026 0446     		mov	r4, r0
 7419 0028 48B1     		cbz	r0, .L2241
 7420              	.L2140:
 7421 002a 059B     		ldr	r3, [sp, #20]
 7422 002c 1BB1     		cbz	r3, .L2199
 7423 002e 0C2C     		cmp	r4, #12
 7424 0030 01D0     		beq	.L2199
 7425 0032 0B2C     		cmp	r4, #11
 7426 0034 36D1     		bne	.L2242
 7427              	.L2199:
 7428 0036 2046     		mov	r0, r4
 7429 0038 29B0     		add	sp, sp, #164
 7430              		@ sp needed
 7431 003a BDE8F08F 		pop	{r4, r5, r6, r7, r8, r9, r10, fp, pc}
 7432              	.L2241:
 7433 003e 059B     		ldr	r3, [sp, #20]
 7434 0040 0E93     		str	r3, [sp, #56]
 7435 0042 4FF40070 		mov	r0, #512
 7436 0046 FFF7FEFF 		bl	ff_memalloc
 7437 004a 059B     		ldr	r3, [sp, #20]
 7438 004c 0546     		mov	r5, r0
 7439 004e 0028     		cmp	r0, #0
 7440 0050 00F0EE80 		beq	.L2243
 7441 0054 D860     		str	r0, [r3, #12]
 7442 0056 0399     		ldr	r1, [sp, #12]
 7443 0058 0EA8     		add	r0, sp, #56
 7444 005a FFF7FEFF 		bl	follow_path
 7445 005e 0446     		mov	r4, r0
 7446 0060 0028     		cmp	r0, #0
 7447 0062 40F0EC80 		bne	.L2143
 7448 0066 9DF86730 		ldrb	r3, [sp, #103]	@ zero_extendqisi2
 7449 006a 13F0A00F 		tst	r3, #160
 7450 006e 1FD0     		beq	.L2244
 7451 0070 2846     		mov	r0, r5
 7452 0072 FFF7FEFF 		bl	ff_memfree
 7453 0076 059B     		ldr	r3, [sp, #20]
 7454 0078 0624     		movs	r4, #6
 7455 007a 002B     		cmp	r3, #0
 7456 007c DBD0     		beq	.L2199
 7457              	.L2151:
 7458 007e 1869     		ldr	r0, [r3, #16]
 7459 0080 FFF7FEFF 		bl	ff_rel_grant
 7460 0084 2046     		mov	r0, r4
 7461 0086 29B0     		add	sp, sp, #164
 7462              		@ sp needed
 7463 0088 BDE8F08F 		pop	{r4, r5, r6, r7, r8, r9, r10, fp, pc}
 7464              	.L2239:
 7465 008c 3278     		ldrb	r2, [r6]	@ zero_extendqisi2
 7466 008e A2F13001 		sub	r1, r2, #48
 7467 0092 0929     		cmp	r1, #9
 7468 0094 C2D8     		bhi	.L2137
 7469 0096 B11C     		adds	r1, r6, #2
 7470 0098 8B42     		cmp	r3, r1
 7471 009a BFD1     		bne	.L2137
 7472 009c 322A     		cmp	r2, #50
 7473 009e 98BF     		it	ls
ARM GAS  D:\Programs\cygwin64\tmp\ccQ42GcX.s 			page 131


 7474 00a0 1E46     		movls	r6, r3
 7475 00a2 BBE7     		b	.L2137
 7476              	.L2242:
 7477 00a4 0F2C     		cmp	r4, #15
 7478 00a6 EAD1     		bne	.L2151
 7479 00a8 2046     		mov	r0, r4
 7480 00aa 29B0     		add	sp, sp, #164
 7481              		@ sp needed
 7482 00ac BDE8F08F 		pop	{r4, r5, r6, r7, r8, r9, r10, fp, pc}
 7483              	.L2244:
 7484 00b0 AB4B     		ldr	r3, .L2249
 7485 00b2 0E99     		ldr	r1, [sp, #56]
 7486 00b4 1A68     		ldr	r2, [r3]
 7487 00b6 1098     		ldr	r0, [sp, #64]
 7488 00b8 139C     		ldr	r4, [sp, #76]
 7489 00ba 7AB1     		cbz	r2, .L2145
 7490 00bc 9142     		cmp	r1, r2
 7491 00be 0DD1     		bne	.L2145
 7492 00c0 5A68     		ldr	r2, [r3, #4]
 7493 00c2 9042     		cmp	r0, r2
 7494 00c4 0AD1     		bne	.L2145
 7495 00c6 9A68     		ldr	r2, [r3, #8]
 7496 00c8 9442     		cmp	r4, r2
 7497 00ca 07D1     		bne	.L2145
 7498              	.L2148:
 7499 00cc 2846     		mov	r0, r5
 7500 00ce FFF7FEFF 		bl	ff_memfree
 7501 00d2 059B     		ldr	r3, [sp, #20]
 7502 00d4 1024     		movs	r4, #16
 7503 00d6 002B     		cmp	r3, #0
 7504 00d8 D1D1     		bne	.L2151
 7505 00da ACE7     		b	.L2199
 7506              	.L2145:
 7507 00dc 1A69     		ldr	r2, [r3, #16]
 7508 00de 12B1     		cbz	r2, .L2147
 7509 00e0 8A42     		cmp	r2, r1
 7510 00e2 00F0BF80 		beq	.L2245
 7511              	.L2147:
 7512 00e6 169F     		ldr	r7, [sp, #88]
 7513 00e8 3868     		ldr	r0, [r7]	@ unaligned
 7514 00ea 7968     		ldr	r1, [r7, #4]	@ unaligned
 7515 00ec BA68     		ldr	r2, [r7, #8]	@ unaligned
 7516 00ee FB68     		ldr	r3, [r7, #12]	@ unaligned
 7517 00f0 06AC     		add	r4, sp, #24
 7518 00f2 0FC4     		stmia	r4!, {r0, r1, r2, r3}
 7519 00f4 3869     		ldr	r0, [r7, #16]	@ unaligned
 7520 00f6 7969     		ldr	r1, [r7, #20]	@ unaligned
 7521 00f8 BA69     		ldr	r2, [r7, #24]	@ unaligned
 7522 00fa FB69     		ldr	r3, [r7, #28]	@ unaligned
 7523 00fc 0EAF     		add	r7, sp, #56
 7524 00fe 0FC4     		stmia	r4!, {r0, r1, r2, r3}
 7525 0100 0FCF     		ldmia	r7!, {r0, r1, r2, r3}
 7526 0102 1BAC     		add	r4, sp, #108
 7527 0104 0FC4     		stmia	r4!, {r0, r1, r2, r3}
 7528 0106 0FCF     		ldmia	r7!, {r0, r1, r2, r3}
 7529 0108 0FC4     		stmia	r4!, {r0, r1, r2, r3}
 7530 010a 0FCF     		ldmia	r7!, {r0, r1, r2, r3}
ARM GAS  D:\Programs\cygwin64\tmp\ccQ42GcX.s 			page 132


 7531 010c 0FC4     		stmia	r4!, {r0, r1, r2, r3}
 7532 010e 3B68     		ldr	r3, [r7]
 7533 0110 2360     		str	r3, [r4]
 7534 0112 3146     		mov	r1, r6
 7535 0114 1BA8     		add	r0, sp, #108
 7536 0116 FFF7FEFF 		bl	follow_path
 7537 011a 0446     		mov	r4, r0
 7538 011c 0028     		cmp	r0, #0
 7539 011e 00F09280 		beq	.L2149
 7540 0122 0428     		cmp	r0, #4
 7541 0124 40F08B80 		bne	.L2143
 7542              	.L2153:
 7543 0128 1BA8     		add	r0, sp, #108
 7544 012a FFF7FEFF 		bl	dir_register
 7545 012e 0446     		mov	r4, r0
 7546 0130 0028     		cmp	r0, #0
 7547 0132 40F08480 		bne	.L2143
 7548 0136 239B     		ldr	r3, [sp, #140]
 7549 0138 DDF82500 		ldr	r0, [sp, #37]	@ unaligned
 7550 013c C3F80D00 		str	r0, [r3, #13]	@ unaligned
 7551 0140 DDF82900 		ldr	r0, [sp, #41]	@ unaligned
 7552 0144 9DF82310 		ldrb	r1, [sp, #35]	@ zero_extendqisi2
 7553 0148 C3F81100 		str	r0, [r3, #17]	@ unaligned
 7554 014c DDF82D00 		ldr	r0, [sp, #45]	@ unaligned
 7555 0150 BDF83540 		ldrh	r4, [sp, #53]	@ unaligned
 7556 0154 C3F81500 		str	r0, [r3, #21]	@ unaligned
 7557 0158 DDF83100 		ldr	r0, [sp, #49]	@ unaligned
 7558 015c C3F81900 		str	r0, [r3, #25]	@ unaligned
 7559 0160 A3F81D40 		strh	r4, [r3, #29]	@ unaligned
 7560 0164 9DF83700 		ldrb	r0, [sp, #55]	@ zero_extendqisi2
 7561 0168 D877     		strb	r0, [r3, #31]
 7562 016a CC06     		lsls	r4, r1, #27
 7563 016c 00F11181 		bmi	.L2155
 7564 0170 41F02001 		orr	r1, r1, #32
 7565 0174 D972     		strb	r1, [r3, #11]
 7566              	.L2156:
 7567 0176 0598     		ldr	r0, [sp, #20]
 7568 0178 0122     		movs	r2, #1
 7569 017a C270     		strb	r2, [r0, #3]
 7570 017c DA7A     		ldrb	r2, [r3, #11]	@ zero_extendqisi2
 7571 017e D206     		lsls	r2, r2, #27
 7572 0180 2BD5     		bpl	.L2158
 7573 0182 1099     		ldr	r1, [sp, #64]
 7574 0184 1D9A     		ldr	r2, [sp, #116]
 7575 0186 9142     		cmp	r1, r2
 7576 0188 27D0     		beq	.L2158
 7577 018a 0178     		ldrb	r1, [r0]	@ zero_extendqisi2
 7578 018c DC7E     		ldrb	r4, [r3, #27]	@ zero_extendqisi2
 7579 018e 9A7E     		ldrb	r2, [r3, #26]	@ zero_extendqisi2
 7580 0190 0329     		cmp	r1, #3
 7581 0192 42EA0422 		orr	r2, r2, r4, lsl #8
 7582 0196 05D1     		bne	.L2159
 7583 0198 597D     		ldrb	r1, [r3, #21]	@ zero_extendqisi2
 7584 019a 1B7D     		ldrb	r3, [r3, #20]	@ zero_extendqisi2
 7585 019c 43EA0123 		orr	r3, r3, r1, lsl #8
 7586 01a0 42EA0342 		orr	r2, r2, r3, lsl #16
 7587              	.L2159:
ARM GAS  D:\Programs\cygwin64\tmp\ccQ42GcX.s 			page 133


 7588 01a4 C369     		ldr	r3, [r0, #28]
 7589 01a6 023A     		subs	r2, r2, #2
 7590 01a8 023B     		subs	r3, r3, #2
 7591 01aa 9A42     		cmp	r2, r3
 7592 01ac 80F0F380 		bcs	.L2177
 7593 01b0 4389     		ldrh	r3, [r0, #10]
 7594 01b2 016B     		ldr	r1, [r0, #48]
 7595 01b4 02FB0311 		mla	r1, r2, r3, r1
 7596 01b8 0029     		cmp	r1, #0
 7597 01ba 00F0EC80 		beq	.L2177
 7598 01be 436B     		ldr	r3, [r0, #52]
 7599 01c0 9942     		cmp	r1, r3
 7600 01c2 05D0     		beq	.L2163
 7601 01c4 FFF7FEFF 		bl	move_window.part.9
 7602 01c8 0446     		mov	r4, r0
 7603 01ca 0028     		cmp	r0, #0
 7604 01cc 37D1     		bne	.L2143
 7605 01ce 0598     		ldr	r0, [sp, #20]
 7606              	.L2163:
 7607 01d0 90F85930 		ldrb	r3, [r0, #89]	@ zero_extendqisi2
 7608 01d4 2E2B     		cmp	r3, #46
 7609 01d6 00F0E580 		beq	.L2246
 7610              	.L2158:
 7611 01da 1A99     		ldr	r1, [sp, #104]
 7612 01dc 0E9E     		ldr	r6, [sp, #56]
 7613 01de DDF84C80 		ldr	r8, [sp, #76]
 7614 01e2 481C     		adds	r0, r1, #1
 7615 01e4 04D0     		beq	.L2168
 7616 01e6 0EA8     		add	r0, sp, #56
 7617 01e8 FFF7FEFF 		bl	dir_sdi
 7618 01ec 0446     		mov	r4, r0
 7619 01ee 30BB     		cbnz	r0, .L2143
 7620              	.L2168:
 7621 01f0 159F     		ldr	r7, [sp, #84]
 7622 01f2 DFF870A1 		ldr	r10, .L2249+4
 7623 01f6 06F1380B 		add	fp, r6, #56
 7624 01fa 4FF00109 		mov	r9, #1
 7625              	.L2167:
 7626 01fe 726B     		ldr	r2, [r6, #52]
 7627 0200 9742     		cmp	r7, r2
 7628 0202 39D0     		beq	.L2169
 7629 0204 F378     		ldrb	r3, [r6, #3]	@ zero_extendqisi2
 7630 0206 7078     		ldrb	r0, [r6, #1]	@ zero_extendqisi2
 7631 0208 002B     		cmp	r3, #0
 7632 020a 5FD1     		bne	.L2247
 7633              	.L2170:
 7634 020c 0123     		movs	r3, #1
 7635 020e 3A46     		mov	r2, r7
 7636 0210 5946     		mov	r1, fp
 7637 0212 FFF7FEFF 		bl	disk_read
 7638 0216 70B3     		cbz	r0, .L2172
 7639 0218 4FF0FF33 		mov	r3, #-1
 7640 021c 7363     		str	r3, [r6, #52]
 7641 021e 2846     		mov	r0, r5
 7642 0220 FFF7FEFF 		bl	ff_memfree
 7643 0224 059B     		ldr	r3, [sp, #20]
 7644 0226 0124     		movs	r4, #1
ARM GAS  D:\Programs\cygwin64\tmp\ccQ42GcX.s 			page 134


 7645 0228 002B     		cmp	r3, #0
 7646 022a 7FF428AF 		bne	.L2151
 7647 022e 02E7     		b	.L2199
 7648              	.L2243:
 7649 0230 B3B1     		cbz	r3, .L2183
 7650 0232 1869     		ldr	r0, [r3, #16]
 7651 0234 FFF7FEFF 		bl	ff_rel_grant
 7652 0238 1124     		movs	r4, #17
 7653 023a FCE6     		b	.L2199
 7654              	.L2191:
 7655 023c 0224     		movs	r4, #2
 7656              	.L2143:
 7657 023e 2846     		mov	r0, r5
 7658 0240 FFF7FEFF 		bl	ff_memfree
 7659 0244 F1E6     		b	.L2140
 7660              	.L2149:
 7661 0246 1D9A     		ldr	r2, [sp, #116]
 7662 0248 109B     		ldr	r3, [sp, #64]
 7663 024a 9A42     		cmp	r2, r3
 7664 024c 7CD0     		beq	.L2152
 7665              	.L2237:
 7666 024e 2846     		mov	r0, r5
 7667 0250 FFF7FEFF 		bl	ff_memfree
 7668 0254 059B     		ldr	r3, [sp, #20]
 7669 0256 0824     		movs	r4, #8
 7670 0258 002B     		cmp	r3, #0
 7671 025a 7FF410AF 		bne	.L2151
 7672 025e EAE6     		b	.L2199
 7673              	.L2183:
 7674 0260 1124     		movs	r4, #17
 7675 0262 E8E6     		b	.L2199
 7676              	.L2245:
 7677 0264 5A69     		ldr	r2, [r3, #20]
 7678 0266 8242     		cmp	r2, r0
 7679 0268 7FF43DAF 		bne	.L2147
 7680 026c 9B69     		ldr	r3, [r3, #24]
 7681 026e A342     		cmp	r3, r4
 7682 0270 7FF439AF 		bne	.L2147
 7683 0274 2AE7     		b	.L2148
 7684              	.L2172:
 7685 0276 7763     		str	r7, [r6, #52]
 7686              	.L2169:
 7687 0278 169B     		ldr	r3, [sp, #88]
 7688 027a E522     		movs	r2, #229
 7689 027c 1A70     		strb	r2, [r3]
 7690 027e 86F80390 		strb	r9, [r6, #3]
 7691 0282 139C     		ldr	r4, [sp, #76]
 7692 0284 A045     		cmp	r8, r4
 7693 0286 65D9     		bls	.L2173
 7694 0288 2034     		adds	r4, r4, #32
 7695 028a 5445     		cmp	r4, r10
 7696 028c 0AD9     		bls	.L2174
 7697 028e 0023     		movs	r3, #0
 7698 0290 2846     		mov	r0, r5
 7699 0292 1593     		str	r3, [sp, #84]
 7700 0294 FFF7FEFF 		bl	ff_memfree
 7701 0298 059B     		ldr	r3, [sp, #20]
ARM GAS  D:\Programs\cygwin64\tmp\ccQ42GcX.s 			page 135


 7702 029a 0224     		movs	r4, #2
 7703 029c 002B     		cmp	r3, #0
 7704 029e 7FF4EEAE 		bne	.L2151
 7705 02a2 C8E6     		b	.L2199
 7706              	.L2174:
 7707 02a4 159F     		ldr	r7, [sp, #84]
 7708 02a6 002F     		cmp	r7, #0
 7709 02a8 C8D0     		beq	.L2191
 7710 02aa C4F30802 		ubfx	r2, r4, #0, #9
 7711 02ae 0E9B     		ldr	r3, [sp, #56]
 7712 02b0 3AB9     		cbnz	r2, .L2175
 7713 02b2 1499     		ldr	r1, [sp, #80]
 7714 02b4 0137     		adds	r7, r7, #1
 7715 02b6 1597     		str	r7, [sp, #84]
 7716 02b8 01BB     		cbnz	r1, .L2176
 7717 02ba 1889     		ldrh	r0, [r3, #8]
 7718 02bc B0EB541F 		cmp	r0, r4, lsr #5
 7719 02c0 52D9     		bls	.L2248
 7720              	.L2175:
 7721 02c2 3833     		adds	r3, r3, #56
 7722 02c4 1A44     		add	r2, r2, r3
 7723 02c6 1692     		str	r2, [sp, #88]
 7724 02c8 1394     		str	r4, [sp, #76]
 7725 02ca 98E7     		b	.L2167
 7726              	.L2247:
 7727 02cc 0123     		movs	r3, #1
 7728 02ce 5946     		mov	r1, fp
 7729 02d0 FFF7FEFF 		bl	disk_write
 7730 02d4 0028     		cmp	r0, #0
 7731 02d6 2ED1     		bne	.L2171
 7732 02d8 716B     		ldr	r1, [r6, #52]
 7733 02da B36A     		ldr	r3, [r6, #40]
 7734 02dc 326A     		ldr	r2, [r6, #32]
 7735 02de F070     		strb	r0, [r6, #3]
 7736 02e0 CB1A     		subs	r3, r1, r3
 7737 02e2 9342     		cmp	r3, r2
 7738 02e4 7078     		ldrb	r0, [r6, #1]	@ zero_extendqisi2
 7739 02e6 91D2     		bcs	.L2170
 7740 02e8 B378     		ldrb	r3, [r6, #2]	@ zero_extendqisi2
 7741 02ea 022B     		cmp	r3, #2
 7742 02ec 8ED1     		bne	.L2170
 7743 02ee 0A44     		add	r2, r2, r1
 7744 02f0 0123     		movs	r3, #1
 7745 02f2 5946     		mov	r1, fp
 7746 02f4 FFF7FEFF 		bl	disk_write
 7747 02f8 7078     		ldrb	r0, [r6, #1]	@ zero_extendqisi2
 7748 02fa 87E7     		b	.L2170
 7749              	.L2176:
 7750 02fc 5889     		ldrh	r0, [r3, #10]
 7751 02fe 0138     		subs	r0, r0, #1
 7752 0300 10EA5420 		ands	r0, r0, r4, lsr #9
 7753 0304 0090     		str	r0, [sp]
 7754 0306 DCD1     		bne	.L2175
 7755 0308 1846     		mov	r0, r3
 7756 030a 0292     		str	r2, [sp, #8]
 7757 030c 0193     		str	r3, [sp, #4]
 7758 030e FFF7FEFF 		bl	get_fat.isra.12
ARM GAS  D:\Programs\cygwin64\tmp\ccQ42GcX.s 			page 136


 7759 0312 0128     		cmp	r0, #1
 7760 0314 3FD9     		bls	.L2177
 7761 0316 411C     		adds	r1, r0, #1
 7762 0318 0DD0     		beq	.L2171
 7763 031a 019B     		ldr	r3, [sp, #4]
 7764 031c 029A     		ldr	r2, [sp, #8]
 7765 031e D969     		ldr	r1, [r3, #28]
 7766 0320 8842     		cmp	r0, r1
 7767 0322 2AD3     		bcc	.L2178
 7768 0324 009B     		ldr	r3, [sp]
 7769 0326 1593     		str	r3, [sp, #84]
 7770 0328 2846     		mov	r0, r5
 7771 032a FFF7FEFF 		bl	ff_memfree
 7772 032e 059B     		ldr	r3, [sp, #20]
 7773 0330 0BB3     		cbz	r3, .L2235
 7774              	.L2193:
 7775 0332 0224     		movs	r4, #2
 7776 0334 A3E6     		b	.L2151
 7777              	.L2171:
 7778 0336 2846     		mov	r0, r5
 7779 0338 FFF7FEFF 		bl	ff_memfree
 7780 033c 059B     		ldr	r3, [sp, #20]
 7781 033e 0124     		movs	r4, #1
 7782 0340 002B     		cmp	r3, #0
 7783 0342 7FF49CAE 		bne	.L2151
 7784 0346 76E6     		b	.L2199
 7785              	.L2152:
 7786 0348 209A     		ldr	r2, [sp, #128]
 7787 034a 139B     		ldr	r3, [sp, #76]
 7788 034c 9A42     		cmp	r2, r3
 7789 034e 7FF47EAF 		bne	.L2237
 7790 0352 E9E6     		b	.L2153
 7791              	.L2173:
 7792 0354 0598     		ldr	r0, [sp, #20]
 7793 0356 FFF7FEFF 		bl	sync_fs
 7794 035a 0446     		mov	r4, r0
 7795 035c 6FE7     		b	.L2143
 7796              	.L2250:
 7797 035e 00BF     		.align	2
 7798              	.L2249:
 7799 0360 00000000 		.word	.LANCHOR2
 7800 0364 FFFF1F00 		.word	2097151
 7801              	.L2248:
 7802 0368 2846     		mov	r0, r5
 7803 036a 1591     		str	r1, [sp, #84]
 7804 036c FFF7FEFF 		bl	ff_memfree
 7805 0370 059B     		ldr	r3, [sp, #20]
 7806 0372 002B     		cmp	r3, #0
 7807 0374 DDD1     		bne	.L2193
 7808              	.L2235:
 7809 0376 0224     		movs	r4, #2
 7810 0378 5DE6     		b	.L2199
 7811              	.L2178:
 7812 037a 871E     		subs	r7, r0, #2
 7813 037c 0239     		subs	r1, r1, #2
 7814 037e 8F42     		cmp	r7, r1
 7815 0380 1490     		str	r0, [sp, #80]
ARM GAS  D:\Programs\cygwin64\tmp\ccQ42GcX.s 			page 137


 7816 0382 3BBF     		ittet	cc
 7817 0384 196B     		ldrcc	r1, [r3, #48]
 7818 0386 5889     		ldrhcc	r0, [r3, #10]
 7819 0388 0027     		movcs	r7, #0
 7820 038a 07FB0017 		mlacc	r7, r7, r0, r1
 7821 038e 1597     		str	r7, [sp, #84]
 7822 0390 97E7     		b	.L2175
 7823              	.L2155:
 7824 0392 D972     		strb	r1, [r3, #11]
 7825 0394 EFE6     		b	.L2156
 7826              	.L2177:
 7827 0396 2846     		mov	r0, r5
 7828 0398 FFF7FEFF 		bl	ff_memfree
 7829 039c 059B     		ldr	r3, [sp, #20]
 7830 039e 002B     		cmp	r3, #0
 7831 03a0 C7D1     		bne	.L2193
 7832 03a2 E8E7     		b	.L2235
 7833              	.L2246:
 7834 03a4 1D9B     		ldr	r3, [sp, #116]
 7835 03a6 059A     		ldr	r2, [sp, #20]
 7836 03a8 80F87230 		strb	r3, [r0, #114]
 7837 03ac C3F30721 		ubfx	r1, r3, #8, #8
 7838 03b0 80F87310 		strb	r1, [r0, #115]
 7839 03b4 1178     		ldrb	r1, [r2]	@ zero_extendqisi2
 7840 03b6 0329     		cmp	r1, #3
 7841 03b8 05D1     		bne	.L2165
 7842 03ba 1B0C     		lsrs	r3, r3, #16
 7843 03bc 190A     		lsrs	r1, r3, #8
 7844 03be 80F86C30 		strb	r3, [r0, #108]
 7845 03c2 80F86D10 		strb	r1, [r0, #109]
 7846              	.L2165:
 7847 03c6 0123     		movs	r3, #1
 7848 03c8 D370     		strb	r3, [r2, #3]
 7849 03ca 06E7     		b	.L2158
 7851              		.section	.text.f_mkfs,"ax",%progbits
 7852              		.align	1
 7853              		.p2align 2,,3
 7854              		.global	f_mkfs
 7855              		.syntax unified
 7856              		.thumb
 7857              		.thumb_func
 7858              		.fpu fpv4-sp-d16
 7860              	f_mkfs:
 7861              		@ args = 4, pretend = 0, frame = 56
 7862              		@ frame_needed = 0, uses_anonymous_args = 0
 7863 0000 0028     		cmp	r0, #0
 7864 0002 00F07882 		beq	.L2335
 7865 0006 2DE9F04F 		push	{r4, r5, r6, r7, r8, r9, r10, fp, lr}
 7866 000a 8446     		mov	ip, r0
 7867 000c 8FB0     		sub	sp, sp, #60
 7868 000e 02E0     		b	.L2254
 7869              	.L2440:
 7870 0010 3A2C     		cmp	r4, #58
 7871 0012 00F09981 		beq	.L2439
 7872              	.L2254:
 7873 0016 1CF8014B 		ldrb	r4, [ip], #1	@ zero_extendqisi2
 7874 001a 1F2C     		cmp	r4, #31
ARM GAS  D:\Programs\cygwin64\tmp\ccQ42GcX.s 			page 138


 7875 001c F8D8     		bhi	.L2440
 7876 001e 0027     		movs	r7, #0
 7877 0020 3846     		mov	r0, r7
 7878              	.L2253:
 7879 0022 D34C     		ldr	r4, .L2453
 7880 0024 54F82000 		ldr	r0, [r4, r0, lsl #2]
 7881 0028 08B1     		cbz	r0, .L2256
 7882 002a 0024     		movs	r4, #0
 7883 002c 0470     		strb	r4, [r0]
 7884              	.L2256:
 7885 002e 3846     		mov	r0, r7
 7886 0030 1446     		mov	r4, r2
 7887 0032 1D46     		mov	r5, r3
 7888 0034 0E46     		mov	r6, r1
 7889 0036 FFF7FEFF 		bl	disk_initialize
 7890 003a C207     		lsls	r2, r0, #31
 7891 003c 00F1BF81 		bmi	.L2339
 7892 0040 4307     		lsls	r3, r0, #29
 7893 0042 1AD4     		bmi	.L2340
 7894 0044 0CAA     		add	r2, sp, #48
 7895 0046 0321     		movs	r1, #3
 7896 0048 3846     		mov	r0, r7
 7897 004a FFF7FEFF 		bl	disk_ioctl
 7898 004e 28B9     		cbnz	r0, .L2257
 7899 0050 0C9A     		ldr	r2, [sp, #48]
 7900 0052 531E     		subs	r3, r2, #1
 7901 0054 B3F5004F 		cmp	r3, #32768
 7902 0058 C0F08581 		bcc	.L2441
 7903              	.L2257:
 7904 005c 0123     		movs	r3, #1
 7905 005e 0C93     		str	r3, [sp, #48]
 7906              	.L2258:
 7907 0060 7CB1     		cbz	r4, .L2259
 7908 0062 C44B     		ldr	r3, .L2453+4
 7909 0064 A4F50072 		sub	r2, r4, #512
 7910 0068 9A42     		cmp	r2, r3
 7911 006a 02D8     		bhi	.L2416
 7912 006c 631E     		subs	r3, r4, #1
 7913 006e 2342     		tst	r3, r4
 7914 0070 07D0     		beq	.L2259
 7915              	.L2416:
 7916 0072 1320     		movs	r0, #19
 7917 0074 0FB0     		add	sp, sp, #60
 7918              		@ sp needed
 7919 0076 BDE8F08F 		pop	{r4, r5, r6, r7, r8, r9, r10, fp, pc}
 7920              	.L2340:
 7921 007a 0A20     		movs	r0, #10
 7922              	.L2402:
 7923 007c 0FB0     		add	sp, sp, #60
 7924              		@ sp needed
 7925 007e BDE8F08F 		pop	{r4, r5, r6, r7, r8, r9, r10, fp, pc}
 7926              	.L2259:
 7927 0082 002D     		cmp	r5, #0
 7928 0084 00F08881 		beq	.L2442
 7929 0088 189B     		ldr	r3, [sp, #96]
 7930 008a 23F4FF79 		bic	r9, r3, #510
 7931 008e 29F00109 		bic	r9, r9, #1
ARM GAS  D:\Programs\cygwin64\tmp\ccQ42GcX.s 			page 139


 7932 0092 4FEA5328 		lsr	r8, r3, #9
 7933 0096 AA46     		mov	r10, r5
 7934              	.L2331:
 7935 0098 B8F1000F 		cmp	r8, #0
 7936 009c 00F08B81 		beq	.L2266
 7937 00a0 0DAA     		add	r2, sp, #52
 7938 00a2 0121     		movs	r1, #1
 7939 00a4 3846     		mov	r0, r7
 7940 00a6 FFF7FEFF 		bl	disk_ioctl
 7941 00aa 0028     		cmp	r0, #0
 7942 00ac 40F04781 		bne	.L2422
 7943 00b0 16F00803 		ands	r3, r6, #8
 7944 00b4 0D9A     		ldr	r2, [sp, #52]
 7945 00b6 0393     		str	r3, [sp, #12]
 7946 00b8 40F08581 		bne	.L2343
 7947 00bc 3E2A     		cmp	r2, #62
 7948 00be 40F2D581 		bls	.L2428
 7949 00c2 3F23     		movs	r3, #63
 7950 00c4 0893     		str	r3, [sp, #32]
 7951 00c6 0193     		str	r3, [sp, #4]
 7952 00c8 5F23     		movs	r3, #95
 7953 00ca 0293     		str	r3, [sp, #8]
 7954 00cc 4023     		movs	r3, #64
 7955 00ce 3F3A     		subs	r2, r2, #63
 7956 00d0 6FF05F0C 		mvn	ip, #95
 7957 00d4 4FF0600E 		mov	lr, #96
 7958 00d8 0793     		str	r3, [sp, #28]
 7959              	.L2268:
 7960 00da 7F2A     		cmp	r2, #127
 7961 00dc 0D92     		str	r2, [sp, #52]
 7962 00de 40F2C581 		bls	.L2428
 7963 00e2 B4F5813F 		cmp	r4, #66048
 7964 00e6 80F0E681 		bcs	.L2436
 7965 00ea 16F00203 		ands	r3, r6, #2
 7966 00ee 4FEA5424 		lsr	r4, r4, #9
 7967 00f2 0993     		str	r3, [sp, #36]
 7968 00f4 00F07681 		beq	.L2274
 7969 00f8 06F00703 		and	r3, r6, #7
 7970 00fc 022B     		cmp	r3, #2
 7971 00fe 02D0     		beq	.L2275
 7972 0100 F307     		lsls	r3, r6, #31
 7973 0102 00F17181 		bmi	.L2276
 7974              	.L2275:
 7975 0106 002C     		cmp	r4, #0
 7976 0108 40F0E081 		bne	.L2364
 7977              	.L2319:
 7978 010c 510C     		lsrs	r1, r2, #17
 7979 010e 00F03983 		beq	.L2345
 7980 0112 0129     		cmp	r1, #1
 7981 0114 00F03B83 		beq	.L2346
 7982 0118 0329     		cmp	r1, #3
 7983 011a 40F23583 		bls	.L2347
 7984 011e 0729     		cmp	r1, #7
 7985 0120 40F23B83 		bls	.L2348
 7986 0124 0F29     		cmp	r1, #15
 7987 0126 40F23583 		bls	.L2349
 7988 012a 1F29     		cmp	r1, #31
ARM GAS  D:\Programs\cygwin64\tmp\ccQ42GcX.s 			page 140


 7989 012c 40F23883 		bls	.L2278
 7990 0130 0021     		movs	r1, #0
 7991 0132 4024     		movs	r4, #64
 7992              	.L2277:
 7993 0134 B2FBF4F3 		udiv	r3, r2, r4
 7994 0138 8F48     		ldr	r0, .L2453+8
 7995 013a 9E00     		lsls	r6, r3, #2
 7996 013c A3F57F43 		sub	r3, r3, #65280
 7997 0140 F63B     		subs	r3, r3, #246
 7998 0142 06F20726 		addw	r6, r6, #519
 7999 0146 8342     		cmp	r3, r0
 8000 0148 4FEA562B 		lsr	fp, r6, #9
 8001 014c 00F28E81 		bhi	.L2428
 8002              	.L2279:
 8003 0150 0C9E     		ldr	r6, [sp, #48]
 8004 0152 029B     		ldr	r3, [sp, #8]
 8005 0154 03EB0B00 		add	r0, r3, fp
 8006 0158 731E     		subs	r3, r6, #1
 8007 015a C6F1000C 		rsb	ip, r6, #0
 8008 015e 0344     		add	r3, r3, r0
 8009 0160 0646     		mov	r6, r0
 8010 0162 0198     		ldr	r0, [sp, #4]
 8011 0164 03EA0C03 		and	r3, r3, ip
 8012 0168 C0EB0410 		rsb	r0, r0, r4, lsl #4
 8013 016c 3044     		add	r0, r0, r6
 8014 016e 9B1B     		subs	r3, r3, r6
 8015 0170 03F12006 		add	r6, r3, #32
 8016 0174 8242     		cmp	r2, r0
 8017 0176 0496     		str	r6, [sp, #16]
 8018 0178 C0F07881 		bcc	.L2428
 8019 017c 3046     		mov	r0, r6
 8020 017e 4FF6F57C 		movw	ip, #65525
 8021 0182 A2EB0B06 		sub	r6, r2, fp
 8022 0186 361A     		subs	r6, r6, r0
 8023 0188 B6FBF4F6 		udiv	r6, r6, r4
 8024 018c 6645     		cmp	r6, ip
 8025 018e 40F2A381 		bls	.L2327
 8026 0192 029A     		ldr	r2, [sp, #8]
 8027 0194 1A44     		add	r2, r2, r3
 8028 0196 0023     		movs	r3, #0
 8029 0198 0693     		str	r3, [sp, #24]
 8030 019a 0323     		movs	r3, #3
 8031 019c 0592     		str	r2, [sp, #20]
 8032 019e 0293     		str	r3, [sp, #8]
 8033              	.L2291:
 8034 01a0 4FF40072 		mov	r2, #512
 8035 01a4 0021     		movs	r1, #0
 8036 01a6 5046     		mov	r0, r10
 8037 01a8 FFF7FEFF 		bl	memset
 8038 01ac 734B     		ldr	r3, .L2453+12
 8039 01ae CAF80030 		str	r3, [r10]	@ unaligned
 8040 01b2 734A     		ldr	r2, .L2453+16
 8041 01b4 CAF80420 		str	r2, [r10, #4]	@ unaligned
 8042 01b8 3523     		movs	r3, #53
 8043 01ba 8AF80830 		strb	r3, [r10, #8]
 8044 01be 3023     		movs	r3, #48
 8045 01c0 8AF80A30 		strb	r3, [r10, #10]
ARM GAS  D:\Programs\cygwin64\tmp\ccQ42GcX.s 			page 141


 8046 01c4 029B     		ldr	r3, [sp, #8]
 8047 01c6 0499     		ldr	r1, [sp, #16]
 8048 01c8 8AF80E10 		strb	r1, [r10, #14]
 8049 01cc 032B     		cmp	r3, #3
 8050 01ce 4FF02E02 		mov	r2, #46
 8051 01d2 0D9B     		ldr	r3, [sp, #52]
 8052 01d4 8AF80920 		strb	r2, [r10, #9]
 8053 01d8 C1F30720 		ubfx	r0, r1, #8, #8
 8054 01dc 0A46     		mov	r2, r1
 8055 01de 4FF00001 		mov	r1, #0
 8056 01e2 0CBF     		ite	eq
 8057 01e4 0022     		moveq	r2, #0
 8058 01e6 0222     		movne	r2, #2
 8059 01e8 8AF80F00 		strb	r0, [r10, #15]
 8060 01ec 8AF80B10 		strb	r1, [r10, #11]
 8061 01f0 0220     		movs	r0, #2
 8062 01f2 8AF81110 		strb	r1, [r10, #17]
 8063 01f6 B3F5803F 		cmp	r3, #65536
 8064 01fa 4FF00101 		mov	r1, #1
 8065 01fe 8AF81220 		strb	r2, [r10, #18]
 8066 0202 8AF80D40 		strb	r4, [r10, #13]
 8067 0206 DAB2     		uxtb	r2, r3
 8068 0208 8AF80C00 		strb	r0, [r10, #12]
 8069 020c 8AF81010 		strb	r1, [r10, #16]
 8070 0210 80F07381 		bcs	.L2297
 8071 0214 C3F30723 		ubfx	r3, r3, #8, #8
 8072 0218 8AF81430 		strb	r3, [r10, #20]
 8073 021c 8AF81320 		strb	r2, [r10, #19]
 8074              	.L2298:
 8075 0220 F823     		movs	r3, #248
 8076 0222 8AF81530 		strb	r3, [r10, #21]
 8077 0226 0023     		movs	r3, #0
 8078 0228 8AF81D30 		strb	r3, [r10, #29]
 8079 022c 8AF81E30 		strb	r3, [r10, #30]
 8080 0230 8AF81F30 		strb	r3, [r10, #31]
 8081 0234 5FFA8BF3 		uxtb	r3, fp
 8082 0238 0493     		str	r3, [sp, #16]
 8083 023a 029B     		ldr	r3, [sp, #8]
 8084 023c 514A     		ldr	r2, .L2453+20
 8085 023e 0899     		ldr	r1, [sp, #32]
 8086 0240 8AF81C10 		strb	r1, [r10, #28]
 8087 0244 032B     		cmp	r3, #3
 8088 0246 CAF81820 		str	r2, [r10, #24]	@ unaligned
 8089 024a 00F08181 		beq	.L2443
 8090 024e FFF7FEFF 		bl	get_fattime
 8091 0252 049A     		ldr	r2, [sp, #16]
 8092 0254 8AF81620 		strb	r2, [r10, #22]
 8093 0258 020A     		lsrs	r2, r0, #8
 8094 025a 8AF82820 		strb	r2, [r10, #40]
 8095 025e 020C     		lsrs	r2, r0, #16
 8096 0260 494B     		ldr	r3, .L2453+24
 8097 0262 8AF82920 		strb	r2, [r10, #41]
 8098 0266 CBF30722 		ubfx	r2, fp, #8, #8
 8099 026a 8AF82700 		strb	r0, [r10, #39]
 8100 026e 8AF81720 		strb	r2, [r10, #23]
 8101 0272 000E     		lsrs	r0, r0, #24
 8102 0274 0AF12F02 		add	r2, r10, #47
ARM GAS  D:\Programs\cygwin64\tmp\ccQ42GcX.s 			page 142


 8103 0278 8AF82A00 		strb	r0, [r10, #42]
 8104 027c 2921     		movs	r1, #41
 8105 027e 8020     		movs	r0, #128
 8106 0280 9A42     		cmp	r2, r3
 8107 0282 8AF82400 		strb	r0, [r10, #36]
 8108 0286 8AF82610 		strb	r1, [r10, #38]
 8109 028a 05D9     		bls	.L2368
 8110 028c 0AF12B02 		add	r2, r10, #43
 8111 0290 191D     		adds	r1, r3, #4
 8112 0292 8A42     		cmp	r2, r1
 8113 0294 C0F08D82 		bcc	.L2304
 8114              	.L2368:
 8115 0298 3C4A     		ldr	r2, .L2453+28
 8116 029a 3D4B     		ldr	r3, .L2453+32
 8117 029c CAF82B30 		str	r3, [r10, #43]	@ unaligned
 8118 02a0 CAF82F20 		str	r2, [r10, #47]	@ unaligned
 8119 02a4 3B4B     		ldr	r3, .L2453+36
 8120 02a6 CAF83330 		str	r3, [r10, #51]	@ unaligned
 8121 02aa A2F51312 		sub	r2, r2, #2408448
 8122 02ae 2023     		movs	r3, #32
 8123 02b0 A2F56452 		sub	r2, r2, #14592
 8124 02b4 CAF83720 		str	r2, [r10, #55]	@ unaligned
 8125 02b8 8AF83B30 		strb	r3, [r10, #59]
 8126 02bc 8AF83C30 		strb	r3, [r10, #60]
 8127 02c0 8AF83D30 		strb	r3, [r10, #61]
 8128              	.L2306:
 8129 02c4 5522     		movs	r2, #85
 8130 02c6 AA23     		movs	r3, #170
 8131 02c8 8AF8FE21 		strb	r2, [r10, #510]
 8132 02cc 8AF8FF31 		strb	r3, [r10, #511]
 8133 02d0 5146     		mov	r1, r10
 8134 02d2 0123     		movs	r3, #1
 8135 02d4 019A     		ldr	r2, [sp, #4]
 8136 02d6 3846     		mov	r0, r7
 8137 02d8 FFF7FEFF 		bl	disk_write
 8138 02dc 0146     		mov	r1, r0
 8139 02de 70BB     		cbnz	r0, .L2422
 8140 02e0 4A46     		mov	r2, r9
 8141 02e2 5046     		mov	r0, r10
 8142 02e4 FFF7FEFF 		bl	memset
 8143 02e8 029B     		ldr	r3, [sp, #8]
 8144 02ea DDF81490 		ldr	r9, [sp, #20]
 8145 02ee 012B     		cmp	r3, #1
 8146 02f0 18BF     		it	ne
 8147 02f2 FF21     		movne	r1, #255
 8148 02f4 4FF0FF03 		mov	r3, #255
 8149 02f8 08BF     		it	eq
 8150 02fa 0021     		moveq	r1, #0
 8151 02fc F822     		movs	r2, #248
 8152 02fe 8AF80310 		strb	r1, [r10, #3]
 8153 0302 8AF80020 		strb	r2, [r10]
 8154 0306 8AF80130 		strb	r3, [r10, #1]
 8155 030a 8AF80230 		strb	r3, [r10, #2]
 8156 030e 06E0     		b	.L2312
 8157              	.L2310:
 8158 0310 5046     		mov	r0, r10
 8159 0312 FFF7FEFF 		bl	memset
ARM GAS  D:\Programs\cygwin64\tmp\ccQ42GcX.s 			page 143


 8160 0316 BBEB060B 		subs	fp, fp, r6
 8161 031a 00F0FA80 		beq	.L2444
 8162              	.L2312:
 8163 031e C345     		cmp	fp, r8
 8164 0320 5E46     		mov	r6, fp
 8165 0322 28BF     		it	cs
 8166 0324 4646     		movcs	r6, r8
 8167 0326 4A46     		mov	r2, r9
 8168 0328 5146     		mov	r1, r10
 8169 032a 3346     		mov	r3, r6
 8170 032c 3846     		mov	r0, r7
 8171 032e FFF7FEFF 		bl	disk_write
 8172 0332 B144     		add	r9, r9, r6
 8173 0334 0146     		mov	r1, r0
 8174 0336 4FF40072 		mov	r2, #512
 8175 033a 0028     		cmp	r0, #0
 8176 033c E8D0     		beq	.L2310
 8177              	.L2422:
 8178 033e 002D     		cmp	r5, #0
 8179 0340 00F0D480 		beq	.L2445
 8180 0344 0120     		movs	r0, #1
 8181 0346 99E6     		b	.L2402
 8182              	.L2439:
 8183 0348 90F800E0 		ldrb	lr, [r0]	@ zero_extendqisi2
 8184 034c AEF1300E 		sub	lr, lr, #48
 8185 0350 5FFA8EF7 		uxtb	r7, lr
 8186 0354 092F     		cmp	r7, #9
 8187 0356 02D8     		bhi	.L2418
 8188 0358 0230     		adds	r0, r0, #2
 8189 035a 8445     		cmp	ip, r0
 8190 035c 3ED0     		beq	.L2446
 8191              	.L2418:
 8192 035e 0B20     		movs	r0, #11
 8193 0360 0FB0     		add	sp, sp, #60
 8194              		@ sp needed
 8195 0362 BDE8F08F 		pop	{r4, r5, r6, r7, r8, r9, r10, fp, pc}
 8196              	.L2441:
 8197 0366 1A42     		tst	r2, r3
 8198 0368 3FF47AAE 		beq	.L2258
 8199 036c 76E6     		b	.L2257
 8200              	.L2454:
 8201 036e 00BF     		.align	2
 8202              	.L2453:
 8203 0370 00000000 		.word	.LANCHOR0
 8204 0374 00FEFF00 		.word	16776704
 8205 0378 FFFFFE0F 		.word	268369919
 8206 037c EBFE904D 		.word	1301348075
 8207 0380 53444F53 		.word	1397703763
 8208 0384 3F00FF00 		.word	16711743
 8209 0388 14000000 		.word	.LC3
 8210 038c 414D4520 		.word	541412673
 8211 0390 4E4F204E 		.word	1310740302
 8212 0394 20202046 		.word	1176510496
 8213              	.L2442:
 8214 0398 4FF00708 		mov	r8, #7
 8215 039c 4FF40049 		mov	r9, #32768
 8216              	.L2262:
ARM GAS  D:\Programs\cygwin64\tmp\ccQ42GcX.s 			page 144


 8217 03a0 4846     		mov	r0, r9
 8218 03a2 FFF7FEFF 		bl	ff_memalloc
 8219 03a6 0028     		cmp	r0, #0
 8220 03a8 40F09280 		bne	.L2447
 8221 03ac B8F10108 		subs	r8, r8, #1
 8222 03b0 4FEA5909 		lsr	r9, r9, #1
 8223 03b4 F4D1     		bne	.L2262
 8224              	.L2266:
 8225 03b6 1120     		movs	r0, #17
 8226 03b8 0FB0     		add	sp, sp, #60
 8227              		@ sp needed
 8228 03ba BDE8F08F 		pop	{r4, r5, r6, r7, r8, r9, r10, fp, pc}
 8229              	.L2339:
 8230 03be 0320     		movs	r0, #3
 8231 03c0 0FB0     		add	sp, sp, #60
 8232              		@ sp needed
 8233 03c2 BDE8F08F 		pop	{r4, r5, r6, r7, r8, r9, r10, fp, pc}
 8234              	.L2343:
 8235 03c6 2023     		movs	r3, #32
 8236 03c8 0293     		str	r3, [sp, #8]
 8237 03ca 0123     		movs	r3, #1
 8238 03cc 0890     		str	r0, [sp, #32]
 8239 03ce 0190     		str	r0, [sp, #4]
 8240 03d0 6FF0200C 		mvn	ip, #32
 8241 03d4 4FF0210E 		mov	lr, #33
 8242 03d8 0793     		str	r3, [sp, #28]
 8243 03da 7EE6     		b	.L2268
 8244              	.L2446:
 8245 03dc 7046     		mov	r0, lr
 8246 03de 0228     		cmp	r0, #2
 8247 03e0 BDDC     		bgt	.L2418
 8248 03e2 1EE6     		b	.L2253
 8249              	.L2274:
 8250 03e4 F607     		lsls	r6, r6, #31
 8251 03e6 66D5     		bpl	.L2436
 8252              	.L2276:
 8253 03e8 0C9B     		ldr	r3, [sp, #48]
 8254 03ea 0A97     		str	r7, [sp, #40]
 8255 03ec 110B     		lsrs	r1, r2, #12
 8256 03ee 0B91     		str	r1, [sp, #44]
 8257 03f0 591E     		subs	r1, r3, #1
 8258 03f2 5B42     		rsbs	r3, r3, #0
 8259 03f4 0593     		str	r3, [sp, #20]
 8260 03f6 A2F12103 		sub	r3, r2, #33
 8261 03fa 0691     		str	r1, [sp, #24]
 8262 03fc 0493     		str	r3, [sp, #16]
 8263              	.L2280:
 8264 03fe 002C     		cmp	r4, #0
 8265 0400 41D0     		beq	.L2448
 8266 0402 2046     		mov	r0, r4
 8267              	.L2281:
 8268 0404 40F6F571 		movw	r1, #4085
 8269 0408 B2FBF0F3 		udiv	r3, r2, r0
 8270 040c 8B42     		cmp	r3, r1
 8271 040e 4DD8     		bhi	.L2334
 8272 0410 03EB4303 		add	r3, r3, r3, lsl #1
 8273 0414 0133     		adds	r3, r3, #1
ARM GAS  D:\Programs\cygwin64\tmp\ccQ42GcX.s 			page 145


 8274 0416 5B08     		lsrs	r3, r3, #1
 8275 0418 0333     		adds	r3, r3, #3
 8276 041a 4FF0010B 		mov	fp, #1
 8277              	.L2284:
 8278 041e 019E     		ldr	r6, [sp, #4]
 8279 0420 0699     		ldr	r1, [sp, #24]
 8280 0422 059F     		ldr	r7, [sp, #20]
 8281 0424 03F2FF13 		addw	r3, r3, #511
 8282 0428 0EEB5323 		add	r3, lr, r3, lsr #9
 8283 042c C6EB0016 		rsb	r6, r6, r0, lsl #4
 8284 0430 5918     		adds	r1, r3, r1
 8285 0432 3344     		add	r3, r3, r6
 8286 0434 3940     		ands	r1, r1, r7
 8287 0436 9A42     		cmp	r2, r3
 8288 0438 6144     		add	r1, r1, ip
 8289 043a 17D3     		bcc	.L2428
 8290 043c 049B     		ldr	r3, [sp, #16]
 8291 043e BBF1020F 		cmp	fp, #2
 8292 0442 A3EB0106 		sub	r6, r3, r1
 8293 0446 B6FBF0F6 		udiv	r6, r6, r0
 8294 044a 40F0CE81 		bne	.L2449
 8295 044e 4FF6F573 		movw	r3, #65525
 8296 0452 9E42     		cmp	r6, r3
 8297 0454 0ED9     		bls	.L2287
 8298 0456 002C     		cmp	r4, #0
 8299 0458 34D1     		bne	.L2288
 8300 045a 4400     		lsls	r4, r0, #1
 8301 045c 402C     		cmp	r4, #64
 8302 045e CED9     		bls	.L2280
 8303 0460 099B     		ldr	r3, [sp, #36]
 8304 0462 002B     		cmp	r3, #0
 8305 0464 40F0BF81 		bne	.L2450
 8306              	.L2438:
 8307 0468 802C     		cmp	r4, #128
 8308 046a C8D9     		bls	.L2280
 8309              	.L2428:
 8310 046c 002D     		cmp	r5, #0
 8311 046e 39D0     		beq	.L2451
 8312              	.L2417:
 8313 0470 0E20     		movs	r0, #14
 8314 0472 03E6     		b	.L2402
 8315              	.L2287:
 8316 0474 40F6F573 		movw	r3, #4085
 8317 0478 9E42     		cmp	r6, r3
 8318 047a 00F21281 		bhi	.L2357
 8319 047e 002C     		cmp	r4, #0
 8320 0480 F4D1     		bne	.L2428
 8321 0482 4400     		lsls	r4, r0, #1
 8322 0484 F0E7     		b	.L2438
 8323              	.L2448:
 8324 0486 0B9B     		ldr	r3, [sp, #44]
 8325 0488 002B     		cmp	r3, #0
 8326 048a 5BD0     		beq	.L2351
 8327 048c 032B     		cmp	r3, #3
 8328 048e 57D9     		bls	.L2352
 8329 0490 0F2B     		cmp	r3, #15
 8330 0492 59D9     		bls	.L2353
ARM GAS  D:\Programs\cygwin64\tmp\ccQ42GcX.s 			page 146


 8331 0494 3F2B     		cmp	r3, #63
 8332 0496 59D9     		bls	.L2354
 8333 0498 FF2B     		cmp	r3, #255
 8334 049a 40F20E81 		bls	.L2355
 8335 049e B3F5007F 		cmp	r3, #512
 8336 04a2 34BF     		ite	cc
 8337 04a4 2020     		movcc	r0, #32
 8338 04a6 4020     		movcs	r0, #64
 8339              	.L2282:
 8340 04a8 B2FBF0F3 		udiv	r3, r2, r0
 8341              	.L2334:
 8342 04ac 0233     		adds	r3, r3, #2
 8343 04ae 5B00     		lsls	r3, r3, #1
 8344 04b0 4FF0020B 		mov	fp, #2
 8345 04b4 B3E7     		b	.L2284
 8346              	.L2436:
 8347 04b6 002D     		cmp	r5, #0
 8348 04b8 7FF4DBAD 		bne	.L2416
 8349 04bc 5046     		mov	r0, r10
 8350 04be FFF7FEFF 		bl	ff_memfree
 8351 04c2 D6E5     		b	.L2416
 8352              	.L2288:
 8353 04c4 DDE90937 		ldrd	r3, r7, [sp, #36]
 8354 04c8 002B     		cmp	r3, #0
 8355 04ca CFD0     		beq	.L2428
 8356              	.L2364:
 8357 04cc 2146     		mov	r1, r4
 8358 04ce 31E6     		b	.L2277
 8359              	.L2447:
 8360 04d0 8246     		mov	r10, r0
 8361 04d2 4FEA5928 		lsr	r8, r9, #9
 8362 04d6 DFE5     		b	.L2331
 8363              	.L2327:
 8364 04d8 0029     		cmp	r1, #0
 8365 04da C7D1     		bne	.L2428
 8366 04dc 012C     		cmp	r4, #1
 8367 04de C5D0     		beq	.L2428
 8368 04e0 6408     		lsrs	r4, r4, #1
 8369 04e2 10E6     		b	.L2275
 8370              	.L2451:
 8371 04e4 5046     		mov	r0, r10
 8372 04e6 FFF7FEFF 		bl	ff_memfree
 8373 04ea C1E7     		b	.L2417
 8374              	.L2445:
 8375 04ec 5046     		mov	r0, r10
 8376 04ee FFF7FEFF 		bl	ff_memfree
 8377 04f2 0120     		movs	r0, #1
 8378 04f4 C2E5     		b	.L2402
 8379              	.L2335:
 8380 04f6 0B20     		movs	r0, #11
 8381 04f8 7047     		bx	lr
 8382              	.L2297:
 8383 04fa 190A     		lsrs	r1, r3, #8
 8384 04fc 8AF82020 		strb	r2, [r10, #32]
 8385 0500 1A0C     		lsrs	r2, r3, #16
 8386 0502 1B0E     		lsrs	r3, r3, #24
 8387 0504 8AF82110 		strb	r1, [r10, #33]
ARM GAS  D:\Programs\cygwin64\tmp\ccQ42GcX.s 			page 147


 8388 0508 8AF82220 		strb	r2, [r10, #34]
 8389 050c 8AF82330 		strb	r3, [r10, #35]
 8390 0510 86E6     		b	.L2298
 8391              	.L2444:
 8392 0512 069B     		ldr	r3, [sp, #24]
 8393 0514 029A     		ldr	r2, [sp, #8]
 8394 0516 032A     		cmp	r2, #3
 8395 0518 18BF     		it	ne
 8396 051a 1C46     		movne	r4, r3
 8397 051c 02E0     		b	.L2315
 8398              	.L2314:
 8399 051e A41B     		subs	r4, r4, r6
 8400 0520 00F0CD80 		beq	.L2452
 8401              	.L2315:
 8402 0524 4445     		cmp	r4, r8
 8403 0526 2646     		mov	r6, r4
 8404 0528 28BF     		it	cs
 8405 052a 4646     		movcs	r6, r8
 8406 052c 4A46     		mov	r2, r9
 8407 052e 3346     		mov	r3, r6
 8408 0530 5146     		mov	r1, r10
 8409 0532 3846     		mov	r0, r7
 8410 0534 FFF7FEFF 		bl	disk_write
 8411 0538 B144     		add	r9, r9, r6
 8412 053a 0028     		cmp	r0, #0
 8413 053c EFD0     		beq	.L2314
 8414 053e FEE6     		b	.L2422
 8415              	.L2352:
 8416 0540 0220     		movs	r0, #2
 8417 0542 5FE7     		b	.L2281
 8418              	.L2351:
 8419 0544 0120     		movs	r0, #1
 8420 0546 5DE7     		b	.L2281
 8421              	.L2353:
 8422 0548 0420     		movs	r0, #4
 8423 054a ADE7     		b	.L2282
 8424              	.L2354:
 8425 054c 0820     		movs	r0, #8
 8426 054e ABE7     		b	.L2282
 8427              	.L2443:
 8428 0550 FFF7FEFF 		bl	get_fattime
 8429 0554 049A     		ldr	r2, [sp, #16]
 8430 0556 8AF82420 		strb	r2, [r10, #36]
 8431 055a 020A     		lsrs	r2, r0, #8
 8432 055c 8AF84420 		strb	r2, [r10, #68]
 8433 0560 020C     		lsrs	r2, r0, #16
 8434 0562 8AF84520 		strb	r2, [r10, #69]
 8435 0566 4FEA1B22 		lsr	r2, fp, #8
 8436 056a 8AF82520 		strb	r2, [r10, #37]
 8437 056e 4FEA1B62 		lsr	r2, fp, #24
 8438 0572 4FEA1B41 		lsr	r1, fp, #16
 8439 0576 A54B     		ldr	r3, .L2455
 8440 0578 8AF82720 		strb	r2, [r10, #39]
 8441 057c 8022     		movs	r2, #128
 8442 057e 8AF84300 		strb	r0, [r10, #67]
 8443 0582 8AF82610 		strb	r1, [r10, #38]
 8444 0586 000E     		lsrs	r0, r0, #24
ARM GAS  D:\Programs\cygwin64\tmp\ccQ42GcX.s 			page 148


 8445 0588 A149     		ldr	r1, .L2455+4
 8446 058a 8AF84020 		strb	r2, [r10, #64]
 8447 058e 0AF14702 		add	r2, r10, #71
 8448 0592 8AF84600 		strb	r0, [r10, #70]
 8449 0596 CAF83010 		str	r1, [r10, #48]	@ unaligned
 8450 059a 0220     		movs	r0, #2
 8451 059c 2921     		movs	r1, #41
 8452 059e 9A42     		cmp	r2, r3
 8453 05a0 CAF82C00 		str	r0, [r10, #44]	@ unaligned
 8454 05a4 8AF84210 		strb	r1, [r10, #66]
 8455 05a8 05D2     		bcs	.L2367
 8456 05aa 043B     		subs	r3, r3, #4
 8457 05ac 0AF14B02 		add	r2, r10, #75
 8458 05b0 9A42     		cmp	r2, r3
 8459 05b2 00F20D81 		bhi	.L2300
 8460              	.L2367:
 8461 05b6 974A     		ldr	r2, .L2455+8
 8462 05b8 974B     		ldr	r3, .L2455+12
 8463 05ba CAF84B20 		str	r2, [r10, #75]	@ unaligned
 8464 05be 02F18F52 		add	r2, r2, #299892736
 8465 05c2 CAF84730 		str	r3, [r10, #71]	@ unaligned
 8466 05c6 02F56022 		add	r2, r2, #917504
 8467 05ca 944B     		ldr	r3, .L2455+16
 8468 05cc CAF84F30 		str	r3, [r10, #79]	@ unaligned
 8469 05d0 02F5E062 		add	r2, r2, #1792
 8470 05d4 2023     		movs	r3, #32
 8471 05d6 CAF85320 		str	r2, [r10, #83]	@ unaligned
 8472 05da 8AF85730 		strb	r3, [r10, #87]
 8473 05de 8AF85830 		strb	r3, [r10, #88]
 8474 05e2 8AF85930 		strb	r3, [r10, #89]
 8475              	.L2302:
 8476 05e6 4FF05503 		mov	r3, #85
 8477 05ea 8AF8FE31 		strb	r3, [r10, #510]
 8478 05ee 6FF05503 		mvn	r3, #85
 8479 05f2 8AF8FF31 		strb	r3, [r10, #511]
 8480 05f6 019A     		ldr	r2, [sp, #4]
 8481 05f8 0123     		movs	r3, #1
 8482 05fa 5146     		mov	r1, r10
 8483 05fc 3846     		mov	r0, r7
 8484 05fe FFF7FEFF 		bl	disk_write
 8485 0602 0490     		str	r0, [sp, #16]
 8486 0604 0028     		cmp	r0, #0
 8487 0606 7FF49AAE 		bne	.L2422
 8488 060a 019A     		ldr	r2, [sp, #4]
 8489 060c 0123     		movs	r3, #1
 8490 060e 0632     		adds	r2, r2, #6
 8491 0610 5146     		mov	r1, r10
 8492 0612 3846     		mov	r0, r7
 8493 0614 FFF7FEFF 		bl	disk_write
 8494 0618 4FF40072 		mov	r2, #512
 8495 061c 0499     		ldr	r1, [sp, #16]
 8496 061e 5046     		mov	r0, r10
 8497 0620 FFF7FEFF 		bl	memset
 8498 0624 7E4A     		ldr	r2, .L2455+20
 8499 0626 CAF80020 		str	r2, [r10]	@ unaligned
 8500 062a 013E     		subs	r6, r6, #1
 8501 062c 4FF0550E 		mov	lr, #85
ARM GAS  D:\Programs\cygwin64\tmp\ccQ42GcX.s 			page 149


 8502 0630 019A     		ldr	r2, [sp, #4]
 8503 0632 7C4B     		ldr	r3, .L2455+24
 8504 0634 8AF8E861 		strb	r6, [r10, #488]
 8505 0638 4FEA162C 		lsr	ip, r6, #8
 8506 063c 300C     		lsrs	r0, r6, #16
 8507 063e 310E     		lsrs	r1, r6, #24
 8508 0640 8AF8FEE1 		strb	lr, [r10, #510]
 8509 0644 0226     		movs	r6, #2
 8510 0646 6FF0550E 		mvn	lr, #85
 8511 064a 8AF8FFE1 		strb	lr, [r10, #511]
 8512 064e 8AF8E9C1 		strb	ip, [r10, #489]
 8513 0652 8AF8EA01 		strb	r0, [r10, #490]
 8514 0656 8AF8EB11 		strb	r1, [r10, #491]
 8515 065a CAF8E431 		str	r3, [r10, #484]	@ unaligned
 8516 065e 0732     		adds	r2, r2, #7
 8517 0660 0123     		movs	r3, #1
 8518 0662 5146     		mov	r1, r10
 8519 0664 CAF8EC61 		str	r6, [r10, #492]	@ unaligned
 8520 0668 3846     		mov	r0, r7
 8521 066a FFF7FEFF 		bl	disk_write
 8522 066e 0123     		movs	r3, #1
 8523 0670 079A     		ldr	r2, [sp, #28]
 8524 0672 5146     		mov	r1, r10
 8525 0674 3846     		mov	r0, r7
 8526 0676 FFF7FEFF 		bl	disk_write
 8527 067a 4A46     		mov	r2, r9
 8528 067c 0499     		ldr	r1, [sp, #16]
 8529 067e 5046     		mov	r0, r10
 8530 0680 FFF7FEFF 		bl	memset
 8531 0684 6FF00701 		mvn	r1, #7
 8532 0688 4FF0FF32 		mov	r2, #-1
 8533 068c 6FF07043 		mvn	r3, #-268435456
 8534 0690 CAF80010 		str	r1, [r10]	@ unaligned
 8535 0694 CAF80420 		str	r2, [r10, #4]	@ unaligned
 8536 0698 CAF80830 		str	r3, [r10, #8]	@ unaligned
 8537 069c DDF81490 		ldr	r9, [sp, #20]
 8538 06a0 3DE6     		b	.L2312
 8539              	.L2357:
 8540 06a2 079B     		ldr	r3, [sp, #28]
 8541 06a4 0593     		str	r3, [sp, #20]
 8542 06a6 2023     		movs	r3, #32
 8543 06a8 0693     		str	r3, [sp, #24]
 8544 06aa 0123     		movs	r3, #1
 8545 06ac CDF808B0 		str	fp, [sp, #8]
 8546 06b0 0A9F     		ldr	r7, [sp, #40]
 8547 06b2 0493     		str	r3, [sp, #16]
 8548 06b4 8B46     		mov	fp, r1
 8549 06b6 0446     		mov	r4, r0
 8550 06b8 72E5     		b	.L2291
 8551              	.L2355:
 8552 06ba 1020     		movs	r0, #16
 8553 06bc F4E6     		b	.L2282
 8554              	.L2452:
 8555 06be 029A     		ldr	r2, [sp, #8]
 8556 06c0 032A     		cmp	r2, #3
 8557 06c2 00F08380 		beq	.L2360
 8558 06c6 0D9B     		ldr	r3, [sp, #52]
ARM GAS  D:\Programs\cygwin64\tmp\ccQ42GcX.s 			page 150


 8559 06c8 B3F5803F 		cmp	r3, #65536
 8560 06cc 7CD2     		bcs	.L2361
 8561 06ce 022A     		cmp	r2, #2
 8562 06d0 0CBF     		ite	eq
 8563 06d2 0424     		moveq	r4, #4
 8564 06d4 0124     		movne	r4, #1
 8565              	.L2316:
 8566 06d6 039B     		ldr	r3, [sp, #12]
 8567 06d8 002B     		cmp	r3, #0
 8568 06da 43D1     		bne	.L2317
 8569 06dc 1946     		mov	r1, r3
 8570 06de 4FF40072 		mov	r2, #512
 8571 06e2 5046     		mov	r0, r10
 8572 06e4 9846     		mov	r8, r3
 8573 06e6 FFF7FEFF 		bl	memset
 8574 06ea 0D9B     		ldr	r3, [sp, #52]
 8575 06ec 0199     		ldr	r1, [sp, #4]
 8576 06ee DFF83891 		ldr	r9, .L2455+28
 8577 06f2 8AF8C241 		strb	r4, [r10, #450]
 8578 06f6 1944     		add	r1, r1, r3
 8579 06f8 43F6C162 		movw	r2, #16065
 8580 06fc B1FBF2F1 		udiv	r1, r1, r2
 8581 0700 8808     		lsrs	r0, r1, #2
 8582 0702 40F03F00 		orr	r0, r0, #63
 8583 0706 4FEA132C 		lsr	ip, r3, #8
 8584 070a 1C0C     		lsrs	r4, r3, #16
 8585 070c 4FEA136E 		lsr	lr, r3, #24
 8586 0710 089E     		ldr	r6, [sp, #32]
 8587 0712 8AF8C781 		strb	r8, [r10, #455]
 8588 0716 4246     		mov	r2, r8
 8589 0718 8AF8C881 		strb	r8, [r10, #456]
 8590 071c 8AF8C981 		strb	r8, [r10, #457]
 8591 0720 8AF8CA31 		strb	r3, [r10, #458]
 8592 0724 4FF05508 		mov	r8, #85
 8593 0728 FE23     		movs	r3, #254
 8594 072a 8AF8C511 		strb	r1, [r10, #453]
 8595 072e AA21     		movs	r1, #170
 8596 0730 8AF8C401 		strb	r0, [r10, #452]
 8597 0734 8AF8FF11 		strb	r1, [r10, #511]
 8598 0738 8AF8C331 		strb	r3, [r10, #451]
 8599 073c 8AF8C661 		strb	r6, [r10, #454]
 8600 0740 8AF8CBC1 		strb	ip, [r10, #459]
 8601 0744 8AF8CC41 		strb	r4, [r10, #460]
 8602 0748 8AF8CDE1 		strb	lr, [r10, #461]
 8603 074c 8AF8FE81 		strb	r8, [r10, #510]
 8604 0750 CAF8BE91 		str	r9, [r10, #446]	@ unaligned
 8605 0754 0123     		movs	r3, #1
 8606 0756 5146     		mov	r1, r10
 8607 0758 3846     		mov	r0, r7
 8608 075a FFF7FEFF 		bl	disk_write
 8609 075e 0028     		cmp	r0, #0
 8610 0760 7FF4EDAD 		bne	.L2422
 8611              	.L2317:
 8612 0764 0022     		movs	r2, #0
 8613 0766 3846     		mov	r0, r7
 8614 0768 1146     		mov	r1, r2
 8615 076a FFF7FEFF 		bl	disk_ioctl
ARM GAS  D:\Programs\cygwin64\tmp\ccQ42GcX.s 			page 151


 8616 076e 0028     		cmp	r0, #0
 8617 0770 7FF4E5AD 		bne	.L2422
 8618 0774 002D     		cmp	r5, #0
 8619 0776 7FF481AC 		bne	.L2402
 8620 077a 5046     		mov	r0, r10
 8621 077c FFF7FEFF 		bl	ff_memfree
 8622 0780 2846     		mov	r0, r5
 8623 0782 7BE4     		b	.L2402
 8624              	.L2345:
 8625 0784 0124     		movs	r4, #1
 8626 0786 D5E4     		b	.L2277
 8627              	.L2347:
 8628 0788 0021     		movs	r1, #0
 8629 078a 0424     		movs	r4, #4
 8630 078c D2E4     		b	.L2277
 8631              	.L2346:
 8632 078e 0021     		movs	r1, #0
 8633 0790 0224     		movs	r4, #2
 8634 0792 CFE4     		b	.L2277
 8635              	.L2349:
 8636 0794 0021     		movs	r1, #0
 8637 0796 1024     		movs	r4, #16
 8638 0798 CCE4     		b	.L2277
 8639              	.L2348:
 8640 079a 0021     		movs	r1, #0
 8641 079c 0824     		movs	r4, #8
 8642 079e C9E4     		b	.L2277
 8643              	.L2278:
 8644 07a0 5609     		lsrs	r6, r2, #5
 8645 07a2 B600     		lsls	r6, r6, #2
 8646 07a4 06F20726 		addw	r6, r6, #519
 8647 07a8 4FEA562B 		lsr	fp, r6, #9
 8648 07ac 0021     		movs	r1, #0
 8649 07ae 2024     		movs	r4, #32
 8650 07b0 CEE4     		b	.L2279
 8651              	.L2304:
 8652 07b2 03F11300 		add	r0, r3, #19
 8653 07b6 0AF12A02 		add	r2, r10, #42
 8654              	.L2307:
 8655 07ba 13F8011B 		ldrb	r1, [r3], #1	@ zero_extendqisi2
 8656 07be 02F8011F 		strb	r1, [r2, #1]!
 8657 07c2 8342     		cmp	r3, r0
 8658 07c4 F9D1     		bne	.L2307
 8659 07c6 7DE5     		b	.L2306
 8660              	.L2361:
 8661 07c8 0624     		movs	r4, #6
 8662 07ca 84E7     		b	.L2316
 8663              	.L2360:
 8664 07cc 0C24     		movs	r4, #12
 8665 07ce 82E7     		b	.L2316
 8666              	.L2300:
 8667 07d0 03F11301 		add	r1, r3, #19
 8668 07d4 0AF14602 		add	r2, r10, #70
 8669              	.L2303:
 8670 07d8 13F8010B 		ldrb	r0, [r3], #1	@ zero_extendqisi2
 8671 07dc 02F8010F 		strb	r0, [r2, #1]!
 8672 07e0 8B42     		cmp	r3, r1
ARM GAS  D:\Programs\cygwin64\tmp\ccQ42GcX.s 			page 152


 8673 07e2 F9D1     		bne	.L2303
 8674 07e4 FFE6     		b	.L2302
 8675              	.L2450:
 8676 07e6 0A9F     		ldr	r7, [sp, #40]
 8677 07e8 90E4     		b	.L2319
 8678              	.L2449:
 8679 07ea 40F6F573 		movw	r3, #4085
 8680 07ee 9E42     		cmp	r6, r3
 8681 07f0 8B46     		mov	fp, r1
 8682 07f2 0A9F     		ldr	r7, [sp, #40]
 8683 07f4 3FF63AAE 		bhi	.L2428
 8684 07f8 0123     		movs	r3, #1
 8685 07fa 0293     		str	r3, [sp, #8]
 8686 07fc 0493     		str	r3, [sp, #16]
 8687 07fe 079B     		ldr	r3, [sp, #28]
 8688 0800 0593     		str	r3, [sp, #20]
 8689 0802 2023     		movs	r3, #32
 8690 0804 0446     		mov	r4, r0
 8691 0806 0693     		str	r3, [sp, #24]
 8692 0808 CAE4     		b	.L2291
 8693              	.L2456:
 8694 080a 00BF     		.align	2
 8695              	.L2455:
 8696 080c 04000000 		.word	.LC2+4
 8697 0810 01000600 		.word	393217
 8698 0814 414D4520 		.word	541412673
 8699 0818 4E4F204E 		.word	1310740302
 8700 081c 20202046 		.word	1176510496
 8701 0820 52526141 		.word	1096897106
 8702 0824 72724161 		.word	1631679090
 8703 0828 00010100 		.word	65792
 8705              		.section	.text.f_gets,"ax",%progbits
 8706              		.align	1
 8707              		.p2align 2,,3
 8708              		.global	f_gets
 8709              		.syntax unified
 8710              		.thumb
 8711              		.thumb_func
 8712              		.fpu fpv4-sp-d16
 8714              	f_gets:
 8715              		@ args = 0, pretend = 0, frame = 8
 8716              		@ frame_needed = 0, uses_anonymous_args = 0
 8717 0000 2DE9F043 		push	{r4, r5, r6, r7, r8, r9, lr}
 8718 0004 01F1FF38 		add	r8, r1, #-1
 8719 0008 B8F1000F 		cmp	r8, #0
 8720 000c 83B0     		sub	sp, sp, #12
 8721 000e 2ADD     		ble	.L2458
 8722 0010 1746     		mov	r7, r2
 8723 0012 8146     		mov	r9, r0
 8724 0014 0446     		mov	r4, r0
 8725 0016 0025     		movs	r5, #0
 8726              	.L2463:
 8727 0018 2646     		mov	r6, r4
 8728              	.L2461:
 8729 001a 01AB     		add	r3, sp, #4
 8730 001c 0122     		movs	r2, #1
 8731 001e 6946     		mov	r1, sp
ARM GAS  D:\Programs\cygwin64\tmp\ccQ42GcX.s 			page 153


 8732 0020 3846     		mov	r0, r7
 8733 0022 FFF7FEFF 		bl	f_read
 8734 0026 019B     		ldr	r3, [sp, #4]
 8735 0028 012B     		cmp	r3, #1
 8736 002a 12D1     		bne	.L2471
 8737 002c 9DF80030 		ldrb	r3, [sp]	@ zero_extendqisi2
 8738 0030 0D2B     		cmp	r3, #13
 8739 0032 F2D0     		beq	.L2461
 8740 0034 0A2B     		cmp	r3, #10
 8741 0036 04F10104 		add	r4, r4, #1
 8742 003a 3370     		strb	r3, [r6]
 8743 003c 05F10105 		add	r5, r5, #1
 8744 0040 01D0     		beq	.L2462
 8745 0042 A845     		cmp	r8, r5
 8746 0044 E8DC     		bgt	.L2463
 8747              	.L2462:
 8748 0046 0023     		movs	r3, #0
 8749 0048 4846     		mov	r0, r9
 8750 004a 2370     		strb	r3, [r4]
 8751              	.L2457:
 8752 004c 03B0     		add	sp, sp, #12
 8753              		@ sp needed
 8754 004e BDE8F083 		pop	{r4, r5, r6, r7, r8, r9, pc}
 8755              	.L2471:
 8756 0052 002D     		cmp	r5, #0
 8757 0054 4FF00003 		mov	r3, #0
 8758 0058 14BF     		ite	ne
 8759 005a 4846     		movne	r0, r9
 8760 005c 1846     		moveq	r0, r3
 8761 005e 2370     		strb	r3, [r4]
 8762 0060 03B0     		add	sp, sp, #12
 8763              		@ sp needed
 8764 0062 BDE8F083 		pop	{r4, r5, r6, r7, r8, r9, pc}
 8765              	.L2458:
 8766 0066 0023     		movs	r3, #0
 8767 0068 0370     		strb	r3, [r0]
 8768 006a 1846     		mov	r0, r3
 8769 006c EEE7     		b	.L2457
 8771 006e 00BF     		.section	.text.f_putc,"ax",%progbits
 8772              		.align	1
 8773              		.p2align 2,,3
 8774              		.global	f_putc
 8775              		.syntax unified
 8776              		.thumb
 8777              		.thumb_func
 8778              		.fpu fpv4-sp-d16
 8780              	f_putc:
 8781              		@ args = 0, pretend = 0, frame = 80
 8782              		@ frame_needed = 0, uses_anonymous_args = 0
 8783 0000 F0B5     		push	{r4, r5, r6, r7, lr}
 8784 0002 95B0     		sub	sp, sp, #84
 8785 0004 0C46     		mov	r4, r1
 8786 0006 0546     		mov	r5, r0
 8787 0008 4822     		movs	r2, #72
 8788 000a 0021     		movs	r1, #0
 8789 000c 02A8     		add	r0, sp, #8
 8790 000e FFF7FEFF 		bl	memset
ARM GAS  D:\Programs\cygwin64\tmp\ccQ42GcX.s 			page 154


 8791 0012 0A2D     		cmp	r5, #10
 8792 0014 0194     		str	r4, [sp, #4]
 8793 0016 4FF00004 		mov	r4, #0
 8794 001a 35D0     		beq	.L2484
 8795              	.L2473:
 8796 001c 002C     		cmp	r4, #0
 8797 001e 2FDB     		blt	.L2481
 8798 0020 14AB     		add	r3, sp, #80
 8799 0022 2344     		add	r3, r3, r4
 8800 0024 0134     		adds	r4, r4, #1
 8801 0026 3B2C     		cmp	r4, #59
 8802 0028 03F8405C 		strb	r5, [r3, #-64]
 8803 002c 039D     		ldr	r5, [sp, #12]
 8804 002e 12DC     		bgt	.L2485
 8805 0030 0135     		adds	r5, r5, #1
 8806 0032 CDE90245 		strd	r4, r5, [sp, #8]
 8807 0036 6F46     		mov	r7, sp
 8808 0038 04AE     		add	r6, sp, #16
 8809              	.L2480:
 8810 003a 3B46     		mov	r3, r7
 8811 003c 2246     		mov	r2, r4
 8812 003e 3146     		mov	r1, r6
 8813 0040 0198     		ldr	r0, [sp, #4]
 8814 0042 FFF7FEFF 		bl	f_write
 8815 0046 D8B9     		cbnz	r0, .L2481
 8816 0048 029A     		ldr	r2, [sp, #8]
 8817 004a 009B     		ldr	r3, [sp]
 8818 004c 9A42     		cmp	r2, r3
 8819 004e 17D1     		bne	.L2481
 8820 0050 0398     		ldr	r0, [sp, #12]
 8821 0052 15B0     		add	sp, sp, #84
 8822              		@ sp needed
 8823 0054 F0BD     		pop	{r4, r5, r6, r7, pc}
 8824              	.L2485:
 8825 0056 6F46     		mov	r7, sp
 8826 0058 04AE     		add	r6, sp, #16
 8827 005a 3B46     		mov	r3, r7
 8828 005c 2246     		mov	r2, r4
 8829 005e 3146     		mov	r1, r6
 8830 0060 0198     		ldr	r0, [sp, #4]
 8831 0062 FFF7FEFF 		bl	f_write
 8832 0066 009B     		ldr	r3, [sp]
 8833 0068 9C42     		cmp	r4, r3
 8834 006a 05F10105 		add	r5, r5, #1
 8835 006e 14BF     		ite	ne
 8836 0070 4FF0FF33 		movne	r3, #-1
 8837 0074 0023     		moveq	r3, #0
 8838 0076 CDE90235 		strd	r3, r5, [sp, #8]
 8839 007a 08BF     		it	eq
 8840 007c 0024     		moveq	r4, #0
 8841 007e DCD0     		beq	.L2480
 8842              	.L2481:
 8843 0080 4FF0FF30 		mov	r0, #-1
 8844 0084 15B0     		add	sp, sp, #84
 8845              		@ sp needed
 8846 0086 F0BD     		pop	{r4, r5, r6, r7, pc}
 8847              	.L2484:
ARM GAS  D:\Programs\cygwin64\tmp\ccQ42GcX.s 			page 155


 8848 0088 039B     		ldr	r3, [sp, #12]
 8849 008a 14AA     		add	r2, sp, #80
 8850 008c 2244     		add	r2, r2, r4
 8851 008e 0133     		adds	r3, r3, #1
 8852 0090 0134     		adds	r4, r4, #1
 8853 0092 0D21     		movs	r1, #13
 8854 0094 CDE90243 		strd	r4, r3, [sp, #8]
 8855 0098 02F8401C 		strb	r1, [r2, #-64]
 8856 009c BEE7     		b	.L2473
 8858 009e 00BF     		.section	.text.f_puts,"ax",%progbits
 8859              		.align	1
 8860              		.p2align 2,,3
 8861              		.global	f_puts
 8862              		.syntax unified
 8863              		.thumb
 8864              		.thumb_func
 8865              		.fpu fpv4-sp-d16
 8867              	f_puts:
 8868              		@ args = 0, pretend = 0, frame = 80
 8869              		@ frame_needed = 0, uses_anonymous_args = 0
 8870 0000 2DE9F041 		push	{r4, r5, r6, r7, r8, lr}
 8871 0004 0646     		mov	r6, r0
 8872 0006 94B0     		sub	sp, sp, #80
 8873 0008 0D46     		mov	r5, r1
 8874 000a 4822     		movs	r2, #72
 8875 000c 0021     		movs	r1, #0
 8876 000e 02A8     		add	r0, sp, #8
 8877 0010 FFF7FEFF 		bl	memset
 8878 0014 3478     		ldrb	r4, [r6]	@ zero_extendqisi2
 8879 0016 0195     		str	r5, [sp, #4]
 8880 0018 0022     		movs	r2, #0
 8881 001a 9CB3     		cbz	r4, .L2487
 8882 001c 0D27     		movs	r7, #13
 8883 001e 06E0     		b	.L2495
 8884              	.L2494:
 8885 0020 0134     		adds	r4, r4, #1
 8886 0022 CDE90254 		strd	r5, r4, [sp, #8]
 8887 0026 2A46     		mov	r2, r5
 8888              	.L2493:
 8889 0028 16F8014F 		ldrb	r4, [r6, #1]!	@ zero_extendqisi2
 8890 002c 54B3     		cbz	r4, .L2487
 8891              	.L2495:
 8892 002e 0A2C     		cmp	r4, #10
 8893 0030 16D0     		beq	.L2504
 8894              	.L2488:
 8895 0032 14AB     		add	r3, sp, #80
 8896 0034 002A     		cmp	r2, #0
 8897 0036 1344     		add	r3, r3, r2
 8898 0038 02F10105 		add	r5, r2, #1
 8899 003c F4DB     		blt	.L2493
 8900 003e 3B2D     		cmp	r5, #59
 8901 0040 03F8404C 		strb	r4, [r3, #-64]
 8902 0044 039C     		ldr	r4, [sp, #12]
 8903 0046 EBDD     		ble	.L2494
 8904 0048 6B46     		mov	r3, sp
 8905 004a 2A46     		mov	r2, r5
 8906 004c 04A9     		add	r1, sp, #16
ARM GAS  D:\Programs\cygwin64\tmp\ccQ42GcX.s 			page 156


 8907 004e 0198     		ldr	r0, [sp, #4]
 8908 0050 FFF7FEFF 		bl	f_write
 8909 0054 009B     		ldr	r3, [sp]
 8910 0056 5D1B     		subs	r5, r3, r5
 8911 0058 18BF     		it	ne
 8912 005a 4FF0FF35 		movne	r5, #-1
 8913 005e DFE7     		b	.L2494
 8914              	.L2504:
 8915 0060 14AB     		add	r3, sp, #80
 8916 0062 002A     		cmp	r2, #0
 8917 0064 1344     		add	r3, r3, r2
 8918 0066 02F10105 		add	r5, r2, #1
 8919 006a DDDB     		blt	.L2493
 8920 006c 3B2D     		cmp	r5, #59
 8921 006e 03F8407C 		strb	r7, [r3, #-64]
 8922 0072 DDF80C80 		ldr	r8, [sp, #12]
 8923 0076 15DC     		bgt	.L2505
 8924              	.L2491:
 8925 0078 08F10103 		add	r3, r8, #1
 8926 007c CDE90253 		strd	r5, r3, [sp, #8]
 8927 0080 2A46     		mov	r2, r5
 8928 0082 D6E7     		b	.L2488
 8929              	.L2487:
 8930 0084 002A     		cmp	r2, #0
 8931 0086 19DB     		blt	.L2498
 8932 0088 6B46     		mov	r3, sp
 8933 008a 04A9     		add	r1, sp, #16
 8934 008c 0198     		ldr	r0, [sp, #4]
 8935 008e FFF7FEFF 		bl	f_write
 8936 0092 98B9     		cbnz	r0, .L2498
 8937 0094 029A     		ldr	r2, [sp, #8]
 8938 0096 009B     		ldr	r3, [sp]
 8939 0098 9A42     		cmp	r2, r3
 8940 009a 0FD1     		bne	.L2498
 8941 009c 0398     		ldr	r0, [sp, #12]
 8942 009e 14B0     		add	sp, sp, #80
 8943              		@ sp needed
 8944 00a0 BDE8F081 		pop	{r4, r5, r6, r7, r8, pc}
 8945              	.L2505:
 8946 00a4 6B46     		mov	r3, sp
 8947 00a6 2A46     		mov	r2, r5
 8948 00a8 04A9     		add	r1, sp, #16
 8949 00aa 0198     		ldr	r0, [sp, #4]
 8950 00ac FFF7FEFF 		bl	f_write
 8951 00b0 009B     		ldr	r3, [sp]
 8952 00b2 5D1B     		subs	r5, r3, r5
 8953 00b4 18BF     		it	ne
 8954 00b6 4FF0FF35 		movne	r5, #-1
 8955 00ba DDE7     		b	.L2491
 8956              	.L2498:
 8957 00bc 4FF0FF30 		mov	r0, #-1
 8958 00c0 14B0     		add	sp, sp, #80
 8959              		@ sp needed
 8960 00c2 BDE8F081 		pop	{r4, r5, r6, r7, r8, pc}
 8962 00c6 00BF     		.section	.text.f_printf,"ax",%progbits
 8963              		.align	1
 8964              		.p2align 2,,3
ARM GAS  D:\Programs\cygwin64\tmp\ccQ42GcX.s 			page 157


 8965              		.global	f_printf
 8966              		.syntax unified
 8967              		.thumb
 8968              		.thumb_func
 8969              		.fpu fpv4-sp-d16
 8971              	f_printf:
 8972              		@ args = 4, pretend = 12, frame = 128
 8973              		@ frame_needed = 0, uses_anonymous_args = 1
 8974 0000 0EB4     		push	{r1, r2, r3}
 8975 0002 2DE9F04F 		push	{r4, r5, r6, r7, r8, r9, r10, fp, lr}
 8976 0006 A0B0     		sub	sp, sp, #128
 8977 0008 29AC     		add	r4, sp, #164
 8978 000a 0546     		mov	r5, r0
 8979 000c 54F804BB 		ldr	fp, [r4], #4
 8980 0010 4822     		movs	r2, #72
 8981 0012 0021     		movs	r1, #0
 8982 0014 0EA8     		add	r0, sp, #56
 8983 0016 FFF7FEFF 		bl	memset
 8984 001a 0394     		str	r4, [sp, #12]
 8985 001c 0D95     		str	r5, [sp, #52]
 8986 001e 0024     		movs	r4, #0
 8987              	.L2507:
 8988 0020 5E46     		mov	r6, fp
 8989 0022 16F8015B 		ldrb	r5, [r6], #1	@ zero_extendqisi2
 8990 0026 002D     		cmp	r5, #0
 8991 0028 76D0     		beq	.L2508
 8992              	.L2668:
 8993 002a 252D     		cmp	r5, #37
 8994 002c 40F0AA81 		bne	.L2663
 8995 0030 9BF80150 		ldrb	r5, [fp, #1]	@ zero_extendqisi2
 8996 0034 302D     		cmp	r5, #48
 8997 0036 00F0CC81 		beq	.L2664
 8998 003a 2D2D     		cmp	r5, #45
 8999 003c 00F0DF81 		beq	.L2519
 9000 0040 4FF00008 		mov	r8, #0
 9001 0044 0BF1020B 		add	fp, fp, #2
 9002 0048 C146     		mov	r9, r8
 9003 004a 0422     		movs	r2, #4
 9004              	.L2518:
 9005 004c 2A2D     		cmp	r5, #42
 9006 004e 40F0AC81 		bne	.L2665
 9007 0052 039B     		ldr	r3, [sp, #12]
 9008 0054 1BF8015B 		ldrb	r5, [fp], #1	@ zero_extendqisi2
 9009 0058 1E68     		ldr	r6, [r3]
 9010 005a 0433     		adds	r3, r3, #4
 9011 005c 0393     		str	r3, [sp, #12]
 9012              	.L2522:
 9013 005e 05F0DF03 		and	r3, r5, #223
 9014 0062 4C2B     		cmp	r3, #76
 9015 0064 05BF     		ittet	eq
 9016 0066 1BF8015B 		ldrbeq	r5, [fp], #1	@ zero_extendqisi2
 9017 006a 9146     		moveq	r9, r2
 9018 006c 0022     		movne	r2, #0
 9019 006e 0422     		moveq	r2, #4
 9020 0070 002D     		cmp	r5, #0
 9021 0072 51D0     		beq	.L2508
 9022 0074 A5F16103 		sub	r3, r5, #97
ARM GAS  D:\Programs\cygwin64\tmp\ccQ42GcX.s 			page 158


 9023 0078 192B     		cmp	r3, #25
 9024 007a 00F24D81 		bhi	.L2524
 9025 007e A5F12003 		sub	r3, r5, #32
 9026 0082 DBB2     		uxtb	r3, r3
 9027 0084 A3F14201 		sub	r1, r3, #66
 9028 0088 1629     		cmp	r1, #22
 9029 008a 32D8     		bhi	.L2525
 9030 008c DFE811F0 		tbh	[pc, r1, lsl #1]
 9031              	.L2527:
 9032 0090 5B00     		.2byte	(.L2532-.L2527)/2
 9033 0092 2A00     		.2byte	(.L2531-.L2527)/2
 9034 0094 1800     		.2byte	(.L2528-.L2527)/2
 9035 0096 3100     		.2byte	(.L2525-.L2527)/2
 9036 0098 3100     		.2byte	(.L2525-.L2527)/2
 9037 009a 3100     		.2byte	(.L2525-.L2527)/2
 9038 009c 3100     		.2byte	(.L2525-.L2527)/2
 9039 009e 3100     		.2byte	(.L2525-.L2527)/2
 9040 00a0 3100     		.2byte	(.L2525-.L2527)/2
 9041 00a2 3100     		.2byte	(.L2525-.L2527)/2
 9042 00a4 3100     		.2byte	(.L2525-.L2527)/2
 9043 00a6 3100     		.2byte	(.L2525-.L2527)/2
 9044 00a8 3100     		.2byte	(.L2525-.L2527)/2
 9045 00aa 0101     		.2byte	(.L2535-.L2527)/2
 9046 00ac 3100     		.2byte	(.L2525-.L2527)/2
 9047 00ae 3100     		.2byte	(.L2525-.L2527)/2
 9048 00b0 3100     		.2byte	(.L2525-.L2527)/2
 9049 00b2 C500     		.2byte	(.L2529-.L2527)/2
 9050 00b4 3100     		.2byte	(.L2525-.L2527)/2
 9051 00b6 1800     		.2byte	(.L2528-.L2527)/2
 9052 00b8 3100     		.2byte	(.L2525-.L2527)/2
 9053 00ba 3100     		.2byte	(.L2525-.L2527)/2
 9054 00bc C100     		.2byte	(.L2526-.L2527)/2
 9055              		.p2align 1
 9056              	.L2609:
 9057 00be 2B46     		mov	r3, r5
 9058              	.L2528:
 9059 00c0 0398     		ldr	r0, [sp, #12]
 9060 00c2 071D     		adds	r7, r0, #4
 9061 00c4 002A     		cmp	r2, #0
 9062 00c6 40F03882 		bne	.L2565
 9063 00ca 442B     		cmp	r3, #68
 9064 00cc 40F0BF82 		bne	.L2616
 9065 00d0 0168     		ldr	r1, [r0]
 9066 00d2 0397     		str	r7, [sp, #12]
 9067 00d4 0A46     		mov	r2, r1
 9068              	.L2576:
 9069 00d6 0029     		cmp	r1, #0
 9070 00d8 C0F22282 		blt	.L2666
 9071              	.L2617:
 9072 00dc 0A21     		movs	r1, #10
 9073              	.L2653:
 9074 00de 0023     		movs	r3, #0
 9075 00e0 0093     		str	r3, [sp]
 9076 00e2 37E0     		b	.L2577
 9077              	.L2531:
 9078 00e4 039B     		ldr	r3, [sp, #12]
 9079 00e6 1D78     		ldrb	r5, [r3]	@ zero_extendqisi2
ARM GAS  D:\Programs\cygwin64\tmp\ccQ42GcX.s 			page 159


 9080 00e8 0433     		adds	r3, r3, #4
 9081 00ea 0A2D     		cmp	r5, #10
 9082 00ec 0393     		str	r3, [sp, #12]
 9083 00ee 00F02E82 		beq	.L2662
 9084              	.L2525:
 9085 00f2 002C     		cmp	r4, #0
 9086 00f4 94DB     		blt	.L2507
 9087 00f6 20AB     		add	r3, sp, #128
 9088 00f8 2344     		add	r3, r3, r4
 9089 00fa 0134     		adds	r4, r4, #1
 9090 00fc 3B2C     		cmp	r4, #59
 9091 00fe 03F8405C 		strb	r5, [r3, #-64]
 9092 0102 0F9D     		ldr	r5, [sp, #60]
 9093 0104 00F33382 		bgt	.L2667
 9094              	.L2571:
 9095 0108 5E46     		mov	r6, fp
 9096 010a 0135     		adds	r5, r5, #1
 9097 010c CDE90E45 		strd	r4, r5, [sp, #56]
 9098 0110 16F8015B 		ldrb	r5, [r6], #1	@ zero_extendqisi2
 9099 0114 002D     		cmp	r5, #0
 9100 0116 88D1     		bne	.L2668
 9101              	.L2508:
 9102 0118 002C     		cmp	r4, #0
 9103 011a C0F28982 		blt	.L2604
 9104 011e 2246     		mov	r2, r4
 9105 0120 04AB     		add	r3, sp, #16
 9106 0122 10A9     		add	r1, sp, #64
 9107 0124 0D98     		ldr	r0, [sp, #52]
 9108 0126 FFF7FEFF 		bl	f_write
 9109 012a 0028     		cmp	r0, #0
 9110 012c 40F08082 		bne	.L2604
 9111 0130 0E9A     		ldr	r2, [sp, #56]
 9112 0132 049B     		ldr	r3, [sp, #16]
 9113 0134 9A42     		cmp	r2, r3
 9114 0136 40F07B82 		bne	.L2604
 9115 013a 0F98     		ldr	r0, [sp, #60]
 9116 013c 20B0     		add	sp, sp, #128
 9117              		@ sp needed
 9118 013e BDE8F04F 		pop	{r4, r5, r6, r7, r8, r9, r10, fp, lr}
 9119 0142 03B0     		add	sp, sp, #12
 9120 0144 7047     		bx	lr
 9121              	.L2532:
 9122 0146 0398     		ldr	r0, [sp, #12]
 9123 0148 0221     		movs	r1, #2
 9124 014a 071D     		adds	r7, r0, #4
 9125              	.L2572:
 9126 014c 0397     		str	r7, [sp, #12]
 9127 014e 0023     		movs	r3, #0
 9128 0150 0268     		ldr	r2, [r0]
 9129 0152 0093     		str	r3, [sp]
 9130              	.L2577:
 9131 0154 782D     		cmp	r5, #120
 9132 0156 0DF1140A 		add	r10, sp, #20
 9133 015a 0CBF     		ite	eq
 9134 015c 4FF0270E 		moveq	lr, #39
 9135 0160 4FF0070E 		movne	lr, #7
 9136 0164 5746     		mov	r7, r10
ARM GAS  D:\Programs\cygwin64\tmp\ccQ42GcX.s 			page 160


 9137 0166 4FF0000C 		mov	ip, #0
 9138 016a 03E0     		b	.L2580
 9139              	.L2670:
 9140 016c 202D     		cmp	r5, #32
 9141 016e 00F06181 		beq	.L2669
 9142 0172 AC46     		mov	ip, r5
 9143              	.L2580:
 9144 0174 B2FBF1F0 		udiv	r0, r2, r1
 9145 0178 01FB1025 		mls	r5, r1, r0, r2
 9146 017c EBB2     		uxtb	r3, r5
 9147 017e 092D     		cmp	r5, #9
 9148 0180 84BF     		itt	hi
 9149 0182 7344     		addhi	r3, r3, lr
 9150 0184 DBB2     		uxtbhi	r3, r3
 9151 0186 3033     		adds	r3, r3, #48
 9152 0188 8A42     		cmp	r2, r1
 9153 018a 0CF10105 		add	r5, ip, #1
 9154 018e 07F8013B 		strb	r3, [r7], #1
 9155 0192 0246     		mov	r2, r0
 9156 0194 EAD2     		bcs	.L2670
 9157              	.L2579:
 9158 0196 009B     		ldr	r3, [sp]
 9159 0198 33B1     		cbz	r3, .L2581
 9160 019a 20AB     		add	r3, sp, #128
 9161 019c 2B44     		add	r3, r3, r5
 9162 019e 2D22     		movs	r2, #45
 9163 01a0 0CF10205 		add	r5, ip, #2
 9164 01a4 03F86C2C 		strb	r2, [r3, #-108]
 9165              	.L2581:
 9166 01a8 19F0010F 		tst	r9, #1
 9167 01ac 0CBF     		ite	eq
 9168 01ae 4FF02009 		moveq	r9, #32
 9169 01b2 4FF03009 		movne	r9, #48
 9170 01b6 B8F1000F 		cmp	r8, #0
 9171 01ba 00F03E81 		beq	.L2671
 9172 01be 0195     		str	r5, [sp, #4]
 9173              	.L2583:
 9174 01c0 013D     		subs	r5, r5, #1
 9175 01c2 5544     		add	r5, r5, r10
 9176 01c4 CDF80090 		str	r9, [sp]
 9177 01c8 06E0     		b	.L2596
 9178              	.L2595:
 9179 01ca 08F10103 		add	r3, r8, #1
 9180 01ce CDE90E43 		strd	r4, r3, [sp, #56]
 9181              	.L2594:
 9182 01d2 AA45     		cmp	r10, r5
 9183 01d4 79D0     		beq	.L2672
 9184 01d6 3D46     		mov	r5, r7
 9185              	.L2596:
 9186 01d8 2F46     		mov	r7, r5
 9187 01da 17F80189 		ldrb	r8, [r7], #-1	@ zero_extendqisi2
 9188 01de B8F10A0F 		cmp	r8, #10
 9189 01e2 5FD0     		beq	.L2673
 9190              	.L2589:
 9191 01e4 002C     		cmp	r4, #0
 9192 01e6 F4DB     		blt	.L2594
 9193 01e8 20AB     		add	r3, sp, #128
ARM GAS  D:\Programs\cygwin64\tmp\ccQ42GcX.s 			page 161


 9194 01ea 2344     		add	r3, r3, r4
 9195 01ec 0134     		adds	r4, r4, #1
 9196 01ee 3B2C     		cmp	r4, #59
 9197 01f0 03F8408C 		strb	r8, [r3, #-64]
 9198 01f4 DDF83C80 		ldr	r8, [sp, #60]
 9199 01f8 E7DD     		ble	.L2595
 9200 01fa 04AB     		add	r3, sp, #16
 9201 01fc 2246     		mov	r2, r4
 9202 01fe 10A9     		add	r1, sp, #64
 9203 0200 0D98     		ldr	r0, [sp, #52]
 9204 0202 FFF7FEFF 		bl	f_write
 9205 0206 049B     		ldr	r3, [sp, #16]
 9206 0208 1C1B     		subs	r4, r3, r4
 9207 020a 18BF     		it	ne
 9208 020c 4FF0FF34 		movne	r4, #-1
 9209 0210 DBE7     		b	.L2595
 9210              	.L2526:
 9211 0212 0398     		ldr	r0, [sp, #12]
 9212 0214 1021     		movs	r1, #16
 9213 0216 071D     		adds	r7, r0, #4
 9214 0218 98E7     		b	.L2572
 9215              	.L2529:
 9216 021a 039B     		ldr	r3, [sp, #12]
 9217 021c 1F68     		ldr	r7, [r3]
 9218 021e 3D78     		ldrb	r5, [r7]	@ zero_extendqisi2
 9219 0220 0433     		adds	r3, r3, #4
 9220 0222 0393     		str	r3, [sp, #12]
 9221 0224 002D     		cmp	r5, #0
 9222 0226 00F03181 		beq	.L2536
 9223 022a 3B46     		mov	r3, r7
 9224 022c C7F10101 		rsb	r1, r7, #1
 9225              	.L2537:
 9226 0230 01EB0309 		add	r9, r1, r3
 9227 0234 13F8012F 		ldrb	r2, [r3, #1]!	@ zero_extendqisi2
 9228 0238 002A     		cmp	r2, #0
 9229 023a F9D1     		bne	.L2537
 9230 023c B8F1000F 		cmp	r8, #0
 9231 0240 00F0AD81 		beq	.L2605
 9232              	.L2551:
 9233 0244 B846     		mov	r8, r7
 9234 0246 4FF00D0A 		mov	r10, #13
 9235 024a 08E0     		b	.L2553
 9236              	.L2550:
 9237 024c 0134     		adds	r4, r4, #1
 9238 024e CDE90E74 		strd	r7, r4, [sp, #56]
 9239 0252 3C46     		mov	r4, r7
 9240              	.L2549:
 9241 0254 18F8015F 		ldrb	r5, [r8, #1]!	@ zero_extendqisi2
 9242 0258 002D     		cmp	r5, #0
 9243 025a 00F01C81 		beq	.L2552
 9244              	.L2553:
 9245 025e 0A2D     		cmp	r5, #10
 9246 0260 00F0D680 		beq	.L2674
 9247              	.L2544:
 9248 0264 20AB     		add	r3, sp, #128
 9249 0266 002C     		cmp	r4, #0
 9250 0268 2344     		add	r3, r3, r4
ARM GAS  D:\Programs\cygwin64\tmp\ccQ42GcX.s 			page 162


 9251 026a 04F10107 		add	r7, r4, #1
 9252 026e F1DB     		blt	.L2549
 9253 0270 3B2F     		cmp	r7, #59
 9254 0272 03F8405C 		strb	r5, [r3, #-64]
 9255 0276 0F9C     		ldr	r4, [sp, #60]
 9256 0278 E8DD     		ble	.L2550
 9257 027a 04AB     		add	r3, sp, #16
 9258 027c 3A46     		mov	r2, r7
 9259 027e 10A9     		add	r1, sp, #64
 9260 0280 0D98     		ldr	r0, [sp, #52]
 9261 0282 FFF7FEFF 		bl	f_write
 9262 0286 049B     		ldr	r3, [sp, #16]
 9263 0288 DF1B     		subs	r7, r3, r7
 9264 028a 18BF     		it	ne
 9265 028c 4FF0FF37 		movne	r7, #-1
 9266 0290 DCE7     		b	.L2550
 9267              	.L2535:
 9268 0292 0398     		ldr	r0, [sp, #12]
 9269 0294 071D     		adds	r7, r0, #4
 9270 0296 002A     		cmp	r2, #0
 9271 0298 00F04D81 		beq	.L2615
 9272 029c 0397     		str	r7, [sp, #12]
 9273 029e 0268     		ldr	r2, [r0]
 9274 02a0 0821     		movs	r1, #8
 9275 02a2 1CE7     		b	.L2653
 9276              	.L2673:
 9277 02a4 002C     		cmp	r4, #0
 9278 02a6 94DB     		blt	.L2594
 9279 02a8 20AB     		add	r3, sp, #128
 9280 02aa 2344     		add	r3, r3, r4
 9281 02ac 0134     		adds	r4, r4, #1
 9282 02ae 4FF00D02 		mov	r2, #13
 9283 02b2 3B2C     		cmp	r4, #59
 9284 02b4 03F8402C 		strb	r2, [r3, #-64]
 9285 02b8 DDF83C90 		ldr	r9, [sp, #60]
 9286 02bc 00F39380 		bgt	.L2675
 9287              	.L2592:
 9288 02c0 09F10103 		add	r3, r9, #1
 9289 02c4 CDE90E43 		strd	r4, r3, [sp, #56]
 9290 02c8 8CE7     		b	.L2589
 9291              	.L2672:
 9292 02ca DDE90093 		ldrd	r9, r3, [sp]
 9293 02ce 9E42     		cmp	r6, r3
 9294 02d0 03F10105 		add	r5, r3, #1
 9295 02d4 0AD8     		bhi	.L2601
 9296 02d6 A3E6     		b	.L2507
 9297              	.L2600:
 9298 02d8 0134     		adds	r4, r4, #1
 9299 02da CDE90E24 		strd	r2, r4, [sp, #56]
 9300 02de 1446     		mov	r4, r2
 9301              	.L2599:
 9302 02e0 AE42     		cmp	r6, r5
 9303 02e2 05F10103 		add	r3, r5, #1
 9304 02e6 3FF49BAE 		beq	.L2507
 9305 02ea 1D46     		mov	r5, r3
 9306              	.L2601:
 9307 02ec 20AB     		add	r3, sp, #128
ARM GAS  D:\Programs\cygwin64\tmp\ccQ42GcX.s 			page 163


 9308 02ee 002C     		cmp	r4, #0
 9309 02f0 2344     		add	r3, r3, r4
 9310 02f2 04F10102 		add	r2, r4, #1
 9311 02f6 F3DB     		blt	.L2599
 9312 02f8 3C2A     		cmp	r2, #60
 9313 02fa 03F8409C 		strb	r9, [r3, #-64]
 9314 02fe 0F9C     		ldr	r4, [sp, #60]
 9315 0300 EAD1     		bne	.L2600
 9316 0302 04AB     		add	r3, sp, #16
 9317 0304 10A9     		add	r1, sp, #64
 9318 0306 0D98     		ldr	r0, [sp, #52]
 9319 0308 FFF7FEFF 		bl	f_write
 9320 030c 049A     		ldr	r2, [sp, #16]
 9321 030e 3C3A     		subs	r2, r2, #60
 9322 0310 18BF     		it	ne
 9323 0312 4FF0FF32 		movne	r2, #-1
 9324 0316 DFE7     		b	.L2600
 9325              	.L2524:
 9326 0318 A5F14203 		sub	r3, r5, #66
 9327 031c 162B     		cmp	r3, #22
 9328 031e 00F21381 		bhi	.L2533
 9329 0322 01A1     		adr	r1, .L2534
 9330 0324 51F823F0 		ldr	pc, [r1, r3, lsl #2]
 9331              		.p2align 2
 9332              	.L2534:
 9333 0328 47010000 		.word	.L2532+1
 9334 032c E5000000 		.word	.L2531+1
 9335 0330 BF000000 		.word	.L2609+1
 9336 0334 49050000 		.word	.L2533+1
 9337 0338 49050000 		.word	.L2533+1
 9338 033c 49050000 		.word	.L2533+1
 9339 0340 49050000 		.word	.L2533+1
 9340 0344 49050000 		.word	.L2533+1
 9341 0348 49050000 		.word	.L2533+1
 9342 034c 49050000 		.word	.L2533+1
 9343 0350 49050000 		.word	.L2533+1
 9344 0354 49050000 		.word	.L2533+1
 9345 0358 49050000 		.word	.L2533+1
 9346 035c 93020000 		.word	.L2535+1
 9347 0360 49050000 		.word	.L2533+1
 9348 0364 49050000 		.word	.L2533+1
 9349 0368 49050000 		.word	.L2533+1
 9350 036c 1B020000 		.word	.L2529+1
 9351 0370 49050000 		.word	.L2533+1
 9352 0374 BF000000 		.word	.L2609+1
 9353 0378 49050000 		.word	.L2533+1
 9354 037c 49050000 		.word	.L2533+1
 9355 0380 13020000 		.word	.L2526+1
 9356              		.p2align 1
 9357              	.L2663:
 9358 0384 0A2D     		cmp	r5, #10
 9359 0386 00F0BB80 		beq	.L2676
 9360              	.L2510:
 9361 038a 002C     		cmp	r4, #0
 9362 038c 0BDB     		blt	.L2650
 9363 038e 20AB     		add	r3, sp, #128
 9364 0390 2344     		add	r3, r3, r4
ARM GAS  D:\Programs\cygwin64\tmp\ccQ42GcX.s 			page 164


 9365 0392 0134     		adds	r4, r4, #1
 9366 0394 3B2C     		cmp	r4, #59
 9367 0396 03F8405C 		strb	r5, [r3, #-64]
 9368 039a 0F9D     		ldr	r5, [sp, #60]
 9369 039c 00F3A480 		bgt	.L2677
 9370              	.L2516:
 9371 03a0 0135     		adds	r5, r5, #1
 9372 03a2 CDE90E45 		strd	r4, r5, [sp, #56]
 9373              	.L2650:
 9374 03a6 B346     		mov	fp, r6
 9375 03a8 3AE6     		b	.L2507
 9376              	.L2665:
 9377 03aa A5F13003 		sub	r3, r5, #48
 9378 03ae 092B     		cmp	r3, #9
 9379 03b0 4FF00006 		mov	r6, #0
 9380 03b4 3FF653AE 		bhi	.L2522
 9381              	.L2521:
 9382 03b8 06EB8606 		add	r6, r6, r6, lsl #2
 9383 03bc 05EB4606 		add	r6, r5, r6, lsl #1
 9384 03c0 1BF8015B 		ldrb	r5, [fp], #1	@ zero_extendqisi2
 9385 03c4 A5F13003 		sub	r3, r5, #48
 9386 03c8 092B     		cmp	r3, #9
 9387 03ca A6F13006 		sub	r6, r6, #48
 9388 03ce F3D9     		bls	.L2521
 9389 03d0 45E6     		b	.L2522
 9390              	.L2664:
 9391 03d2 9BF80250 		ldrb	r5, [fp, #2]	@ zero_extendqisi2
 9392 03d6 4FF00008 		mov	r8, #0
 9393 03da 0BF1030B 		add	fp, fp, #3
 9394 03de 0522     		movs	r2, #5
 9395 03e0 4FF00109 		mov	r9, #1
 9396 03e4 32E6     		b	.L2518
 9397              	.L2675:
 9398 03e6 04AB     		add	r3, sp, #16
 9399 03e8 2246     		mov	r2, r4
 9400 03ea 10A9     		add	r1, sp, #64
 9401 03ec 0D98     		ldr	r0, [sp, #52]
 9402 03ee FFF7FEFF 		bl	f_write
 9403 03f2 049B     		ldr	r3, [sp, #16]
 9404 03f4 1C1B     		subs	r4, r3, r4
 9405 03f6 18BF     		it	ne
 9406 03f8 4FF0FF34 		movne	r4, #-1
 9407 03fc 60E7     		b	.L2592
 9408              	.L2519:
 9409 03fe 4FF00208 		mov	r8, #2
 9410 0402 9BF80250 		ldrb	r5, [fp, #2]	@ zero_extendqisi2
 9411 0406 C146     		mov	r9, r8
 9412 0408 0622     		movs	r2, #6
 9413 040a 0BF1030B 		add	fp, fp, #3
 9414 040e 1DE6     		b	.L2518
 9415              	.L2674:
 9416 0410 20AB     		add	r3, sp, #128
 9417 0412 002C     		cmp	r4, #0
 9418 0414 2344     		add	r3, r3, r4
 9419 0416 04F10107 		add	r7, r4, #1
 9420 041a FFF61BAF 		blt	.L2549
 9421 041e 3B2F     		cmp	r7, #59
ARM GAS  D:\Programs\cygwin64\tmp\ccQ42GcX.s 			page 165


 9422 0420 03F840AC 		strb	r10, [r3, #-64]
 9423 0424 0F9C     		ldr	r4, [sp, #60]
 9424 0426 00F3AE80 		bgt	.L2678
 9425              	.L2547:
 9426 042a 0134     		adds	r4, r4, #1
 9427 042c CDE90E74 		strd	r7, r4, [sp, #56]
 9428 0430 3C46     		mov	r4, r7
 9429 0432 17E7     		b	.L2544
 9430              	.L2669:
 9431 0434 4FF01F0C 		mov	ip, #31
 9432 0438 ADE6     		b	.L2579
 9433              	.L2671:
 9434 043a B542     		cmp	r5, r6
 9435 043c 05F10108 		add	r8, r5, #1
 9436 0440 80F0FD80 		bcs	.L2621
 9437 0444 731C     		adds	r3, r6, #1
 9438 0446 0193     		str	r3, [sp, #4]
 9439 0448 09E0     		b	.L2588
 9440              	.L2587:
 9441 044a 0134     		adds	r4, r4, #1
 9442 044c CDE90E74 		strd	r7, r4, [sp, #56]
 9443 0450 3C46     		mov	r4, r7
 9444              	.L2586:
 9445 0452 4645     		cmp	r6, r8
 9446 0454 08F10103 		add	r3, r8, #1
 9447 0458 3FF4B2AE 		beq	.L2583
 9448 045c 9846     		mov	r8, r3
 9449              	.L2588:
 9450 045e 20AB     		add	r3, sp, #128
 9451 0460 002C     		cmp	r4, #0
 9452 0462 2344     		add	r3, r3, r4
 9453 0464 04F10107 		add	r7, r4, #1
 9454 0468 F3DB     		blt	.L2586
 9455 046a 3B2F     		cmp	r7, #59
 9456 046c 03F8409C 		strb	r9, [r3, #-64]
 9457 0470 0F9C     		ldr	r4, [sp, #60]
 9458 0472 EADD     		ble	.L2587
 9459 0474 04AB     		add	r3, sp, #16
 9460 0476 3A46     		mov	r2, r7
 9461 0478 10A9     		add	r1, sp, #64
 9462 047a 0D98     		ldr	r0, [sp, #52]
 9463 047c FFF7FEFF 		bl	f_write
 9464 0480 049B     		ldr	r3, [sp, #16]
 9465 0482 DF1B     		subs	r7, r3, r7
 9466 0484 18BF     		it	ne
 9467 0486 4FF0FF37 		movne	r7, #-1
 9468 048a DEE7     		b	.L2587
 9469              	.L2536:
 9470 048c A946     		mov	r9, r5
 9471 048e B8F1000F 		cmp	r8, #0
 9472 0492 00F08480 		beq	.L2605
 9473              	.L2552:
 9474 0496 4E45     		cmp	r6, r9
 9475 0498 09F10107 		add	r7, r9, #1
 9476 049c 7FF6C0AD 		bls	.L2507
 9477 04a0 4FF02008 		mov	r8, #32
 9478 04a4 09E0     		b	.L2558
ARM GAS  D:\Programs\cygwin64\tmp\ccQ42GcX.s 			page 166


 9479              	.L2557:
 9480 04a6 0134     		adds	r4, r4, #1
 9481 04a8 CDE90E54 		strd	r5, r4, [sp, #56]
 9482 04ac 2C46     		mov	r4, r5
 9483              	.L2556:
 9484 04ae BE42     		cmp	r6, r7
 9485 04b0 07F10103 		add	r3, r7, #1
 9486 04b4 3FF4B4AD 		beq	.L2507
 9487 04b8 1F46     		mov	r7, r3
 9488              	.L2558:
 9489 04ba 20AB     		add	r3, sp, #128
 9490 04bc 002C     		cmp	r4, #0
 9491 04be 2344     		add	r3, r3, r4
 9492 04c0 04F10105 		add	r5, r4, #1
 9493 04c4 F3DB     		blt	.L2556
 9494 04c6 3B2D     		cmp	r5, #59
 9495 04c8 03F8408C 		strb	r8, [r3, #-64]
 9496 04cc 0F9C     		ldr	r4, [sp, #60]
 9497 04ce EADD     		ble	.L2557
 9498 04d0 04AB     		add	r3, sp, #16
 9499 04d2 2A46     		mov	r2, r5
 9500 04d4 10A9     		add	r1, sp, #64
 9501 04d6 0D98     		ldr	r0, [sp, #52]
 9502 04d8 FFF7FEFF 		bl	f_write
 9503 04dc 049B     		ldr	r3, [sp, #16]
 9504 04de 5D1B     		subs	r5, r3, r5
 9505 04e0 18BF     		it	ne
 9506 04e2 4FF0FF35 		movne	r5, #-1
 9507 04e6 DEE7     		b	.L2557
 9508              	.L2677:
 9509 04e8 04AB     		add	r3, sp, #16
 9510 04ea 2246     		mov	r2, r4
 9511 04ec 10A9     		add	r1, sp, #64
 9512 04ee 0D98     		ldr	r0, [sp, #52]
 9513 04f0 FFF7FEFF 		bl	f_write
 9514 04f4 049B     		ldr	r3, [sp, #16]
 9515 04f6 1C1B     		subs	r4, r3, r4
 9516 04f8 18BF     		it	ne
 9517 04fa 4FF0FF34 		movne	r4, #-1
 9518 04fe 4FE7     		b	.L2516
 9519              	.L2676:
 9520 0500 002C     		cmp	r4, #0
 9521 0502 FFF650AF 		blt	.L2650
 9522 0506 20AB     		add	r3, sp, #128
 9523 0508 2344     		add	r3, r3, r4
 9524 050a 0134     		adds	r4, r4, #1
 9525 050c 0D22     		movs	r2, #13
 9526 050e 3B2C     		cmp	r4, #59
 9527 0510 03F8402C 		strb	r2, [r3, #-64]
 9528 0514 0F9F     		ldr	r7, [sp, #60]
 9529 0516 70DC     		bgt	.L2679
 9530 0518 0137     		adds	r7, r7, #1
 9531 051a CDE90E47 		strd	r4, r7, [sp, #56]
 9532 051e 34E7     		b	.L2510
 9533              	.L2666:
 9534 0520 49F00803 		orr	r3, r9, #8
 9535 0524 09F00208 		and	r8, r9, #2
ARM GAS  D:\Programs\cygwin64\tmp\ccQ42GcX.s 			page 167


 9536 0528 5FFA83F9 		uxtb	r9, r3
 9537 052c 0823     		movs	r3, #8
 9538 052e 5242     		rsbs	r2, r2, #0
 9539 0530 0A21     		movs	r1, #10
 9540 0532 0093     		str	r3, [sp]
 9541 0534 0EE6     		b	.L2577
 9542              	.L2615:
 9543 0536 0821     		movs	r1, #8
 9544 0538 08E6     		b	.L2572
 9545              	.L2565:
 9546 053a 0268     		ldr	r2, [r0]
 9547 053c 0397     		str	r7, [sp, #12]
 9548 053e 442B     		cmp	r3, #68
 9549 0540 1146     		mov	r1, r2
 9550 0542 3FF4C8AD 		beq	.L2576
 9551 0546 C9E5     		b	.L2617
 9552              	.L2533:
 9553 0548 0A2D     		cmp	r5, #10
 9554 054a 7FF4D2AD 		bne	.L2525
 9555              	.L2662:
 9556 054e 002C     		cmp	r4, #0
 9557 0550 FFF666AD 		blt	.L2507
 9558 0554 20AB     		add	r3, sp, #128
 9559 0556 2344     		add	r3, r3, r4
 9560 0558 0134     		adds	r4, r4, #1
 9561 055a 0D22     		movs	r2, #13
 9562 055c 3B2C     		cmp	r4, #59
 9563 055e 03F8402C 		strb	r2, [r3, #-64]
 9564 0562 0F9E     		ldr	r6, [sp, #60]
 9565 0564 58DC     		bgt	.L2680
 9566              	.L2569:
 9567 0566 0136     		adds	r6, r6, #1
 9568 0568 CDE90E46 		strd	r4, r6, [sp, #56]
 9569 056c C1E5     		b	.L2525
 9570              	.L2667:
 9571 056e 04AB     		add	r3, sp, #16
 9572 0570 2246     		mov	r2, r4
 9573 0572 10A9     		add	r1, sp, #64
 9574 0574 0D98     		ldr	r0, [sp, #52]
 9575 0576 FFF7FEFF 		bl	f_write
 9576 057a 049B     		ldr	r3, [sp, #16]
 9577 057c 1C1B     		subs	r4, r3, r4
 9578 057e 18BF     		it	ne
 9579 0580 4FF0FF34 		movne	r4, #-1
 9580 0584 C0E5     		b	.L2571
 9581              	.L2678:
 9582 0586 04AB     		add	r3, sp, #16
 9583 0588 3A46     		mov	r2, r7
 9584 058a 10A9     		add	r1, sp, #64
 9585 058c 0D98     		ldr	r0, [sp, #52]
 9586 058e FFF7FEFF 		bl	f_write
 9587 0592 049B     		ldr	r3, [sp, #16]
 9588 0594 DF1B     		subs	r7, r3, r7
 9589 0596 18BF     		it	ne
 9590 0598 4FF0FF37 		movne	r7, #-1
 9591 059c 45E7     		b	.L2547
 9592              	.L2605:
ARM GAS  D:\Programs\cygwin64\tmp\ccQ42GcX.s 			page 168


 9593 059e 4E45     		cmp	r6, r9
 9594 05a0 09F10108 		add	r8, r9, #1
 9595 05a4 4ED9     		bls	.L2610
 9596 05a6 06F10109 		add	r9, r6, #1
 9597 05aa 4FF0200A 		mov	r10, #32
 9598 05ae 08E0     		b	.L2543
 9599              	.L2542:
 9600 05b0 0134     		adds	r4, r4, #1
 9601 05b2 CDE90E54 		strd	r5, r4, [sp, #56]
 9602 05b6 2C46     		mov	r4, r5
 9603              	.L2541:
 9604 05b8 4645     		cmp	r6, r8
 9605 05ba 08F10103 		add	r3, r8, #1
 9606 05be 17D0     		beq	.L2681
 9607 05c0 9846     		mov	r8, r3
 9608              	.L2543:
 9609 05c2 20AB     		add	r3, sp, #128
 9610 05c4 002C     		cmp	r4, #0
 9611 05c6 2344     		add	r3, r3, r4
 9612 05c8 04F10105 		add	r5, r4, #1
 9613 05cc F4DB     		blt	.L2541
 9614 05ce 3B2D     		cmp	r5, #59
 9615 05d0 03F840AC 		strb	r10, [r3, #-64]
 9616 05d4 0F9C     		ldr	r4, [sp, #60]
 9617 05d6 EBDD     		ble	.L2542
 9618 05d8 04AB     		add	r3, sp, #16
 9619 05da 2A46     		mov	r2, r5
 9620 05dc 10A9     		add	r1, sp, #64
 9621 05de 0D98     		ldr	r0, [sp, #52]
 9622 05e0 FFF7FEFF 		bl	f_write
 9623 05e4 049B     		ldr	r3, [sp, #16]
 9624 05e6 5D1B     		subs	r5, r3, r5
 9625 05e8 18BF     		it	ne
 9626 05ea 4FF0FF35 		movne	r5, #-1
 9627 05ee DFE7     		b	.L2542
 9628              	.L2681:
 9629 05f0 3D78     		ldrb	r5, [r7]	@ zero_extendqisi2
 9630 05f2 002D     		cmp	r5, #0
 9631 05f4 7FF426AE 		bne	.L2551
 9632 05f8 4DE7     		b	.L2552
 9633              	.L2679:
 9634 05fa 04AB     		add	r3, sp, #16
 9635 05fc 2246     		mov	r2, r4
 9636 05fe 10A9     		add	r1, sp, #64
 9637 0600 0D98     		ldr	r0, [sp, #52]
 9638 0602 FFF7FEFF 		bl	f_write
 9639 0606 049B     		ldr	r3, [sp, #16]
 9640 0608 1C1B     		subs	r4, r3, r4
 9641 060a 18BF     		it	ne
 9642 060c 4FF0FF34 		movne	r4, #-1
 9643 0610 0137     		adds	r7, r7, #1
 9644 0612 CDE90E47 		strd	r4, r7, [sp, #56]
 9645 0616 B8E6     		b	.L2510
 9646              	.L2680:
 9647 0618 04AB     		add	r3, sp, #16
 9648 061a 2246     		mov	r2, r4
 9649 061c 10A9     		add	r1, sp, #64
ARM GAS  D:\Programs\cygwin64\tmp\ccQ42GcX.s 			page 169


 9650 061e 0D98     		ldr	r0, [sp, #52]
 9651 0620 FFF7FEFF 		bl	f_write
 9652 0624 049B     		ldr	r3, [sp, #16]
 9653 0626 1C1B     		subs	r4, r3, r4
 9654 0628 18BF     		it	ne
 9655 062a 4FF0FF34 		movne	r4, #-1
 9656 062e 9AE7     		b	.L2569
 9657              	.L2604:
 9658 0630 4FF0FF30 		mov	r0, #-1
 9659 0634 20B0     		add	sp, sp, #128
 9660              		@ sp needed
 9661 0636 BDE8F04F 		pop	{r4, r5, r6, r7, r8, r9, r10, fp, lr}
 9662 063a 03B0     		add	sp, sp, #12
 9663 063c 7047     		bx	lr
 9664              	.L2621:
 9665 063e CDF80480 		str	r8, [sp, #4]
 9666 0642 BDE5     		b	.L2583
 9667              	.L2610:
 9668 0644 C146     		mov	r9, r8
 9669 0646 002D     		cmp	r5, #0
 9670 0648 7FF4FCAD 		bne	.L2551
 9671 064c 23E7     		b	.L2552
 9672              	.L2616:
 9673 064e 0A21     		movs	r1, #10
 9674 0650 7CE5     		b	.L2572
 9676 0652 00BF     		.section	.bss.FatFs,"aw",%nobits
 9677              		.align	2
 9678              		.set	.LANCHOR0,. + 0
 9681              	FatFs:
 9682 0000 00000000 		.space	12
 9682      00000000 
 9682      00000000 
 9683              		.section	.bss.Files,"aw",%nobits
 9684              		.align	2
 9685              		.set	.LANCHOR2,. + 0
 9688              	Files:
 9689 0000 00000000 		.space	32
 9689      00000000 
 9689      00000000 
 9689      00000000 
 9689      00000000 
 9690              		.section	.bss.Fsid,"aw",%nobits
 9691              		.align	1
 9692              		.set	.LANCHOR1,. + 0
 9695              	Fsid:
 9696 0000 0000     		.space	2
 9697              		.section	.rodata.ExCvt,"a"
 9698              		.align	2
 9699              		.set	.LANCHOR4,. + 0
 9702              	ExCvt:
 9703 0000 43       		.byte	67
 9704 0001 55       		.byte	85
 9705 0002 45       		.byte	69
 9706 0003 41       		.byte	65
 9707 0004 41       		.byte	65
 9708 0005 41       		.byte	65
 9709 0006 41       		.byte	65
ARM GAS  D:\Programs\cygwin64\tmp\ccQ42GcX.s 			page 170


 9710 0007 43       		.byte	67
 9711 0008 45       		.byte	69
 9712 0009 45       		.byte	69
 9713 000a 45       		.byte	69
 9714 000b 49       		.byte	73
 9715 000c 49       		.byte	73
 9716 000d 49       		.byte	73
 9717 000e 41       		.byte	65
 9718 000f 41       		.byte	65
 9719 0010 45       		.byte	69
 9720 0011 92       		.byte	-110
 9721 0012 92       		.byte	-110
 9722 0013 4F       		.byte	79
 9723 0014 4F       		.byte	79
 9724 0015 4F       		.byte	79
 9725 0016 55       		.byte	85
 9726 0017 55       		.byte	85
 9727 0018 59       		.byte	89
 9728 0019 4F       		.byte	79
 9729 001a 55       		.byte	85
 9730 001b 4F       		.byte	79
 9731 001c 9C       		.byte	-100
 9732 001d 4F       		.byte	79
 9733 001e 9E       		.byte	-98
 9734 001f 9F       		.byte	-97
 9735 0020 41       		.byte	65
 9736 0021 49       		.byte	73
 9737 0022 4F       		.byte	79
 9738 0023 55       		.byte	85
 9739 0024 A5       		.byte	-91
 9740 0025 A5       		.byte	-91
 9741 0026 A6       		.byte	-90
 9742 0027 A7       		.byte	-89
 9743 0028 A8       		.byte	-88
 9744 0029 A9       		.byte	-87
 9745 002a AA       		.byte	-86
 9746 002b AB       		.byte	-85
 9747 002c AC       		.byte	-84
 9748 002d AD       		.byte	-83
 9749 002e AE       		.byte	-82
 9750 002f AF       		.byte	-81
 9751 0030 B0       		.byte	-80
 9752 0031 B1       		.byte	-79
 9753 0032 B2       		.byte	-78
 9754 0033 B3       		.byte	-77
 9755 0034 B4       		.byte	-76
 9756 0035 41       		.byte	65
 9757 0036 41       		.byte	65
 9758 0037 41       		.byte	65
 9759 0038 B8       		.byte	-72
 9760 0039 B9       		.byte	-71
 9761 003a BA       		.byte	-70
 9762 003b BB       		.byte	-69
 9763 003c BC       		.byte	-68
 9764 003d BD       		.byte	-67
 9765 003e BE       		.byte	-66
 9766 003f BF       		.byte	-65
ARM GAS  D:\Programs\cygwin64\tmp\ccQ42GcX.s 			page 171


 9767 0040 C0       		.byte	-64
 9768 0041 C1       		.byte	-63
 9769 0042 C2       		.byte	-62
 9770 0043 C3       		.byte	-61
 9771 0044 C4       		.byte	-60
 9772 0045 C5       		.byte	-59
 9773 0046 41       		.byte	65
 9774 0047 41       		.byte	65
 9775 0048 C8       		.byte	-56
 9776 0049 C9       		.byte	-55
 9777 004a CA       		.byte	-54
 9778 004b CB       		.byte	-53
 9779 004c CC       		.byte	-52
 9780 004d CD       		.byte	-51
 9781 004e CE       		.byte	-50
 9782 004f CF       		.byte	-49
 9783 0050 D1       		.byte	-47
 9784 0051 D1       		.byte	-47
 9785 0052 45       		.byte	69
 9786 0053 45       		.byte	69
 9787 0054 45       		.byte	69
 9788 0055 49       		.byte	73
 9789 0056 49       		.byte	73
 9790 0057 49       		.byte	73
 9791 0058 49       		.byte	73
 9792 0059 D9       		.byte	-39
 9793 005a DA       		.byte	-38
 9794 005b DB       		.byte	-37
 9795 005c DC       		.byte	-36
 9796 005d DD       		.byte	-35
 9797 005e 49       		.byte	73
 9798 005f DF       		.byte	-33
 9799 0060 4F       		.byte	79
 9800 0061 E1       		.byte	-31
 9801 0062 4F       		.byte	79
 9802 0063 4F       		.byte	79
 9803 0064 4F       		.byte	79
 9804 0065 4F       		.byte	79
 9805 0066 E6       		.byte	-26
 9806 0067 E8       		.byte	-24
 9807 0068 E8       		.byte	-24
 9808 0069 55       		.byte	85
 9809 006a 55       		.byte	85
 9810 006b 55       		.byte	85
 9811 006c 59       		.byte	89
 9812 006d 59       		.byte	89
 9813 006e EE       		.byte	-18
 9814 006f EF       		.byte	-17
 9815 0070 F0       		.byte	-16
 9816 0071 F1       		.byte	-15
 9817 0072 F2       		.byte	-14
 9818 0073 F3       		.byte	-13
 9819 0074 F4       		.byte	-12
 9820 0075 F5       		.byte	-11
 9821 0076 F6       		.byte	-10
 9822 0077 F7       		.byte	-9
 9823 0078 F8       		.byte	-8
ARM GAS  D:\Programs\cygwin64\tmp\ccQ42GcX.s 			page 172


 9824 0079 F9       		.byte	-7
 9825 007a FA       		.byte	-6
 9826 007b FB       		.byte	-5
 9827 007c FC       		.byte	-4
 9828 007d FD       		.byte	-3
 9829 007e FE       		.byte	-2
 9830 007f FF       		.byte	-1
 9831              		.section	.rodata.LfnOfs,"a"
 9832              		.align	2
 9833              		.set	.LANCHOR3,. + 0
 9836              	LfnOfs:
 9837 0000 01       		.byte	1
 9838 0001 03       		.byte	3
 9839 0002 05       		.byte	5
 9840 0003 07       		.byte	7
 9841 0004 09       		.byte	9
 9842 0005 0E       		.byte	14
 9843 0006 10       		.byte	16
 9844 0007 12       		.byte	18
 9845 0008 14       		.byte	20
 9846 0009 16       		.byte	22
 9847 000a 18       		.byte	24
 9848 000b 1C       		.byte	28
 9849 000c 1E       		.byte	30
 9850              		.section	.rodata.f_mkfs.str1.4,"aMS",%progbits,1
 9851              		.align	2
 9852              	.LC2:
 9853 0000 4E4F204E 		.ascii	"NO NAME    FAT32   \000"
 9853      414D4520 
 9853      20202046 
 9853      41543332 
 9853      20202000 
 9854              	.LC3:
 9855 0014 4E4F204E 		.ascii	"NO NAME    FAT     \000"
 9855      414D4520 
 9855      20202046 
 9855      41542020 
 9855      20202000 
 9856              	.LC4:
 9857 0028 EBFE904D 		.ascii	"\353\376\220MSDOS5.0\000"
 9857      53444F53 
 9857      352E3000 
 9858              		.section	.rodata.follow_path.str1.4,"aMS",%progbits,1
 9859              		.align	2
 9860              	.LC0:
 9861 0000 222A3A3C 		.ascii	"\"*:<>?|\177\000"
 9861      3E3F7C7F 
 9861      00
 9862 0009 000000   		.space	3
 9863              	.LC1:
 9864 000c 2B2C3B3D 		.ascii	"+,;=[]\000"
 9864      5B5D00
 9865              		.ident	"GCC: (GNU Tools for Arm Embedded Processors 8-2018-q4-major) 8.2.1 20181213 (release) [gcc
ARM GAS  D:\Programs\cygwin64\tmp\ccQ42GcX.s 			page 173


DEFINED SYMBOLS
                            *ABS*:00000000 ff.c
D:\Programs\cygwin64\tmp\ccQ42GcX.s:16     .text.dir_clear:00000000 $t
D:\Programs\cygwin64\tmp\ccQ42GcX.s:24     .text.dir_clear:00000000 dir_clear
D:\Programs\cygwin64\tmp\ccQ42GcX.s:151    .text.get_fileinfo:00000000 $t
D:\Programs\cygwin64\tmp\ccQ42GcX.s:158    .text.get_fileinfo:00000000 get_fileinfo
D:\Programs\cygwin64\tmp\ccQ42GcX.s:432    .text.move_window.part.9:00000000 $t
D:\Programs\cygwin64\tmp\ccQ42GcX.s:439    .text.move_window.part.9:00000000 move_window.part.9
D:\Programs\cygwin64\tmp\ccQ42GcX.s:490    .text.put_fat.part.11:00000000 $t
D:\Programs\cygwin64\tmp\ccQ42GcX.s:497    .text.put_fat.part.11:00000000 put_fat.part.11
D:\Programs\cygwin64\tmp\ccQ42GcX.s:630    .text.get_fat.isra.12:00000000 $t
D:\Programs\cygwin64\tmp\ccQ42GcX.s:637    .text.get_fat.isra.12:00000000 get_fat.isra.12
D:\Programs\cygwin64\tmp\ccQ42GcX.s:738    .text.create_chain:00000000 $t
D:\Programs\cygwin64\tmp\ccQ42GcX.s:745    .text.create_chain:00000000 create_chain
D:\Programs\cygwin64\tmp\ccQ42GcX.s:894    .text.remove_chain:00000000 $t
D:\Programs\cygwin64\tmp\ccQ42GcX.s:901    .text.remove_chain:00000000 remove_chain
D:\Programs\cygwin64\tmp\ccQ42GcX.s:977    .text.dir_next.constprop.17:00000000 $t
D:\Programs\cygwin64\tmp\ccQ42GcX.s:984    .text.dir_next.constprop.17:00000000 dir_next.constprop.17
D:\Programs\cygwin64\tmp\ccQ42GcX.s:1056   .text.sync_fs:00000000 $t
D:\Programs\cygwin64\tmp\ccQ42GcX.s:1063   .text.sync_fs:00000000 sync_fs
D:\Programs\cygwin64\tmp\ccQ42GcX.s:1157   .text.sync_fs:000000d0 $d
D:\Programs\cygwin64\tmp\ccQ42GcX.s:1161   .text.dir_read.constprop.16:00000000 $t
D:\Programs\cygwin64\tmp\ccQ42GcX.s:1168   .text.dir_read.constprop.16:00000000 dir_read.constprop.16
D:\Programs\cygwin64\tmp\ccQ42GcX.s:1458   .text.dir_read.constprop.16:000002b4 $d
D:\Programs\cygwin64\tmp\ccQ42GcX.s:1460   .text.dir_read.constprop.16:000002b8 $t
D:\Programs\cygwin64\tmp\ccQ42GcX.s:1627   .text.check_fs:00000000 $t
D:\Programs\cygwin64\tmp\ccQ42GcX.s:1634   .text.check_fs:00000000 check_fs
D:\Programs\cygwin64\tmp\ccQ42GcX.s:1711   .text.find_volume:00000000 $t
D:\Programs\cygwin64\tmp\ccQ42GcX.s:1718   .text.find_volume:00000000 find_volume
D:\Programs\cygwin64\tmp\ccQ42GcX.s:2054   .text.find_volume:00000358 $d
D:\Programs\cygwin64\tmp\ccQ42GcX.s:2059   .text.find_volume:00000368 $t
D:\Programs\cygwin64\tmp\ccQ42GcX.s:2120   .text.find_volume:00000410 $d
D:\Programs\cygwin64\tmp\ccQ42GcX.s:2123   .text.dir_sdi:00000000 $t
D:\Programs\cygwin64\tmp\ccQ42GcX.s:2130   .text.dir_sdi:00000000 dir_sdi
D:\Programs\cygwin64\tmp\ccQ42GcX.s:2305   .text.dir_find:00000000 $t
D:\Programs\cygwin64\tmp\ccQ42GcX.s:2312   .text.dir_find:00000000 dir_find
D:\Programs\cygwin64\tmp\ccQ42GcX.s:2661   .text.dir_find:0000033c $d
D:\Programs\cygwin64\tmp\ccQ42GcX.s:2666   .text.follow_path:00000000 $t
D:\Programs\cygwin64\tmp\ccQ42GcX.s:2673   .text.follow_path:00000000 follow_path
D:\Programs\cygwin64\tmp\ccQ42GcX.s:3036   .text.follow_path:00000340 $d
D:\Programs\cygwin64\tmp\ccQ42GcX.s:3041   .text.dir_register:00000000 $t
D:\Programs\cygwin64\tmp\ccQ42GcX.s:3048   .text.dir_register:00000000 dir_register
D:\Programs\cygwin64\tmp\ccQ42GcX.s:3369   .text.dir_register:000003a4 $d
D:\Programs\cygwin64\tmp\ccQ42GcX.s:3373   .text.dir_register:000003b0 $t
D:\Programs\cygwin64\tmp\ccQ42GcX.s:4009   .text.f_mount:00000000 $t
D:\Programs\cygwin64\tmp\ccQ42GcX.s:4017   .text.f_mount:00000000 f_mount
D:\Programs\cygwin64\tmp\ccQ42GcX.s:4118   .text.f_mount:000000b4 $d
D:\Programs\cygwin64\tmp\ccQ42GcX.s:4122   .text.f_open:00000000 $t
D:\Programs\cygwin64\tmp\ccQ42GcX.s:4130   .text.f_open:00000000 f_open
D:\Programs\cygwin64\tmp\ccQ42GcX.s:4689   .text.f_open:00000530 $d
D:\Programs\cygwin64\tmp\ccQ42GcX.s:4692   .text.f_read:00000000 $t
D:\Programs\cygwin64\tmp\ccQ42GcX.s:4700   .text.f_read:00000000 f_read
D:\Programs\cygwin64\tmp\ccQ42GcX.s:5034   .text.f_write:00000000 $t
D:\Programs\cygwin64\tmp\ccQ42GcX.s:5042   .text.f_write:00000000 f_write
D:\Programs\cygwin64\tmp\ccQ42GcX.s:5415   .text.f_sync:00000000 $t
D:\Programs\cygwin64\tmp\ccQ42GcX.s:5423   .text.f_sync:00000000 f_sync
D:\Programs\cygwin64\tmp\ccQ42GcX.s:5562   .text.f_close:00000000 $t
ARM GAS  D:\Programs\cygwin64\tmp\ccQ42GcX.s 			page 174


D:\Programs\cygwin64\tmp\ccQ42GcX.s:5570   .text.f_close:00000000 f_close
D:\Programs\cygwin64\tmp\ccQ42GcX.s:5654   .text.f_close:00000094 $d
D:\Programs\cygwin64\tmp\ccQ42GcX.s:5657   .text.f_lseek:00000000 $t
D:\Programs\cygwin64\tmp\ccQ42GcX.s:5665   .text.f_lseek:00000000 f_lseek
D:\Programs\cygwin64\tmp\ccQ42GcX.s:6055   .text.f_opendir:00000000 $t
D:\Programs\cygwin64\tmp\ccQ42GcX.s:6063   .text.f_opendir:00000000 f_opendir
D:\Programs\cygwin64\tmp\ccQ42GcX.s:6275   .text.f_opendir:0000019c $d
D:\Programs\cygwin64\tmp\ccQ42GcX.s:6278   .text.f_closedir:00000000 $t
D:\Programs\cygwin64\tmp\ccQ42GcX.s:6286   .text.f_closedir:00000000 f_closedir
D:\Programs\cygwin64\tmp\ccQ42GcX.s:6367   .text.f_closedir:0000008c $d
D:\Programs\cygwin64\tmp\ccQ42GcX.s:6370   .text.f_readdir:00000000 $t
D:\Programs\cygwin64\tmp\ccQ42GcX.s:6378   .text.f_readdir:00000000 f_readdir
D:\Programs\cygwin64\tmp\ccQ42GcX.s:6477   .text.f_stat:00000000 $t
D:\Programs\cygwin64\tmp\ccQ42GcX.s:6485   .text.f_stat:00000000 f_stat
D:\Programs\cygwin64\tmp\ccQ42GcX.s:6573   .text.f_getfree:00000000 $t
D:\Programs\cygwin64\tmp\ccQ42GcX.s:6581   .text.f_getfree:00000000 f_getfree
D:\Programs\cygwin64\tmp\ccQ42GcX.s:6734   .text.f_truncate:00000000 $t
D:\Programs\cygwin64\tmp\ccQ42GcX.s:6742   .text.f_truncate:00000000 f_truncate
D:\Programs\cygwin64\tmp\ccQ42GcX.s:6932   .text.f_unlink:00000000 $t
D:\Programs\cygwin64\tmp\ccQ42GcX.s:6940   .text.f_unlink:00000000 f_unlink
D:\Programs\cygwin64\tmp\ccQ42GcX.s:7155   .text.f_unlink:000001bc $d
D:\Programs\cygwin64\tmp\ccQ42GcX.s:7158   .text.f_mkdir:00000000 $t
D:\Programs\cygwin64\tmp\ccQ42GcX.s:7166   .text.f_mkdir:00000000 f_mkdir
D:\Programs\cygwin64\tmp\ccQ42GcX.s:7388   .text.f_rename:00000000 $t
D:\Programs\cygwin64\tmp\ccQ42GcX.s:7396   .text.f_rename:00000000 f_rename
D:\Programs\cygwin64\tmp\ccQ42GcX.s:7799   .text.f_rename:00000360 $d
D:\Programs\cygwin64\tmp\ccQ42GcX.s:7802   .text.f_rename:00000368 $t
D:\Programs\cygwin64\tmp\ccQ42GcX.s:7852   .text.f_mkfs:00000000 $t
D:\Programs\cygwin64\tmp\ccQ42GcX.s:7860   .text.f_mkfs:00000000 f_mkfs
D:\Programs\cygwin64\tmp\ccQ42GcX.s:8203   .text.f_mkfs:00000370 $d
D:\Programs\cygwin64\tmp\ccQ42GcX.s:8214   .text.f_mkfs:00000398 $t
D:\Programs\cygwin64\tmp\ccQ42GcX.s:8696   .text.f_mkfs:0000080c $d
D:\Programs\cygwin64\tmp\ccQ42GcX.s:8706   .text.f_gets:00000000 $t
D:\Programs\cygwin64\tmp\ccQ42GcX.s:8714   .text.f_gets:00000000 f_gets
D:\Programs\cygwin64\tmp\ccQ42GcX.s:8772   .text.f_putc:00000000 $t
D:\Programs\cygwin64\tmp\ccQ42GcX.s:8780   .text.f_putc:00000000 f_putc
D:\Programs\cygwin64\tmp\ccQ42GcX.s:8859   .text.f_puts:00000000 $t
D:\Programs\cygwin64\tmp\ccQ42GcX.s:8867   .text.f_puts:00000000 f_puts
D:\Programs\cygwin64\tmp\ccQ42GcX.s:8963   .text.f_printf:00000000 $t
D:\Programs\cygwin64\tmp\ccQ42GcX.s:8971   .text.f_printf:00000000 f_printf
D:\Programs\cygwin64\tmp\ccQ42GcX.s:9032   .text.f_printf:00000090 $d
D:\Programs\cygwin64\tmp\ccQ42GcX.s:9055   .text.f_printf:000000be $t
D:\Programs\cygwin64\tmp\ccQ42GcX.s:9333   .text.f_printf:00000328 $d
D:\Programs\cygwin64\tmp\ccQ42GcX.s:9356   .text.f_printf:00000384 $t
D:\Programs\cygwin64\tmp\ccQ42GcX.s:9677   .bss.FatFs:00000000 $d
D:\Programs\cygwin64\tmp\ccQ42GcX.s:9681   .bss.FatFs:00000000 FatFs
D:\Programs\cygwin64\tmp\ccQ42GcX.s:9684   .bss.Files:00000000 $d
D:\Programs\cygwin64\tmp\ccQ42GcX.s:9688   .bss.Files:00000000 Files
D:\Programs\cygwin64\tmp\ccQ42GcX.s:9691   .bss.Fsid:00000000 $d
D:\Programs\cygwin64\tmp\ccQ42GcX.s:9695   .bss.Fsid:00000000 Fsid
D:\Programs\cygwin64\tmp\ccQ42GcX.s:9698   .rodata.ExCvt:00000000 $d
D:\Programs\cygwin64\tmp\ccQ42GcX.s:9702   .rodata.ExCvt:00000000 ExCvt
D:\Programs\cygwin64\tmp\ccQ42GcX.s:9832   .rodata.LfnOfs:00000000 $d
D:\Programs\cygwin64\tmp\ccQ42GcX.s:9836   .rodata.LfnOfs:00000000 LfnOfs
D:\Programs\cygwin64\tmp\ccQ42GcX.s:9851   .rodata.f_mkfs.str1.4:00000000 $d
D:\Programs\cygwin64\tmp\ccQ42GcX.s:9852   .rodata.f_mkfs.str1.4:00000000 .LC2
D:\Programs\cygwin64\tmp\ccQ42GcX.s:9859   .rodata.follow_path.str1.4:00000000 $d
ARM GAS  D:\Programs\cygwin64\tmp\ccQ42GcX.s 			page 175


D:\Programs\cygwin64\tmp\ccQ42GcX.s:9860   .rodata.follow_path.str1.4:00000000 .LC0
D:\Programs\cygwin64\tmp\ccQ42GcX.s:9863   .rodata.follow_path.str1.4:0000000c .LC1

UNDEFINED SYMBOLS
memset
ff_memalloc
disk_write
ff_memfree
ff_uni2oem
disk_read
disk_ioctl
ff_req_grant
disk_initialize
disk_status
ff_wtoupper
ff_oem2uni
ff_del_syncobj
ff_cre_syncobj
ff_rel_grant
get_fattime
