ARM GAS  D:\Programs\cygwin64\tmp\cc4vqyeD.s 			page 1


   1              		.cpu cortex-m4
   2              		.eabi_attribute 27, 1
   3              		.eabi_attribute 28, 1
   4              		.eabi_attribute 20, 1
   5              		.eabi_attribute 21, 1
   6              		.eabi_attribute 23, 3
   7              		.eabi_attribute 24, 1
   8              		.eabi_attribute 25, 1
   9              		.eabi_attribute 26, 1
  10              		.eabi_attribute 30, 2
  11              		.eabi_attribute 34, 1
  12              		.eabi_attribute 18, 4
  13              		.file	"ff_gen_drv.c"
  14              		.text
  15              		.section	.text.FATFS_LinkDriverEx,"ax",%progbits
  16              		.align	1
  17              		.p2align 2,,3
  18              		.global	FATFS_LinkDriverEx
  19              		.arch armv7e-m
  20              		.syntax unified
  21              		.thumb
  22              		.thumb_func
  23              		.fpu fpv4-sp-d16
  25              	FATFS_LinkDriverEx:
  26              		@ args = 0, pretend = 0, frame = 0
  27              		@ frame_needed = 0, uses_anonymous_args = 0
  28              		@ link register save eliminated.
  29 0000 F0B4     		push	{r4, r5, r6, r7}
  30 0002 184D     		ldr	r5, .L17
  31 0004 EB7C     		ldrb	r3, [r5, #19]	@ zero_extendqisi2
  32 0006 DBB2     		uxtb	r3, r3
  33 0008 05EB8304 		add	r4, r5, r3, lsl #2
  34 000c 1E46     		mov	r6, r3
  35 000e 6468     		ldr	r4, [r4, #4]
  36 0010 64B1     		cbz	r4, .L2
  37 0012 022B     		cmp	r3, #2
  38 0014 02D9     		bls	.L3
  39 0016 09E0     		b	.L2
  40              	.L16:
  41 0018 022B     		cmp	r3, #2
  42 001a 21D8     		bhi	.L15
  43              	.L3:
  44 001c 013B     		subs	r3, r3, #1
  45 001e DBB2     		uxtb	r3, r3
  46 0020 05EB8304 		add	r4, r5, r3, lsl #2
  47 0024 1E46     		mov	r6, r3
  48 0026 6468     		ldr	r4, [r4, #4]
  49 0028 002C     		cmp	r4, #0
  50 002a F5D1     		bne	.L16
  51              	.L2:
  52 002c EC7C     		ldrb	r4, [r5, #19]	@ zero_extendqisi2
  53 002e 022C     		cmp	r4, #2
  54 0030 13D8     		bhi	.L5
  55 0032 05EB8604 		add	r4, r5, r6, lsl #2
  56 0036 AF19     		adds	r7, r5, r6
  57 0038 6060     		str	r0, [r4, #4]
  58 003a 3A74     		strb	r2, [r7, #16]
ARM GAS  D:\Programs\cygwin64\tmp\cc4vqyeD.s 			page 2


  59 003c 0020     		movs	r0, #0
  60 003e 3033     		adds	r3, r3, #48
  61 0040 3A24     		movs	r4, #58
  62 0042 2F22     		movs	r2, #47
  63 0044 A855     		strb	r0, [r5, r6]
  64 0046 4C70     		strb	r4, [r1, #1]
  65 0048 C870     		strb	r0, [r1, #3]
  66 004a 0B70     		strb	r3, [r1]
  67 004c 8A70     		strb	r2, [r1, #2]
  68 004e EB7C     		ldrb	r3, [r5, #19]	@ zero_extendqisi2
  69 0050 0133     		adds	r3, r3, #1
  70 0052 DBB2     		uxtb	r3, r3
  71 0054 EB74     		strb	r3, [r5, #19]
  72 0056 F0BC     		pop	{r4, r5, r6, r7}
  73 0058 7047     		bx	lr
  74              	.L5:
  75 005a 0120     		movs	r0, #1
  76 005c F0BC     		pop	{r4, r5, r6, r7}
  77 005e 7047     		bx	lr
  78              	.L15:
  79 0060 FF23     		movs	r3, #255
  80 0062 E3E7     		b	.L2
  81              	.L18:
  82              		.align	2
  83              	.L17:
  84 0064 00000000 		.word	.LANCHOR0
  86              		.section	.text.FATFS_LinkDriver,"ax",%progbits
  87              		.align	1
  88              		.p2align 2,,3
  89              		.global	FATFS_LinkDriver
  90              		.syntax unified
  91              		.thumb
  92              		.thumb_func
  93              		.fpu fpv4-sp-d16
  95              	FATFS_LinkDriver:
  96              		@ args = 0, pretend = 0, frame = 0
  97              		@ frame_needed = 0, uses_anonymous_args = 0
  98              		@ link register save eliminated.
  99 0000 70B4     		push	{r4, r5, r6}
 100 0002 184C     		ldr	r4, .L34
 101 0004 E37C     		ldrb	r3, [r4, #19]	@ zero_extendqisi2
 102 0006 DBB2     		uxtb	r3, r3
 103 0008 04EB8302 		add	r2, r4, r3, lsl #2
 104 000c 1D46     		mov	r5, r3
 105 000e 5268     		ldr	r2, [r2, #4]
 106 0010 62B1     		cbz	r2, .L20
 107 0012 022B     		cmp	r3, #2
 108 0014 02D9     		bls	.L21
 109 0016 09E0     		b	.L20
 110              	.L33:
 111 0018 022B     		cmp	r3, #2
 112 001a 21D8     		bhi	.L32
 113              	.L21:
 114 001c 013B     		subs	r3, r3, #1
 115 001e DBB2     		uxtb	r3, r3
 116 0020 04EB8302 		add	r2, r4, r3, lsl #2
 117 0024 1D46     		mov	r5, r3
ARM GAS  D:\Programs\cygwin64\tmp\cc4vqyeD.s 			page 3


 118 0026 5268     		ldr	r2, [r2, #4]
 119 0028 002A     		cmp	r2, #0
 120 002a F5D1     		bne	.L33
 121              	.L20:
 122 002c E27C     		ldrb	r2, [r4, #19]	@ zero_extendqisi2
 123 002e 022A     		cmp	r2, #2
 124 0030 13D8     		bhi	.L23
 125 0032 04EB8506 		add	r6, r4, r5, lsl #2
 126 0036 6219     		adds	r2, r4, r5
 127 0038 7060     		str	r0, [r6, #4]
 128 003a 0020     		movs	r0, #0
 129 003c 1074     		strb	r0, [r2, #16]
 130 003e 3033     		adds	r3, r3, #48
 131 0040 3A26     		movs	r6, #58
 132 0042 2F22     		movs	r2, #47
 133 0044 6055     		strb	r0, [r4, r5]
 134 0046 4E70     		strb	r6, [r1, #1]
 135 0048 C870     		strb	r0, [r1, #3]
 136 004a 0B70     		strb	r3, [r1]
 137 004c 8A70     		strb	r2, [r1, #2]
 138 004e E37C     		ldrb	r3, [r4, #19]	@ zero_extendqisi2
 139 0050 0133     		adds	r3, r3, #1
 140 0052 DBB2     		uxtb	r3, r3
 141 0054 E374     		strb	r3, [r4, #19]
 142 0056 70BC     		pop	{r4, r5, r6}
 143 0058 7047     		bx	lr
 144              	.L23:
 145 005a 0120     		movs	r0, #1
 146 005c 70BC     		pop	{r4, r5, r6}
 147 005e 7047     		bx	lr
 148              	.L32:
 149 0060 FF23     		movs	r3, #255
 150 0062 E3E7     		b	.L20
 151              	.L35:
 152              		.align	2
 153              	.L34:
 154 0064 00000000 		.word	.LANCHOR0
 156              		.section	.text.FATFS_UnLinkDriverEx,"ax",%progbits
 157              		.align	1
 158              		.p2align 2,,3
 159              		.global	FATFS_UnLinkDriverEx
 160              		.syntax unified
 161              		.thumb
 162              		.thumb_func
 163              		.fpu fpv4-sp-d16
 165              	FATFS_UnLinkDriverEx:
 166              		@ args = 0, pretend = 0, frame = 0
 167              		@ frame_needed = 0, uses_anonymous_args = 0
 168              		@ link register save eliminated.
 169 0000 0F4A     		ldr	r2, .L44
 170 0002 D37C     		ldrb	r3, [r2, #19]	@ zero_extendqisi2
 171 0004 A3B1     		cbz	r3, .L38
 172 0006 30B4     		push	{r4, r5}
 173 0008 0378     		ldrb	r3, [r0]	@ zero_extendqisi2
 174 000a 303B     		subs	r3, r3, #48
 175 000c DBB2     		uxtb	r3, r3
 176 000e 02EB8305 		add	r5, r2, r3, lsl #2
ARM GAS  D:\Programs\cygwin64\tmp\cc4vqyeD.s 			page 4


 177 0012 6968     		ldr	r1, [r5, #4]
 178 0014 79B1     		cbz	r1, .L39
 179 0016 D17C     		ldrb	r1, [r2, #19]	@ zero_extendqisi2
 180 0018 1344     		add	r3, r3, r2
 181 001a 0139     		subs	r1, r1, #1
 182 001c 0024     		movs	r4, #0
 183 001e C9B2     		uxtb	r1, r1
 184 0020 1C74     		strb	r4, [r3, #16]
 185 0022 6C60     		str	r4, [r5, #4]
 186 0024 D174     		strb	r1, [r2, #19]
 187 0026 2346     		mov	r3, r4
 188 0028 0470     		strb	r4, [r0]
 189 002a 30BC     		pop	{r4, r5}
 190 002c 1846     		mov	r0, r3
 191 002e 7047     		bx	lr
 192              	.L38:
 193 0030 0123     		movs	r3, #1
 194 0032 1846     		mov	r0, r3
 195 0034 7047     		bx	lr
 196              	.L39:
 197 0036 0123     		movs	r3, #1
 198 0038 1846     		mov	r0, r3
 199 003a 30BC     		pop	{r4, r5}
 200 003c 7047     		bx	lr
 201              	.L45:
 202 003e 00BF     		.align	2
 203              	.L44:
 204 0040 00000000 		.word	.LANCHOR0
 206              		.section	.text.FATFS_UnLinkDriver,"ax",%progbits
 207              		.align	1
 208              		.p2align 2,,3
 209              		.global	FATFS_UnLinkDriver
 210              		.syntax unified
 211              		.thumb
 212              		.thumb_func
 213              		.fpu fpv4-sp-d16
 215              	FATFS_UnLinkDriver:
 216              		@ args = 0, pretend = 0, frame = 0
 217              		@ frame_needed = 0, uses_anonymous_args = 0
 218              		@ link register save eliminated.
 219 0000 0F4A     		ldr	r2, .L54
 220 0002 D37C     		ldrb	r3, [r2, #19]	@ zero_extendqisi2
 221 0004 A3B1     		cbz	r3, .L48
 222 0006 30B4     		push	{r4, r5}
 223 0008 0378     		ldrb	r3, [r0]	@ zero_extendqisi2
 224 000a 303B     		subs	r3, r3, #48
 225 000c DBB2     		uxtb	r3, r3
 226 000e 02EB8305 		add	r5, r2, r3, lsl #2
 227 0012 6968     		ldr	r1, [r5, #4]
 228 0014 79B1     		cbz	r1, .L49
 229 0016 D17C     		ldrb	r1, [r2, #19]	@ zero_extendqisi2
 230 0018 1344     		add	r3, r3, r2
 231 001a 0139     		subs	r1, r1, #1
 232 001c 0024     		movs	r4, #0
 233 001e C9B2     		uxtb	r1, r1
 234 0020 1C74     		strb	r4, [r3, #16]
 235 0022 6C60     		str	r4, [r5, #4]
ARM GAS  D:\Programs\cygwin64\tmp\cc4vqyeD.s 			page 5


 236 0024 D174     		strb	r1, [r2, #19]
 237 0026 2346     		mov	r3, r4
 238 0028 0470     		strb	r4, [r0]
 239 002a 30BC     		pop	{r4, r5}
 240 002c 1846     		mov	r0, r3
 241 002e 7047     		bx	lr
 242              	.L48:
 243 0030 0123     		movs	r3, #1
 244 0032 1846     		mov	r0, r3
 245 0034 7047     		bx	lr
 246              	.L49:
 247 0036 0123     		movs	r3, #1
 248 0038 1846     		mov	r0, r3
 249 003a 30BC     		pop	{r4, r5}
 250 003c 7047     		bx	lr
 251              	.L55:
 252 003e 00BF     		.align	2
 253              	.L54:
 254 0040 00000000 		.word	.LANCHOR0
 256              		.section	.text.FATFS_GetAttachedDriversNbr,"ax",%progbits
 257              		.align	1
 258              		.p2align 2,,3
 259              		.global	FATFS_GetAttachedDriversNbr
 260              		.syntax unified
 261              		.thumb
 262              		.thumb_func
 263              		.fpu fpv4-sp-d16
 265              	FATFS_GetAttachedDriversNbr:
 266              		@ args = 0, pretend = 0, frame = 0
 267              		@ frame_needed = 0, uses_anonymous_args = 0
 268              		@ link register save eliminated.
 269 0000 014B     		ldr	r3, .L57
 270 0002 D87C     		ldrb	r0, [r3, #19]	@ zero_extendqisi2
 271 0004 7047     		bx	lr
 272              	.L58:
 273 0006 00BF     		.align	2
 274              	.L57:
 275 0008 00000000 		.word	.LANCHOR0
 277              		.global	disk
 278              		.section	.bss.disk,"aw",%nobits
 279              		.align	2
 280              		.set	.LANCHOR0,. + 0
 283              	disk:
 284 0000 00000000 		.space	20
 284      00000000 
 284      00000000 
 284      00000000 
 284      00000000 
 285              		.ident	"GCC: (GNU Tools for Arm Embedded Processors 8-2018-q4-major) 8.2.1 20181213 (release) [gcc
ARM GAS  D:\Programs\cygwin64\tmp\cc4vqyeD.s 			page 6

