ARM GAS  D:\Programs\cygwin64\tmp\ccSPlCTL.s 			page 1


   1              		.cpu cortex-m4
   2              		.eabi_attribute 27, 1
   3              		.eabi_attribute 28, 1
   4              		.eabi_attribute 20, 1
   5              		.eabi_attribute 21, 1
   6              		.eabi_attribute 23, 3
   7              		.eabi_attribute 24, 1
   8              		.eabi_attribute 25, 1
   9              		.eabi_attribute 26, 1
  10              		.eabi_attribute 30, 2
  11              		.eabi_attribute 34, 1
  12              		.eabi_attribute 18, 4
  13              		.file	"ffunicode.c"
  14              		.text
  15              		.section	.text.ff_uni2oem,"ax",%progbits
  16              		.align	1
  17              		.p2align 2,,3
  18              		.global	ff_uni2oem
  19              		.arch armv7e-m
  20              		.syntax unified
  21              		.thumb
  22              		.thumb_func
  23              		.fpu fpv4-sp-d16
  25              	ff_uni2oem:
  26              		@ args = 0, pretend = 0, frame = 0
  27              		@ frame_needed = 0, uses_anonymous_args = 0
  28              		@ link register save eliminated.
  29 0000 7F28     		cmp	r0, #127
  30 0002 01D8     		bhi	.L2
  31 0004 80B2     		uxth	r0, r0
  32 0006 7047     		bx	lr
  33              	.L2:
  34 0008 B0F5803F 		cmp	r0, #65536
  35 000c 03D2     		bcs	.L8
  36 000e 40F25233 		movw	r3, #850
  37 0012 9942     		cmp	r1, r3
  38 0014 01D0     		beq	.L16
  39              	.L8:
  40 0016 0020     		movs	r0, #0
  41 0018 7047     		bx	lr
  42              	.L16:
  43 001a 10B4     		push	{r4}
  44 001c 094A     		ldr	r2, .L17
  45 001e 0023     		movs	r3, #0
  46 0020 01E0     		b	.L4
  47              	.L6:
  48 0022 802B     		cmp	r3, #128
  49 0024 0CD0     		beq	.L9
  50              	.L4:
  51 0026 32F8021B 		ldrh	r1, [r2], #2
  52 002a 8142     		cmp	r1, r0
  53 002c 9CB2     		uxth	r4, r3
  54 002e 03F10103 		add	r3, r3, #1
  55 0032 F6D1     		bne	.L6
  56 0034 04F18000 		add	r0, r4, #128
  57 0038 80B2     		uxth	r0, r0
  58              	.L3:
ARM GAS  D:\Programs\cygwin64\tmp\ccSPlCTL.s 			page 2


  59 003a 5DF8044B 		ldr	r4, [sp], #4
  60 003e 7047     		bx	lr
  61              	.L9:
  62 0040 0020     		movs	r0, #0
  63 0042 FAE7     		b	.L3
  64              	.L18:
  65              		.align	2
  66              	.L17:
  67 0044 00000000 		.word	.LANCHOR0
  69              		.section	.text.ff_oem2uni,"ax",%progbits
  70              		.align	1
  71              		.p2align 2,,3
  72              		.global	ff_oem2uni
  73              		.syntax unified
  74              		.thumb
  75              		.thumb_func
  76              		.fpu fpv4-sp-d16
  78              	ff_oem2uni:
  79              		@ args = 0, pretend = 0, frame = 0
  80              		@ frame_needed = 0, uses_anonymous_args = 0
  81              		@ link register save eliminated.
  82 0000 7F28     		cmp	r0, #127
  83 0002 04D9     		bls	.L20
  84 0004 40F25233 		movw	r3, #850
  85 0008 9942     		cmp	r1, r3
  86 000a 01D0     		beq	.L23
  87              	.L22:
  88 000c 0020     		movs	r0, #0
  89              	.L20:
  90 000e 7047     		bx	lr
  91              	.L23:
  92 0010 FF28     		cmp	r0, #255
  93 0012 FBD8     		bhi	.L22
  94 0014 00F10040 		add	r0, r0, #-2147483648
  95 0018 024B     		ldr	r3, .L24
  96 001a 8038     		subs	r0, r0, #128
  97 001c 33F81000 		ldrh	r0, [r3, r0, lsl #1]
  98 0020 7047     		bx	lr
  99              	.L25:
 100 0022 00BF     		.align	2
 101              	.L24:
 102 0024 00000000 		.word	.LANCHOR0
 104              		.section	.text.ff_wtoupper,"ax",%progbits
 105              		.align	1
 106              		.p2align 2,,3
 107              		.global	ff_wtoupper
 108              		.syntax unified
 109              		.thumb
 110              		.thumb_func
 111              		.fpu fpv4-sp-d16
 113              	ff_wtoupper:
 114              		@ args = 0, pretend = 0, frame = 0
 115              		@ frame_needed = 0, uses_anonymous_args = 0
 116              		@ link register save eliminated.
 117 0000 B0F5803F 		cmp	r0, #65536
 118 0004 1DD2     		bcs	.L49
 119 0006 254B     		ldr	r3, .L55
ARM GAS  D:\Programs\cygwin64\tmp\ccSPlCTL.s 			page 3


 120 0008 254A     		ldr	r2, .L55+4
 121 000a F0B4     		push	{r4, r5, r6, r7}
 122 000c B0F5805F 		cmp	r0, #4096
 123 0010 28BF     		it	cs
 124 0012 1346     		movcs	r3, r2
 125 0014 86B2     		uxth	r6, r0
 126              	.L42:
 127 0016 0433     		adds	r3, r3, #4
 128 0018 0BE0     		b	.L41
 129              	.L54:
 130 001a 8E42     		cmp	r6, r1
 131 001c 0ED3     		bcc	.L29
 132 001e 33F8022C 		ldrh	r2, [r3, #-2]
 133 0022 D4B2     		uxtb	r4, r2
 134 0024 6518     		adds	r5, r4, r1
 135 0026 A842     		cmp	r0, r5
 136 0028 4FEA1222 		lsr	r2, r2, #8
 137 002c 0ADB     		blt	.L52
 138 002e 0433     		adds	r3, r3, #4
 139 0030 8AB1     		cbz	r2, .L53
 140              	.L41:
 141 0032 33F8041C 		ldrh	r1, [r3, #-4]
 142 0036 1F46     		mov	r7, r3
 143 0038 0029     		cmp	r1, #0
 144 003a EED1     		bne	.L54
 145              	.L29:
 146 003c 3046     		mov	r0, r6
 147 003e F0BC     		pop	{r4, r5, r6, r7}
 148 0040 7047     		bx	lr
 149              	.L49:
 150 0042 7047     		bx	lr
 151              	.L52:
 152 0044 082A     		cmp	r2, #8
 153 0046 F9D8     		bhi	.L29
 154 0048 DFE802F0 		tbb	[pc, r2]
 155              	.L32:
 156 004c 24       		.byte	(.L40-.L32)/2
 157 004d 1E       		.byte	(.L39-.L32)/2
 158 004e 1B       		.byte	(.L38-.L32)/2
 159 004f 18       		.byte	(.L37-.L32)/2
 160 0050 15       		.byte	(.L36-.L32)/2
 161 0051 12       		.byte	(.L35-.L32)/2
 162 0052 0F       		.byte	(.L34-.L32)/2
 163 0053 0C       		.byte	(.L33-.L32)/2
 164 0054 08       		.byte	(.L31-.L32)/2
 165 0055 00       		.p2align 1
 166              	.L53:
 167 0056 07EB4403 		add	r3, r7, r4, lsl #1
 168 005a DCE7     		b	.L42
 169              	.L31:
 170 005c A6F5E356 		sub	r6, r6, #7264
 171 0060 B6B2     		uxth	r6, r6
 172 0062 EBE7     		b	.L29
 173              	.L33:
 174 0064 503E     		subs	r6, r6, #80
 175 0066 B6B2     		uxth	r6, r6
 176 0068 E8E7     		b	.L29
ARM GAS  D:\Programs\cygwin64\tmp\ccSPlCTL.s 			page 4


 177              	.L34:
 178 006a 0836     		adds	r6, r6, #8
 179 006c B6B2     		uxth	r6, r6
 180 006e E5E7     		b	.L29
 181              	.L35:
 182 0070 1A3E     		subs	r6, r6, #26
 183 0072 B6B2     		uxth	r6, r6
 184 0074 E2E7     		b	.L29
 185              	.L36:
 186 0076 303E     		subs	r6, r6, #48
 187 0078 B6B2     		uxth	r6, r6
 188 007a DFE7     		b	.L29
 189              	.L37:
 190 007c 203E     		subs	r6, r6, #32
 191 007e B6B2     		uxth	r6, r6
 192 0080 DCE7     		b	.L29
 193              	.L38:
 194 0082 103E     		subs	r6, r6, #16
 195 0084 B6B2     		uxth	r6, r6
 196 0086 D9E7     		b	.L29
 197              	.L39:
 198 0088 711A     		subs	r1, r6, r1
 199 008a 01F00103 		and	r3, r1, #1
 200 008e F61A     		subs	r6, r6, r3
 201 0090 B6B2     		uxth	r6, r6
 202 0092 D3E7     		b	.L29
 203              	.L40:
 204 0094 411A     		subs	r1, r0, r1
 205 0096 33F81160 		ldrh	r6, [r3, r1, lsl #1]
 206 009a CFE7     		b	.L29
 207              	.L56:
 208              		.align	2
 209              	.L55:
 210 009c 00000000 		.word	.LANCHOR1
 211 00a0 00000000 		.word	.LANCHOR2
 213              		.section	.rodata.cvt1.6600,"a"
 214              		.align	2
 215              		.set	.LANCHOR1,. + 0
 218              	cvt1.6600:
 219 0000 6100     		.short	97
 220 0002 1A03     		.short	794
 221 0004 E000     		.short	224
 222 0006 1703     		.short	791
 223 0008 F800     		.short	248
 224 000a 0703     		.short	775
 225 000c FF00     		.short	255
 226 000e 0100     		.short	1
 227 0010 7801     		.short	376
 228 0012 0001     		.short	256
 229 0014 3001     		.short	304
 230 0016 3201     		.short	306
 231 0018 0601     		.short	262
 232 001a 3901     		.short	313
 233 001c 1001     		.short	272
 234 001e 4A01     		.short	330
 235 0020 2E01     		.short	302
 236 0022 7901     		.short	377
ARM GAS  D:\Programs\cygwin64\tmp\ccSPlCTL.s 			page 5


 237 0024 0601     		.short	262
 238 0026 8001     		.short	384
 239 0028 4D00     		.short	77
 240 002a 4302     		.short	579
 241 002c 8101     		.short	385
 242 002e 8201     		.short	386
 243 0030 8201     		.short	386
 244 0032 8401     		.short	388
 245 0034 8401     		.short	388
 246 0036 8601     		.short	390
 247 0038 8701     		.short	391
 248 003a 8701     		.short	391
 249 003c 8901     		.short	393
 250 003e 8A01     		.short	394
 251 0040 8B01     		.short	395
 252 0042 8B01     		.short	395
 253 0044 8D01     		.short	397
 254 0046 8E01     		.short	398
 255 0048 8F01     		.short	399
 256 004a 9001     		.short	400
 257 004c 9101     		.short	401
 258 004e 9101     		.short	401
 259 0050 9301     		.short	403
 260 0052 9401     		.short	404
 261 0054 F601     		.short	502
 262 0056 9601     		.short	406
 263 0058 9701     		.short	407
 264 005a 9801     		.short	408
 265 005c 9801     		.short	408
 266 005e 3D02     		.short	573
 267 0060 9B01     		.short	411
 268 0062 9C01     		.short	412
 269 0064 9D01     		.short	413
 270 0066 2002     		.short	544
 271 0068 9F01     		.short	415
 272 006a A001     		.short	416
 273 006c A001     		.short	416
 274 006e A201     		.short	418
 275 0070 A201     		.short	418
 276 0072 A401     		.short	420
 277 0074 A401     		.short	420
 278 0076 A601     		.short	422
 279 0078 A701     		.short	423
 280 007a A701     		.short	423
 281 007c A901     		.short	425
 282 007e AA01     		.short	426
 283 0080 AB01     		.short	427
 284 0082 AC01     		.short	428
 285 0084 AC01     		.short	428
 286 0086 AE01     		.short	430
 287 0088 AF01     		.short	431
 288 008a AF01     		.short	431
 289 008c B101     		.short	433
 290 008e B201     		.short	434
 291 0090 B301     		.short	435
 292 0092 B301     		.short	435
 293 0094 B501     		.short	437
ARM GAS  D:\Programs\cygwin64\tmp\ccSPlCTL.s 			page 6


 294 0096 B501     		.short	437
 295 0098 B701     		.short	439
 296 009a B801     		.short	440
 297 009c B801     		.short	440
 298 009e BA01     		.short	442
 299 00a0 BB01     		.short	443
 300 00a2 BC01     		.short	444
 301 00a4 BC01     		.short	444
 302 00a6 BE01     		.short	446
 303 00a8 F701     		.short	503
 304 00aa C001     		.short	448
 305 00ac C101     		.short	449
 306 00ae C201     		.short	450
 307 00b0 C301     		.short	451
 308 00b2 C401     		.short	452
 309 00b4 C501     		.short	453
 310 00b6 C401     		.short	452
 311 00b8 C701     		.short	455
 312 00ba C801     		.short	456
 313 00bc C701     		.short	455
 314 00be CA01     		.short	458
 315 00c0 CB01     		.short	459
 316 00c2 CA01     		.short	458
 317 00c4 CD01     		.short	461
 318 00c6 1001     		.short	272
 319 00c8 DD01     		.short	477
 320 00ca 0100     		.short	1
 321 00cc 8E01     		.short	398
 322 00ce DE01     		.short	478
 323 00d0 1201     		.short	274
 324 00d2 F301     		.short	499
 325 00d4 0300     		.short	3
 326 00d6 F101     		.short	497
 327 00d8 F401     		.short	500
 328 00da F401     		.short	500
 329 00dc F801     		.short	504
 330 00de 2801     		.short	296
 331 00e0 2202     		.short	546
 332 00e2 1201     		.short	274
 333 00e4 3A02     		.short	570
 334 00e6 0900     		.short	9
 335 00e8 652C     		.short	11365
 336 00ea 3B02     		.short	571
 337 00ec 3B02     		.short	571
 338 00ee 3D02     		.short	573
 339 00f0 662C     		.short	11366
 340 00f2 3F02     		.short	575
 341 00f4 4002     		.short	576
 342 00f6 4102     		.short	577
 343 00f8 4102     		.short	577
 344 00fa 4602     		.short	582
 345 00fc 0A01     		.short	266
 346 00fe 5302     		.short	595
 347 0100 4000     		.short	64
 348 0102 8101     		.short	385
 349 0104 8601     		.short	390
 350 0106 5502     		.short	597
ARM GAS  D:\Programs\cygwin64\tmp\ccSPlCTL.s 			page 7


 351 0108 8901     		.short	393
 352 010a 8A01     		.short	394
 353 010c 5802     		.short	600
 354 010e 8F01     		.short	399
 355 0110 5A02     		.short	602
 356 0112 9001     		.short	400
 357 0114 5C02     		.short	604
 358 0116 5D02     		.short	605
 359 0118 5E02     		.short	606
 360 011a 5F02     		.short	607
 361 011c 9301     		.short	403
 362 011e 6102     		.short	609
 363 0120 6202     		.short	610
 364 0122 9401     		.short	404
 365 0124 6402     		.short	612
 366 0126 6502     		.short	613
 367 0128 6602     		.short	614
 368 012a 6702     		.short	615
 369 012c 9701     		.short	407
 370 012e 9601     		.short	406
 371 0130 6A02     		.short	618
 372 0132 622C     		.short	11362
 373 0134 6C02     		.short	620
 374 0136 6D02     		.short	621
 375 0138 6E02     		.short	622
 376 013a 9C01     		.short	412
 377 013c 7002     		.short	624
 378 013e 7102     		.short	625
 379 0140 9D01     		.short	413
 380 0142 7302     		.short	627
 381 0144 7402     		.short	628
 382 0146 9F01     		.short	415
 383 0148 7602     		.short	630
 384 014a 7702     		.short	631
 385 014c 7802     		.short	632
 386 014e 7902     		.short	633
 387 0150 7A02     		.short	634
 388 0152 7B02     		.short	635
 389 0154 7C02     		.short	636
 390 0156 642C     		.short	11364
 391 0158 7E02     		.short	638
 392 015a 7F02     		.short	639
 393 015c A601     		.short	422
 394 015e 8102     		.short	641
 395 0160 8202     		.short	642
 396 0162 A901     		.short	425
 397 0164 8402     		.short	644
 398 0166 8502     		.short	645
 399 0168 8602     		.short	646
 400 016a 8702     		.short	647
 401 016c AE01     		.short	430
 402 016e 4402     		.short	580
 403 0170 B101     		.short	433
 404 0172 B201     		.short	434
 405 0174 4502     		.short	581
 406 0176 8D02     		.short	653
 407 0178 8E02     		.short	654
ARM GAS  D:\Programs\cygwin64\tmp\ccSPlCTL.s 			page 8


 408 017a 8F02     		.short	655
 409 017c 9002     		.short	656
 410 017e 9102     		.short	657
 411 0180 B701     		.short	439
 412 0182 7B03     		.short	891
 413 0184 0300     		.short	3
 414 0186 FD03     		.short	1021
 415 0188 FE03     		.short	1022
 416 018a FF03     		.short	1023
 417 018c AC03     		.short	940
 418 018e 0400     		.short	4
 419 0190 8603     		.short	902
 420 0192 8803     		.short	904
 421 0194 8903     		.short	905
 422 0196 8A03     		.short	906
 423 0198 B103     		.short	945
 424 019a 1103     		.short	785
 425 019c C203     		.short	962
 426 019e 0200     		.short	2
 427 01a0 A303     		.short	931
 428 01a2 A303     		.short	931
 429 01a4 C403     		.short	964
 430 01a6 0803     		.short	776
 431 01a8 CC03     		.short	972
 432 01aa 0300     		.short	3
 433 01ac 8C03     		.short	908
 434 01ae 8E03     		.short	910
 435 01b0 8F03     		.short	911
 436 01b2 D803     		.short	984
 437 01b4 1801     		.short	280
 438 01b6 F203     		.short	1010
 439 01b8 0A00     		.short	10
 440 01ba F903     		.short	1017
 441 01bc F303     		.short	1011
 442 01be F403     		.short	1012
 443 01c0 F503     		.short	1013
 444 01c2 F603     		.short	1014
 445 01c4 F703     		.short	1015
 446 01c6 F703     		.short	1015
 447 01c8 F903     		.short	1017
 448 01ca FA03     		.short	1018
 449 01cc FA03     		.short	1018
 450 01ce 3004     		.short	1072
 451 01d0 2003     		.short	800
 452 01d2 5004     		.short	1104
 453 01d4 1007     		.short	1808
 454 01d6 6004     		.short	1120
 455 01d8 2201     		.short	290
 456 01da 8A04     		.short	1162
 457 01dc 3601     		.short	310
 458 01de C104     		.short	1217
 459 01e0 0E01     		.short	270
 460 01e2 CF04     		.short	1231
 461 01e4 0100     		.short	1
 462 01e6 C004     		.short	1216
 463 01e8 D004     		.short	1232
 464 01ea 4401     		.short	324
ARM GAS  D:\Programs\cygwin64\tmp\ccSPlCTL.s 			page 9


 465 01ec 6105     		.short	1377
 466 01ee 2604     		.short	1062
 467 01f0 0000     		.short	0
 468              		.section	.rodata.cvt2.6601,"a"
 469              		.align	2
 470              		.set	.LANCHOR2,. + 0
 473              	cvt2.6601:
 474 0000 7D1D     		.short	7549
 475 0002 0100     		.short	1
 476 0004 632C     		.short	11363
 477 0006 001E     		.short	7680
 478 0008 9601     		.short	406
 479 000a A01E     		.short	7840
 480 000c 5A01     		.short	346
 481 000e 001F     		.short	7936
 482 0010 0806     		.short	1544
 483 0012 101F     		.short	7952
 484 0014 0606     		.short	1542
 485 0016 201F     		.short	7968
 486 0018 0806     		.short	1544
 487 001a 301F     		.short	7984
 488 001c 0806     		.short	1544
 489 001e 401F     		.short	8000
 490 0020 0606     		.short	1542
 491 0022 511F     		.short	8017
 492 0024 0700     		.short	7
 493 0026 591F     		.short	8025
 494 0028 521F     		.short	8018
 495 002a 5B1F     		.short	8027
 496 002c 541F     		.short	8020
 497 002e 5D1F     		.short	8029
 498 0030 561F     		.short	8022
 499 0032 5F1F     		.short	8031
 500 0034 601F     		.short	8032
 501 0036 0806     		.short	1544
 502 0038 701F     		.short	8048
 503 003a 0E00     		.short	14
 504 003c BA1F     		.short	8122
 505 003e BB1F     		.short	8123
 506 0040 C81F     		.short	8136
 507 0042 C91F     		.short	8137
 508 0044 CA1F     		.short	8138
 509 0046 CB1F     		.short	8139
 510 0048 DA1F     		.short	8154
 511 004a DB1F     		.short	8155
 512 004c F81F     		.short	8184
 513 004e F91F     		.short	8185
 514 0050 EA1F     		.short	8170
 515 0052 EB1F     		.short	8171
 516 0054 FA1F     		.short	8186
 517 0056 FB1F     		.short	8187
 518 0058 801F     		.short	8064
 519 005a 0806     		.short	1544
 520 005c 901F     		.short	8080
 521 005e 0806     		.short	1544
 522 0060 A01F     		.short	8096
 523 0062 0806     		.short	1544
ARM GAS  D:\Programs\cygwin64\tmp\ccSPlCTL.s 			page 10


 524 0064 B01F     		.short	8112
 525 0066 0400     		.short	4
 526 0068 B81F     		.short	8120
 527 006a B91F     		.short	8121
 528 006c B21F     		.short	8114
 529 006e BC1F     		.short	8124
 530 0070 CC1F     		.short	8140
 531 0072 0100     		.short	1
 532 0074 C31F     		.short	8131
 533 0076 D01F     		.short	8144
 534 0078 0206     		.short	1538
 535 007a E01F     		.short	8160
 536 007c 0206     		.short	1538
 537 007e E51F     		.short	8165
 538 0080 0100     		.short	1
 539 0082 EC1F     		.short	8172
 540 0084 F31F     		.short	8179
 541 0086 0100     		.short	1
 542 0088 FC1F     		.short	8188
 543 008a 4E21     		.short	8526
 544 008c 0100     		.short	1
 545 008e 3221     		.short	8498
 546 0090 7021     		.short	8560
 547 0092 1002     		.short	528
 548 0094 8421     		.short	8580
 549 0096 0100     		.short	1
 550 0098 8321     		.short	8579
 551 009a D024     		.short	9424
 552 009c 1A05     		.short	1306
 553 009e 302C     		.short	11312
 554 00a0 2F04     		.short	1071
 555 00a2 602C     		.short	11360
 556 00a4 0201     		.short	258
 557 00a6 672C     		.short	11367
 558 00a8 0601     		.short	262
 559 00aa 752C     		.short	11381
 560 00ac 0201     		.short	258
 561 00ae 802C     		.short	11392
 562 00b0 6401     		.short	356
 563 00b2 002D     		.short	11520
 564 00b4 2608     		.short	2086
 565 00b6 41FF     		.short	-191
 566 00b8 1A03     		.short	794
 567 00ba 0000     		.short	0
 568              		.section	.rodata.uc850,"a"
 569              		.align	2
 570              		.set	.LANCHOR0,. + 0
 573              	uc850:
 574 0000 C700     		.short	199
 575 0002 FC00     		.short	252
 576 0004 E900     		.short	233
 577 0006 E200     		.short	226
 578 0008 E400     		.short	228
 579 000a E000     		.short	224
 580 000c E500     		.short	229
 581 000e E700     		.short	231
 582 0010 EA00     		.short	234
ARM GAS  D:\Programs\cygwin64\tmp\ccSPlCTL.s 			page 11


 583 0012 EB00     		.short	235
 584 0014 E800     		.short	232
 585 0016 EF00     		.short	239
 586 0018 EE00     		.short	238
 587 001a EC00     		.short	236
 588 001c C400     		.short	196
 589 001e C500     		.short	197
 590 0020 C900     		.short	201
 591 0022 E600     		.short	230
 592 0024 C600     		.short	198
 593 0026 F400     		.short	244
 594 0028 F600     		.short	246
 595 002a F200     		.short	242
 596 002c FB00     		.short	251
 597 002e F900     		.short	249
 598 0030 FF00     		.short	255
 599 0032 D600     		.short	214
 600 0034 DC00     		.short	220
 601 0036 F800     		.short	248
 602 0038 A300     		.short	163
 603 003a D800     		.short	216
 604 003c D700     		.short	215
 605 003e 9201     		.short	402
 606 0040 E100     		.short	225
 607 0042 ED00     		.short	237
 608 0044 F300     		.short	243
 609 0046 FA00     		.short	250
 610 0048 F100     		.short	241
 611 004a D100     		.short	209
 612 004c AA00     		.short	170
 613 004e BA00     		.short	186
 614 0050 BF00     		.short	191
 615 0052 AE00     		.short	174
 616 0054 AC00     		.short	172
 617 0056 BD00     		.short	189
 618 0058 BC00     		.short	188
 619 005a A100     		.short	161
 620 005c AB00     		.short	171
 621 005e BB00     		.short	187
 622 0060 9125     		.short	9617
 623 0062 9225     		.short	9618
 624 0064 9325     		.short	9619
 625 0066 0225     		.short	9474
 626 0068 2425     		.short	9508
 627 006a C100     		.short	193
 628 006c C200     		.short	194
 629 006e C000     		.short	192
 630 0070 A900     		.short	169
 631 0072 6325     		.short	9571
 632 0074 5125     		.short	9553
 633 0076 5725     		.short	9559
 634 0078 5D25     		.short	9565
 635 007a A200     		.short	162
 636 007c A500     		.short	165
 637 007e 1025     		.short	9488
 638 0080 1425     		.short	9492
 639 0082 3425     		.short	9524
ARM GAS  D:\Programs\cygwin64\tmp\ccSPlCTL.s 			page 12


 640 0084 2C25     		.short	9516
 641 0086 1C25     		.short	9500
 642 0088 0025     		.short	9472
 643 008a 3C25     		.short	9532
 644 008c E300     		.short	227
 645 008e C300     		.short	195
 646 0090 5A25     		.short	9562
 647 0092 5425     		.short	9556
 648 0094 6925     		.short	9577
 649 0096 6625     		.short	9574
 650 0098 6025     		.short	9568
 651 009a 5025     		.short	9552
 652 009c 6C25     		.short	9580
 653 009e A400     		.short	164
 654 00a0 F000     		.short	240
 655 00a2 D000     		.short	208
 656 00a4 CA00     		.short	202
 657 00a6 CB00     		.short	203
 658 00a8 C800     		.short	200
 659 00aa 3101     		.short	305
 660 00ac CD00     		.short	205
 661 00ae CE00     		.short	206
 662 00b0 CF00     		.short	207
 663 00b2 1825     		.short	9496
 664 00b4 0C25     		.short	9484
 665 00b6 8825     		.short	9608
 666 00b8 8425     		.short	9604
 667 00ba A600     		.short	166
 668 00bc CC00     		.short	204
 669 00be 8025     		.short	9600
 670 00c0 D300     		.short	211
 671 00c2 DF00     		.short	223
 672 00c4 D400     		.short	212
 673 00c6 D200     		.short	210
 674 00c8 F500     		.short	245
 675 00ca D500     		.short	213
 676 00cc B500     		.short	181
 677 00ce FE00     		.short	254
 678 00d0 DE00     		.short	222
 679 00d2 DA00     		.short	218
 680 00d4 DB00     		.short	219
 681 00d6 D900     		.short	217
 682 00d8 FD00     		.short	253
 683 00da DD00     		.short	221
 684 00dc AF00     		.short	175
 685 00de B400     		.short	180
 686 00e0 AD00     		.short	173
 687 00e2 B100     		.short	177
 688 00e4 1720     		.short	8215
 689 00e6 BE00     		.short	190
 690 00e8 B600     		.short	182
 691 00ea A700     		.short	167
 692 00ec F700     		.short	247
 693 00ee B800     		.short	184
 694 00f0 B000     		.short	176
 695 00f2 A800     		.short	168
 696 00f4 B700     		.short	183
ARM GAS  D:\Programs\cygwin64\tmp\ccSPlCTL.s 			page 13


 697 00f6 B900     		.short	185
 698 00f8 B300     		.short	179
 699 00fa B200     		.short	178
 700 00fc A025     		.short	9632
 701 00fe A000     		.short	160
 702              		.ident	"GCC: (GNU Tools for Arm Embedded Processors 8-2018-q4-major) 8.2.1 20181213 (release) [gcc
ARM GAS  D:\Programs\cygwin64\tmp\ccSPlCTL.s 			page 14


DEFINED SYMBOLS
                            *ABS*:00000000 ffunicode.c
D:\Programs\cygwin64\tmp\ccSPlCTL.s:16     .text.ff_uni2oem:00000000 $t
D:\Programs\cygwin64\tmp\ccSPlCTL.s:25     .text.ff_uni2oem:00000000 ff_uni2oem
D:\Programs\cygwin64\tmp\ccSPlCTL.s:67     .text.ff_uni2oem:00000044 $d
D:\Programs\cygwin64\tmp\ccSPlCTL.s:70     .text.ff_oem2uni:00000000 $t
D:\Programs\cygwin64\tmp\ccSPlCTL.s:78     .text.ff_oem2uni:00000000 ff_oem2uni
D:\Programs\cygwin64\tmp\ccSPlCTL.s:102    .text.ff_oem2uni:00000024 $d
D:\Programs\cygwin64\tmp\ccSPlCTL.s:105    .text.ff_wtoupper:00000000 $t
D:\Programs\cygwin64\tmp\ccSPlCTL.s:113    .text.ff_wtoupper:00000000 ff_wtoupper
D:\Programs\cygwin64\tmp\ccSPlCTL.s:156    .text.ff_wtoupper:0000004c $d
D:\Programs\cygwin64\tmp\ccSPlCTL.s:210    .text.ff_wtoupper:0000009c $d
D:\Programs\cygwin64\tmp\ccSPlCTL.s:214    .rodata.cvt1.6600:00000000 $d
D:\Programs\cygwin64\tmp\ccSPlCTL.s:218    .rodata.cvt1.6600:00000000 cvt1.6600
D:\Programs\cygwin64\tmp\ccSPlCTL.s:469    .rodata.cvt2.6601:00000000 $d
D:\Programs\cygwin64\tmp\ccSPlCTL.s:473    .rodata.cvt2.6601:00000000 cvt2.6601
D:\Programs\cygwin64\tmp\ccSPlCTL.s:569    .rodata.uc850:00000000 $d
D:\Programs\cygwin64\tmp\ccSPlCTL.s:573    .rodata.uc850:00000000 uc850
D:\Programs\cygwin64\tmp\ccSPlCTL.s:165    .text.ff_wtoupper:00000055 $d
D:\Programs\cygwin64\tmp\ccSPlCTL.s:165    .text.ff_wtoupper:00000056 $t

NO UNDEFINED SYMBOLS
