ARM GAS  D:\Programs\cygwin64\tmp\cclkVlFB.s 			page 1


   1              		.cpu cortex-m4
   2              		.eabi_attribute 27, 1
   3              		.eabi_attribute 28, 1
   4              		.eabi_attribute 20, 1
   5              		.eabi_attribute 21, 1
   6              		.eabi_attribute 23, 3
   7              		.eabi_attribute 24, 1
   8              		.eabi_attribute 25, 1
   9              		.eabi_attribute 26, 1
  10              		.eabi_attribute 30, 2
  11              		.eabi_attribute 34, 1
  12              		.eabi_attribute 18, 4
  13              		.file	"ili9341.c"
  14              		.text
  15              		.section	.text.ili9341_GetLcdPixelWidth,"ax",%progbits
  16              		.align	1
  17              		.p2align 2,,3
  18              		.global	ili9341_GetLcdPixelWidth
  19              		.arch armv7e-m
  20              		.syntax unified
  21              		.thumb
  22              		.thumb_func
  23              		.fpu fpv4-sp-d16
  25              	ili9341_GetLcdPixelWidth:
  26              		@ args = 0, pretend = 0, frame = 0
  27              		@ frame_needed = 0, uses_anonymous_args = 0
  28              		@ link register save eliminated.
  29 0000 F020     		movs	r0, #240
  30 0002 7047     		bx	lr
  32              		.section	.text.ili9341_GetLcdPixelHeight,"ax",%progbits
  33              		.align	1
  34              		.p2align 2,,3
  35              		.global	ili9341_GetLcdPixelHeight
  36              		.syntax unified
  37              		.thumb
  38              		.thumb_func
  39              		.fpu fpv4-sp-d16
  41              	ili9341_GetLcdPixelHeight:
  42              		@ args = 0, pretend = 0, frame = 0
  43              		@ frame_needed = 0, uses_anonymous_args = 0
  44              		@ link register save eliminated.
  45 0000 4FF4A070 		mov	r0, #320
  46 0004 7047     		bx	lr
  48 0006 00BF     		.section	.text.ili9341_DisplayOn,"ax",%progbits
  49              		.align	1
  50              		.p2align 2,,3
  51              		.global	ili9341_DisplayOn
  52              		.syntax unified
  53              		.thumb
  54              		.thumb_func
  55              		.fpu fpv4-sp-d16
  57              	ili9341_DisplayOn:
  58              		@ args = 0, pretend = 0, frame = 0
  59              		@ frame_needed = 0, uses_anonymous_args = 0
  60              		@ link register save eliminated.
  61 0000 2920     		movs	r0, #41
  62 0002 FFF7FEBF 		b	LCD_IO_WriteReg
ARM GAS  D:\Programs\cygwin64\tmp\cclkVlFB.s 			page 2


  64 0006 00BF     		.section	.text.ili9341_DisplayOff,"ax",%progbits
  65              		.align	1
  66              		.p2align 2,,3
  67              		.global	ili9341_DisplayOff
  68              		.syntax unified
  69              		.thumb
  70              		.thumb_func
  71              		.fpu fpv4-sp-d16
  73              	ili9341_DisplayOff:
  74              		@ args = 0, pretend = 0, frame = 0
  75              		@ frame_needed = 0, uses_anonymous_args = 0
  76              		@ link register save eliminated.
  77 0000 2820     		movs	r0, #40
  78 0002 FFF7FEBF 		b	LCD_IO_WriteReg
  80 0006 00BF     		.section	.text.ili9341_Init,"ax",%progbits
  81              		.align	1
  82              		.p2align 2,,3
  83              		.global	ili9341_Init
  84              		.syntax unified
  85              		.thumb
  86              		.thumb_func
  87              		.fpu fpv4-sp-d16
  89              	ili9341_Init:
  90              		@ args = 0, pretend = 0, frame = 0
  91              		@ frame_needed = 0, uses_anonymous_args = 0
  92 0000 08B5     		push	{r3, lr}
  93 0002 FFF7FEFF 		bl	LCD_IO_Init
  94 0006 CA20     		movs	r0, #202
  95 0008 FFF7FEFF 		bl	LCD_IO_WriteReg
  96 000c C320     		movs	r0, #195
  97 000e FFF7FEFF 		bl	LCD_IO_WriteData
  98 0012 0820     		movs	r0, #8
  99 0014 FFF7FEFF 		bl	LCD_IO_WriteData
 100 0018 5020     		movs	r0, #80
 101 001a FFF7FEFF 		bl	LCD_IO_WriteData
 102 001e CF20     		movs	r0, #207
 103 0020 FFF7FEFF 		bl	LCD_IO_WriteReg
 104 0024 0020     		movs	r0, #0
 105 0026 FFF7FEFF 		bl	LCD_IO_WriteData
 106 002a C120     		movs	r0, #193
 107 002c FFF7FEFF 		bl	LCD_IO_WriteData
 108 0030 3020     		movs	r0, #48
 109 0032 FFF7FEFF 		bl	LCD_IO_WriteData
 110 0036 ED20     		movs	r0, #237
 111 0038 FFF7FEFF 		bl	LCD_IO_WriteReg
 112 003c 6420     		movs	r0, #100
 113 003e FFF7FEFF 		bl	LCD_IO_WriteData
 114 0042 0320     		movs	r0, #3
 115 0044 FFF7FEFF 		bl	LCD_IO_WriteData
 116 0048 1220     		movs	r0, #18
 117 004a FFF7FEFF 		bl	LCD_IO_WriteData
 118 004e 8120     		movs	r0, #129
 119 0050 FFF7FEFF 		bl	LCD_IO_WriteData
 120 0054 E820     		movs	r0, #232
 121 0056 FFF7FEFF 		bl	LCD_IO_WriteReg
 122 005a 8520     		movs	r0, #133
 123 005c FFF7FEFF 		bl	LCD_IO_WriteData
ARM GAS  D:\Programs\cygwin64\tmp\cclkVlFB.s 			page 3


 124 0060 0020     		movs	r0, #0
 125 0062 FFF7FEFF 		bl	LCD_IO_WriteData
 126 0066 7820     		movs	r0, #120
 127 0068 FFF7FEFF 		bl	LCD_IO_WriteData
 128 006c CB20     		movs	r0, #203
 129 006e FFF7FEFF 		bl	LCD_IO_WriteReg
 130 0072 3920     		movs	r0, #57
 131 0074 FFF7FEFF 		bl	LCD_IO_WriteData
 132 0078 2C20     		movs	r0, #44
 133 007a FFF7FEFF 		bl	LCD_IO_WriteData
 134 007e 0020     		movs	r0, #0
 135 0080 FFF7FEFF 		bl	LCD_IO_WriteData
 136 0084 3420     		movs	r0, #52
 137 0086 FFF7FEFF 		bl	LCD_IO_WriteData
 138 008a 0220     		movs	r0, #2
 139 008c FFF7FEFF 		bl	LCD_IO_WriteData
 140 0090 F720     		movs	r0, #247
 141 0092 FFF7FEFF 		bl	LCD_IO_WriteReg
 142 0096 2020     		movs	r0, #32
 143 0098 FFF7FEFF 		bl	LCD_IO_WriteData
 144 009c EA20     		movs	r0, #234
 145 009e FFF7FEFF 		bl	LCD_IO_WriteReg
 146 00a2 0020     		movs	r0, #0
 147 00a4 FFF7FEFF 		bl	LCD_IO_WriteData
 148 00a8 0020     		movs	r0, #0
 149 00aa FFF7FEFF 		bl	LCD_IO_WriteData
 150 00ae B120     		movs	r0, #177
 151 00b0 FFF7FEFF 		bl	LCD_IO_WriteReg
 152 00b4 0020     		movs	r0, #0
 153 00b6 FFF7FEFF 		bl	LCD_IO_WriteData
 154 00ba 1B20     		movs	r0, #27
 155 00bc FFF7FEFF 		bl	LCD_IO_WriteData
 156 00c0 B620     		movs	r0, #182
 157 00c2 FFF7FEFF 		bl	LCD_IO_WriteReg
 158 00c6 0A20     		movs	r0, #10
 159 00c8 FFF7FEFF 		bl	LCD_IO_WriteData
 160 00cc A220     		movs	r0, #162
 161 00ce FFF7FEFF 		bl	LCD_IO_WriteData
 162 00d2 C020     		movs	r0, #192
 163 00d4 FFF7FEFF 		bl	LCD_IO_WriteReg
 164 00d8 1020     		movs	r0, #16
 165 00da FFF7FEFF 		bl	LCD_IO_WriteData
 166 00de C120     		movs	r0, #193
 167 00e0 FFF7FEFF 		bl	LCD_IO_WriteReg
 168 00e4 1020     		movs	r0, #16
 169 00e6 FFF7FEFF 		bl	LCD_IO_WriteData
 170 00ea C520     		movs	r0, #197
 171 00ec FFF7FEFF 		bl	LCD_IO_WriteReg
 172 00f0 4520     		movs	r0, #69
 173 00f2 FFF7FEFF 		bl	LCD_IO_WriteData
 174 00f6 1520     		movs	r0, #21
 175 00f8 FFF7FEFF 		bl	LCD_IO_WriteData
 176 00fc C720     		movs	r0, #199
 177 00fe FFF7FEFF 		bl	LCD_IO_WriteReg
 178 0102 9020     		movs	r0, #144
 179 0104 FFF7FEFF 		bl	LCD_IO_WriteData
 180 0108 3620     		movs	r0, #54
ARM GAS  D:\Programs\cygwin64\tmp\cclkVlFB.s 			page 4


 181 010a FFF7FEFF 		bl	LCD_IO_WriteReg
 182 010e C820     		movs	r0, #200
 183 0110 FFF7FEFF 		bl	LCD_IO_WriteData
 184 0114 F220     		movs	r0, #242
 185 0116 FFF7FEFF 		bl	LCD_IO_WriteReg
 186 011a 0020     		movs	r0, #0
 187 011c FFF7FEFF 		bl	LCD_IO_WriteData
 188 0120 B020     		movs	r0, #176
 189 0122 FFF7FEFF 		bl	LCD_IO_WriteReg
 190 0126 C220     		movs	r0, #194
 191 0128 FFF7FEFF 		bl	LCD_IO_WriteData
 192 012c B620     		movs	r0, #182
 193 012e FFF7FEFF 		bl	LCD_IO_WriteReg
 194 0132 0A20     		movs	r0, #10
 195 0134 FFF7FEFF 		bl	LCD_IO_WriteData
 196 0138 A720     		movs	r0, #167
 197 013a FFF7FEFF 		bl	LCD_IO_WriteData
 198 013e 2720     		movs	r0, #39
 199 0140 FFF7FEFF 		bl	LCD_IO_WriteData
 200 0144 0420     		movs	r0, #4
 201 0146 FFF7FEFF 		bl	LCD_IO_WriteData
 202 014a 2A20     		movs	r0, #42
 203 014c FFF7FEFF 		bl	LCD_IO_WriteReg
 204 0150 0020     		movs	r0, #0
 205 0152 FFF7FEFF 		bl	LCD_IO_WriteData
 206 0156 0020     		movs	r0, #0
 207 0158 FFF7FEFF 		bl	LCD_IO_WriteData
 208 015c 0020     		movs	r0, #0
 209 015e FFF7FEFF 		bl	LCD_IO_WriteData
 210 0162 EF20     		movs	r0, #239
 211 0164 FFF7FEFF 		bl	LCD_IO_WriteData
 212 0168 2B20     		movs	r0, #43
 213 016a FFF7FEFF 		bl	LCD_IO_WriteReg
 214 016e 0020     		movs	r0, #0
 215 0170 FFF7FEFF 		bl	LCD_IO_WriteData
 216 0174 0020     		movs	r0, #0
 217 0176 FFF7FEFF 		bl	LCD_IO_WriteData
 218 017a 0120     		movs	r0, #1
 219 017c FFF7FEFF 		bl	LCD_IO_WriteData
 220 0180 3F20     		movs	r0, #63
 221 0182 FFF7FEFF 		bl	LCD_IO_WriteData
 222 0186 F620     		movs	r0, #246
 223 0188 FFF7FEFF 		bl	LCD_IO_WriteReg
 224 018c 0120     		movs	r0, #1
 225 018e FFF7FEFF 		bl	LCD_IO_WriteData
 226 0192 0020     		movs	r0, #0
 227 0194 FFF7FEFF 		bl	LCD_IO_WriteData
 228 0198 0620     		movs	r0, #6
 229 019a FFF7FEFF 		bl	LCD_IO_WriteData
 230 019e 2C20     		movs	r0, #44
 231 01a0 FFF7FEFF 		bl	LCD_IO_WriteReg
 232 01a4 C820     		movs	r0, #200
 233 01a6 FFF7FEFF 		bl	LCD_Delay
 234 01aa 2620     		movs	r0, #38
 235 01ac FFF7FEFF 		bl	LCD_IO_WriteReg
 236 01b0 0120     		movs	r0, #1
 237 01b2 FFF7FEFF 		bl	LCD_IO_WriteData
ARM GAS  D:\Programs\cygwin64\tmp\cclkVlFB.s 			page 5


 238 01b6 E020     		movs	r0, #224
 239 01b8 FFF7FEFF 		bl	LCD_IO_WriteReg
 240 01bc 0F20     		movs	r0, #15
 241 01be FFF7FEFF 		bl	LCD_IO_WriteData
 242 01c2 2920     		movs	r0, #41
 243 01c4 FFF7FEFF 		bl	LCD_IO_WriteData
 244 01c8 2420     		movs	r0, #36
 245 01ca FFF7FEFF 		bl	LCD_IO_WriteData
 246 01ce 0C20     		movs	r0, #12
 247 01d0 FFF7FEFF 		bl	LCD_IO_WriteData
 248 01d4 0E20     		movs	r0, #14
 249 01d6 FFF7FEFF 		bl	LCD_IO_WriteData
 250 01da 0920     		movs	r0, #9
 251 01dc FFF7FEFF 		bl	LCD_IO_WriteData
 252 01e0 4E20     		movs	r0, #78
 253 01e2 FFF7FEFF 		bl	LCD_IO_WriteData
 254 01e6 7820     		movs	r0, #120
 255 01e8 FFF7FEFF 		bl	LCD_IO_WriteData
 256 01ec 3C20     		movs	r0, #60
 257 01ee FFF7FEFF 		bl	LCD_IO_WriteData
 258 01f2 0920     		movs	r0, #9
 259 01f4 FFF7FEFF 		bl	LCD_IO_WriteData
 260 01f8 1320     		movs	r0, #19
 261 01fa FFF7FEFF 		bl	LCD_IO_WriteData
 262 01fe 0520     		movs	r0, #5
 263 0200 FFF7FEFF 		bl	LCD_IO_WriteData
 264 0204 1720     		movs	r0, #23
 265 0206 FFF7FEFF 		bl	LCD_IO_WriteData
 266 020a 1120     		movs	r0, #17
 267 020c FFF7FEFF 		bl	LCD_IO_WriteData
 268 0210 0020     		movs	r0, #0
 269 0212 FFF7FEFF 		bl	LCD_IO_WriteData
 270 0216 E120     		movs	r0, #225
 271 0218 FFF7FEFF 		bl	LCD_IO_WriteReg
 272 021c 0020     		movs	r0, #0
 273 021e FFF7FEFF 		bl	LCD_IO_WriteData
 274 0222 1620     		movs	r0, #22
 275 0224 FFF7FEFF 		bl	LCD_IO_WriteData
 276 0228 1B20     		movs	r0, #27
 277 022a FFF7FEFF 		bl	LCD_IO_WriteData
 278 022e 0420     		movs	r0, #4
 279 0230 FFF7FEFF 		bl	LCD_IO_WriteData
 280 0234 1120     		movs	r0, #17
 281 0236 FFF7FEFF 		bl	LCD_IO_WriteData
 282 023a 0720     		movs	r0, #7
 283 023c FFF7FEFF 		bl	LCD_IO_WriteData
 284 0240 3120     		movs	r0, #49
 285 0242 FFF7FEFF 		bl	LCD_IO_WriteData
 286 0246 3320     		movs	r0, #51
 287 0248 FFF7FEFF 		bl	LCD_IO_WriteData
 288 024c 4220     		movs	r0, #66
 289 024e FFF7FEFF 		bl	LCD_IO_WriteData
 290 0252 0520     		movs	r0, #5
 291 0254 FFF7FEFF 		bl	LCD_IO_WriteData
 292 0258 0C20     		movs	r0, #12
 293 025a FFF7FEFF 		bl	LCD_IO_WriteData
 294 025e 0A20     		movs	r0, #10
ARM GAS  D:\Programs\cygwin64\tmp\cclkVlFB.s 			page 6


 295 0260 FFF7FEFF 		bl	LCD_IO_WriteData
 296 0264 2820     		movs	r0, #40
 297 0266 FFF7FEFF 		bl	LCD_IO_WriteData
 298 026a 2F20     		movs	r0, #47
 299 026c FFF7FEFF 		bl	LCD_IO_WriteData
 300 0270 0F20     		movs	r0, #15
 301 0272 FFF7FEFF 		bl	LCD_IO_WriteData
 302 0276 1120     		movs	r0, #17
 303 0278 FFF7FEFF 		bl	LCD_IO_WriteReg
 304 027c C820     		movs	r0, #200
 305 027e FFF7FEFF 		bl	LCD_Delay
 306 0282 2920     		movs	r0, #41
 307 0284 FFF7FEFF 		bl	LCD_IO_WriteReg
 308 0288 2C20     		movs	r0, #44
 309 028a BDE80840 		pop	{r3, lr}
 310 028e FFF7FEBF 		b	LCD_IO_WriteReg
 312 0292 00BF     		.section	.text.ili9341_ReadID,"ax",%progbits
 313              		.align	1
 314              		.p2align 2,,3
 315              		.global	ili9341_ReadID
 316              		.syntax unified
 317              		.thumb
 318              		.thumb_func
 319              		.fpu fpv4-sp-d16
 321              	ili9341_ReadID:
 322              		@ args = 0, pretend = 0, frame = 0
 323              		@ frame_needed = 0, uses_anonymous_args = 0
 324 0000 08B5     		push	{r3, lr}
 325 0002 FFF7FEFF 		bl	LCD_IO_Init
 326 0006 0321     		movs	r1, #3
 327 0008 D320     		movs	r0, #211
 328 000a FFF7FEFF 		bl	LCD_IO_ReadData
 329 000e 80B2     		uxth	r0, r0
 330 0010 08BD     		pop	{r3, pc}
 332 0012 00BF     		.section	.text.ili9341_WriteReg,"ax",%progbits
 333              		.align	1
 334              		.p2align 2,,3
 335              		.global	ili9341_WriteReg
 336              		.syntax unified
 337              		.thumb
 338              		.thumb_func
 339              		.fpu fpv4-sp-d16
 341              	ili9341_WriteReg:
 342              		@ args = 0, pretend = 0, frame = 0
 343              		@ frame_needed = 0, uses_anonymous_args = 0
 344              		@ link register save eliminated.
 345 0000 FFF7FEBF 		b	LCD_IO_WriteReg
 347              		.section	.text.ili9341_WriteData,"ax",%progbits
 348              		.align	1
 349              		.p2align 2,,3
 350              		.global	ili9341_WriteData
 351              		.syntax unified
 352              		.thumb
 353              		.thumb_func
 354              		.fpu fpv4-sp-d16
 356              	ili9341_WriteData:
 357              		@ args = 0, pretend = 0, frame = 0
ARM GAS  D:\Programs\cygwin64\tmp\cclkVlFB.s 			page 7


 358              		@ frame_needed = 0, uses_anonymous_args = 0
 359              		@ link register save eliminated.
 360 0000 FFF7FEBF 		b	LCD_IO_WriteData
 362              		.section	.text.ili9341_ReadData,"ax",%progbits
 363              		.align	1
 364              		.p2align 2,,3
 365              		.global	ili9341_ReadData
 366              		.syntax unified
 367              		.thumb
 368              		.thumb_func
 369              		.fpu fpv4-sp-d16
 371              	ili9341_ReadData:
 372              		@ args = 0, pretend = 0, frame = 0
 373              		@ frame_needed = 0, uses_anonymous_args = 0
 374              		@ link register save eliminated.
 375 0000 FFF7FEBF 		b	LCD_IO_ReadData
 377              		.global	ili9341_drv
 378              		.section	.data.ili9341_drv,"aw"
 379              		.align	2
 382              	ili9341_drv:
 383 0000 00000000 		.word	ili9341_Init
 384 0004 00000000 		.word	ili9341_ReadID
 385 0008 00000000 		.word	ili9341_DisplayOn
 386 000c 00000000 		.word	ili9341_DisplayOff
 387 0010 00000000 		.word	0
 388 0014 00000000 		.word	0
 389 0018 00000000 		.word	0
 390 001c 00000000 		.word	0
 391 0020 00000000 		.word	0
 392 0024 00000000 		.word	0
 393 0028 00000000 		.word	ili9341_GetLcdPixelWidth
 394 002c 00000000 		.word	ili9341_GetLcdPixelHeight
 395 0030 00000000 		.word	0
 396 0034 00000000 		.word	0
 397              		.ident	"GCC: (GNU Tools for Arm Embedded Processors 8-2018-q4-major) 8.2.1 20181213 (release) [gcc
ARM GAS  D:\Programs\cygwin64\tmp\cclkVlFB.s 			page 8

