ARM GAS  D:\Programs\cygwin64\tmp\cc80Edji.s 			page 1


   1              		.cpu cortex-m4
   2              		.eabi_attribute 27, 1
   3              		.eabi_attribute 28, 1
   4              		.eabi_attribute 20, 1
   5              		.eabi_attribute 21, 1
   6              		.eabi_attribute 23, 3
   7              		.eabi_attribute 24, 1
   8              		.eabi_attribute 25, 1
   9              		.eabi_attribute 26, 1
  10              		.eabi_attribute 30, 2
  11              		.eabi_attribute 34, 1
  12              		.eabi_attribute 18, 4
  13              		.file	"port.c"
  14              		.text
  15              		.section	.text.prvPortStartFirstTask,"ax",%progbits
  16              		.align	1
  17              		.p2align 2,,3
  18              		.arch armv7e-m
  19              		.syntax unified
  20              		.thumb
  21              		.thumb_func
  22              		.fpu fpv4-sp-d16
  24              	prvPortStartFirstTask:
  25              		@ Naked Function: prologue and epilogue provided by programmer.
  26              		@ args = 0, pretend = 0, frame = 0
  27              		@ frame_needed = 0, uses_anonymous_args = 0
  28              		.syntax unified
  29              	@ 267 "../Middlewares/FreeRTOS/Source/portable/GCC/ARM_CM4F/port.c" 1
  30 0000 0848     		 ldr r0, =0xE000ED08 	
  31 0002 0068     	 ldr r0, [r0] 			
  32 0004 0068     	 ldr r0, [r0] 			
  33 0006 80F30888 	 msr msp, r0			
  34 000a 4FF00000 	 mov r0, #0			
  35 000e 80F31488 	 msr control, r0		
  36 0012 62B6     	 cpsie i				
  37 0014 61B6     	 cpsie f				
  38 0016 BFF34F8F 	 dsb					
  39 001a BFF36F8F 	 isb					
  40 001e 00DF     	 svc 0					
  41 0020 00BF     	 nop					
  42              	
  43              	@ 0 "" 2
  44              		.thumb
  45              		.syntax unified
  47 0022 0000     		.section	.text.vPortEnableVFP,"ax",%progbits
  48              		.align	1
  49              		.p2align 2,,3
  50              		.syntax unified
  51              		.thumb
  52              		.thumb_func
  53              		.fpu fpv4-sp-d16
  55              	vPortEnableVFP:
  56              		@ Naked Function: prologue and epilogue provided by programmer.
  57              		@ args = 0, pretend = 0, frame = 0
  58              		@ frame_needed = 0, uses_anonymous_args = 0
  59              		.syntax unified
  60              	@ 703 "../Middlewares/FreeRTOS/Source/portable/GCC/ARM_CM4F/port.c" 1
ARM GAS  D:\Programs\cygwin64\tmp\cc80Edji.s 			page 2


  61 0000 DFF80C00 			ldr.w r0, =0xE000ED88		
  62 0004 0168     		ldr r1, [r0]				
  63              									
  64 0006 41F47001 		orr r1, r1, #( 0xf << 20 )	
  65 000a 0160     		str r1, [r0]				
  66 000c 7047     		bx r14						
  67              	@ 0 "" 2
  68              		.thumb
  69              		.syntax unified
  71 000e 0000     		.section	.text.prvTaskExitError,"ax",%progbits
  72              		.align	1
  73              		.p2align 2,,3
  74              		.syntax unified
  75              		.thumb
  76              		.thumb_func
  77              		.fpu fpv4-sp-d16
  79              	prvTaskExitError:
  80              		@ args = 0, pretend = 0, frame = 8
  81              		@ frame_needed = 0, uses_anonymous_args = 0
  82              		@ link register save eliminated.
  83 0000 0E4B     		ldr	r3, .L11
  84 0002 1B68     		ldr	r3, [r3]
  85 0004 82B0     		sub	sp, sp, #8
  86 0006 0022     		movs	r2, #0
  87 0008 0133     		adds	r3, r3, #1
  88 000a 0192     		str	r2, [sp, #4]
  89 000c 08D0     		beq	.L5
  90              		.syntax unified
  91              	@ 195 "../Middlewares/FreeRTOS/Source/portable/GCC/ARM_CM4F/portmacro.h" 1
  92 000e 4FF05003 			mov r3, #80												
  93 0012 83F31188 		msr basepri, r3											
  94 0016 BFF36F8F 		isb														
  95 001a BFF34F8F 		dsb														
  96              	
  97              	@ 0 "" 2
  98              		.thumb
  99              		.syntax unified
 100              	.L6:
 101 001e FEE7     		b	.L6
 102              	.L5:
 103              		.syntax unified
 104              	@ 195 "../Middlewares/FreeRTOS/Source/portable/GCC/ARM_CM4F/portmacro.h" 1
 105 0020 4FF05003 			mov r3, #80												
 106 0024 83F31188 		msr basepri, r3											
 107 0028 BFF36F8F 		isb														
 108 002c BFF34F8F 		dsb														
 109              	
 110              	@ 0 "" 2
 111              		.thumb
 112              		.syntax unified
 113              	.L7:
 114 0030 019B     		ldr	r3, [sp, #4]
 115 0032 002B     		cmp	r3, #0
 116 0034 FCD0     		beq	.L7
 117 0036 02B0     		add	sp, sp, #8
 118              		@ sp needed
 119 0038 7047     		bx	lr
ARM GAS  D:\Programs\cygwin64\tmp\cc80Edji.s 			page 3


 120              	.L12:
 121 003a 00BF     		.align	2
 122              	.L11:
 123 003c 00000000 		.word	.LANCHOR0
 125              		.section	.text.pxPortInitialiseStack,"ax",%progbits
 126              		.align	1
 127              		.p2align 2,,3
 128              		.global	pxPortInitialiseStack
 129              		.syntax unified
 130              		.thumb
 131              		.thumb_func
 132              		.fpu fpv4-sp-d16
 134              	pxPortInitialiseStack:
 135              		@ args = 0, pretend = 0, frame = 0
 136              		@ frame_needed = 0, uses_anonymous_args = 0
 137              		@ link register save eliminated.
 138 0000 30B4     		push	{r4, r5}
 139 0002 21F00101 		bic	r1, r1, #1
 140 0006 4FF08075 		mov	r5, #16777216
 141 000a 074C     		ldr	r4, .L15
 142 000c 40F80C4C 		str	r4, [r0, #-12]
 143 0010 6FF00203 		mvn	r3, #2
 144 0014 40F8202C 		str	r2, [r0, #-32]
 145 0018 40E90215 		strd	r1, r5, [r0, #-8]
 146 001c 40F8243C 		str	r3, [r0, #-36]
 147 0020 30BC     		pop	{r4, r5}
 148 0022 4438     		subs	r0, r0, #68
 149 0024 7047     		bx	lr
 150              	.L16:
 151 0026 00BF     		.align	2
 152              	.L15:
 153 0028 00000000 		.word	prvTaskExitError
 155              		.section	.text.SVC_Handler,"ax",%progbits
 156              		.align	1
 157              		.p2align 2,,3
 158              		.global	SVC_Handler
 159              		.syntax unified
 160              		.thumb
 161              		.thumb_func
 162              		.fpu fpv4-sp-d16
 164              	SVC_Handler:
 165              		@ Naked Function: prologue and epilogue provided by programmer.
 166              		@ args = 0, pretend = 0, frame = 0
 167              		@ frame_needed = 0, uses_anonymous_args = 0
 168              		.syntax unified
 169              	@ 244 "../Middlewares/FreeRTOS/Source/portable/GCC/ARM_CM4F/port.c" 1
 170 0000 074B     			ldr	r3, pxCurrentTCBConst2		
 171 0002 1968     		ldr r1, [r3]					
 172 0004 0868     		ldr r0, [r1]					
 173 0006 B0E8F04F 		ldmia r0!, {r4-r11, r14}		
 174 000a 80F30988 		msr psp, r0						
 175 000e BFF36F8F 		isb								
 176 0012 4FF00000 		mov r0, #0 						
 177 0016 80F31188 		msr	basepri, r0					
 178 001a 7047     		bx r14							
 179              										
 180 001c AFF30080 		.align 4						
ARM GAS  D:\Programs\cygwin64\tmp\cc80Edji.s 			page 4


 181 0020 00000000 	pxCurrentTCBConst2: .word pxCurrentTCB				
 182              	
 183              	@ 0 "" 2
 184              		.thumb
 185              		.syntax unified
 187              		.section	.text.vPortEndScheduler,"ax",%progbits
 188              		.align	1
 189              		.p2align 2,,3
 190              		.global	vPortEndScheduler
 191              		.syntax unified
 192              		.thumb
 193              		.thumb_func
 194              		.fpu fpv4-sp-d16
 196              	vPortEndScheduler:
 197              		@ args = 0, pretend = 0, frame = 0
 198              		@ frame_needed = 0, uses_anonymous_args = 0
 199              		@ link register save eliminated.
 200 0000 074B     		ldr	r3, .L21
 201 0002 1B68     		ldr	r3, [r3]
 202 0004 B3F57A7F 		cmp	r3, #1000
 203 0008 08D0     		beq	.L18
 204              		.syntax unified
 205              	@ 195 "../Middlewares/FreeRTOS/Source/portable/GCC/ARM_CM4F/portmacro.h" 1
 206 000a 4FF05003 			mov r3, #80												
 207 000e 83F31188 		msr basepri, r3											
 208 0012 BFF36F8F 		isb														
 209 0016 BFF34F8F 		dsb														
 210              	
 211              	@ 0 "" 2
 212              		.thumb
 213              		.syntax unified
 214              	.L20:
 215 001a FEE7     		b	.L20
 216              	.L18:
 217 001c 7047     		bx	lr
 218              	.L22:
 219 001e 00BF     		.align	2
 220              	.L21:
 221 0020 00000000 		.word	.LANCHOR0
 223              		.section	.text.vPortEnterCritical,"ax",%progbits
 224              		.align	1
 225              		.p2align 2,,3
 226              		.global	vPortEnterCritical
 227              		.syntax unified
 228              		.thumb
 229              		.thumb_func
 230              		.fpu fpv4-sp-d16
 232              	vPortEnterCritical:
 233              		@ args = 0, pretend = 0, frame = 0
 234              		@ frame_needed = 0, uses_anonymous_args = 0
 235              		@ link register save eliminated.
 236              		.syntax unified
 237              	@ 195 "../Middlewares/FreeRTOS/Source/portable/GCC/ARM_CM4F/portmacro.h" 1
 238 0000 4FF05003 			mov r3, #80												
 239 0004 83F31188 		msr basepri, r3											
 240 0008 BFF36F8F 		isb														
 241 000c BFF34F8F 		dsb														
ARM GAS  D:\Programs\cygwin64\tmp\cc80Edji.s 			page 5


 242              	
 243              	@ 0 "" 2
 244              		.thumb
 245              		.syntax unified
 246 0010 0A4A     		ldr	r2, .L30
 247 0012 1368     		ldr	r3, [r2]
 248 0014 0133     		adds	r3, r3, #1
 249 0016 012B     		cmp	r3, #1
 250 0018 1360     		str	r3, [r2]
 251 001a 00D0     		beq	.L29
 252              	.L23:
 253 001c 7047     		bx	lr
 254              	.L29:
 255 001e 084B     		ldr	r3, .L30+4
 256 0020 1B68     		ldr	r3, [r3]
 257 0022 13F0FF0F 		tst	r3, #255
 258 0026 F9D0     		beq	.L23
 259              		.syntax unified
 260              	@ 195 "../Middlewares/FreeRTOS/Source/portable/GCC/ARM_CM4F/portmacro.h" 1
 261 0028 4FF05003 			mov r3, #80												
 262 002c 83F31188 		msr basepri, r3											
 263 0030 BFF36F8F 		isb														
 264 0034 BFF34F8F 		dsb														
 265              	
 266              	@ 0 "" 2
 267              		.thumb
 268              		.syntax unified
 269              	.L25:
 270 0038 FEE7     		b	.L25
 271              	.L31:
 272 003a 00BF     		.align	2
 273              	.L30:
 274 003c 00000000 		.word	.LANCHOR0
 275 0040 04ED00E0 		.word	-536810236
 277              		.section	.text.vPortExitCritical,"ax",%progbits
 278              		.align	1
 279              		.p2align 2,,3
 280              		.global	vPortExitCritical
 281              		.syntax unified
 282              		.thumb
 283              		.thumb_func
 284              		.fpu fpv4-sp-d16
 286              	vPortExitCritical:
 287              		@ args = 0, pretend = 0, frame = 0
 288              		@ frame_needed = 0, uses_anonymous_args = 0
 289              		@ link register save eliminated.
 290 0000 084A     		ldr	r2, .L36
 291 0002 1368     		ldr	r3, [r2]
 292 0004 43B9     		cbnz	r3, .L33
 293              		.syntax unified
 294              	@ 195 "../Middlewares/FreeRTOS/Source/portable/GCC/ARM_CM4F/portmacro.h" 1
 295 0006 4FF05003 			mov r3, #80												
 296 000a 83F31188 		msr basepri, r3											
 297 000e BFF36F8F 		isb														
 298 0012 BFF34F8F 		dsb														
 299              	
 300              	@ 0 "" 2
ARM GAS  D:\Programs\cygwin64\tmp\cc80Edji.s 			page 6


 301              		.thumb
 302              		.syntax unified
 303              	.L34:
 304 0016 FEE7     		b	.L34
 305              	.L33:
 306 0018 013B     		subs	r3, r3, #1
 307 001a 1360     		str	r3, [r2]
 308 001c 0BB9     		cbnz	r3, .L32
 309              		.syntax unified
 310              	@ 229 "../Middlewares/FreeRTOS/Source/portable/GCC/ARM_CM4F/portmacro.h" 1
 311 001e 83F31188 			msr basepri, r3	
 312              	@ 0 "" 2
 313              		.thumb
 314              		.syntax unified
 315              	.L32:
 316 0022 7047     		bx	lr
 317              	.L37:
 318              		.align	2
 319              	.L36:
 320 0024 00000000 		.word	.LANCHOR0
 322              		.section	.text.PendSV_Handler,"ax",%progbits
 323              		.align	1
 324              		.p2align 2,,3
 325              		.global	PendSV_Handler
 326              		.syntax unified
 327              		.thumb
 328              		.thumb_func
 329              		.fpu fpv4-sp-d16
 331              	PendSV_Handler:
 332              		@ Naked Function: prologue and epilogue provided by programmer.
 333              		@ args = 0, pretend = 0, frame = 0
 334              		@ frame_needed = 0, uses_anonymous_args = 0
 335              		.syntax unified
 336              	@ 435 "../Middlewares/FreeRTOS/Source/portable/GCC/ARM_CM4F/port.c" 1
 337 0000 EFF30980 			mrs r0, psp							
 338 0004 BFF36F8F 		isb									
 339              											
 340 0008 154B     		ldr	r3, pxCurrentTCBConst			
 341 000a 1A68     		ldr	r2, [r3]						
 342              											
 343 000c 1EF0100F 		tst r14, #0x10						
 344 0010 08BF     		it eq								
 345 0012 20ED108A 		vstmdbeq r0!, {s16-s31}				
 346              											
 347 0016 20E9F04F 		stmdb r0!, {r4-r11, r14}			
 348 001a 1060     		str r0, [r2]						
 349              											
 350 001c 2DE90900 		stmdb sp!, {r0, r3}					
 351 0020 4FF05000 		mov r0, #80 							
 352 0024 80F31188 		msr basepri, r0						
 353 0028 BFF34F8F 		dsb									
 354 002c BFF36F8F 		isb									
 355 0030 FFF7FEFF 		bl vTaskSwitchContext				
 356 0034 4FF00000 		mov r0, #0							
 357 0038 80F31188 		msr basepri, r0						
 358 003c 09BC     		ldmia sp!, {r0, r3}					
 359              											
ARM GAS  D:\Programs\cygwin64\tmp\cc80Edji.s 			page 7


 360 003e 1968     		ldr r1, [r3]						
 361 0040 0868     		ldr r0, [r1]						
 362              											
 363 0042 B0E8F04F 		ldmia r0!, {r4-r11, r14}			
 364              											
 365 0046 1EF0100F 		tst r14, #0x10						
 366 004a 08BF     		it eq								
 367 004c B0EC108A 		vldmiaeq r0!, {s16-s31}				
 368              											
 369 0050 80F30988 		msr psp, r0							
 370 0054 BFF36F8F 		isb									
 371              											
 372              											
 373 0058 7047     		bx r14								
 374              											
 375 005a 00BFAFF3 		.align 4							
 375      0080
 376 0060 00000000 	pxCurrentTCBConst: .word pxCurrentTCB	
 377              	
 378              	@ 0 "" 2
 379              		.thumb
 380              		.syntax unified
 382              		.section	.text.SysTick_Handler,"ax",%progbits
 383              		.align	1
 384              		.p2align 2,,3
 385              		.global	SysTick_Handler
 386              		.syntax unified
 387              		.thumb
 388              		.thumb_func
 389              		.fpu fpv4-sp-d16
 391              	SysTick_Handler:
 392              		@ args = 0, pretend = 0, frame = 0
 393              		@ frame_needed = 0, uses_anonymous_args = 0
 394 0000 08B5     		push	{r3, lr}
 395              		.syntax unified
 396              	@ 195 "../Middlewares/FreeRTOS/Source/portable/GCC/ARM_CM4F/portmacro.h" 1
 397 0002 4FF05003 			mov r3, #80												
 398 0006 83F31188 		msr basepri, r3											
 399 000a BFF36F8F 		isb														
 400 000e BFF34F8F 		dsb														
 401              	
 402              	@ 0 "" 2
 403              		.thumb
 404              		.syntax unified
 405 0012 FFF7FEFF 		bl	xTaskIncrementTick
 406 0016 18B1     		cbz	r0, .L40
 407 0018 034B     		ldr	r3, .L45
 408 001a 4FF08052 		mov	r2, #268435456
 409 001e 1A60     		str	r2, [r3]
 410              	.L40:
 411 0020 0023     		movs	r3, #0
 412              		.syntax unified
 413              	@ 229 "../Middlewares/FreeRTOS/Source/portable/GCC/ARM_CM4F/portmacro.h" 1
 414 0022 83F31188 			msr basepri, r3	
 415              	@ 0 "" 2
 416              		.thumb
 417              		.syntax unified
ARM GAS  D:\Programs\cygwin64\tmp\cc80Edji.s 			page 8


 418 0026 08BD     		pop	{r3, pc}
 419              	.L46:
 420              		.align	2
 421              	.L45:
 422 0028 04ED00E0 		.word	-536810236
 424              		.section	.text.vPortSetupTimerInterrupt,"ax",%progbits
 425              		.align	1
 426              		.p2align 2,,3
 427              		.weak	vPortSetupTimerInterrupt
 428              		.syntax unified
 429              		.thumb
 430              		.thumb_func
 431              		.fpu fpv4-sp-d16
 433              	vPortSetupTimerInterrupt:
 434              		@ args = 0, pretend = 0, frame = 0
 435              		@ frame_needed = 0, uses_anonymous_args = 0
 436              		@ link register save eliminated.
 437 0000 30B4     		push	{r4, r5}
 438 0002 094A     		ldr	r2, .L49
 439 0004 094D     		ldr	r5, .L49+4
 440 0006 0A4B     		ldr	r3, .L49+8
 441 0008 0A4C     		ldr	r4, .L49+12
 442 000a 0B48     		ldr	r0, .L49+16
 443 000c 0021     		movs	r1, #0
 444 000e 1160     		str	r1, [r2]
 445 0010 2960     		str	r1, [r5]
 446 0012 1B68     		ldr	r3, [r3]
 447 0014 A4FB0313 		umull	r1, r3, r4, r3
 448 0018 9B09     		lsrs	r3, r3, #6
 449 001a 013B     		subs	r3, r3, #1
 450 001c 0721     		movs	r1, #7
 451 001e 0360     		str	r3, [r0]
 452 0020 30BC     		pop	{r4, r5}
 453 0022 1160     		str	r1, [r2]
 454 0024 7047     		bx	lr
 455              	.L50:
 456 0026 00BF     		.align	2
 457              	.L49:
 458 0028 10E000E0 		.word	-536813552
 459 002c 18E000E0 		.word	-536813544
 460 0030 00000000 		.word	SystemCoreClock
 461 0034 D34D6210 		.word	274877907
 462 0038 14E000E0 		.word	-536813548
 464              		.section	.text.xPortStartScheduler,"ax",%progbits
 465              		.align	1
 466              		.p2align 2,,3
 467              		.global	xPortStartScheduler
 468              		.syntax unified
 469              		.thumb
 470              		.thumb_func
 471              		.fpu fpv4-sp-d16
 473              	xPortStartScheduler:
 474              		@ args = 0, pretend = 0, frame = 16
 475              		@ frame_needed = 0, uses_anonymous_args = 0
 476 0000 454B     		ldr	r3, .L71
 477 0002 464A     		ldr	r2, .L71+4
 478 0004 1968     		ldr	r1, [r3]
ARM GAS  D:\Programs\cygwin64\tmp\cc80Edji.s 			page 9


 479 0006 9142     		cmp	r1, r2
 480 0008 41D0     		beq	.L69
 481 000a 1A68     		ldr	r2, [r3]
 482 000c 444B     		ldr	r3, .L71+8
 483 000e 9A42     		cmp	r2, r3
 484 0010 34D0     		beq	.L70
 485 0012 30B5     		push	{r4, r5, lr}
 486 0014 434B     		ldr	r3, .L71+12
 487 0016 444C     		ldr	r4, .L71+16
 488 0018 1A78     		ldrb	r2, [r3]	@ zero_extendqisi2
 489 001a 4449     		ldr	r1, .L71+20
 490 001c 85B0     		sub	sp, sp, #20
 491 001e D2B2     		uxtb	r2, r2
 492 0020 FF20     		movs	r0, #255
 493 0022 0292     		str	r2, [sp, #8]
 494 0024 1870     		strb	r0, [r3]
 495 0026 1B78     		ldrb	r3, [r3]	@ zero_extendqisi2
 496 0028 DBB2     		uxtb	r3, r3
 497 002a 8DF80730 		strb	r3, [sp, #7]
 498 002e 9DF80730 		ldrb	r3, [sp, #7]	@ zero_extendqisi2
 499 0032 9DF80720 		ldrb	r2, [sp, #7]	@ zero_extendqisi2
 500 0036 03F05003 		and	r3, r3, #80
 501 003a 0720     		movs	r0, #7
 502 003c 1206     		lsls	r2, r2, #24
 503 003e 2370     		strb	r3, [r4]
 504 0040 0860     		str	r0, [r1]
 505 0042 48BF     		it	mi
 506 0044 0622     		movmi	r2, #6
 507 0046 01D4     		bmi	.L56
 508 0048 0FE0     		b	.L59
 509              	.L64:
 510 004a 0246     		mov	r2, r0
 511              	.L56:
 512 004c 9DF80730 		ldrb	r3, [sp, #7]	@ zero_extendqisi2
 513 0050 5B00     		lsls	r3, r3, #1
 514 0052 DBB2     		uxtb	r3, r3
 515 0054 8DF80730 		strb	r3, [sp, #7]
 516 0058 9DF80730 		ldrb	r3, [sp, #7]	@ zero_extendqisi2
 517 005c 1B06     		lsls	r3, r3, #24
 518 005e 02F1FF30 		add	r0, r2, #-1
 519 0062 F2D4     		bmi	.L64
 520 0064 032A     		cmp	r2, #3
 521 0066 1BD0     		beq	.L58
 522 0068 0A60     		str	r2, [r1]
 523              	.L59:
 524              		.syntax unified
 525              	@ 195 "../Middlewares/FreeRTOS/Source/portable/GCC/ARM_CM4F/portmacro.h" 1
 526 006a 4FF05003 			mov r3, #80												
 527 006e 83F31188 		msr basepri, r3											
 528 0072 BFF36F8F 		isb														
 529 0076 BFF34F8F 		dsb														
 530              	
 531              	@ 0 "" 2
 532              		.thumb
 533              		.syntax unified
 534              	.L57:
 535 007a FEE7     		b	.L57
ARM GAS  D:\Programs\cygwin64\tmp\cc80Edji.s 			page 10


 536              	.L70:
 537              		.syntax unified
 538              	@ 195 "../Middlewares/FreeRTOS/Source/portable/GCC/ARM_CM4F/portmacro.h" 1
 539 007c 4FF05003 			mov r3, #80												
 540 0080 83F31188 		msr basepri, r3											
 541 0084 BFF36F8F 		isb														
 542 0088 BFF34F8F 		dsb														
 543              	
 544              	@ 0 "" 2
 545              		.thumb
 546              		.syntax unified
 547              	.L55:
 548 008c FEE7     		b	.L55
 549              	.L69:
 550              		.syntax unified
 551              	@ 195 "../Middlewares/FreeRTOS/Source/portable/GCC/ARM_CM4F/portmacro.h" 1
 552 008e 4FF05003 			mov r3, #80												
 553 0092 83F31188 		msr basepri, r3											
 554 0096 BFF36F8F 		isb														
 555 009a BFF34F8F 		dsb														
 556              	
 557              	@ 0 "" 2
 558              		.thumb
 559              		.syntax unified
 560              	.L53:
 561 009e FEE7     		b	.L53
 562              	.L58:
 563 00a0 029A     		ldr	r2, [sp, #8]
 564 00a2 2048     		ldr	r0, .L71+12
 565 00a4 224B     		ldr	r3, .L71+24
 566 00a6 234C     		ldr	r4, .L71+28
 567 00a8 D2B2     		uxtb	r2, r2
 568 00aa 4FF44075 		mov	r5, #768
 569 00ae 0D60     		str	r5, [r1]
 570 00b0 0270     		strb	r2, [r0]
 571 00b2 1A68     		ldr	r2, [r3]
 572 00b4 42F47002 		orr	r2, r2, #15728640
 573 00b8 1A60     		str	r2, [r3]
 574 00ba 1A68     		ldr	r2, [r3]
 575 00bc 42F07042 		orr	r2, r2, #-268435456
 576 00c0 1A60     		str	r2, [r3]
 577 00c2 0025     		movs	r5, #0
 578 00c4 FFF7FEFF 		bl	vPortSetupTimerInterrupt
 579 00c8 2560     		str	r5, [r4]
 580 00ca FFF7FEFF 		bl	vPortEnableVFP
 581 00ce 1A4A     		ldr	r2, .L71+32
 582 00d0 1368     		ldr	r3, [r2]
 583 00d2 43F04043 		orr	r3, r3, #-1073741824
 584 00d6 1360     		str	r3, [r2]
 585 00d8 FFF7FEFF 		bl	prvPortStartFirstTask
 586 00dc FFF7FEFF 		bl	vTaskSwitchContext
 587 00e0 2368     		ldr	r3, [r4]
 588 00e2 0395     		str	r5, [sp, #12]
 589 00e4 0133     		adds	r3, r3, #1
 590 00e6 08D0     		beq	.L60
 591              		.syntax unified
 592              	@ 195 "../Middlewares/FreeRTOS/Source/portable/GCC/ARM_CM4F/portmacro.h" 1
ARM GAS  D:\Programs\cygwin64\tmp\cc80Edji.s 			page 11


 593 00e8 4FF05003 			mov r3, #80												
 594 00ec 83F31188 		msr basepri, r3											
 595 00f0 BFF36F8F 		isb														
 596 00f4 BFF34F8F 		dsb														
 597              	
 598              	@ 0 "" 2
 599              		.thumb
 600              		.syntax unified
 601              	.L61:
 602 00f8 FEE7     		b	.L61
 603              	.L60:
 604              		.syntax unified
 605              	@ 195 "../Middlewares/FreeRTOS/Source/portable/GCC/ARM_CM4F/portmacro.h" 1
 606 00fa 4FF05003 			mov r3, #80												
 607 00fe 83F31188 		msr basepri, r3											
 608 0102 BFF36F8F 		isb														
 609 0106 BFF34F8F 		dsb														
 610              	
 611              	@ 0 "" 2
 612              		.thumb
 613              		.syntax unified
 614              	.L62:
 615 010a 039B     		ldr	r3, [sp, #12]
 616 010c 002B     		cmp	r3, #0
 617 010e FCD0     		beq	.L62
 618 0110 0020     		movs	r0, #0
 619 0112 05B0     		add	sp, sp, #20
 620              		@ sp needed
 621 0114 30BD     		pop	{r4, r5, pc}
 622              	.L72:
 623 0116 00BF     		.align	2
 624              	.L71:
 625 0118 00ED00E0 		.word	-536810240
 626 011c 71C20F41 		.word	1091551857
 627 0120 70C20F41 		.word	1091551856
 628 0124 00E400E0 		.word	-536812544
 629 0128 00000000 		.word	.LANCHOR1
 630 012c 00000000 		.word	.LANCHOR2
 631 0130 20ED00E0 		.word	-536810208
 632 0134 00000000 		.word	.LANCHOR0
 633 0138 34EF00E0 		.word	-536809676
 635              		.section	.text.vPortValidateInterruptPriority,"ax",%progbits
 636              		.align	1
 637              		.p2align 2,,3
 638              		.global	vPortValidateInterruptPriority
 639              		.syntax unified
 640              		.thumb
 641              		.thumb_func
 642              		.fpu fpv4-sp-d16
 644              	vPortValidateInterruptPriority:
 645              		@ args = 0, pretend = 0, frame = 0
 646              		@ frame_needed = 0, uses_anonymous_args = 0
 647              		@ link register save eliminated.
 648              		.syntax unified
 649              	@ 723 "../Middlewares/FreeRTOS/Source/portable/GCC/ARM_CM4F/port.c" 1
 650 0000 EFF30583 		mrs r3, ipsr
 651              	@ 0 "" 2
ARM GAS  D:\Programs\cygwin64\tmp\cc80Edji.s 			page 12


 652              		.thumb
 653              		.syntax unified
 654 0004 0F2B     		cmp	r3, #15
 655 0006 0ED9     		bls	.L74
 656 0008 1049     		ldr	r1, .L78
 657 000a 114A     		ldr	r2, .L78+4
 658 000c 5B5C     		ldrb	r3, [r3, r1]	@ zero_extendqisi2
 659 000e 1278     		ldrb	r2, [r2]	@ zero_extendqisi2
 660 0010 9A42     		cmp	r2, r3
 661 0012 08D9     		bls	.L74
 662              		.syntax unified
 663              	@ 195 "../Middlewares/FreeRTOS/Source/portable/GCC/ARM_CM4F/portmacro.h" 1
 664 0014 4FF05003 			mov r3, #80												
 665 0018 83F31188 		msr basepri, r3											
 666 001c BFF36F8F 		isb														
 667 0020 BFF34F8F 		dsb														
 668              	
 669              	@ 0 "" 2
 670              		.thumb
 671              		.syntax unified
 672              	.L75:
 673 0024 FEE7     		b	.L75
 674              	.L74:
 675 0026 0B4B     		ldr	r3, .L78+8
 676 0028 0B4A     		ldr	r2, .L78+12
 677 002a 1B68     		ldr	r3, [r3]
 678 002c 1268     		ldr	r2, [r2]
 679 002e 03F4E063 		and	r3, r3, #1792
 680 0032 9342     		cmp	r3, r2
 681 0034 08D9     		bls	.L73
 682              		.syntax unified
 683              	@ 195 "../Middlewares/FreeRTOS/Source/portable/GCC/ARM_CM4F/portmacro.h" 1
 684 0036 4FF05003 			mov r3, #80												
 685 003a 83F31188 		msr basepri, r3											
 686 003e BFF36F8F 		isb														
 687 0042 BFF34F8F 		dsb														
 688              	
 689              	@ 0 "" 2
 690              		.thumb
 691              		.syntax unified
 692              	.L77:
 693 0046 FEE7     		b	.L77
 694              	.L73:
 695 0048 7047     		bx	lr
 696              	.L79:
 697 004a 00BF     		.align	2
 698              	.L78:
 699 004c F0E300E0 		.word	-536812560
 700 0050 00000000 		.word	.LANCHOR1
 701 0054 0CED00E0 		.word	-536810228
 702 0058 00000000 		.word	.LANCHOR2
 704              		.section	.bss.ucMaxSysCallPriority,"aw",%nobits
 705              		.set	.LANCHOR1,. + 0
 708              	ucMaxSysCallPriority:
 709 0000 00       		.space	1
 710              		.section	.bss.ulMaxPRIGROUPValue,"aw",%nobits
 711              		.align	2
ARM GAS  D:\Programs\cygwin64\tmp\cc80Edji.s 			page 13


 712              		.set	.LANCHOR2,. + 0
 715              	ulMaxPRIGROUPValue:
 716 0000 00000000 		.space	4
 717              		.section	.data.uxCriticalNesting,"aw"
 718              		.align	2
 719              		.set	.LANCHOR0,. + 0
 722              	uxCriticalNesting:
 723 0000 AAAAAAAA 		.word	-1431655766
 724              		.ident	"GCC: (GNU Tools for Arm Embedded Processors 8-2018-q4-major) 8.2.1 20181213 (release) [gcc
ARM GAS  D:\Programs\cygwin64\tmp\cc80Edji.s 			page 14

