ARM GAS  D:\Programs\cygwin64\tmp\ccwioLFU.s 			page 1


   1              		.cpu cortex-m4
   2              		.eabi_attribute 27, 1
   3              		.eabi_attribute 28, 1
   4              		.eabi_attribute 20, 1
   5              		.eabi_attribute 21, 1
   6              		.eabi_attribute 23, 3
   7              		.eabi_attribute 24, 1
   8              		.eabi_attribute 25, 1
   9              		.eabi_attribute 26, 1
  10              		.eabi_attribute 30, 2
  11              		.eabi_attribute 34, 1
  12              		.eabi_attribute 18, 4
  13              		.file	"stm32f4xx_hal_dcmi.c"
  14              		.text
  15              		.section	.text.DCMI_DMAXferCplt,"ax",%progbits
  16              		.align	1
  17              		.p2align 2,,3
  18              		.arch armv7e-m
  19              		.syntax unified
  20              		.thumb
  21              		.thumb_func
  22              		.fpu fpv4-sp-d16
  24              	DCMI_DMAXferCplt:
  25              		@ args = 0, pretend = 0, frame = 0
  26              		@ frame_needed = 0, uses_anonymous_args = 0
  27 0000 10B5     		push	{r4, lr}
  28 0002 846B     		ldr	r4, [r0, #56]
  29 0004 A06B     		ldr	r0, [r4, #56]
  30 0006 A26A     		ldr	r2, [r4, #40]
  31 0008 0368     		ldr	r3, [r0]
  32 000a 1968     		ldr	r1, [r3]
  33 000c 22B3     		cbz	r2, .L2
  34 000e A26A     		ldr	r2, [r4, #40]
  35 0010 12F00102 		ands	r2, r2, #1
  36 0014 13D0     		beq	.L19
  37              	.L3:
  38 0016 1A68     		ldr	r2, [r3]
  39 0018 1203     		lsls	r2, r2, #12
  40 001a 2DD5     		bpl	.L5
  41 001c 226B     		ldr	r2, [r4, #48]
  42              	.L4:
  43 001e A36A     		ldr	r3, [r4, #40]
  44 0020 9342     		cmp	r3, r2
  45 0022 00D0     		beq	.L20
  46 0024 10BD     		pop	{r4, pc}
  47              	.L20:
  48 0026 2368     		ldr	r3, [r4]
  49 0028 DA68     		ldr	r2, [r3, #12]
  50 002a 42F00102 		orr	r2, r2, #1
  51 002e DA60     		str	r2, [r3, #12]
  52 0030 1B68     		ldr	r3, [r3]
  53 0032 9B07     		lsls	r3, r3, #30
  54 0034 44BF     		itt	mi
  55 0036 0123     		movmi	r3, #1
  56 0038 84F82530 		strbmi	r3, [r4, #37]
  57 003c 10BD     		pop	{r4, pc}
  58              	.L19:
ARM GAS  D:\Programs\cygwin64\tmp\ccwioLFU.s 			page 2


  59 003e 0903     		lsls	r1, r1, #12
  60 0040 E9D5     		bpl	.L3
  61 0042 DB68     		ldr	r3, [r3, #12]
  62 0044 E16A     		ldr	r1, [r4, #44]
  63 0046 03EBC101 		add	r1, r3, r1, lsl #3
  64              	.L17:
  65 004a FFF7FEFF 		bl	HAL_DMAEx_ChangeMemory
  66 004e A36A     		ldr	r3, [r4, #40]
  67 0050 226B     		ldr	r2, [r4, #48]
  68 0052 013B     		subs	r3, r3, #1
  69 0054 A362     		str	r3, [r4, #40]
  70 0056 E2E7     		b	.L4
  71              	.L2:
  72 0058 0803     		lsls	r0, r1, #12
  73 005a 226B     		ldr	r2, [r4, #48]
  74 005c 02D5     		bpl	.L6
  75 005e 616B     		ldr	r1, [r4, #52]
  76 0060 D960     		str	r1, [r3, #12]
  77 0062 DCE7     		b	.L4
  78              	.L6:
  79 0064 1968     		ldr	r1, [r3]
  80 0066 0903     		lsls	r1, r1, #12
  81 0068 D9D4     		bmi	.L4
  82 006a E06A     		ldr	r0, [r4, #44]
  83 006c 616B     		ldr	r1, [r4, #52]
  84 006e 01EB8001 		add	r1, r1, r0, lsl #2
  85 0072 1961     		str	r1, [r3, #16]
  86 0074 A262     		str	r2, [r4, #40]
  87 0076 D2E7     		b	.L4
  88              	.L5:
  89 0078 1B69     		ldr	r3, [r3, #16]
  90 007a E16A     		ldr	r1, [r4, #44]
  91 007c 0122     		movs	r2, #1
  92 007e 03EBC101 		add	r1, r3, r1, lsl #3
  93 0082 E2E7     		b	.L17
  95              		.section	.text.HAL_DCMI_MspInit,"ax",%progbits
  96              		.align	1
  97              		.p2align 2,,3
  98              		.weak	HAL_DCMI_MspInit
  99              		.syntax unified
 100              		.thumb
 101              		.thumb_func
 102              		.fpu fpv4-sp-d16
 104              	HAL_DCMI_MspInit:
 105              		@ args = 0, pretend = 0, frame = 0
 106              		@ frame_needed = 0, uses_anonymous_args = 0
 107              		@ link register save eliminated.
 108 0000 7047     		bx	lr
 110 0002 00BF     		.section	.text.HAL_DCMI_Init,"ax",%progbits
 111              		.align	1
 112              		.p2align 2,,3
 113              		.weak	HAL_DCMI_Init
 114              		.syntax unified
 115              		.thumb
 116              		.thumb_func
 117              		.fpu fpv4-sp-d16
 119              	HAL_DCMI_Init:
ARM GAS  D:\Programs\cygwin64\tmp\ccwioLFU.s 			page 3


 120              		@ args = 0, pretend = 0, frame = 0
 121              		@ frame_needed = 0, uses_anonymous_args = 0
 122 0000 0028     		cmp	r0, #0
 123 0002 37D0     		beq	.L26
 124 0004 F8B5     		push	{r3, r4, r5, r6, r7, lr}
 125 0006 90F82530 		ldrb	r3, [r0, #37]	@ zero_extendqisi2
 126 000a 0446     		mov	r4, r0
 127 000c 03F0FF02 		and	r2, r3, #255
 128 0010 43B3     		cbz	r3, .L31
 129              	.L24:
 130 0012 2268     		ldr	r2, [r4]
 131 0014 6068     		ldr	r0, [r4, #4]
 132 0016 A768     		ldr	r7, [r4, #8]
 133 0018 0223     		movs	r3, #2
 134 001a 84F82530 		strb	r3, [r4, #37]
 135 001e D4E90365 		ldrd	r6, r5, [r4, #12]
 136 0022 6369     		ldr	r3, [r4, #20]
 137 0024 1168     		ldr	r1, [r2]
 138 0026 0343     		orrs	r3, r3, r0
 139 0028 3343     		orrs	r3, r3, r6
 140 002a 21F47F61 		bic	r1, r1, #4080
 141 002e A669     		ldr	r6, [r4, #24]
 142 0030 21F00801 		bic	r1, r1, #8
 143 0034 2B43     		orrs	r3, r3, r5
 144 0036 1160     		str	r1, [r2]
 145 0038 256A     		ldr	r5, [r4, #32]
 146 003a 1168     		ldr	r1, [r2]
 147 003c 3B43     		orrs	r3, r3, r7
 148 003e 3343     		orrs	r3, r3, r6
 149 0040 2B43     		orrs	r3, r3, r5
 150 0042 0B43     		orrs	r3, r3, r1
 151 0044 1360     		str	r3, [r2]
 152 0046 1028     		cmp	r0, #16
 153 0048 04BF     		itt	eq
 154 004a E369     		ldreq	r3, [r4, #28]
 155 004c 9361     		streq	r3, [r2, #24]
 156 004e D368     		ldr	r3, [r2, #12]
 157 0050 0021     		movs	r1, #0
 158 0052 43F01E03 		orr	r3, r3, #30
 159 0056 0125     		movs	r5, #1
 160 0058 D360     		str	r3, [r2, #12]
 161 005a 0846     		mov	r0, r1
 162 005c E163     		str	r1, [r4, #60]
 163 005e 84F82550 		strb	r5, [r4, #37]
 164 0062 F8BD     		pop	{r3, r4, r5, r6, r7, pc}
 165              	.L31:
 166 0064 80F82420 		strb	r2, [r0, #36]
 167 0068 FFF7FEFF 		bl	HAL_DCMI_MspInit
 168 006c 2046     		mov	r0, r4
 169 006e FFF7FEFF 		bl	HAL_DCMI_MspInit
 170 0072 CEE7     		b	.L24
 171              	.L26:
 172 0074 0120     		movs	r0, #1
 173 0076 7047     		bx	lr
 175              		.section	.text.HAL_DCMI_MspDeInit,"ax",%progbits
 176              		.align	1
 177              		.p2align 2,,3
ARM GAS  D:\Programs\cygwin64\tmp\ccwioLFU.s 			page 4


 178              		.weak	HAL_DCMI_MspDeInit
 179              		.syntax unified
 180              		.thumb
 181              		.thumb_func
 182              		.fpu fpv4-sp-d16
 184              	HAL_DCMI_MspDeInit:
 185              		@ args = 0, pretend = 0, frame = 0
 186              		@ frame_needed = 0, uses_anonymous_args = 0
 187              		@ link register save eliminated.
 188 0000 7047     		bx	lr
 190 0002 00BF     		.section	.text.HAL_DCMI_DeInit,"ax",%progbits
 191              		.align	1
 192              		.p2align 2,,3
 193              		.global	HAL_DCMI_DeInit
 194              		.syntax unified
 195              		.thumb
 196              		.thumb_func
 197              		.fpu fpv4-sp-d16
 199              	HAL_DCMI_DeInit:
 200              		@ args = 0, pretend = 0, frame = 0
 201              		@ frame_needed = 0, uses_anonymous_args = 0
 202 0000 10B5     		push	{r4, lr}
 203 0002 0446     		mov	r4, r0
 204 0004 FFF7FEFF 		bl	HAL_DCMI_MspDeInit
 205 0008 0020     		movs	r0, #0
 206 000a E063     		str	r0, [r4, #60]
 207 000c 84F82400 		strb	r0, [r4, #36]
 208 0010 84F82500 		strb	r0, [r4, #37]
 209 0014 10BD     		pop	{r4, pc}
 211 0016 00BF     		.section	.text.HAL_DCMI_Start_DMA,"ax",%progbits
 212              		.align	1
 213              		.p2align 2,,3
 214              		.global	HAL_DCMI_Start_DMA
 215              		.syntax unified
 216              		.thumb
 217              		.thumb_func
 218              		.fpu fpv4-sp-d16
 220              	HAL_DCMI_Start_DMA:
 221              		@ args = 0, pretend = 0, frame = 0
 222              		@ frame_needed = 0, uses_anonymous_args = 0
 223 0000 2DE9F041 		push	{r4, r5, r6, r7, r8, lr}
 224 0004 90F82440 		ldrb	r4, [r0, #36]	@ zero_extendqisi2
 225 0008 012C     		cmp	r4, #1
 226 000a 82B0     		sub	sp, sp, #8
 227 000c 5CD0     		beq	.L41
 228 000e 0446     		mov	r4, r0
 229 0010 0F46     		mov	r7, r1
 230 0012 0220     		movs	r0, #2
 231 0014 2168     		ldr	r1, [r4]
 232 0016 84F82500 		strb	r0, [r4, #37]
 233 001a D1F800C0 		ldr	ip, [r1]
 234 001e A06B     		ldr	r0, [r4, #56]
 235 0020 DFF8AC80 		ldr	r8, .L46
 236 0024 4CF4804C 		orr	ip, ip, #16384
 237 0028 4FF0010E 		mov	lr, #1
 238 002c 84F824E0 		strb	lr, [r4, #36]
 239 0030 C1F800C0 		str	ip, [r1]
ARM GAS  D:\Programs\cygwin64\tmp\ccwioLFU.s 			page 5


 240 0034 D1F800C0 		ldr	ip, [r1]
 241 0038 2CF0020C 		bic	ip, ip, #2
 242 003c C1F800C0 		str	ip, [r1]
 243 0040 D1F800C0 		ldr	ip, [r1]
 244 0044 4CEA0707 		orr	r7, ip, r7
 245 0048 41F8287B 		str	r7, [r1], #40
 246 004c DFF884C0 		ldr	ip, .L46+4
 247 0050 C0F84C80 		str	r8, [r0, #76]
 248 0054 0027     		movs	r7, #0
 249 0056 B3F5803F 		cmp	r3, #65536
 250 005a C0F83CC0 		str	ip, [r0, #60]
 251 005e 0765     		str	r7, [r0, #80]
 252 0060 A762     		str	r7, [r4, #40]
 253 0062 2763     		str	r7, [r4, #48]
 254 0064 2DD3     		bcc	.L45
 255 0066 C0F844C0 		str	ip, [r0, #68]
 256 006a C4F828E0 		str	lr, [r4, #40]
 257 006e E362     		str	r3, [r4, #44]
 258 0070 E36A     		ldr	r3, [r4, #44]
 259 0072 6263     		str	r2, [r4, #52]
 260 0074 B3F5803F 		cmp	r3, #65536
 261 0078 1546     		mov	r5, r2
 262 007a 09D3     		bcc	.L40
 263              	.L39:
 264 007c E36A     		ldr	r3, [r4, #44]
 265 007e 5B08     		lsrs	r3, r3, #1
 266 0080 E362     		str	r3, [r4, #44]
 267 0082 A36A     		ldr	r3, [r4, #40]
 268 0084 5B00     		lsls	r3, r3, #1
 269 0086 A362     		str	r3, [r4, #40]
 270 0088 E36A     		ldr	r3, [r4, #44]
 271 008a B3F5803F 		cmp	r3, #65536
 272 008e F5D2     		bcs	.L39
 273              	.L40:
 274 0090 A36A     		ldr	r3, [r4, #40]
 275 0092 023B     		subs	r3, r3, #2
 276 0094 A362     		str	r3, [r4, #40]
 277 0096 A26A     		ldr	r2, [r4, #40]
 278 0098 E36A     		ldr	r3, [r4, #44]
 279 009a E66A     		ldr	r6, [r4, #44]
 280 009c 2263     		str	r2, [r4, #48]
 281 009e 05EB8303 		add	r3, r5, r3, lsl #2
 282 00a2 2A46     		mov	r2, r5
 283 00a4 0096     		str	r6, [sp]
 284 00a6 FFF7FEFF 		bl	HAL_DMAEx_MultiBufferStart_IT
 285              	.L38:
 286 00aa 2168     		ldr	r1, [r4]
 287 00ac 0B68     		ldr	r3, [r1]
 288 00ae 0022     		movs	r2, #0
 289 00b0 43F00103 		orr	r3, r3, #1
 290 00b4 1046     		mov	r0, r2
 291 00b6 0B60     		str	r3, [r1]
 292 00b8 84F82420 		strb	r2, [r4, #36]
 293 00bc 02B0     		add	sp, sp, #8
 294              		@ sp needed
 295 00be BDE8F081 		pop	{r4, r5, r6, r7, r8, pc}
 296              	.L45:
ARM GAS  D:\Programs\cygwin64\tmp\ccwioLFU.s 			page 6


 297 00c2 FFF7FEFF 		bl	HAL_DMA_Start_IT
 298 00c6 F0E7     		b	.L38
 299              	.L41:
 300 00c8 0220     		movs	r0, #2
 301 00ca 02B0     		add	sp, sp, #8
 302              		@ sp needed
 303 00cc BDE8F081 		pop	{r4, r5, r6, r7, r8, pc}
 304              	.L47:
 305              		.align	2
 306              	.L46:
 307 00d0 00000000 		.word	DCMI_DMAError
 308 00d4 00000000 		.word	DCMI_DMAXferCplt
 310              		.section	.text.HAL_DCMI_Stop,"ax",%progbits
 311              		.align	1
 312              		.p2align 2,,3
 313              		.global	HAL_DCMI_Stop
 314              		.syntax unified
 315              		.thumb
 316              		.thumb_func
 317              		.fpu fpv4-sp-d16
 319              	HAL_DCMI_Stop:
 320              		@ args = 0, pretend = 0, frame = 8
 321              		@ frame_needed = 0, uses_anonymous_args = 0
 322 0000 204B     		ldr	r3, .L57
 323 0002 214A     		ldr	r2, .L57+4
 324 0004 1B68     		ldr	r3, [r3]
 325 0006 30B5     		push	{r4, r5, lr}
 326 0008 5B08     		lsrs	r3, r3, #1
 327 000a A2FB0323 		umull	r2, r3, r2, r3
 328 000e 90F82420 		ldrb	r2, [r0, #36]	@ zero_extendqisi2
 329 0012 83B0     		sub	sp, sp, #12
 330 0014 9B08     		lsrs	r3, r3, #2
 331 0016 012A     		cmp	r2, #1
 332 0018 0193     		str	r3, [sp, #4]
 333 001a 2ED0     		beq	.L53
 334 001c 0223     		movs	r3, #2
 335 001e 0168     		ldr	r1, [r0]
 336 0020 80F82530 		strb	r3, [r0, #37]
 337 0024 0B68     		ldr	r3, [r1]
 338 0026 0122     		movs	r2, #1
 339 0028 23F00103 		bic	r3, r3, #1
 340 002c 80F82420 		strb	r2, [r0, #36]
 341 0030 0B60     		str	r3, [r1]
 342 0032 03E0     		b	.L52
 343              	.L50:
 344 0034 0B68     		ldr	r3, [r1]
 345 0036 13F00103 		ands	r3, r3, #1
 346 003a 1CD0     		beq	.L56
 347              	.L52:
 348 003c 019B     		ldr	r3, [sp, #4]
 349 003e 5A1E     		subs	r2, r3, #1
 350 0040 0192     		str	r2, [sp, #4]
 351 0042 002B     		cmp	r3, #0
 352 0044 F6D1     		bne	.L50
 353 0046 C36B     		ldr	r3, [r0, #60]
 354 0048 43F02003 		orr	r3, r3, #32
 355 004c C363     		str	r3, [r0, #60]
ARM GAS  D:\Programs\cygwin64\tmp\ccwioLFU.s 			page 7


 356 004e 0324     		movs	r4, #3
 357              	.L51:
 358 0050 0B68     		ldr	r3, [r1]
 359 0052 23F48043 		bic	r3, r3, #16384
 360 0056 0546     		mov	r5, r0
 361 0058 806B     		ldr	r0, [r0, #56]
 362 005a 0B60     		str	r3, [r1]
 363 005c FFF7FEFF 		bl	HAL_DMA_Abort
 364 0060 EB6B     		ldr	r3, [r5, #60]
 365 0062 EB63     		str	r3, [r5, #60]
 366 0064 0122     		movs	r2, #1
 367 0066 0023     		movs	r3, #0
 368 0068 2046     		mov	r0, r4
 369 006a 85F82520 		strb	r2, [r5, #37]
 370 006e 85F82430 		strb	r3, [r5, #36]
 371 0072 03B0     		add	sp, sp, #12
 372              		@ sp needed
 373 0074 30BD     		pop	{r4, r5, pc}
 374              	.L56:
 375 0076 1C46     		mov	r4, r3
 376 0078 EAE7     		b	.L51
 377              	.L53:
 378 007a 0224     		movs	r4, #2
 379 007c 2046     		mov	r0, r4
 380 007e 03B0     		add	sp, sp, #12
 381              		@ sp needed
 382 0080 30BD     		pop	{r4, r5, pc}
 383              	.L58:
 384 0082 00BF     		.align	2
 385              	.L57:
 386 0084 00000000 		.word	SystemCoreClock
 387 0088 93244992 		.word	-1840700269
 389              		.section	.text.HAL_DCMI_Suspend,"ax",%progbits
 390              		.align	1
 391              		.p2align 2,,3
 392              		.global	HAL_DCMI_Suspend
 393              		.syntax unified
 394              		.thumb
 395              		.thumb_func
 396              		.fpu fpv4-sp-d16
 398              	HAL_DCMI_Suspend:
 399              		@ args = 0, pretend = 0, frame = 8
 400              		@ frame_needed = 0, uses_anonymous_args = 0
 401              		@ link register save eliminated.
 402 0000 1B4B     		ldr	r3, .L69
 403 0002 1C49     		ldr	r1, .L69+4
 404 0004 1B68     		ldr	r3, [r3]
 405 0006 5B08     		lsrs	r3, r3, #1
 406 0008 A1FB0313 		umull	r1, r3, r1, r3
 407 000c 90F82410 		ldrb	r1, [r0, #36]	@ zero_extendqisi2
 408 0010 82B0     		sub	sp, sp, #8
 409 0012 9B08     		lsrs	r3, r3, #2
 410 0014 0129     		cmp	r1, #1
 411 0016 0193     		str	r3, [sp, #4]
 412 0018 27D0     		beq	.L65
 413 001a 90F82530 		ldrb	r3, [r0, #37]	@ zero_extendqisi2
 414 001e 0121     		movs	r1, #1
ARM GAS  D:\Programs\cygwin64\tmp\ccwioLFU.s 			page 8


 415 0020 022B     		cmp	r3, #2
 416 0022 0246     		mov	r2, r0
 417 0024 80F82410 		strb	r1, [r0, #36]
 418 0028 05D0     		beq	.L68
 419              	.L61:
 420 002a 0020     		movs	r0, #0
 421              	.L63:
 422 002c 0023     		movs	r3, #0
 423 002e 82F82430 		strb	r3, [r2, #36]
 424 0032 02B0     		add	sp, sp, #8
 425              		@ sp needed
 426 0034 7047     		bx	lr
 427              	.L68:
 428 0036 0068     		ldr	r0, [r0]
 429 0038 0523     		movs	r3, #5
 430 003a 82F82530 		strb	r3, [r2, #37]
 431 003e 0368     		ldr	r3, [r0]
 432 0040 23F00103 		bic	r3, r3, #1
 433 0044 0360     		str	r3, [r0]
 434 0046 02E0     		b	.L64
 435              	.L62:
 436 0048 0368     		ldr	r3, [r0]
 437 004a DB07     		lsls	r3, r3, #31
 438 004c EDD5     		bpl	.L61
 439              	.L64:
 440 004e 019B     		ldr	r3, [sp, #4]
 441 0050 591E     		subs	r1, r3, #1
 442 0052 0191     		str	r1, [sp, #4]
 443 0054 002B     		cmp	r3, #0
 444 0056 F7D1     		bne	.L62
 445 0058 D36B     		ldr	r3, [r2, #60]
 446 005a 0121     		movs	r1, #1
 447 005c 43F02003 		orr	r3, r3, #32
 448 0060 D363     		str	r3, [r2, #60]
 449 0062 0320     		movs	r0, #3
 450 0064 82F82510 		strb	r1, [r2, #37]
 451 0068 E0E7     		b	.L63
 452              	.L65:
 453 006a 0220     		movs	r0, #2
 454 006c 02B0     		add	sp, sp, #8
 455              		@ sp needed
 456 006e 7047     		bx	lr
 457              	.L70:
 458              		.align	2
 459              	.L69:
 460 0070 00000000 		.word	SystemCoreClock
 461 0074 93244992 		.word	-1840700269
 463              		.section	.text.HAL_DCMI_Resume,"ax",%progbits
 464              		.align	1
 465              		.p2align 2,,3
 466              		.global	HAL_DCMI_Resume
 467              		.syntax unified
 468              		.thumb
 469              		.thumb_func
 470              		.fpu fpv4-sp-d16
 472              	HAL_DCMI_Resume:
 473              		@ args = 0, pretend = 0, frame = 0
ARM GAS  D:\Programs\cygwin64\tmp\ccwioLFU.s 			page 9


 474              		@ frame_needed = 0, uses_anonymous_args = 0
 475              		@ link register save eliminated.
 476 0000 90F82430 		ldrb	r3, [r0, #36]	@ zero_extendqisi2
 477 0004 012B     		cmp	r3, #1
 478 0006 13D0     		beq	.L74
 479 0008 90F82530 		ldrb	r3, [r0, #37]	@ zero_extendqisi2
 480 000c 0122     		movs	r2, #1
 481 000e 052B     		cmp	r3, #5
 482 0010 80F82420 		strb	r2, [r0, #36]
 483 0014 07D1     		bne	.L73
 484 0016 0223     		movs	r3, #2
 485 0018 0268     		ldr	r2, [r0]
 486 001a 80F82530 		strb	r3, [r0, #37]
 487 001e 1368     		ldr	r3, [r2]
 488 0020 43F00103 		orr	r3, r3, #1
 489 0024 1360     		str	r3, [r2]
 490              	.L73:
 491 0026 0023     		movs	r3, #0
 492 0028 80F82430 		strb	r3, [r0, #36]
 493 002c 1846     		mov	r0, r3
 494 002e 7047     		bx	lr
 495              	.L74:
 496 0030 0220     		movs	r0, #2
 497 0032 7047     		bx	lr
 499              		.section	.text.HAL_DCMI_ErrorCallback,"ax",%progbits
 500              		.align	1
 501              		.p2align 2,,3
 502              		.weak	HAL_DCMI_ErrorCallback
 503              		.syntax unified
 504              		.thumb
 505              		.thumb_func
 506              		.fpu fpv4-sp-d16
 508              	HAL_DCMI_ErrorCallback:
 509              		@ args = 0, pretend = 0, frame = 0
 510              		@ frame_needed = 0, uses_anonymous_args = 0
 511              		@ link register save eliminated.
 512 0000 7047     		bx	lr
 514 0002 00BF     		.section	.text.DCMI_DMAError,"ax",%progbits
 515              		.align	1
 516              		.p2align 2,,3
 517              		.syntax unified
 518              		.thumb
 519              		.thumb_func
 520              		.fpu fpv4-sp-d16
 522              	DCMI_DMAError:
 523              		@ args = 0, pretend = 0, frame = 0
 524              		@ frame_needed = 0, uses_anonymous_args = 0
 525 0000 806B     		ldr	r0, [r0, #56]
 526 0002 08B5     		push	{r3, lr}
 527 0004 836B     		ldr	r3, [r0, #56]
 528 0006 5B6D     		ldr	r3, [r3, #84]
 529 0008 022B     		cmp	r3, #2
 530 000a 1CBF     		itt	ne
 531 000c 0123     		movne	r3, #1
 532 000e 80F82530 		strbne	r3, [r0, #37]
 533 0012 FFF7FEFF 		bl	HAL_DCMI_ErrorCallback
 534 0016 08BD     		pop	{r3, pc}
ARM GAS  D:\Programs\cygwin64\tmp\ccwioLFU.s 			page 10


 536              		.section	.text.HAL_DCMI_LineEventCallback,"ax",%progbits
 537              		.align	1
 538              		.p2align 2,,3
 539              		.weak	HAL_DCMI_LineEventCallback
 540              		.syntax unified
 541              		.thumb
 542              		.thumb_func
 543              		.fpu fpv4-sp-d16
 545              	HAL_DCMI_LineEventCallback:
 546              		@ args = 0, pretend = 0, frame = 0
 547              		@ frame_needed = 0, uses_anonymous_args = 0
 548              		@ link register save eliminated.
 549 0000 7047     		bx	lr
 551 0002 00BF     		.section	.text.HAL_DCMI_VsyncEventCallback,"ax",%progbits
 552              		.align	1
 553              		.p2align 2,,3
 554              		.weak	HAL_DCMI_VsyncEventCallback
 555              		.syntax unified
 556              		.thumb
 557              		.thumb_func
 558              		.fpu fpv4-sp-d16
 560              	HAL_DCMI_VsyncEventCallback:
 561              		@ args = 0, pretend = 0, frame = 0
 562              		@ frame_needed = 0, uses_anonymous_args = 0
 563              		@ link register save eliminated.
 564 0000 7047     		bx	lr
 566 0002 00BF     		.section	.text.HAL_DCMI_FrameEventCallback,"ax",%progbits
 567              		.align	1
 568              		.p2align 2,,3
 569              		.weak	HAL_DCMI_FrameEventCallback
 570              		.syntax unified
 571              		.thumb
 572              		.thumb_func
 573              		.fpu fpv4-sp-d16
 575              	HAL_DCMI_FrameEventCallback:
 576              		@ args = 0, pretend = 0, frame = 0
 577              		@ frame_needed = 0, uses_anonymous_args = 0
 578              		@ link register save eliminated.
 579 0000 7047     		bx	lr
 581 0002 00BF     		.section	.text.HAL_DCMI_IRQHandler,"ax",%progbits
 582              		.align	1
 583              		.p2align 2,,3
 584              		.global	HAL_DCMI_IRQHandler
 585              		.syntax unified
 586              		.thumb
 587              		.thumb_func
 588              		.fpu fpv4-sp-d16
 590              	HAL_DCMI_IRQHandler:
 591              		@ args = 0, pretend = 0, frame = 0
 592              		@ frame_needed = 0, uses_anonymous_args = 0
 593 0000 0368     		ldr	r3, [r0]
 594 0002 70B5     		push	{r4, r5, r6, lr}
 595 0004 1D69     		ldr	r5, [r3, #16]
 596 0006 6A07     		lsls	r2, r5, #29
 597 0008 0446     		mov	r4, r0
 598 000a 36D4     		bmi	.L111
 599              	.L86:
ARM GAS  D:\Programs\cygwin64\tmp\ccwioLFU.s 			page 11


 600 000c AB07     		lsls	r3, r5, #30
 601 000e 23D4     		bmi	.L112
 602              	.L87:
 603 0010 EE06     		lsls	r6, r5, #27
 604 0012 1AD4     		bmi	.L113
 605              	.L88:
 606 0014 2807     		lsls	r0, r5, #28
 607 0016 11D4     		bmi	.L114
 608              	.L89:
 609 0018 E907     		lsls	r1, r5, #31
 610 001a 0ED5     		bpl	.L85
 611 001c 2368     		ldr	r3, [r4]
 612 001e 1A68     		ldr	r2, [r3]
 613 0020 9207     		lsls	r2, r2, #30
 614 0022 03D5     		bpl	.L91
 615 0024 DA68     		ldr	r2, [r3, #12]
 616 0026 22F01E02 		bic	r2, r2, #30
 617 002a DA60     		str	r2, [r3, #12]
 618              	.L91:
 619 002c DA68     		ldr	r2, [r3, #12]
 620 002e 22F00102 		bic	r2, r2, #1
 621 0032 2046     		mov	r0, r4
 622 0034 DA60     		str	r2, [r3, #12]
 623 0036 FFF7FEFF 		bl	HAL_DCMI_FrameEventCallback
 624              	.L85:
 625 003a 70BD     		pop	{r4, r5, r6, pc}
 626              	.L114:
 627 003c 2368     		ldr	r3, [r4]
 628 003e 0822     		movs	r2, #8
 629 0040 5A61     		str	r2, [r3, #20]
 630 0042 2046     		mov	r0, r4
 631 0044 FFF7FEFF 		bl	HAL_DCMI_VsyncEventCallback
 632 0048 E6E7     		b	.L89
 633              	.L113:
 634 004a 2368     		ldr	r3, [r4]
 635 004c 1022     		movs	r2, #16
 636 004e 5A61     		str	r2, [r3, #20]
 637 0050 2046     		mov	r0, r4
 638 0052 FFF7FEFF 		bl	HAL_DCMI_LineEventCallback
 639 0056 DDE7     		b	.L88
 640              	.L112:
 641 0058 2368     		ldr	r3, [r4]
 642 005a A26B     		ldr	r2, [r4, #56]
 643 005c 0E49     		ldr	r1, .L115
 644 005e 0220     		movs	r0, #2
 645 0060 5861     		str	r0, [r3, #20]
 646 0062 E36B     		ldr	r3, [r4, #60]
 647 0064 0420     		movs	r0, #4
 648 0066 43F00103 		orr	r3, r3, #1
 649 006a E363     		str	r3, [r4, #60]
 650 006c 84F82500 		strb	r0, [r4, #37]
 651 0070 1046     		mov	r0, r2
 652 0072 1165     		str	r1, [r2, #80]
 653 0074 FFF7FEFF 		bl	HAL_DMA_Abort_IT
 654 0078 CAE7     		b	.L87
 655              	.L111:
 656 007a 0421     		movs	r1, #4
ARM GAS  D:\Programs\cygwin64\tmp\ccwioLFU.s 			page 12


 657 007c 5961     		str	r1, [r3, #20]
 658 007e C36B     		ldr	r3, [r0, #60]
 659 0080 826B     		ldr	r2, [r0, #56]
 660 0082 054E     		ldr	r6, .L115
 661 0084 43F00203 		orr	r3, r3, #2
 662 0088 C363     		str	r3, [r0, #60]
 663 008a 80F82510 		strb	r1, [r0, #37]
 664 008e 1046     		mov	r0, r2
 665 0090 1665     		str	r6, [r2, #80]
 666 0092 FFF7FEFF 		bl	HAL_DMA_Abort_IT
 667 0096 B9E7     		b	.L86
 668              	.L116:
 669              		.align	2
 670              	.L115:
 671 0098 00000000 		.word	DCMI_DMAError
 673              		.section	.text.HAL_DCMI_ConfigCrop,"ax",%progbits
 674              		.align	1
 675              		.p2align 2,,3
 676              		.global	HAL_DCMI_ConfigCrop
 677              		.syntax unified
 678              		.thumb
 679              		.thumb_func
 680              		.fpu fpv4-sp-d16
 682              	HAL_DCMI_ConfigCrop:
 683              		@ args = 4, pretend = 0, frame = 0
 684              		@ frame_needed = 0, uses_anonymous_args = 0
 685              		@ link register save eliminated.
 686 0000 30B4     		push	{r4, r5}
 687 0002 90F82440 		ldrb	r4, [r0, #36]	@ zero_extendqisi2
 688 0006 012C     		cmp	r4, #1
 689 0008 14D0     		beq	.L119
 690 000a 029D     		ldr	r5, [sp, #8]
 691 000c 0468     		ldr	r4, [r0]
 692 000e 41EA0241 		orr	r1, r1, r2, lsl #16
 693 0012 0222     		movs	r2, #2
 694 0014 80F82520 		strb	r2, [r0, #37]
 695 0018 43EA0543 		orr	r3, r3, r5, lsl #16
 696 001c 0022     		movs	r2, #0
 697 001e 6362     		str	r3, [r4, #36]
 698 0020 0125     		movs	r5, #1
 699 0022 1346     		mov	r3, r2
 700 0024 2162     		str	r1, [r4, #32]
 701 0026 80F82550 		strb	r5, [r0, #37]
 702 002a 80F82420 		strb	r2, [r0, #36]
 703 002e 30BC     		pop	{r4, r5}
 704 0030 1846     		mov	r0, r3
 705 0032 7047     		bx	lr
 706              	.L119:
 707 0034 0223     		movs	r3, #2
 708 0036 1846     		mov	r0, r3
 709 0038 30BC     		pop	{r4, r5}
 710 003a 7047     		bx	lr
 712              		.section	.text.HAL_DCMI_DisableCrop,"ax",%progbits
 713              		.align	1
 714              		.p2align 2,,3
 715              		.global	HAL_DCMI_DisableCrop
 716              		.syntax unified
ARM GAS  D:\Programs\cygwin64\tmp\ccwioLFU.s 			page 13


 717              		.thumb
 718              		.thumb_func
 719              		.fpu fpv4-sp-d16
 721              	HAL_DCMI_DisableCrop:
 722              		@ args = 0, pretend = 0, frame = 0
 723              		@ frame_needed = 0, uses_anonymous_args = 0
 724              		@ link register save eliminated.
 725 0000 90F82420 		ldrb	r2, [r0, #36]	@ zero_extendqisi2
 726 0004 012A     		cmp	r2, #1
 727 0006 13D0     		beq	.L123
 728 0008 0346     		mov	r3, r0
 729 000a 0222     		movs	r2, #2
 730 000c 0068     		ldr	r0, [r0]
 731 000e 10B4     		push	{r4}
 732 0010 83F82520 		strb	r2, [r3, #37]
 733 0014 0268     		ldr	r2, [r0]
 734 0016 0124     		movs	r4, #1
 735 0018 0021     		movs	r1, #0
 736 001a 22F00402 		bic	r2, r2, #4
 737 001e 0260     		str	r2, [r0]
 738 0020 0846     		mov	r0, r1
 739 0022 83F82540 		strb	r4, [r3, #37]
 740 0026 83F82410 		strb	r1, [r3, #36]
 741 002a 5DF8044B 		ldr	r4, [sp], #4
 742 002e 7047     		bx	lr
 743              	.L123:
 744 0030 0220     		movs	r0, #2
 745 0032 7047     		bx	lr
 747              		.section	.text.HAL_DCMI_EnableCrop,"ax",%progbits
 748              		.align	1
 749              		.p2align 2,,3
 750              		.global	HAL_DCMI_EnableCrop
 751              		.syntax unified
 752              		.thumb
 753              		.thumb_func
 754              		.fpu fpv4-sp-d16
 756              	HAL_DCMI_EnableCrop:
 757              		@ args = 0, pretend = 0, frame = 0
 758              		@ frame_needed = 0, uses_anonymous_args = 0
 759              		@ link register save eliminated.
 760 0000 90F82420 		ldrb	r2, [r0, #36]	@ zero_extendqisi2
 761 0004 012A     		cmp	r2, #1
 762 0006 13D0     		beq	.L130
 763 0008 0346     		mov	r3, r0
 764 000a 0222     		movs	r2, #2
 765 000c 0068     		ldr	r0, [r0]
 766 000e 10B4     		push	{r4}
 767 0010 83F82520 		strb	r2, [r3, #37]
 768 0014 0268     		ldr	r2, [r0]
 769 0016 0124     		movs	r4, #1
 770 0018 0021     		movs	r1, #0
 771 001a 42F00402 		orr	r2, r2, #4
 772 001e 0260     		str	r2, [r0]
 773 0020 0846     		mov	r0, r1
 774 0022 83F82540 		strb	r4, [r3, #37]
 775 0026 83F82410 		strb	r1, [r3, #36]
 776 002a 5DF8044B 		ldr	r4, [sp], #4
ARM GAS  D:\Programs\cygwin64\tmp\ccwioLFU.s 			page 14


 777 002e 7047     		bx	lr
 778              	.L130:
 779 0030 0220     		movs	r0, #2
 780 0032 7047     		bx	lr
 782              		.section	.text.HAL_DCMI_GetState,"ax",%progbits
 783              		.align	1
 784              		.p2align 2,,3
 785              		.global	HAL_DCMI_GetState
 786              		.syntax unified
 787              		.thumb
 788              		.thumb_func
 789              		.fpu fpv4-sp-d16
 791              	HAL_DCMI_GetState:
 792              		@ args = 0, pretend = 0, frame = 0
 793              		@ frame_needed = 0, uses_anonymous_args = 0
 794              		@ link register save eliminated.
 795 0000 90F82500 		ldrb	r0, [r0, #37]	@ zero_extendqisi2
 796 0004 7047     		bx	lr
 798 0006 00BF     		.section	.text.HAL_DCMI_GetError,"ax",%progbits
 799              		.align	1
 800              		.p2align 2,,3
 801              		.global	HAL_DCMI_GetError
 802              		.syntax unified
 803              		.thumb
 804              		.thumb_func
 805              		.fpu fpv4-sp-d16
 807              	HAL_DCMI_GetError:
 808              		@ args = 0, pretend = 0, frame = 0
 809              		@ frame_needed = 0, uses_anonymous_args = 0
 810              		@ link register save eliminated.
 811 0000 C06B     		ldr	r0, [r0, #60]
 812 0002 7047     		bx	lr
 814              		.ident	"GCC: (GNU Tools for Arm Embedded Processors 8-2018-q4-major) 8.2.1 20181213 (release) [gcc
ARM GAS  D:\Programs\cygwin64\tmp\ccwioLFU.s 			page 15

