ARM GAS  D:\Programs\cygwin64\tmp\ccT61Ovc.s 			page 1


   1              		.cpu cortex-m4
   2              		.eabi_attribute 27, 1
   3              		.eabi_attribute 28, 1
   4              		.eabi_attribute 20, 1
   5              		.eabi_attribute 21, 1
   6              		.eabi_attribute 23, 3
   7              		.eabi_attribute 24, 1
   8              		.eabi_attribute 25, 1
   9              		.eabi_attribute 26, 1
  10              		.eabi_attribute 30, 2
  11              		.eabi_attribute 34, 1
  12              		.eabi_attribute 18, 4
  13              		.file	"stm32f4xx_hal_rcc_ex.c"
  14              		.text
  15              		.section	.text.HAL_RCCEx_PeriphCLKConfig,"ax",%progbits
  16              		.align	1
  17              		.p2align 2,,3
  18              		.global	HAL_RCCEx_PeriphCLKConfig
  19              		.arch armv7e-m
  20              		.syntax unified
  21              		.thumb
  22              		.thumb_func
  23              		.fpu fpv4-sp-d16
  25              	HAL_RCCEx_PeriphCLKConfig:
  26              		@ args = 0, pretend = 0, frame = 8
  27              		@ frame_needed = 0, uses_anonymous_args = 0
  28 0000 F0B5     		push	{r4, r5, r6, r7, lr}
  29 0002 0446     		mov	r4, r0
  30 0004 0068     		ldr	r0, [r0]
  31 0006 8507     		lsls	r5, r0, #30
  32 0008 83B0     		sub	sp, sp, #12
  33 000a 0FD1     		bne	.L56
  34              	.L2:
  35 000c 10F00C0F 		tst	r0, #12
  36 0010 62D1     		bne	.L57
  37              	.L11:
  38 0012 8506     		lsls	r5, r0, #26
  39 0014 00F1B280 		bmi	.L58
  40              	.L18:
  41 0018 10F01000 		ands	r0, r0, #16
  42 001c 04D0     		beq	.L4
  43 001e 804B     		ldr	r3, .L60
  44 0020 94F82C20 		ldrb	r2, [r4, #44]	@ zero_extendqisi2
  45 0024 1A60     		str	r2, [r3]
  46 0026 0020     		movs	r0, #0
  47              	.L4:
  48 0028 03B0     		add	sp, sp, #12
  49              		@ sp needed
  50 002a F0BD     		pop	{r4, r5, r6, r7, pc}
  51              	.L56:
  52 002c 7D4B     		ldr	r3, .L60+4
  53 002e 7E4D     		ldr	r5, .L60+8
  54 0030 0022     		movs	r2, #0
  55 0032 1A60     		str	r2, [r3]
  56 0034 FFF7FEFF 		bl	HAL_GetTick
  57 0038 0646     		mov	r6, r0
  58 003a 04E0     		b	.L3
ARM GAS  D:\Programs\cygwin64\tmp\ccT61Ovc.s 			page 2


  59              	.L5:
  60 003c FFF7FEFF 		bl	HAL_GetTick
  61 0040 801B     		subs	r0, r0, r6
  62 0042 0228     		cmp	r0, #2
  63 0044 45D8     		bhi	.L9
  64              	.L3:
  65 0046 2B68     		ldr	r3, [r5]
  66 0048 1901     		lsls	r1, r3, #4
  67 004a F7D4     		bmi	.L5
  68 004c 2368     		ldr	r3, [r4]
  69 004e DA07     		lsls	r2, r3, #31
  70 0050 06D5     		bpl	.L6
  71 0052 D4E90112 		ldrd	r1, r2, [r4, #4]
  72 0056 1207     		lsls	r2, r2, #28
  73 0058 42EA8112 		orr	r2, r2, r1, lsl #6
  74 005c C5F88420 		str	r2, [r5, #132]
  75              	.L6:
  76 0060 9B07     		lsls	r3, r3, #30
  77 0062 15D5     		bpl	.L7
  78 0064 704A     		ldr	r2, .L60+8
  79 0066 E368     		ldr	r3, [r4, #12]
  80 0068 D2F88410 		ldr	r1, [r2, #132]
  81 006c 6068     		ldr	r0, [r4, #4]
  82 006e 1B06     		lsls	r3, r3, #24
  83 0070 01F0E041 		and	r1, r1, #1879048192
  84 0074 43EA8013 		orr	r3, r3, r0, lsl #6
  85 0078 0B43     		orrs	r3, r3, r1
  86 007a C2F88430 		str	r3, [r2, #132]
  87 007e D2F88C10 		ldr	r1, [r2, #140]
  88 0082 E369     		ldr	r3, [r4, #28]
  89 0084 21F01F01 		bic	r1, r1, #31
  90 0088 013B     		subs	r3, r3, #1
  91 008a 0B43     		orrs	r3, r3, r1
  92 008c C2F88C30 		str	r3, [r2, #140]
  93              	.L7:
  94 0090 644B     		ldr	r3, .L60+4
  95 0092 654D     		ldr	r5, .L60+8
  96 0094 0122     		movs	r2, #1
  97 0096 1A60     		str	r2, [r3]
  98 0098 FFF7FEFF 		bl	HAL_GetTick
  99 009c 0646     		mov	r6, r0
 100 009e 04E0     		b	.L8
 101              	.L10:
 102 00a0 FFF7FEFF 		bl	HAL_GetTick
 103 00a4 801B     		subs	r0, r0, r6
 104 00a6 0228     		cmp	r0, #2
 105 00a8 13D8     		bhi	.L9
 106              	.L8:
 107 00aa 2B68     		ldr	r3, [r5]
 108 00ac 1F01     		lsls	r7, r3, #4
 109 00ae F7D5     		bpl	.L10
 110 00b0 2068     		ldr	r0, [r4]
 111 00b2 ABE7     		b	.L2
 112              	.L22:
 113 00b4 0D46     		mov	r5, r1
 114 00b6 FFF7FEFF 		bl	HAL_GetTick
 115 00ba 41F28836 		movw	r6, #5000
ARM GAS  D:\Programs\cygwin64\tmp\ccT61Ovc.s 			page 3


 116 00be 0746     		mov	r7, r0
 117              	.L23:
 118 00c0 2B6F     		ldr	r3, [r5, #112]
 119 00c2 9B07     		lsls	r3, r3, #30
 120 00c4 00F18E80 		bmi	.L54
 121 00c8 FFF7FEFF 		bl	HAL_GetTick
 122 00cc C01B     		subs	r0, r0, r7
 123 00ce B042     		cmp	r0, r6
 124 00d0 F6D9     		bls	.L23
 125              	.L9:
 126 00d2 0320     		movs	r0, #3
 127 00d4 03B0     		add	sp, sp, #12
 128              		@ sp needed
 129 00d6 F0BD     		pop	{r4, r5, r6, r7, pc}
 130              	.L57:
 131 00d8 544B     		ldr	r3, .L60+12
 132 00da 534D     		ldr	r5, .L60+8
 133 00dc 0022     		movs	r2, #0
 134 00de 1A60     		str	r2, [r3]
 135 00e0 FFF7FEFF 		bl	HAL_GetTick
 136 00e4 0646     		mov	r6, r0
 137 00e6 04E0     		b	.L12
 138              	.L13:
 139 00e8 FFF7FEFF 		bl	HAL_GetTick
 140 00ec 801B     		subs	r0, r0, r6
 141 00ee 0228     		cmp	r0, #2
 142 00f0 EFD8     		bhi	.L9
 143              	.L12:
 144 00f2 2B68     		ldr	r3, [r5]
 145 00f4 9800     		lsls	r0, r3, #2
 146 00f6 F7D4     		bmi	.L13
 147 00f8 2268     		ldr	r2, [r4]
 148 00fa 5107     		lsls	r1, r2, #29
 149 00fc 15D5     		bpl	.L14
 150 00fe D4E90403 		ldrd	r0, r3, [r4, #16]
 151 0102 D5F88810 		ldr	r1, [r5, #136]
 152 0106 1B06     		lsls	r3, r3, #24
 153 0108 01F0E041 		and	r1, r1, #1879048192
 154 010c 43EA8013 		orr	r3, r3, r0, lsl #6
 155 0110 0B43     		orrs	r3, r3, r1
 156 0112 C5F88830 		str	r3, [r5, #136]
 157 0116 D5F88C30 		ldr	r3, [r5, #140]
 158 011a 216A     		ldr	r1, [r4, #32]
 159 011c 23F4F853 		bic	r3, r3, #7936
 160 0120 0139     		subs	r1, r1, #1
 161 0122 43EA0123 		orr	r3, r3, r1, lsl #8
 162 0126 C5F88C30 		str	r3, [r5, #140]
 163              	.L14:
 164 012a 1307     		lsls	r3, r2, #28
 165 012c 14D5     		bpl	.L15
 166 012e 3E4A     		ldr	r2, .L60+8
 167 0130 A369     		ldr	r3, [r4, #24]
 168 0132 D2F88810 		ldr	r1, [r2, #136]
 169 0136 2069     		ldr	r0, [r4, #16]
 170 0138 1B07     		lsls	r3, r3, #28
 171 013a 01F07061 		and	r1, r1, #251658240
 172 013e 43EA8013 		orr	r3, r3, r0, lsl #6
ARM GAS  D:\Programs\cygwin64\tmp\ccT61Ovc.s 			page 4


 173 0142 0B43     		orrs	r3, r3, r1
 174 0144 C2F88830 		str	r3, [r2, #136]
 175 0148 D2F88C30 		ldr	r3, [r2, #140]
 176 014c 616A     		ldr	r1, [r4, #36]
 177 014e 23F44033 		bic	r3, r3, #196608
 178 0152 0B43     		orrs	r3, r3, r1
 179 0154 C2F88C30 		str	r3, [r2, #140]
 180              	.L15:
 181 0158 344B     		ldr	r3, .L60+12
 182 015a 334D     		ldr	r5, .L60+8
 183 015c 0122     		movs	r2, #1
 184 015e 1A60     		str	r2, [r3]
 185 0160 FFF7FEFF 		bl	HAL_GetTick
 186 0164 0646     		mov	r6, r0
 187 0166 04E0     		b	.L16
 188              	.L17:
 189 0168 FFF7FEFF 		bl	HAL_GetTick
 190 016c 801B     		subs	r0, r0, r6
 191 016e 0228     		cmp	r0, #2
 192 0170 AFD8     		bhi	.L9
 193              	.L16:
 194 0172 2B68     		ldr	r3, [r5]
 195 0174 9F00     		lsls	r7, r3, #2
 196 0176 F7D5     		bpl	.L17
 197 0178 2068     		ldr	r0, [r4]
 198 017a 4AE7     		b	.L11
 199              	.L58:
 200 017c 2A4B     		ldr	r3, .L60+8
 201 017e 2C4D     		ldr	r5, .L60+16
 202 0180 0022     		movs	r2, #0
 203 0182 0192     		str	r2, [sp, #4]
 204 0184 1A6C     		ldr	r2, [r3, #64]
 205 0186 42F08052 		orr	r2, r2, #268435456
 206 018a 1A64     		str	r2, [r3, #64]
 207 018c 1B6C     		ldr	r3, [r3, #64]
 208 018e 03F08053 		and	r3, r3, #268435456
 209 0192 0193     		str	r3, [sp, #4]
 210 0194 019B     		ldr	r3, [sp, #4]
 211 0196 2B68     		ldr	r3, [r5]
 212 0198 43F48073 		orr	r3, r3, #256
 213 019c 2B60     		str	r3, [r5]
 214 019e FFF7FEFF 		bl	HAL_GetTick
 215 01a2 0646     		mov	r6, r0
 216 01a4 04E0     		b	.L19
 217              	.L20:
 218 01a6 FFF7FEFF 		bl	HAL_GetTick
 219 01aa 801B     		subs	r0, r0, r6
 220 01ac 0228     		cmp	r0, #2
 221 01ae 90D8     		bhi	.L9
 222              	.L19:
 223 01b0 2B68     		ldr	r3, [r5]
 224 01b2 D905     		lsls	r1, r3, #23
 225 01b4 F7D5     		bpl	.L20
 226 01b6 1C49     		ldr	r1, .L60+8
 227 01b8 A36A     		ldr	r3, [r4, #40]
 228 01ba 0A6F     		ldr	r2, [r1, #112]
 229 01bc 12F44072 		ands	r2, r2, #768
ARM GAS  D:\Programs\cygwin64\tmp\ccT61Ovc.s 			page 5


 230 01c0 03F44070 		and	r0, r3, #768
 231 01c4 11D0     		beq	.L21
 232 01c6 8242     		cmp	r2, r0
 233 01c8 0FD0     		beq	.L21
 234 01ca 0B6F     		ldr	r3, [r1, #112]
 235 01cc 194A     		ldr	r2, .L60+20
 236 01ce 23F44073 		bic	r3, r3, #768
 237 01d2 0125     		movs	r5, #1
 238 01d4 0020     		movs	r0, #0
 239 01d6 1560     		str	r5, [r2]
 240 01d8 1060     		str	r0, [r2]
 241 01da 0B67     		str	r3, [r1, #112]
 242 01dc 0B6F     		ldr	r3, [r1, #112]
 243 01de DA07     		lsls	r2, r3, #31
 244 01e0 3FF568AF 		bmi	.L22
 245              	.L54:
 246 01e4 A36A     		ldr	r3, [r4, #40]
 247 01e6 03F44070 		and	r0, r3, #768
 248              	.L21:
 249 01ea B0F5407F 		cmp	r0, #768
 250 01ee 0CD0     		beq	.L59
 251 01f0 0D49     		ldr	r1, .L60+8
 252 01f2 8A68     		ldr	r2, [r1, #8]
 253 01f4 22F4F812 		bic	r2, r2, #2031616
 254 01f8 8A60     		str	r2, [r1, #8]
 255              	.L26:
 256 01fa 0B4A     		ldr	r2, .L60+8
 257 01fc 116F     		ldr	r1, [r2, #112]
 258 01fe C3F30B03 		ubfx	r3, r3, #0, #12
 259 0202 0B43     		orrs	r3, r3, r1
 260 0204 1367     		str	r3, [r2, #112]
 261 0206 2068     		ldr	r0, [r4]
 262 0208 06E7     		b	.L18
 263              	.L59:
 264 020a 0748     		ldr	r0, .L60+8
 265 020c 8268     		ldr	r2, [r0, #8]
 266 020e 23F07041 		bic	r1, r3, #-268435456
 267 0212 22F4F812 		bic	r2, r2, #2031616
 268 0216 21F44071 		bic	r1, r1, #768
 269 021a 0A43     		orrs	r2, r2, r1
 270 021c 8260     		str	r2, [r0, #8]
 271 021e ECE7     		b	.L26
 272              	.L61:
 273              		.align	2
 274              	.L60:
 275 0220 E0114742 		.word	1111953888
 276 0224 68004742 		.word	1111949416
 277 0228 00380240 		.word	1073887232
 278 022c 70004742 		.word	1111949424
 279 0230 00700040 		.word	1073770496
 280 0234 400E4742 		.word	1111952960
 282              		.section	.text.HAL_RCCEx_GetPeriphCLKConfig,"ax",%progbits
 283              		.align	1
 284              		.p2align 2,,3
 285              		.global	HAL_RCCEx_GetPeriphCLKConfig
 286              		.syntax unified
 287              		.thumb
ARM GAS  D:\Programs\cygwin64\tmp\ccT61Ovc.s 			page 6


 288              		.thumb_func
 289              		.fpu fpv4-sp-d16
 291              	HAL_RCCEx_GetPeriphCLKConfig:
 292              		@ args = 0, pretend = 0, frame = 0
 293              		@ frame_needed = 0, uses_anonymous_args = 0
 294              		@ link register save eliminated.
 295 0000 1F4B     		ldr	r3, .L63
 296 0002 3F22     		movs	r2, #63
 297 0004 0260     		str	r2, [r0]
 298 0006 D3F88420 		ldr	r2, [r3, #132]
 299 000a C2F38812 		ubfx	r2, r2, #6, #9
 300 000e 4260     		str	r2, [r0, #4]
 301 0010 D3F88420 		ldr	r2, [r3, #132]
 302 0014 C2F30272 		ubfx	r2, r2, #28, #3
 303 0018 8260     		str	r2, [r0, #8]
 304 001a D3F88420 		ldr	r2, [r3, #132]
 305 001e C2F30362 		ubfx	r2, r2, #24, #4
 306 0022 C260     		str	r2, [r0, #12]
 307 0024 D3F88820 		ldr	r2, [r3, #136]
 308 0028 C2F38812 		ubfx	r2, r2, #6, #9
 309 002c 0261     		str	r2, [r0, #16]
 310 002e D3F88820 		ldr	r2, [r3, #136]
 311 0032 C2F30272 		ubfx	r2, r2, #28, #3
 312 0036 8261     		str	r2, [r0, #24]
 313 0038 D3F88820 		ldr	r2, [r3, #136]
 314 003c C2F30362 		ubfx	r2, r2, #24, #4
 315 0040 4261     		str	r2, [r0, #20]
 316 0042 D3F88C20 		ldr	r2, [r3, #140]
 317 0046 02F01F02 		and	r2, r2, #31
 318 004a C261     		str	r2, [r0, #28]
 319 004c D3F88C20 		ldr	r2, [r3, #140]
 320 0050 C2F30422 		ubfx	r2, r2, #8, #5
 321 0054 0262     		str	r2, [r0, #32]
 322 0056 D3F88C20 		ldr	r2, [r3, #140]
 323 005a 02F44032 		and	r2, r2, #196608
 324 005e 4262     		str	r2, [r0, #36]
 325 0060 9968     		ldr	r1, [r3, #8]
 326 0062 1A6F     		ldr	r2, [r3, #112]
 327 0064 01F4F811 		and	r1, r1, #2031616
 328 0068 02F44072 		and	r2, r2, #768
 329 006c 0A43     		orrs	r2, r2, r1
 330 006e 8262     		str	r2, [r0, #40]
 331 0070 D3F88C30 		ldr	r3, [r3, #140]
 332 0074 C3F30063 		ubfx	r3, r3, #24, #1
 333 0078 80F82C30 		strb	r3, [r0, #44]
 334 007c 7047     		bx	lr
 335              	.L64:
 336 007e 00BF     		.align	2
 337              	.L63:
 338 0080 00380240 		.word	1073887232
 340              		.section	.text.HAL_RCCEx_GetPeriphCLKFreq,"ax",%progbits
 341              		.align	1
 342              		.p2align 2,,3
 343              		.global	HAL_RCCEx_GetPeriphCLKFreq
 344              		.syntax unified
 345              		.thumb
 346              		.thumb_func
ARM GAS  D:\Programs\cygwin64\tmp\ccT61Ovc.s 			page 7


 347              		.fpu fpv4-sp-d16
 349              	HAL_RCCEx_GetPeriphCLKFreq:
 350              		@ args = 0, pretend = 0, frame = 0
 351              		@ frame_needed = 0, uses_anonymous_args = 0
 352              		@ link register save eliminated.
 353 0000 0128     		cmp	r0, #1
 354 0002 01D0     		beq	.L71
 355              	.L70:
 356 0004 0020     		movs	r0, #0
 357 0006 7047     		bx	lr
 358              	.L71:
 359 0008 0D4B     		ldr	r3, .L72
 360 000a 9A68     		ldr	r2, [r3, #8]
 361 000c 1102     		lsls	r1, r2, #8
 362 000e F9D4     		bmi	.L70
 363 0010 5A68     		ldr	r2, [r3, #4]
 364 0012 5B68     		ldr	r3, [r3, #4]
 365 0014 5202     		lsls	r2, r2, #9
 366 0016 4CBF     		ite	mi
 367 0018 0A48     		ldrmi	r0, .L72+4
 368 001a 0B48     		ldrpl	r0, .L72+8
 369 001c 03F03F03 		and	r3, r3, #63
 370 0020 B0FBF3F0 		udiv	r0, r0, r3
 371 0024 064B     		ldr	r3, .L72
 372 0026 D3F88420 		ldr	r2, [r3, #132]
 373 002a D3F88430 		ldr	r3, [r3, #132]
 374 002e C2F38812 		ubfx	r2, r2, #6, #9
 375 0032 00FB02F0 		mul	r0, r0, r2
 376 0036 C3F30273 		ubfx	r3, r3, #28, #3
 377 003a B0FBF3F0 		udiv	r0, r0, r3
 378 003e 7047     		bx	lr
 379              	.L73:
 380              		.align	2
 381              	.L72:
 382 0040 00380240 		.word	1073887232
 383 0044 00127A00 		.word	8000000
 384 0048 0024F400 		.word	16000000
 386              		.section	.text.HAL_RCCEx_EnablePLLI2S,"ax",%progbits
 387              		.align	1
 388              		.p2align 2,,3
 389              		.global	HAL_RCCEx_EnablePLLI2S
 390              		.syntax unified
 391              		.thumb
 392              		.thumb_func
 393              		.fpu fpv4-sp-d16
 395              	HAL_RCCEx_EnablePLLI2S:
 396              		@ args = 0, pretend = 0, frame = 0
 397              		@ frame_needed = 0, uses_anonymous_args = 0
 398 0000 174B     		ldr	r3, .L83
 399 0002 0022     		movs	r2, #0
 400 0004 70B5     		push	{r4, r5, r6, lr}
 401 0006 1A60     		str	r2, [r3]
 402 0008 0646     		mov	r6, r0
 403 000a FFF7FEFF 		bl	HAL_GetTick
 404 000e 154C     		ldr	r4, .L83+4
 405 0010 0546     		mov	r5, r0
 406 0012 04E0     		b	.L75
ARM GAS  D:\Programs\cygwin64\tmp\ccT61Ovc.s 			page 8


 407              	.L77:
 408 0014 FFF7FEFF 		bl	HAL_GetTick
 409 0018 401B     		subs	r0, r0, r5
 410 001a 0228     		cmp	r0, #2
 411 001c 1DD8     		bhi	.L79
 412              	.L75:
 413 001e 2368     		ldr	r3, [r4]
 414 0020 1A01     		lsls	r2, r3, #4
 415 0022 F7D4     		bmi	.L77
 416 0024 96E80B00 		ldm	r6, {r0, r1, r3}
 417 0028 1B06     		lsls	r3, r3, #24
 418 002a 0D4A     		ldr	r2, .L83
 419 002c 0D4D     		ldr	r5, .L83+4
 420 002e 43EA8013 		orr	r3, r3, r0, lsl #6
 421 0032 43EA0173 		orr	r3, r3, r1, lsl #28
 422 0036 0121     		movs	r1, #1
 423 0038 C4F88430 		str	r3, [r4, #132]
 424 003c 1160     		str	r1, [r2]
 425 003e FFF7FEFF 		bl	HAL_GetTick
 426 0042 0446     		mov	r4, r0
 427 0044 04E0     		b	.L78
 428              	.L80:
 429 0046 FFF7FEFF 		bl	HAL_GetTick
 430 004a 001B     		subs	r0, r0, r4
 431 004c 0228     		cmp	r0, #2
 432 004e 04D8     		bhi	.L79
 433              	.L78:
 434 0050 2B68     		ldr	r3, [r5]
 435 0052 1B01     		lsls	r3, r3, #4
 436 0054 F7D5     		bpl	.L80
 437 0056 0020     		movs	r0, #0
 438 0058 70BD     		pop	{r4, r5, r6, pc}
 439              	.L79:
 440 005a 0320     		movs	r0, #3
 441 005c 70BD     		pop	{r4, r5, r6, pc}
 442              	.L84:
 443 005e 00BF     		.align	2
 444              	.L83:
 445 0060 68004742 		.word	1111949416
 446 0064 00380240 		.word	1073887232
 448              		.section	.text.HAL_RCCEx_DisablePLLI2S,"ax",%progbits
 449              		.align	1
 450              		.p2align 2,,3
 451              		.global	HAL_RCCEx_DisablePLLI2S
 452              		.syntax unified
 453              		.thumb
 454              		.thumb_func
 455              		.fpu fpv4-sp-d16
 457              	HAL_RCCEx_DisablePLLI2S:
 458              		@ args = 0, pretend = 0, frame = 0
 459              		@ frame_needed = 0, uses_anonymous_args = 0
 460 0000 38B5     		push	{r3, r4, r5, lr}
 461 0002 0A4B     		ldr	r3, .L91
 462 0004 0A4C     		ldr	r4, .L91+4
 463 0006 0022     		movs	r2, #0
 464 0008 1A60     		str	r2, [r3]
 465 000a FFF7FEFF 		bl	HAL_GetTick
ARM GAS  D:\Programs\cygwin64\tmp\ccT61Ovc.s 			page 9


 466 000e 0546     		mov	r5, r0
 467 0010 04E0     		b	.L86
 468              	.L88:
 469 0012 FFF7FEFF 		bl	HAL_GetTick
 470 0016 401B     		subs	r0, r0, r5
 471 0018 0228     		cmp	r0, #2
 472 001a 04D8     		bhi	.L89
 473              	.L86:
 474 001c 2068     		ldr	r0, [r4]
 475 001e 10F00060 		ands	r0, r0, #134217728
 476 0022 F6D1     		bne	.L88
 477 0024 38BD     		pop	{r3, r4, r5, pc}
 478              	.L89:
 479 0026 0320     		movs	r0, #3
 480 0028 38BD     		pop	{r3, r4, r5, pc}
 481              	.L92:
 482 002a 00BF     		.align	2
 483              	.L91:
 484 002c 68004742 		.word	1111949416
 485 0030 00380240 		.word	1073887232
 487              		.section	.text.HAL_RCCEx_EnablePLLSAI,"ax",%progbits
 488              		.align	1
 489              		.p2align 2,,3
 490              		.global	HAL_RCCEx_EnablePLLSAI
 491              		.syntax unified
 492              		.thumb
 493              		.thumb_func
 494              		.fpu fpv4-sp-d16
 496              	HAL_RCCEx_EnablePLLSAI:
 497              		@ args = 0, pretend = 0, frame = 0
 498              		@ frame_needed = 0, uses_anonymous_args = 0
 499 0000 174B     		ldr	r3, .L102
 500 0002 0022     		movs	r2, #0
 501 0004 70B5     		push	{r4, r5, r6, lr}
 502 0006 1A60     		str	r2, [r3]
 503 0008 0646     		mov	r6, r0
 504 000a FFF7FEFF 		bl	HAL_GetTick
 505 000e 154C     		ldr	r4, .L102+4
 506 0010 0546     		mov	r5, r0
 507 0012 04E0     		b	.L94
 508              	.L96:
 509 0014 FFF7FEFF 		bl	HAL_GetTick
 510 0018 401B     		subs	r0, r0, r5
 511 001a 0228     		cmp	r0, #2
 512 001c 1ED8     		bhi	.L98
 513              	.L94:
 514 001e 2368     		ldr	r3, [r4]
 515 0020 9A00     		lsls	r2, r3, #2
 516 0022 F7D4     		bmi	.L96
 517 0024 D6E90003 		ldrd	r0, r3, [r6]
 518 0028 B168     		ldr	r1, [r6, #8]
 519 002a 0D4A     		ldr	r2, .L102
 520 002c 0D4D     		ldr	r5, .L102+4
 521 002e 1B06     		lsls	r3, r3, #24
 522 0030 43EA8013 		orr	r3, r3, r0, lsl #6
 523 0034 43EA0173 		orr	r3, r3, r1, lsl #28
 524 0038 0121     		movs	r1, #1
ARM GAS  D:\Programs\cygwin64\tmp\ccT61Ovc.s 			page 10


 525 003a C4F88830 		str	r3, [r4, #136]
 526 003e 1160     		str	r1, [r2]
 527 0040 FFF7FEFF 		bl	HAL_GetTick
 528 0044 0446     		mov	r4, r0
 529 0046 04E0     		b	.L97
 530              	.L99:
 531 0048 FFF7FEFF 		bl	HAL_GetTick
 532 004c 001B     		subs	r0, r0, r4
 533 004e 0228     		cmp	r0, #2
 534 0050 04D8     		bhi	.L98
 535              	.L97:
 536 0052 2B68     		ldr	r3, [r5]
 537 0054 9B00     		lsls	r3, r3, #2
 538 0056 F7D5     		bpl	.L99
 539 0058 0020     		movs	r0, #0
 540 005a 70BD     		pop	{r4, r5, r6, pc}
 541              	.L98:
 542 005c 0320     		movs	r0, #3
 543 005e 70BD     		pop	{r4, r5, r6, pc}
 544              	.L103:
 545              		.align	2
 546              	.L102:
 547 0060 70004742 		.word	1111949424
 548 0064 00380240 		.word	1073887232
 550              		.section	.text.HAL_RCCEx_DisablePLLSAI,"ax",%progbits
 551              		.align	1
 552              		.p2align 2,,3
 553              		.global	HAL_RCCEx_DisablePLLSAI
 554              		.syntax unified
 555              		.thumb
 556              		.thumb_func
 557              		.fpu fpv4-sp-d16
 559              	HAL_RCCEx_DisablePLLSAI:
 560              		@ args = 0, pretend = 0, frame = 0
 561              		@ frame_needed = 0, uses_anonymous_args = 0
 562 0000 38B5     		push	{r3, r4, r5, lr}
 563 0002 0A4B     		ldr	r3, .L110
 564 0004 0A4C     		ldr	r4, .L110+4
 565 0006 0022     		movs	r2, #0
 566 0008 1A60     		str	r2, [r3]
 567 000a FFF7FEFF 		bl	HAL_GetTick
 568 000e 0546     		mov	r5, r0
 569 0010 04E0     		b	.L105
 570              	.L107:
 571 0012 FFF7FEFF 		bl	HAL_GetTick
 572 0016 401B     		subs	r0, r0, r5
 573 0018 0228     		cmp	r0, #2
 574 001a 04D8     		bhi	.L108
 575              	.L105:
 576 001c 2068     		ldr	r0, [r4]
 577 001e 10F00050 		ands	r0, r0, #536870912
 578 0022 F6D1     		bne	.L107
 579 0024 38BD     		pop	{r3, r4, r5, pc}
 580              	.L108:
 581 0026 0320     		movs	r0, #3
 582 0028 38BD     		pop	{r3, r4, r5, pc}
 583              	.L111:
ARM GAS  D:\Programs\cygwin64\tmp\ccT61Ovc.s 			page 11


 584 002a 00BF     		.align	2
 585              	.L110:
 586 002c 70004742 		.word	1111949424
 587 0030 00380240 		.word	1073887232
 589              		.section	.text.HAL_RCC_DeInit,"ax",%progbits
 590              		.align	1
 591              		.p2align 2,,3
 592              		.global	HAL_RCC_DeInit
 593              		.syntax unified
 594              		.thumb
 595              		.thumb_func
 596              		.fpu fpv4-sp-d16
 598              	HAL_RCC_DeInit:
 599              		@ args = 0, pretend = 0, frame = 0
 600              		@ frame_needed = 0, uses_anonymous_args = 0
 601 0000 70B5     		push	{r4, r5, r6, lr}
 602 0002 4F4C     		ldr	r4, .L129
 603 0004 FFF7FEFF 		bl	HAL_GetTick
 604 0008 2368     		ldr	r3, [r4]
 605 000a 43F00103 		orr	r3, r3, #1
 606 000e 0546     		mov	r5, r0
 607 0010 2360     		str	r3, [r4]
 608 0012 05E0     		b	.L113
 609              	.L115:
 610 0014 FFF7FEFF 		bl	HAL_GetTick
 611 0018 401B     		subs	r0, r0, r5
 612 001a 0228     		cmp	r0, #2
 613 001c 00F28E80 		bhi	.L117
 614              	.L113:
 615 0020 2368     		ldr	r3, [r4]
 616 0022 9E07     		lsls	r6, r3, #30
 617 0024 F6D5     		bpl	.L115
 618 0026 2368     		ldr	r3, [r4]
 619 0028 454E     		ldr	r6, .L129
 620 002a 43F08003 		orr	r3, r3, #128
 621 002e 2360     		str	r3, [r4]
 622 0030 FFF7FEFF 		bl	HAL_GetTick
 623 0034 0023     		movs	r3, #0
 624 0036 A360     		str	r3, [r4, #8]
 625 0038 0546     		mov	r5, r0
 626 003a 41F28834 		movw	r4, #5000
 627 003e 04E0     		b	.L116
 628              	.L118:
 629 0040 FFF7FEFF 		bl	HAL_GetTick
 630 0044 401B     		subs	r0, r0, r5
 631 0046 A042     		cmp	r0, r4
 632 0048 78D8     		bhi	.L117
 633              	.L116:
 634 004a B368     		ldr	r3, [r6, #8]
 635 004c 13F00C0F 		tst	r3, #12
 636 0050 F6D1     		bne	.L118
 637 0052 FFF7FEFF 		bl	HAL_GetTick
 638 0056 3368     		ldr	r3, [r6]
 639 0058 394C     		ldr	r4, .L129
 640 005a 23F45023 		bic	r3, r3, #851968
 641 005e 0546     		mov	r5, r0
 642 0060 3360     		str	r3, [r6]
ARM GAS  D:\Programs\cygwin64\tmp\ccT61Ovc.s 			page 12


 643 0062 04E0     		b	.L119
 644              	.L120:
 645 0064 FFF7FEFF 		bl	HAL_GetTick
 646 0068 401B     		subs	r0, r0, r5
 647 006a 6428     		cmp	r0, #100
 648 006c 66D8     		bhi	.L117
 649              	.L119:
 650 006e 2368     		ldr	r3, [r4]
 651 0070 9803     		lsls	r0, r3, #14
 652 0072 F7D4     		bmi	.L120
 653 0074 FFF7FEFF 		bl	HAL_GetTick
 654 0078 2368     		ldr	r3, [r4]
 655 007a 314D     		ldr	r5, .L129
 656 007c 23F08073 		bic	r3, r3, #16777216
 657 0080 0646     		mov	r6, r0
 658 0082 2360     		str	r3, [r4]
 659 0084 04E0     		b	.L121
 660              	.L122:
 661 0086 FFF7FEFF 		bl	HAL_GetTick
 662 008a 801B     		subs	r0, r0, r6
 663 008c 0228     		cmp	r0, #2
 664 008e 55D8     		bhi	.L117
 665              	.L121:
 666 0090 2B68     		ldr	r3, [r5]
 667 0092 9901     		lsls	r1, r3, #6
 668 0094 F7D4     		bmi	.L122
 669 0096 FFF7FEFF 		bl	HAL_GetTick
 670 009a 2B68     		ldr	r3, [r5]
 671 009c 284C     		ldr	r4, .L129
 672 009e 23F08063 		bic	r3, r3, #67108864
 673 00a2 0646     		mov	r6, r0
 674 00a4 2B60     		str	r3, [r5]
 675 00a6 04E0     		b	.L123
 676              	.L124:
 677 00a8 FFF7FEFF 		bl	HAL_GetTick
 678 00ac 801B     		subs	r0, r0, r6
 679 00ae 0228     		cmp	r0, #2
 680 00b0 44D8     		bhi	.L117
 681              	.L123:
 682 00b2 2368     		ldr	r3, [r4]
 683 00b4 1A01     		lsls	r2, r3, #4
 684 00b6 F7D4     		bmi	.L124
 685 00b8 FFF7FEFF 		bl	HAL_GetTick
 686 00bc 2368     		ldr	r3, [r4]
 687 00be 204D     		ldr	r5, .L129
 688 00c0 23F08053 		bic	r3, r3, #268435456
 689 00c4 0646     		mov	r6, r0
 690 00c6 2360     		str	r3, [r4]
 691 00c8 04E0     		b	.L125
 692              	.L126:
 693 00ca FFF7FEFF 		bl	HAL_GetTick
 694 00ce 801B     		subs	r0, r0, r6
 695 00d0 0228     		cmp	r0, #2
 696 00d2 33D8     		bhi	.L117
 697              	.L125:
 698 00d4 2B68     		ldr	r3, [r5]
 699 00d6 9B00     		lsls	r3, r3, #2
ARM GAS  D:\Programs\cygwin64\tmp\ccT61Ovc.s 			page 13


 700 00d8 F7D4     		bmi	.L126
 701 00da 1A4B     		ldr	r3, .L129+4
 702 00dc 1A4A     		ldr	r2, .L129+8
 703 00de 6A60     		str	r2, [r5, #4]
 704 00e0 C5F88430 		str	r3, [r5, #132]
 705 00e4 C5F88830 		str	r3, [r5, #136]
 706 00e8 EB68     		ldr	r3, [r5, #12]
 707 00ea 184A     		ldr	r2, .L129+12
 708 00ec 1849     		ldr	r1, .L129+16
 709 00ee 23F4F853 		bic	r3, r3, #7936
 710 00f2 EB60     		str	r3, [r5, #12]
 711 00f4 EB68     		ldr	r3, [r5, #12]
 712 00f6 23F40053 		bic	r3, r3, #8192
 713 00fa EB60     		str	r3, [r5, #12]
 714 00fc EB68     		ldr	r3, [r5, #12]
 715 00fe 23F48043 		bic	r3, r3, #16384
 716 0102 EB60     		str	r3, [r5, #12]
 717 0104 EB68     		ldr	r3, [r5, #12]
 718 0106 43F41F03 		orr	r3, r3, #10420224
 719 010a EB60     		str	r3, [r5, #12]
 720 010c EB68     		ldr	r3, [r5, #12]
 721 010e 43F40013 		orr	r3, r3, #2097152
 722 0112 EB60     		str	r3, [r5, #12]
 723 0114 EB68     		ldr	r3, [r5, #12]
 724 0116 43F48003 		orr	r3, r3, #4194304
 725 011a EB60     		str	r3, [r5, #12]
 726 011c 6B6F     		ldr	r3, [r5, #116]
 727 011e 23F00103 		bic	r3, r3, #1
 728 0122 6B67     		str	r3, [r5, #116]
 729 0124 6B6F     		ldr	r3, [r5, #116]
 730 0126 43F08073 		orr	r3, r3, #16777216
 731 012a 6B67     		str	r3, [r5, #116]
 732 012c 0F20     		movs	r0, #15
 733 012e 1160     		str	r1, [r2]
 734 0130 FFF7FEFF 		bl	HAL_InitTick
 735 0134 0030     		adds	r0, r0, #0
 736 0136 18BF     		it	ne
 737 0138 0120     		movne	r0, #1
 738 013a 70BD     		pop	{r4, r5, r6, pc}
 739              	.L117:
 740 013c 0320     		movs	r0, #3
 741 013e 70BD     		pop	{r4, r5, r6, pc}
 742              	.L130:
 743              		.align	2
 744              	.L129:
 745 0140 00380240 		.word	1073887232
 746 0144 00300024 		.word	603992064
 747 0148 10300004 		.word	67121168
 748 014c 00000000 		.word	SystemCoreClock
 749 0150 0024F400 		.word	16000000
 751              		.ident	"GCC: (GNU Tools for Arm Embedded Processors 8-2018-q4-major) 8.2.1 20181213 (release) [gcc
ARM GAS  D:\Programs\cygwin64\tmp\ccT61Ovc.s 			page 14

