ARM GAS  D:\Programs\cygwin64\tmp\ccJ7gsOK.s 			page 1


   1              		.cpu cortex-m4
   2              		.eabi_attribute 27, 1
   3              		.eabi_attribute 28, 1
   4              		.eabi_attribute 20, 1
   5              		.eabi_attribute 21, 1
   6              		.eabi_attribute 23, 3
   7              		.eabi_attribute 24, 1
   8              		.eabi_attribute 25, 1
   9              		.eabi_attribute 26, 1
  10              		.eabi_attribute 30, 2
  11              		.eabi_attribute 34, 1
  12              		.eabi_attribute 18, 4
  13              		.file	"stm32f4xx_hal_rng.c"
  14              		.text
  15              		.section	.text.HAL_RNG_MspInit,"ax",%progbits
  16              		.align	1
  17              		.p2align 2,,3
  18              		.weak	HAL_RNG_MspInit
  19              		.arch armv7e-m
  20              		.syntax unified
  21              		.thumb
  22              		.thumb_func
  23              		.fpu fpv4-sp-d16
  25              	HAL_RNG_MspInit:
  26              		@ args = 0, pretend = 0, frame = 0
  27              		@ frame_needed = 0, uses_anonymous_args = 0
  28              		@ link register save eliminated.
  29 0000 7047     		bx	lr
  31 0002 00BF     		.section	.text.HAL_RNG_Init,"ax",%progbits
  32              		.align	1
  33              		.p2align 2,,3
  34              		.global	HAL_RNG_Init
  35              		.syntax unified
  36              		.thumb
  37              		.thumb_func
  38              		.fpu fpv4-sp-d16
  40              	HAL_RNG_Init:
  41              		@ args = 0, pretend = 0, frame = 0
  42              		@ frame_needed = 0, uses_anonymous_args = 0
  43 0000 B0B1     		cbz	r0, .L6
  44 0002 38B5     		push	{r3, r4, r5, lr}
  45 0004 4379     		ldrb	r3, [r0, #5]	@ zero_extendqisi2
  46 0006 0446     		mov	r4, r0
  47 0008 03F0FF02 		and	r2, r3, #255
  48 000c 63B1     		cbz	r3, .L11
  49              	.L5:
  50 000e 2168     		ldr	r1, [r4]
  51 0010 0223     		movs	r3, #2
  52 0012 6371     		strb	r3, [r4, #5]
  53 0014 0B68     		ldr	r3, [r1]
  54 0016 0022     		movs	r2, #0
  55 0018 0125     		movs	r5, #1
  56 001a 43F00403 		orr	r3, r3, #4
  57 001e 0B60     		str	r3, [r1]
  58 0020 1046     		mov	r0, r2
  59 0022 6571     		strb	r5, [r4, #5]
  60 0024 A260     		str	r2, [r4, #8]
ARM GAS  D:\Programs\cygwin64\tmp\ccJ7gsOK.s 			page 2


  61 0026 38BD     		pop	{r3, r4, r5, pc}
  62              	.L11:
  63 0028 0271     		strb	r2, [r0, #4]
  64 002a FFF7FEFF 		bl	HAL_RNG_MspInit
  65 002e EEE7     		b	.L5
  66              	.L6:
  67 0030 0120     		movs	r0, #1
  68 0032 7047     		bx	lr
  70              		.section	.text.HAL_RNG_MspDeInit,"ax",%progbits
  71              		.align	1
  72              		.p2align 2,,3
  73              		.weak	HAL_RNG_MspDeInit
  74              		.syntax unified
  75              		.thumb
  76              		.thumb_func
  77              		.fpu fpv4-sp-d16
  79              	HAL_RNG_MspDeInit:
  80              		@ args = 0, pretend = 0, frame = 0
  81              		@ frame_needed = 0, uses_anonymous_args = 0
  82              		@ link register save eliminated.
  83 0000 7047     		bx	lr
  85 0002 00BF     		.section	.text.HAL_RNG_DeInit,"ax",%progbits
  86              		.align	1
  87              		.p2align 2,,3
  88              		.global	HAL_RNG_DeInit
  89              		.syntax unified
  90              		.thumb
  91              		.thumb_func
  92              		.fpu fpv4-sp-d16
  94              	HAL_RNG_DeInit:
  95              		@ args = 0, pretend = 0, frame = 0
  96              		@ frame_needed = 0, uses_anonymous_args = 0
  97 0000 88B1     		cbz	r0, .L15
  98 0002 0368     		ldr	r3, [r0]
  99 0004 1A68     		ldr	r2, [r3]
 100 0006 22F00C02 		bic	r2, r2, #12
 101 000a 10B5     		push	{r4, lr}
 102 000c 1A60     		str	r2, [r3]
 103 000e 5A68     		ldr	r2, [r3, #4]
 104 0010 22F06002 		bic	r2, r2, #96
 105 0014 0446     		mov	r4, r0
 106 0016 5A60     		str	r2, [r3, #4]
 107 0018 FFF7FEFF 		bl	HAL_RNG_MspDeInit
 108 001c 0020     		movs	r0, #0
 109 001e 6071     		strb	r0, [r4, #5]
 110 0020 2071     		strb	r0, [r4, #4]
 111 0022 A060     		str	r0, [r4, #8]
 112 0024 10BD     		pop	{r4, pc}
 113              	.L15:
 114 0026 0120     		movs	r0, #1
 115 0028 7047     		bx	lr
 117 002a 00BF     		.section	.text.HAL_RNG_GenerateRandomNumber,"ax",%progbits
 118              		.align	1
 119              		.p2align 2,,3
 120              		.global	HAL_RNG_GenerateRandomNumber
 121              		.syntax unified
 122              		.thumb
ARM GAS  D:\Programs\cygwin64\tmp\ccJ7gsOK.s 			page 3


 123              		.thumb_func
 124              		.fpu fpv4-sp-d16
 126              	HAL_RNG_GenerateRandomNumber:
 127              		@ args = 0, pretend = 0, frame = 0
 128              		@ frame_needed = 0, uses_anonymous_args = 0
 129 0000 F8B5     		push	{r3, r4, r5, r6, r7, lr}
 130 0002 0379     		ldrb	r3, [r0, #4]	@ zero_extendqisi2
 131 0004 012B     		cmp	r3, #1
 132 0006 22D0     		beq	.L26
 133 0008 4379     		ldrb	r3, [r0, #5]	@ zero_extendqisi2
 134 000a 0446     		mov	r4, r0
 135 000c 0120     		movs	r0, #1
 136 000e 8342     		cmp	r3, r0
 137 0010 0E46     		mov	r6, r1
 138 0012 2071     		strb	r0, [r4, #4]
 139 0014 04D0     		beq	.L29
 140 0016 0423     		movs	r3, #4
 141 0018 A360     		str	r3, [r4, #8]
 142              	.L25:
 143 001a 0023     		movs	r3, #0
 144 001c 2371     		strb	r3, [r4, #4]
 145 001e F8BD     		pop	{r3, r4, r5, r6, r7, pc}
 146              	.L29:
 147 0020 0223     		movs	r3, #2
 148 0022 6371     		strb	r3, [r4, #5]
 149 0024 FFF7FEFF 		bl	HAL_GetTick
 150 0028 0746     		mov	r7, r0
 151 002a 04E0     		b	.L23
 152              	.L24:
 153 002c FFF7FEFF 		bl	HAL_GetTick
 154 0030 C01B     		subs	r0, r0, r7
 155 0032 0228     		cmp	r0, #2
 156 0034 0DD8     		bhi	.L30
 157              	.L23:
 158 0036 2268     		ldr	r2, [r4]
 159 0038 5568     		ldr	r5, [r2, #4]
 160 003a 15F00105 		ands	r5, r5, #1
 161 003e F5D0     		beq	.L24
 162 0040 9368     		ldr	r3, [r2, #8]
 163 0042 E360     		str	r3, [r4, #12]
 164 0044 0122     		movs	r2, #1
 165 0046 3360     		str	r3, [r6]
 166 0048 0020     		movs	r0, #0
 167 004a 6271     		strb	r2, [r4, #5]
 168 004c E5E7     		b	.L25
 169              	.L26:
 170 004e 0220     		movs	r0, #2
 171 0050 F8BD     		pop	{r3, r4, r5, r6, r7, pc}
 172              	.L30:
 173 0052 0120     		movs	r0, #1
 174 0054 0223     		movs	r3, #2
 175 0056 6071     		strb	r0, [r4, #5]
 176 0058 2571     		strb	r5, [r4, #4]
 177 005a A360     		str	r3, [r4, #8]
 178 005c F8BD     		pop	{r3, r4, r5, r6, r7, pc}
 180 005e 00BF     		.section	.text.HAL_RNG_GenerateRandomNumber_IT,"ax",%progbits
 181              		.align	1
ARM GAS  D:\Programs\cygwin64\tmp\ccJ7gsOK.s 			page 4


 182              		.p2align 2,,3
 183              		.global	HAL_RNG_GenerateRandomNumber_IT
 184              		.syntax unified
 185              		.thumb
 186              		.thumb_func
 187              		.fpu fpv4-sp-d16
 189              	HAL_RNG_GenerateRandomNumber_IT:
 190              		@ args = 0, pretend = 0, frame = 0
 191              		@ frame_needed = 0, uses_anonymous_args = 0
 192              		@ link register save eliminated.
 193 0000 0279     		ldrb	r2, [r0, #4]	@ zero_extendqisi2
 194 0002 012A     		cmp	r2, #1
 195 0004 0346     		mov	r3, r0
 196 0006 12D0     		beq	.L34
 197 0008 4279     		ldrb	r2, [r0, #5]	@ zero_extendqisi2
 198 000a 0120     		movs	r0, #1
 199 000c 8242     		cmp	r2, r0
 200 000e 1871     		strb	r0, [r3, #4]
 201 0010 04D0     		beq	.L35
 202 0012 0021     		movs	r1, #0
 203 0014 0422     		movs	r2, #4
 204 0016 1971     		strb	r1, [r3, #4]
 205 0018 9A60     		str	r2, [r3, #8]
 206 001a 7047     		bx	lr
 207              	.L35:
 208 001c 1A68     		ldr	r2, [r3]
 209 001e 0221     		movs	r1, #2
 210 0020 5971     		strb	r1, [r3, #5]
 211 0022 1368     		ldr	r3, [r2]
 212 0024 43F00803 		orr	r3, r3, #8
 213 0028 1360     		str	r3, [r2]
 214 002a 0020     		movs	r0, #0
 215 002c 7047     		bx	lr
 216              	.L34:
 217 002e 0220     		movs	r0, #2
 218 0030 7047     		bx	lr
 220 0032 00BF     		.section	.text.HAL_RNG_GetRandomNumber,"ax",%progbits
 221              		.align	1
 222              		.p2align 2,,3
 223              		.global	HAL_RNG_GetRandomNumber
 224              		.syntax unified
 225              		.thumb
 226              		.thumb_func
 227              		.fpu fpv4-sp-d16
 229              	HAL_RNG_GetRandomNumber:
 230              		@ args = 0, pretend = 0, frame = 0
 231              		@ frame_needed = 0, uses_anonymous_args = 0
 232 0000 0379     		ldrb	r3, [r0, #4]	@ zero_extendqisi2
 233 0002 012B     		cmp	r3, #1
 234 0004 23D0     		beq	.L41
 235 0006 4379     		ldrb	r3, [r0, #5]	@ zero_extendqisi2
 236 0008 0122     		movs	r2, #1
 237 000a 9342     		cmp	r3, r2
 238 000c 0271     		strb	r2, [r0, #4]
 239 000e 05D0     		beq	.L47
 240 0010 0023     		movs	r3, #0
 241 0012 0422     		movs	r2, #4
ARM GAS  D:\Programs\cygwin64\tmp\ccJ7gsOK.s 			page 5


 242 0014 8260     		str	r2, [r0, #8]
 243 0016 0371     		strb	r3, [r0, #4]
 244 0018 1846     		mov	r0, r3
 245 001a 7047     		bx	lr
 246              	.L47:
 247 001c 0223     		movs	r3, #2
 248 001e 70B5     		push	{r4, r5, r6, lr}
 249 0020 4371     		strb	r3, [r0, #5]
 250 0022 0546     		mov	r5, r0
 251 0024 FFF7FEFF 		bl	HAL_GetTick
 252 0028 0646     		mov	r6, r0
 253 002a 04E0     		b	.L39
 254              	.L40:
 255 002c FFF7FEFF 		bl	HAL_GetTick
 256 0030 801B     		subs	r0, r0, r6
 257 0032 0228     		cmp	r0, #2
 258 0034 0DD8     		bhi	.L48
 259              	.L39:
 260 0036 2A68     		ldr	r2, [r5]
 261 0038 5468     		ldr	r4, [r2, #4]
 262 003a 14F00104 		ands	r4, r4, #1
 263 003e F5D0     		beq	.L40
 264 0040 9068     		ldr	r0, [r2, #8]
 265 0042 E860     		str	r0, [r5, #12]
 266 0044 0122     		movs	r2, #1
 267 0046 0023     		movs	r3, #0
 268 0048 6A71     		strb	r2, [r5, #5]
 269 004a 2B71     		strb	r3, [r5, #4]
 270 004c 70BD     		pop	{r4, r5, r6, pc}
 271              	.L41:
 272 004e 0020     		movs	r0, #0
 273 0050 7047     		bx	lr
 274              	.L48:
 275 0052 0122     		movs	r2, #1
 276 0054 0223     		movs	r3, #2
 277 0056 6A71     		strb	r2, [r5, #5]
 278 0058 2C71     		strb	r4, [r5, #4]
 279 005a 2046     		mov	r0, r4
 280 005c AB60     		str	r3, [r5, #8]
 281 005e 70BD     		pop	{r4, r5, r6, pc}
 283              		.section	.text.HAL_RNG_GetRandomNumber_IT,"ax",%progbits
 284              		.align	1
 285              		.p2align 2,,3
 286              		.global	HAL_RNG_GetRandomNumber_IT
 287              		.syntax unified
 288              		.thumb
 289              		.thumb_func
 290              		.fpu fpv4-sp-d16
 292              	HAL_RNG_GetRandomNumber_IT:
 293              		@ args = 0, pretend = 0, frame = 0
 294              		@ frame_needed = 0, uses_anonymous_args = 0
 295              		@ link register save eliminated.
 296 0000 0279     		ldrb	r2, [r0, #4]	@ zero_extendqisi2
 297 0002 012A     		cmp	r2, #1
 298 0004 0ED0     		beq	.L51
 299 0006 0268     		ldr	r2, [r0]
 300 0008 0221     		movs	r1, #2
ARM GAS  D:\Programs\cygwin64\tmp\ccJ7gsOK.s 			page 6


 301 000a 10B4     		push	{r4}
 302 000c 4171     		strb	r1, [r0, #5]
 303 000e 0346     		mov	r3, r0
 304 0010 9068     		ldr	r0, [r2, #8]
 305 0012 1168     		ldr	r1, [r2]
 306 0014 0124     		movs	r4, #1
 307 0016 41F00801 		orr	r1, r1, #8
 308 001a 1C71     		strb	r4, [r3, #4]
 309 001c 1160     		str	r1, [r2]
 310 001e 5DF8044B 		ldr	r4, [sp], #4
 311 0022 7047     		bx	lr
 312              	.L51:
 313 0024 0220     		movs	r0, #2
 314 0026 7047     		bx	lr
 316              		.section	.text.HAL_RNG_ReadLastRandomNumber,"ax",%progbits
 317              		.align	1
 318              		.p2align 2,,3
 319              		.global	HAL_RNG_ReadLastRandomNumber
 320              		.syntax unified
 321              		.thumb
 322              		.thumb_func
 323              		.fpu fpv4-sp-d16
 325              	HAL_RNG_ReadLastRandomNumber:
 326              		@ args = 0, pretend = 0, frame = 0
 327              		@ frame_needed = 0, uses_anonymous_args = 0
 328              		@ link register save eliminated.
 329 0000 C068     		ldr	r0, [r0, #12]
 330 0002 7047     		bx	lr
 332              		.section	.text.HAL_RNG_ReadyDataCallback,"ax",%progbits
 333              		.align	1
 334              		.p2align 2,,3
 335              		.weak	HAL_RNG_ReadyDataCallback
 336              		.syntax unified
 337              		.thumb
 338              		.thumb_func
 339              		.fpu fpv4-sp-d16
 341              	HAL_RNG_ReadyDataCallback:
 342              		@ args = 0, pretend = 0, frame = 0
 343              		@ frame_needed = 0, uses_anonymous_args = 0
 344              		@ link register save eliminated.
 345 0000 7047     		bx	lr
 347 0002 00BF     		.section	.text.HAL_RNG_ErrorCallback,"ax",%progbits
 348              		.align	1
 349              		.p2align 2,,3
 350              		.weak	HAL_RNG_ErrorCallback
 351              		.syntax unified
 352              		.thumb
 353              		.thumb_func
 354              		.fpu fpv4-sp-d16
 356              	HAL_RNG_ErrorCallback:
 357              		@ args = 0, pretend = 0, frame = 0
 358              		@ frame_needed = 0, uses_anonymous_args = 0
 359              		@ link register save eliminated.
 360 0000 7047     		bx	lr
 362 0002 00BF     		.section	.text.HAL_RNG_IRQHandler,"ax",%progbits
 363              		.align	1
 364              		.p2align 2,,3
ARM GAS  D:\Programs\cygwin64\tmp\ccJ7gsOK.s 			page 7


 365              		.global	HAL_RNG_IRQHandler
 366              		.syntax unified
 367              		.thumb
 368              		.thumb_func
 369              		.fpu fpv4-sp-d16
 371              	HAL_RNG_IRQHandler:
 372              		@ args = 0, pretend = 0, frame = 0
 373              		@ frame_needed = 0, uses_anonymous_args = 0
 374 0000 0368     		ldr	r3, [r0]
 375 0002 5A68     		ldr	r2, [r3, #4]
 376 0004 10B5     		push	{r4, lr}
 377 0006 0446     		mov	r4, r0
 378 0008 9006     		lsls	r0, r2, #26
 379 000a 1FD5     		bpl	.L60
 380 000c 0823     		movs	r3, #8
 381 000e A360     		str	r3, [r4, #8]
 382              	.L61:
 383 0010 0423     		movs	r3, #4
 384 0012 6371     		strb	r3, [r4, #5]
 385 0014 2046     		mov	r0, r4
 386 0016 FFF7FEFF 		bl	HAL_RNG_ErrorCallback
 387 001a 2368     		ldr	r3, [r4]
 388 001c 6FF06002 		mvn	r2, #96
 389 0020 5A60     		str	r2, [r3, #4]
 390              	.L62:
 391 0022 5A68     		ldr	r2, [r3, #4]
 392 0024 D207     		lsls	r2, r2, #31
 393 0026 08D5     		bpl	.L59
 394 0028 1A68     		ldr	r2, [r3]
 395 002a 22F00802 		bic	r2, r2, #8
 396 002e 1A60     		str	r2, [r3]
 397 0030 9968     		ldr	r1, [r3, #8]
 398 0032 6379     		ldrb	r3, [r4, #5]	@ zero_extendqisi2
 399 0034 E160     		str	r1, [r4, #12]
 400 0036 042B     		cmp	r3, #4
 401 0038 00D1     		bne	.L73
 402              	.L59:
 403 003a 10BD     		pop	{r4, pc}
 404              	.L73:
 405 003c 0122     		movs	r2, #1
 406 003e 0023     		movs	r3, #0
 407 0040 6271     		strb	r2, [r4, #5]
 408 0042 2371     		strb	r3, [r4, #4]
 409 0044 2046     		mov	r0, r4
 410 0046 FFF7FEFF 		bl	HAL_RNG_ReadyDataCallback
 411 004a 10BD     		pop	{r4, pc}
 412              	.L60:
 413 004c 5A68     		ldr	r2, [r3, #4]
 414 004e 5106     		lsls	r1, r2, #25
 415 0050 E7D5     		bpl	.L62
 416 0052 1023     		movs	r3, #16
 417 0054 A360     		str	r3, [r4, #8]
 418 0056 DBE7     		b	.L61
 420              		.section	.text.HAL_RNG_GetState,"ax",%progbits
 421              		.align	1
 422              		.p2align 2,,3
 423              		.global	HAL_RNG_GetState
ARM GAS  D:\Programs\cygwin64\tmp\ccJ7gsOK.s 			page 8


 424              		.syntax unified
 425              		.thumb
 426              		.thumb_func
 427              		.fpu fpv4-sp-d16
 429              	HAL_RNG_GetState:
 430              		@ args = 0, pretend = 0, frame = 0
 431              		@ frame_needed = 0, uses_anonymous_args = 0
 432              		@ link register save eliminated.
 433 0000 4079     		ldrb	r0, [r0, #5]	@ zero_extendqisi2
 434 0002 7047     		bx	lr
 436              		.section	.text.HAL_RNG_GetError,"ax",%progbits
 437              		.align	1
 438              		.p2align 2,,3
 439              		.global	HAL_RNG_GetError
 440              		.syntax unified
 441              		.thumb
 442              		.thumb_func
 443              		.fpu fpv4-sp-d16
 445              	HAL_RNG_GetError:
 446              		@ args = 0, pretend = 0, frame = 0
 447              		@ frame_needed = 0, uses_anonymous_args = 0
 448              		@ link register save eliminated.
 449 0000 8068     		ldr	r0, [r0, #8]
 450 0002 7047     		bx	lr
 452              		.ident	"GCC: (GNU Tools for Arm Embedded Processors 8-2018-q4-major) 8.2.1 20181213 (release) [gcc
ARM GAS  D:\Programs\cygwin64\tmp\ccJ7gsOK.s 			page 9

