ARM GAS  D:\Programs\cygwin64\tmp\ccFYcmIV.s 			page 1


   1              		.cpu cortex-m4
   2              		.eabi_attribute 27, 1
   3              		.eabi_attribute 28, 1
   4              		.eabi_attribute 20, 1
   5              		.eabi_attribute 21, 1
   6              		.eabi_attribute 23, 3
   7              		.eabi_attribute 24, 1
   8              		.eabi_attribute 25, 1
   9              		.eabi_attribute 26, 1
  10              		.eabi_attribute 30, 2
  11              		.eabi_attribute 34, 1
  12              		.eabi_attribute 18, 4
  13              		.file	"stm32f4xx_hal_sai.c"
  14              		.text
  15              		.section	.text.HAL_SAI_MspInit,"ax",%progbits
  16              		.align	1
  17              		.p2align 2,,3
  18              		.weak	HAL_SAI_MspInit
  19              		.arch armv7e-m
  20              		.syntax unified
  21              		.thumb
  22              		.thumb_func
  23              		.fpu fpv4-sp-d16
  25              	HAL_SAI_MspInit:
  26              		@ args = 0, pretend = 0, frame = 0
  27              		@ frame_needed = 0, uses_anonymous_args = 0
  28              		@ link register save eliminated.
  29 0000 7047     		bx	lr
  31 0002 00BF     		.section	.text.HAL_SAI_Init,"ax",%progbits
  32              		.align	1
  33              		.p2align 2,,3
  34              		.global	HAL_SAI_Init
  35              		.syntax unified
  36              		.thumb
  37              		.thumb_func
  38              		.fpu fpv4-sp-d16
  40              	HAL_SAI_Init:
  41              		@ args = 0, pretend = 0, frame = 0
  42              		@ frame_needed = 0, uses_anonymous_args = 0
  43 0000 0028     		cmp	r0, #0
  44 0002 00F0C380 		beq	.L15
  45 0006 F8B5     		push	{r3, r4, r5, r6, r7, lr}
  46 0008 90F88130 		ldrb	r3, [r0, #129]	@ zero_extendqisi2
  47 000c 0446     		mov	r4, r0
  48 000e 03F0FF02 		and	r2, r3, #255
  49 0012 002B     		cmp	r3, #0
  50 0014 00F09B80 		beq	.L27
  51              	.L5:
  52 0018 5D4B     		ldr	r3, .L29
  53 001a 2168     		ldr	r1, [r4]
  54 001c 1B68     		ldr	r3, [r3]
  55 001e 5D48     		ldr	r0, .L29+4
  56 0020 0222     		movs	r2, #2
  57 0022 84F88120 		strb	r2, [r4, #129]
  58 0026 0A68     		ldr	r2, [r1]
  59 0028 A0FB0303 		umull	r0, r3, r0, r3
  60 002c 1B0B     		lsrs	r3, r3, #12
ARM GAS  D:\Programs\cygwin64\tmp\ccFYcmIV.s 			page 2


  61 002e 22F48032 		bic	r2, r2, #65536
  62 0032 9B00     		lsls	r3, r3, #2
  63 0034 0A60     		str	r2, [r1]
  64 0036 02E0     		b	.L8
  65              	.L6:
  66 0038 0A68     		ldr	r2, [r1]
  67 003a D203     		lsls	r2, r2, #15
  68 003c 08D5     		bpl	.L7
  69              	.L8:
  70 003e 13F1FF33 		adds	r3, r3, #-1
  71 0042 F9D2     		bcs	.L6
  72 0044 D4F88430 		ldr	r3, [r4, #132]
  73 0048 43F04003 		orr	r3, r3, #64
  74 004c C4F88430 		str	r3, [r4, #132]
  75              	.L7:
  76 0050 2046     		mov	r0, r4
  77 0052 FFF7FEFF 		bl	SAI_BlockSynchroConfig
  78 0056 236A     		ldr	r3, [r4, #32]
  79 0058 002B     		cmp	r3, #0
  80 005a 7DD1     		bne	.L9
  81 005c D4F824C0 		ldr	ip, [r4, #36]
  82              	.L10:
  83 0060 6368     		ldr	r3, [r4, #4]
  84 0062 226C     		ldr	r2, [r4, #64]
  85 0064 33F00205 		bics	r5, r3, #2
  86 0068 66D1     		bne	.L12
  87 006a A068     		ldr	r0, [r4, #8]
  88 006c 012A     		cmp	r2, #1
  89 006e 18BF     		it	ne
  90 0070 4FF40075 		movne	r5, #512
  91 0074 0128     		cmp	r0, #1
  92 0076 67D0     		beq	.L18
  93              	.L28:
  94 0078 20B1     		cbz	r0, .L14
  95 007a 0328     		cmp	r0, #3
  96 007c 8CBF     		ite	hi
  97 007e 0020     		movhi	r0, #0
  98 0080 4FF40060 		movls	r0, #2048
  99              	.L14:
 100 0084 D4E90E26 		ldrd	r2, r6, [r4, #56]
 101 0088 676B     		ldr	r7, [r4, #52]
 102 008a 2168     		ldr	r1, [r4]
 103 008c 3B43     		orrs	r3, r3, r7
 104 008e D1F800E0 		ldr	lr, [r1]
 105 0092 414F     		ldr	r7, .L29+8
 106 0094 1A43     		orrs	r2, r2, r3
 107 0096 3243     		orrs	r2, r2, r6
 108 0098 A66A     		ldr	r6, [r4, #40]
 109 009a 2369     		ldr	r3, [r4, #16]
 110 009c 0EEA0707 		and	r7, lr, r7
 111 00a0 0F60     		str	r7, [r1]
 112 00a2 3243     		orrs	r2, r2, r6
 113 00a4 6669     		ldr	r6, [r4, #20]
 114 00a6 0F68     		ldr	r7, [r1]
 115 00a8 1343     		orrs	r3, r3, r2
 116 00aa 3343     		orrs	r3, r3, r6
 117 00ac 3B43     		orrs	r3, r3, r7
ARM GAS  D:\Programs\cygwin64\tmp\ccFYcmIV.s 			page 3


 118 00ae 43EA0C53 		orr	r3, r3, ip, lsl #20
 119 00b2 2B43     		orrs	r3, r3, r5
 120 00b4 0343     		orrs	r3, r3, r0
 121 00b6 0B60     		str	r3, [r1]
 122 00b8 4868     		ldr	r0, [r1, #4]
 123 00ba A269     		ldr	r2, [r4, #24]
 124 00bc 636D     		ldr	r3, [r4, #84]
 125 00be E76C     		ldr	r7, [r4, #76]
 126 00c0 364E     		ldr	r6, .L29+12
 127 00c2 D4E90BC5 		ldrd	ip, r5, [r4, #44]
 128 00c6 20F46040 		bic	r0, r0, #57344
 129 00ca 20F00F00 		bic	r0, r0, #15
 130 00ce 4860     		str	r0, [r1, #4]
 131 00d0 4868     		ldr	r0, [r1, #4]
 132 00d2 42EA0C02 		orr	r2, r2, ip
 133 00d6 2A43     		orrs	r2, r2, r5
 134 00d8 0243     		orrs	r2, r2, r0
 135 00da 4A60     		str	r2, [r1, #4]
 136 00dc 8A68     		ldr	r2, [r1, #8]
 137 00de D4F850C0 		ldr	ip, [r4, #80]
 138 00e2 1640     		ands	r6, r6, r2
 139 00e4 D4E91150 		ldrd	r5, r0, [r4, #68]
 140 00e8 8E60     		str	r6, [r1, #8]
 141 00ea 8E68     		ldr	r6, [r1, #8]
 142 00ec A26D     		ldr	r2, [r4, #88]
 143 00ee 3B43     		orrs	r3, r3, r7
 144 00f0 43EA0C03 		orr	r3, r3, ip
 145 00f4 3343     		orrs	r3, r3, r6
 146 00f6 013D     		subs	r5, r5, #1
 147 00f8 2B43     		orrs	r3, r3, r5
 148 00fa 0138     		subs	r0, r0, #1
 149 00fc 43EA0023 		orr	r3, r3, r0, lsl #8
 150 0100 8B60     		str	r3, [r1, #8]
 151 0102 C868     		ldr	r0, [r1, #12]
 152 0104 E36D     		ldr	r3, [r4, #92]
 153 0106 4FF22005 		movw	r5, #61472
 154 010a 2840     		ands	r0, r0, r5
 155 010c C860     		str	r0, [r1, #12]
 156 010e CE68     		ldr	r6, [r1, #12]
 157 0110 D4E91805 		ldrd	r0, r5, [r4, #96]
 158 0114 1343     		orrs	r3, r3, r2
 159 0116 3343     		orrs	r3, r3, r6
 160 0118 43EA0543 		orr	r3, r3, r5, lsl #16
 161 011c 0138     		subs	r0, r0, #1
 162 011e 0022     		movs	r2, #0
 163 0120 43EA0023 		orr	r3, r3, r0, lsl #8
 164 0124 0125     		movs	r5, #1
 165 0126 CB60     		str	r3, [r1, #12]
 166 0128 1046     		mov	r0, r2
 167 012a C4F88420 		str	r2, [r4, #132]
 168 012e 84F88020 		strb	r2, [r4, #128]
 169 0132 84F88150 		strb	r5, [r4, #129]
 170 0136 F8BD     		pop	{r3, r4, r5, r6, r7, pc}
 171              	.L12:
 172 0138 A068     		ldr	r0, [r4, #8]
 173 013a 012A     		cmp	r2, #1
 174 013c 14BF     		ite	ne
ARM GAS  D:\Programs\cygwin64\tmp\ccFYcmIV.s 			page 4


 175 013e 0025     		movne	r5, #0
 176 0140 4FF40075 		moveq	r5, #512
 177 0144 0128     		cmp	r0, #1
 178 0146 97D1     		bne	.L28
 179              	.L18:
 180 0148 4FF48060 		mov	r0, #1024
 181 014c 9AE7     		b	.L14
 182              	.L27:
 183 014e 80F88020 		strb	r2, [r0, #128]
 184 0152 FFF7FEFF 		bl	HAL_SAI_MspInit
 185 0156 5FE7     		b	.L5
 186              	.L9:
 187 0158 2046     		mov	r0, r4
 188 015a FFF7FEFF 		bl	SAI_GetInputClock
 189 015e 216A     		ldr	r1, [r4, #32]
 190 0160 0F4B     		ldr	r3, .L29+16
 191 0162 00EB8000 		add	r0, r0, r0, lsl #2
 192 0166 4902     		lsls	r1, r1, #9
 193 0168 4200     		lsls	r2, r0, #1
 194 016a B2FBF1F2 		udiv	r2, r2, r1
 195 016e A3FB0213 		umull	r1, r3, r3, r2
 196 0172 4FEAD30C 		lsr	ip, r3, #3
 197 0176 0CEB8C03 		add	r3, ip, ip, lsl #2
 198 017a A2EB4302 		sub	r2, r2, r3, lsl #1
 199 017e 092A     		cmp	r2, #9
 200 0180 08BF     		it	eq
 201 0182 0CF1010C 		addeq	ip, ip, #1
 202 0186 C4F824C0 		str	ip, [r4, #36]
 203 018a 69E7     		b	.L10
 204              	.L15:
 205 018c 0120     		movs	r0, #1
 206 018e 7047     		bx	lr
 207              	.L30:
 208              		.align	2
 209              	.L29:
 210 0190 00000000 		.word	SystemCoreClock
 211 0194 1BECCB95 		.word	-1781797861
 212 0198 10C005FF 		.word	-16400368
 213 019c 0080F8FF 		.word	-491520
 214 01a0 CDCCCCCC 		.word	-858993459
 216              		.section	.text.HAL_SAI_InitProtocol,"ax",%progbits
 217              		.align	1
 218              		.p2align 2,,3
 219              		.global	HAL_SAI_InitProtocol
 220              		.syntax unified
 221              		.thumb
 222              		.thumb_func
 223              		.fpu fpv4-sp-d16
 225              	HAL_SAI_InitProtocol:
 226              		@ args = 0, pretend = 0, frame = 0
 227              		@ frame_needed = 0, uses_anonymous_args = 0
 228              		@ link register save eliminated.
 229 0000 30B4     		push	{r4, r5}
 230 0002 0429     		cmp	r1, #4
 231 0004 04D8     		bhi	.L36
 232 0006 DFE801F0 		tbb	[pc, r1]
 233              	.L34:
ARM GAS  D:\Programs\cygwin64\tmp\ccFYcmIV.s 			page 5


 234 000a 29       		.byte	(.L35-.L34)/2
 235 000b 29       		.byte	(.L35-.L34)/2
 236 000c 29       		.byte	(.L35-.L34)/2
 237 000d 06       		.byte	(.L33-.L34)/2
 238 000e 06       		.byte	(.L33-.L34)/2
 239 000f 00       		.p2align 1
 240              	.L36:
 241 0010 0120     		movs	r0, #1
 242 0012 30BC     		pop	{r4, r5}
 243 0014 7047     		bx	lr
 244              	.L33:
 245 0016 4468     		ldr	r4, [r0, #4]
 246 0018 0366     		str	r3, [r0, #96]
 247 001a 34F00204 		bics	r4, r4, #2
 248 001e 0CBF     		ite	eq
 249 0020 0125     		moveq	r5, #1
 250 0022 0025     		movne	r5, #0
 251 0024 0429     		cmp	r1, #4
 252 0026 08BF     		it	eq
 253 0028 0124     		moveq	r4, #1
 254 002a 4FF00001 		mov	r1, #0
 255 002e 18BF     		it	ne
 256 0030 0D24     		movne	r4, #13
 257 0032 0564     		str	r5, [r0, #64]
 258 0034 8464     		str	r4, [r0, #72]
 259 0036 4FF40035 		mov	r5, #131072
 260 003a 4FF48024 		mov	r4, #262144
 261 003e 4163     		str	r1, [r0, #52]
 262 0040 C163     		str	r1, [r0, #60]
 263 0042 C164     		str	r1, [r0, #76]
 264 0044 8165     		str	r1, [r0, #88]
 265 0046 4FF6FF71 		movw	r1, #65535
 266 004a C0E91454 		strd	r5, r4, [r0, #80]
 267 004e 4166     		str	r1, [r0, #100]
 268 0050 032A     		cmp	r2, #3
 269 0052 DDD8     		bhi	.L36
 270 0054 DFE802F0 		tbb	[pc, r2]
 271              	.L49:
 272 0058 31       		.byte	(.L52-.L49)/2
 273 0059 38       		.byte	(.L51-.L49)/2
 274 005a 3E       		.byte	(.L50-.L49)/2
 275 005b 28       		.byte	(.L48-.L49)/2
 276              		.p2align 1
 277              	.L35:
 278 005c 4468     		ldr	r4, [r0, #4]
 279 005e 0366     		str	r3, [r0, #96]
 280 0060 34F00204 		bics	r4, r4, #2
 281 0064 4FF00004 		mov	r4, #0
 282 0068 14BF     		ite	ne
 283 006a 0125     		movne	r5, #1
 284 006c 0025     		moveq	r5, #0
 285 006e 4463     		str	r4, [r0, #52]
 286 0070 C463     		str	r4, [r0, #60]
 287 0072 8465     		str	r4, [r0, #88]
 288 0074 4FF6FF74 		movw	r4, #65535
 289 0078 0564     		str	r5, [r0, #64]
 290 007a 4466     		str	r4, [r0, #100]
ARM GAS  D:\Programs\cygwin64\tmp\ccFYcmIV.s 			page 6


 291 007c 4FF48035 		mov	r5, #65536
 292 0080 DC07     		lsls	r4, r3, #31
 293 0082 C564     		str	r5, [r0, #76]
 294 0084 C4D4     		bmi	.L36
 295 0086 4C1E     		subs	r4, r1, #1
 296 0088 022C     		cmp	r4, #2
 297 008a 35BF     		itete	cc
 298 008c 0025     		movcc	r5, #0
 299 008e 4FF48025 		movcs	r5, #262144
 300 0092 4FF40034 		movcc	r4, #131072
 301 0096 0024     		movcs	r4, #0
 302 0098 C0E91445 		strd	r4, r5, [r0, #80]
 303 009c 032A     		cmp	r2, #3
 304 009e B7D8     		bhi	.L36
 305 00a0 DFE802F0 		tbb	[pc, r2]
 306              	.L39:
 307 00a4 3A       		.byte	(.L42-.L39)/2
 308 00a5 1F       		.byte	(.L41-.L39)/2
 309 00a6 2C       		.byte	(.L40-.L39)/2
 310 00a7 44       		.byte	(.L38-.L39)/2
 311              		.p2align 1
 312              	.L48:
 313 00a8 5B01     		lsls	r3, r3, #5
 314 00aa E021     		movs	r1, #224
 315 00ac 8022     		movs	r2, #128
 316 00ae 4364     		str	r3, [r0, #68]
 317 00b0 8163     		str	r1, [r0, #56]
 318 00b2 C265     		str	r2, [r0, #92]
 319              	.L46:
 320 00b4 30BC     		pop	{r4, r5}
 321 00b6 FFF7FEBF 		b	HAL_SAI_Init
 322              	.L52:
 323 00ba 1B01     		lsls	r3, r3, #4
 324 00bc 8021     		movs	r1, #128
 325 00be 4022     		movs	r2, #64
 326 00c0 4364     		str	r3, [r0, #68]
 327 00c2 8163     		str	r1, [r0, #56]
 328 00c4 C265     		str	r2, [r0, #92]
 329 00c6 F5E7     		b	.L46
 330              	.L51:
 331 00c8 8022     		movs	r2, #128
 332 00ca 5B01     		lsls	r3, r3, #5
 333 00cc 4364     		str	r3, [r0, #68]
 334 00ce 8263     		str	r2, [r0, #56]
 335 00d0 C265     		str	r2, [r0, #92]
 336 00d2 EFE7     		b	.L46
 337              	.L50:
 338 00d4 5B01     		lsls	r3, r3, #5
 339 00d6 C021     		movs	r1, #192
 340 00d8 8022     		movs	r2, #128
 341 00da 4364     		str	r3, [r0, #68]
 342 00dc 8163     		str	r1, [r0, #56]
 343 00de C265     		str	r2, [r0, #92]
 344 00e0 E8E7     		b	.L46
 345              	.L41:
 346 00e2 5B08     		lsrs	r3, r3, #1
 347 00e4 9C01     		lsls	r4, r3, #6
ARM GAS  D:\Programs\cygwin64\tmp\ccFYcmIV.s 			page 7


 348 00e6 8022     		movs	r2, #128
 349 00e8 5B01     		lsls	r3, r3, #5
 350 00ea 0229     		cmp	r1, #2
 351 00ec C0E91143 		strd	r4, r3, [r0, #68]
 352 00f0 8263     		str	r2, [r0, #56]
 353 00f2 C265     		str	r2, [r0, #92]
 354 00f4 DED1     		bne	.L46
 355 00f6 1023     		movs	r3, #16
 356 00f8 8365     		str	r3, [r0, #88]
 357 00fa DBE7     		b	.L46
 358              	.L40:
 359 00fc 5B08     		lsrs	r3, r3, #1
 360 00fe 9D01     		lsls	r5, r3, #6
 361 0100 C024     		movs	r4, #192
 362 0102 5B01     		lsls	r3, r3, #5
 363 0104 8022     		movs	r2, #128
 364 0106 0229     		cmp	r1, #2
 365 0108 C0E91153 		strd	r5, r3, [r0, #68]
 366 010c 8463     		str	r4, [r0, #56]
 367 010e C265     		str	r2, [r0, #92]
 368 0110 D0D1     		bne	.L46
 369 0112 0823     		movs	r3, #8
 370 0114 8365     		str	r3, [r0, #88]
 371 0116 CDE7     		b	.L46
 372              	.L42:
 373 0118 5B08     		lsrs	r3, r3, #1
 374 011a 5C01     		lsls	r4, r3, #5
 375 011c 8021     		movs	r1, #128
 376 011e 1B01     		lsls	r3, r3, #4
 377 0120 4022     		movs	r2, #64
 378 0122 C0E91143 		strd	r4, r3, [r0, #68]
 379 0126 8163     		str	r1, [r0, #56]
 380 0128 C265     		str	r2, [r0, #92]
 381 012a C3E7     		b	.L46
 382              	.L38:
 383 012c 5B08     		lsrs	r3, r3, #1
 384 012e 9C01     		lsls	r4, r3, #6
 385 0130 E021     		movs	r1, #224
 386 0132 5B01     		lsls	r3, r3, #5
 387 0134 8022     		movs	r2, #128
 388 0136 C0E91143 		strd	r4, r3, [r0, #68]
 389 013a 8163     		str	r1, [r0, #56]
 390 013c C265     		str	r2, [r0, #92]
 391 013e B9E7     		b	.L46
 393              		.section	.text.HAL_SAI_MspDeInit,"ax",%progbits
 394              		.align	1
 395              		.p2align 2,,3
 396              		.weak	HAL_SAI_MspDeInit
 397              		.syntax unified
 398              		.thumb
 399              		.thumb_func
 400              		.fpu fpv4-sp-d16
 402              	HAL_SAI_MspDeInit:
 403              		@ args = 0, pretend = 0, frame = 0
 404              		@ frame_needed = 0, uses_anonymous_args = 0
 405              		@ link register save eliminated.
 406 0000 7047     		bx	lr
ARM GAS  D:\Programs\cygwin64\tmp\ccFYcmIV.s 			page 8


 408 0002 00BF     		.section	.text.HAL_SAI_DeInit,"ax",%progbits
 409              		.align	1
 410              		.p2align 2,,3
 411              		.global	HAL_SAI_DeInit
 412              		.syntax unified
 413              		.thumb
 414              		.thumb_func
 415              		.fpu fpv4-sp-d16
 417              	HAL_SAI_DeInit:
 418              		@ args = 0, pretend = 0, frame = 0
 419              		@ frame_needed = 0, uses_anonymous_args = 0
 420 0000 80B3     		cbz	r0, .L63
 421 0002 38B5     		push	{r3, r4, r5, lr}
 422 0004 0168     		ldr	r1, [r0]
 423 0006 184B     		ldr	r3, .L69
 424 0008 184C     		ldr	r4, .L69+4
 425 000a 1B68     		ldr	r3, [r3]
 426 000c 0222     		movs	r2, #2
 427 000e 80F88120 		strb	r2, [r0, #129]
 428 0012 0025     		movs	r5, #0
 429 0014 4FF0FF32 		mov	r2, #-1
 430 0018 0D61     		str	r5, [r1, #16]
 431 001a 8A61     		str	r2, [r1, #24]
 432 001c 0A68     		ldr	r2, [r1]
 433 001e A4FB0343 		umull	r4, r3, r4, r3
 434 0022 22F48032 		bic	r2, r2, #65536
 435 0026 1B0B     		lsrs	r3, r3, #12
 436 0028 0A60     		str	r2, [r1]
 437 002a 9B00     		lsls	r3, r3, #2
 438 002c 02E0     		b	.L62
 439              	.L60:
 440 002e 0A68     		ldr	r2, [r1]
 441 0030 D203     		lsls	r2, r2, #15
 442 0032 08D5     		bpl	.L61
 443              	.L62:
 444 0034 13F1FF33 		adds	r3, r3, #-1
 445 0038 F9D2     		bcs	.L60
 446 003a D0F88430 		ldr	r3, [r0, #132]
 447 003e 43F04003 		orr	r3, r3, #64
 448 0042 C0F88430 		str	r3, [r0, #132]
 449              	.L61:
 450 0046 4B68     		ldr	r3, [r1, #4]
 451 0048 43F00803 		orr	r3, r3, #8
 452 004c 0446     		mov	r4, r0
 453 004e 4B60     		str	r3, [r1, #4]
 454 0050 FFF7FEFF 		bl	HAL_SAI_MspDeInit
 455 0054 0020     		movs	r0, #0
 456 0056 C4F88400 		str	r0, [r4, #132]
 457 005a 84F88000 		strb	r0, [r4, #128]
 458 005e 84F88100 		strb	r0, [r4, #129]
 459 0062 38BD     		pop	{r3, r4, r5, pc}
 460              	.L63:
 461 0064 0120     		movs	r0, #1
 462 0066 7047     		bx	lr
 463              	.L70:
 464              		.align	2
 465              	.L69:
ARM GAS  D:\Programs\cygwin64\tmp\ccFYcmIV.s 			page 9


 466 0068 00000000 		.word	SystemCoreClock
 467 006c 1BECCB95 		.word	-1781797861
 469              		.section	.text.HAL_SAI_Transmit,"ax",%progbits
 470              		.align	1
 471              		.p2align 2,,3
 472              		.global	HAL_SAI_Transmit
 473              		.syntax unified
 474              		.thumb
 475              		.thumb_func
 476              		.fpu fpv4-sp-d16
 478              	HAL_SAI_Transmit:
 479              		@ args = 0, pretend = 0, frame = 0
 480              		@ frame_needed = 0, uses_anonymous_args = 0
 481 0000 2DE9F041 		push	{r4, r5, r6, r7, r8, lr}
 482 0004 8846     		mov	r8, r1
 483 0006 0546     		mov	r5, r0
 484 0008 1446     		mov	r4, r2
 485 000a 1E46     		mov	r6, r3
 486 000c FFF7FEFF 		bl	HAL_GetTick
 487 0010 B8F1000F 		cmp	r8, #0
 488 0014 55D0     		beq	.L120
 489 0016 002C     		cmp	r4, #0
 490 0018 53D0     		beq	.L120
 491 001a 95F88120 		ldrb	r2, [r5, #129]	@ zero_extendqisi2
 492 001e D2B2     		uxtb	r2, r2
 493 0020 012A     		cmp	r2, #1
 494 0022 4BD1     		bne	.L122
 495 0024 95F88030 		ldrb	r3, [r5, #128]	@ zero_extendqisi2
 496 0028 012B     		cmp	r3, #1
 497 002a 47D0     		beq	.L122
 498 002c 1223     		movs	r3, #18
 499 002e 85F88130 		strb	r3, [r5, #129]
 500 0032 0021     		movs	r1, #0
 501 0034 2B68     		ldr	r3, [r5]
 502 0036 C5F88410 		str	r1, [r5, #132]
 503 003a 85F88020 		strb	r2, [r5, #128]
 504 003e 64F30F01 		bfi	r1, r4, #0, #16
 505 0042 1A68     		ldr	r2, [r3]
 506 0044 64F31F41 		bfi	r1, r4, #16, #16
 507 0048 C5E91A81 		strd	r8, r1, [r5, #104]
 508 004c D103     		lsls	r1, r2, #15
 509 004e 0746     		mov	r7, r0
 510 0050 40F18680 		bpl	.L163
 511 0054 721C     		adds	r2, r6, #1
 512 0056 51D0     		beq	.L116
 513 0058 002E     		cmp	r6, #0
 514 005a 00F0A380 		beq	.L117
 515              	.L118:
 516 005e 2CB3     		cbz	r4, .L88
 517 0060 5A69     		ldr	r2, [r3, #20]
 518 0062 02F4E022 		and	r2, r2, #458752
 519 0066 B2F5A02F 		cmp	r2, #327680
 520 006a 15D0     		beq	.L164
 521              	.L91:
 522 006c A96B     		ldr	r1, [r5, #56]
 523 006e AA6E     		ldr	r2, [r5, #104]
 524 0070 4029     		cmp	r1, #64
ARM GAS  D:\Programs\cygwin64\tmp\ccFYcmIV.s 			page 10


 525 0072 60D0     		beq	.L165
 526 0074 8029     		cmp	r1, #128
 527 0076 59D9     		bls	.L96
 528 0078 52F8041B 		ldr	r1, [r2], #4
 529 007c D961     		str	r1, [r3, #28]
 530 007e AA66     		str	r2, [r5, #104]
 531              	.L97:
 532 0080 013C     		subs	r4, r4, #1
 533 0082 A4B2     		uxth	r4, r4
 534 0084 A5F86E40 		strh	r4, [r5, #110]	@ movhi
 535 0088 84B1     		cbz	r4, .L88
 536              	.L166:
 537 008a 2B68     		ldr	r3, [r5]
 538 008c 5A69     		ldr	r2, [r3, #20]
 539 008e 02F4E022 		and	r2, r2, #458752
 540 0092 B2F5A02F 		cmp	r2, #327680
 541 0096 E9D1     		bne	.L91
 542              	.L164:
 543 0098 FFF7FEFF 		bl	HAL_GetTick
 544 009c C01B     		subs	r0, r0, r7
 545 009e 8642     		cmp	r6, r0
 546 00a0 C0F0CE80 		bcc	.L92
 547 00a4 B5F86E40 		ldrh	r4, [r5, #110]
 548 00a8 002C     		cmp	r4, #0
 549 00aa EED1     		bne	.L166
 550              	.L88:
 551 00ac 0123     		movs	r3, #1
 552 00ae 0020     		movs	r0, #0
 553 00b0 85F88130 		strb	r3, [r5, #129]
 554 00b4 85F88000 		strb	r0, [r5, #128]
 555 00b8 BDE8F081 		pop	{r4, r5, r6, r7, r8, pc}
 556              	.L122:
 557 00bc 0220     		movs	r0, #2
 558              	.L159:
 559 00be BDE8F081 		pop	{r4, r5, r6, r7, r8, pc}
 560              	.L120:
 561 00c2 0120     		movs	r0, #1
 562 00c4 BDE8F081 		pop	{r4, r5, r6, r7, r8, pc}
 563              	.L81:
 564 00c8 002C     		cmp	r4, #0
 565 00ca 00F0DF80 		beq	.L161
 566              	.L82:
 567 00ce 58F8022B 		ldr	r2, [r8], #2
 568 00d2 DA61     		str	r2, [r3, #28]
 569 00d4 5969     		ldr	r1, [r3, #20]
 570 00d6 01F4E021 		and	r1, r1, #458752
 571 00da 013C     		subs	r4, r4, #1
 572 00dc B1F5A02F 		cmp	r1, #327680
 573 00e0 A4B2     		uxth	r4, r4
 574 00e2 F1D1     		bne	.L81
 575              	.L162:
 576 00e4 C5F86880 		str	r8, [r5, #104]
 577 00e8 A5F86E40 		strh	r4, [r5, #110]	@ movhi
 578              	.L74:
 579 00ec 1A68     		ldr	r2, [r3]
 580 00ee 42F48032 		orr	r2, r2, #65536
 581 00f2 1A60     		str	r2, [r3]
ARM GAS  D:\Programs\cygwin64\tmp\ccFYcmIV.s 			page 11


 582 00f4 721C     		adds	r2, r6, #1
 583 00f6 50D1     		bne	.L167
 584 00f8 002C     		cmp	r4, #0
 585 00fa D7D0     		beq	.L88
 586              	.L116:
 587 00fc A86B     		ldr	r0, [r5, #56]
 588              	.L99:
 589 00fe 5A69     		ldr	r2, [r3, #20]
 590 0100 02F4E022 		and	r2, r2, #458752
 591 0104 B2F5A02F 		cmp	r2, #327680
 592 0108 F9D0     		beq	.L99
 593 010a AA6E     		ldr	r2, [r5, #104]
 594 010c 4028     		cmp	r0, #64
 595 010e 1146     		mov	r1, r2
 596 0110 1ED0     		beq	.L168
 597 0112 8028     		cmp	r0, #128
 598 0114 17D9     		bls	.L103
 599 0116 51F8042B 		ldr	r2, [r1], #4
 600 011a DA61     		str	r2, [r3, #28]
 601 011c A966     		str	r1, [r5, #104]
 602              	.L104:
 603 011e 013C     		subs	r4, r4, #1
 604 0120 A4B2     		uxth	r4, r4
 605 0122 A5F86E40 		strh	r4, [r5, #110]	@ movhi
 606 0126 002C     		cmp	r4, #0
 607 0128 E9D1     		bne	.L99
 608 012a BFE7     		b	.L88
 609              	.L96:
 610 012c 32F8021B 		ldrh	r1, [r2], #2
 611 0130 D961     		str	r1, [r3, #28]
 612 0132 AA66     		str	r2, [r5, #104]
 613 0134 A4E7     		b	.L97
 614              	.L165:
 615 0136 E96A     		ldr	r1, [r5, #44]
 616 0138 0029     		cmp	r1, #0
 617 013a F7D1     		bne	.L96
 618 013c 511C     		adds	r1, r2, #1
 619 013e A966     		str	r1, [r5, #104]
 620 0140 1278     		ldrb	r2, [r2]	@ zero_extendqisi2
 621 0142 DA61     		str	r2, [r3, #28]
 622 0144 9CE7     		b	.L97
 623              	.L103:
 624 0146 32F8021B 		ldrh	r1, [r2], #2
 625 014a D961     		str	r1, [r3, #28]
 626 014c AA66     		str	r2, [r5, #104]
 627 014e E6E7     		b	.L104
 628              	.L168:
 629 0150 E96A     		ldr	r1, [r5, #44]
 630 0152 561C     		adds	r6, r2, #1
 631 0154 0029     		cmp	r1, #0
 632 0156 F6D1     		bne	.L103
 633 0158 AE66     		str	r6, [r5, #104]
 634 015a 1278     		ldrb	r2, [r2]	@ zero_extendqisi2
 635 015c DA61     		str	r2, [r3, #28]
 636 015e DEE7     		b	.L104
 637              	.L163:
 638 0160 5A69     		ldr	r2, [r3, #20]
ARM GAS  D:\Programs\cygwin64\tmp\ccFYcmIV.s 			page 12


 639 0162 02F4E022 		and	r2, r2, #458752
 640 0166 B2F5A02F 		cmp	r2, #327680
 641 016a BFD0     		beq	.L74
 642 016c A86B     		ldr	r0, [r5, #56]
 643 016e 4028     		cmp	r0, #64
 644 0170 6DD0     		beq	.L75
 645 0172 8028     		cmp	r0, #128
 646 0174 B5F86E40 		ldrh	r4, [r5, #110]
 647 0178 03D8     		bhi	.L79
 648 017a A8E7     		b	.L82
 649              	.L77:
 650 017c 002C     		cmp	r4, #0
 651 017e 00F08580 		beq	.L161
 652              	.L79:
 653 0182 58F8042B 		ldr	r2, [r8], #4
 654 0186 DA61     		str	r2, [r3, #28]
 655 0188 5969     		ldr	r1, [r3, #20]
 656 018a 01F4E021 		and	r1, r1, #458752
 657 018e 013C     		subs	r4, r4, #1
 658 0190 B1F5A02F 		cmp	r1, #327680
 659 0194 A4B2     		uxth	r4, r4
 660 0196 F1D1     		bne	.L77
 661 0198 A4E7     		b	.L162
 662              	.L167:
 663 019a 002E     		cmp	r6, #0
 664 019c 7FF45FAF 		bne	.L118
 665 01a0 002C     		cmp	r4, #0
 666 01a2 83D0     		beq	.L88
 667              	.L117:
 668 01a4 5A69     		ldr	r2, [r3, #20]
 669 01a6 02F4E022 		and	r2, r2, #458752
 670 01aa B2F5A02F 		cmp	r2, #327680
 671 01ae 1946     		mov	r1, r3
 672 01b0 19D0     		beq	.L111
 673 01b2 AE6B     		ldr	r6, [r5, #56]
 674              	.L115:
 675 01b4 AA6E     		ldr	r2, [r5, #104]
 676 01b6 402E     		cmp	r6, #64
 677 01b8 1046     		mov	r0, r2
 678 01ba 1146     		mov	r1, r2
 679 01bc 6FD0     		beq	.L169
 680 01be 802E     		cmp	r6, #128
 681 01c0 40D9     		bls	.L107
 682 01c2 51F8042B 		ldr	r2, [r1], #4
 683 01c6 DA61     		str	r2, [r3, #28]
 684 01c8 A966     		str	r1, [r5, #104]
 685              	.L108:
 686 01ca 013C     		subs	r4, r4, #1
 687 01cc A4B2     		uxth	r4, r4
 688 01ce 1946     		mov	r1, r3
 689 01d0 A5F86E40 		strh	r4, [r5, #110]	@ movhi
 690 01d4 002C     		cmp	r4, #0
 691 01d6 3FF469AF 		beq	.L88
 692 01da 5A69     		ldr	r2, [r3, #20]
 693 01dc 02F4E022 		and	r2, r2, #458752
 694 01e0 B2F5A02F 		cmp	r2, #327680
 695 01e4 E6D1     		bne	.L115
ARM GAS  D:\Programs\cygwin64\tmp\ccFYcmIV.s 			page 13


 696              	.L111:
 697 01e6 D5F88420 		ldr	r2, [r5, #132]
 698 01ea 314B     		ldr	r3, .L170
 699 01ec 3148     		ldr	r0, .L170+4
 700 01ee 1B68     		ldr	r3, [r3]
 701 01f0 42F04002 		orr	r2, r2, #64
 702 01f4 4FF0FF34 		mov	r4, #-1
 703 01f8 C5F88420 		str	r2, [r5, #132]
 704 01fc 8C61     		str	r4, [r1, #24]
 705 01fe 0A68     		ldr	r2, [r1]
 706 0200 A0FB0303 		umull	r0, r3, r0, r3
 707 0204 22F48032 		bic	r2, r2, #65536
 708 0208 1B0B     		lsrs	r3, r3, #12
 709 020a 0A60     		str	r2, [r1]
 710 020c 9B00     		lsls	r3, r3, #2
 711 020e 02E0     		b	.L114
 712              	.L112:
 713 0210 0A68     		ldr	r2, [r1]
 714 0212 D003     		lsls	r0, r2, #15
 715 0214 08D5     		bpl	.L113
 716              	.L114:
 717 0216 13F1FF33 		adds	r3, r3, #-1
 718 021a F9D2     		bcs	.L112
 719 021c D5F88430 		ldr	r3, [r5, #132]
 720 0220 43F04003 		orr	r3, r3, #64
 721 0224 C5F88430 		str	r3, [r5, #132]
 722              	.L113:
 723 0228 4B68     		ldr	r3, [r1, #4]
 724 022a 0122     		movs	r2, #1
 725 022c 43F00803 		orr	r3, r3, #8
 726 0230 0024     		movs	r4, #0
 727 0232 4B60     		str	r3, [r1, #4]
 728 0234 1046     		mov	r0, r2
 729 0236 85F88120 		strb	r2, [r5, #129]
 730 023a 85F88040 		strb	r4, [r5, #128]
 731 023e 3EE7     		b	.L159
 732              	.L92:
 733 0240 2968     		ldr	r1, [r5]
 734 0242 D0E7     		b	.L111
 735              	.L107:
 736 0244 30F8022B 		ldrh	r2, [r0], #2
 737 0248 DA61     		str	r2, [r3, #28]
 738 024a A866     		str	r0, [r5, #104]
 739 024c BDE7     		b	.L108
 740              	.L75:
 741 024e E96A     		ldr	r1, [r5, #44]
 742 0250 12E0     		b	.L86
 743              	.L83:
 744 0252 AA66     		str	r2, [r5, #104]
 745 0254 98F80000 		ldrb	r0, [r8]	@ zero_extendqisi2
 746 0258 D861     		str	r0, [r3, #28]
 747 025a 9046     		mov	r8, r2
 748              	.L84:
 749 025c B5F86E40 		ldrh	r4, [r5, #110]
 750 0260 5A69     		ldr	r2, [r3, #20]
 751 0262 013C     		subs	r4, r4, #1
 752 0264 02F4E022 		and	r2, r2, #458752
ARM GAS  D:\Programs\cygwin64\tmp\ccFYcmIV.s 			page 14


 753 0268 A4B2     		uxth	r4, r4
 754 026a B2F5A02F 		cmp	r2, #327680
 755 026e A5F86E40 		strh	r4, [r5, #110]	@ movhi
 756 0272 3FF43BAF 		beq	.L74
 757 0276 6CB1     		cbz	r4, .L80
 758              	.L86:
 759 0278 08F10102 		add	r2, r8, #1
 760 027c 0029     		cmp	r1, #0
 761 027e E8D0     		beq	.L83
 762 0280 58F8022B 		ldr	r2, [r8], #2
 763 0284 DA61     		str	r2, [r3, #28]
 764 0286 C5F86880 		str	r8, [r5, #104]
 765 028a E7E7     		b	.L84
 766              	.L161:
 767 028c C5F86880 		str	r8, [r5, #104]
 768 0290 A5F86E40 		strh	r4, [r5, #110]	@ movhi
 769              	.L80:
 770 0294 1A68     		ldr	r2, [r3]
 771 0296 42F48032 		orr	r2, r2, #65536
 772 029a 1A60     		str	r2, [r3]
 773 029c 06E7     		b	.L88
 774              	.L169:
 775 029e E96A     		ldr	r1, [r5, #44]
 776 02a0 571C     		adds	r7, r2, #1
 777 02a2 0029     		cmp	r1, #0
 778 02a4 CED1     		bne	.L107
 779 02a6 AF66     		str	r7, [r5, #104]
 780 02a8 1278     		ldrb	r2, [r2]	@ zero_extendqisi2
 781 02aa DA61     		str	r2, [r3, #28]
 782 02ac 8DE7     		b	.L108
 783              	.L171:
 784 02ae 00BF     		.align	2
 785              	.L170:
 786 02b0 00000000 		.word	SystemCoreClock
 787 02b4 1BECCB95 		.word	-1781797861
 789              		.section	.text.HAL_SAI_Receive,"ax",%progbits
 790              		.align	1
 791              		.p2align 2,,3
 792              		.global	HAL_SAI_Receive
 793              		.syntax unified
 794              		.thumb
 795              		.thumb_func
 796              		.fpu fpv4-sp-d16
 798              	HAL_SAI_Receive:
 799              		@ args = 0, pretend = 0, frame = 0
 800              		@ frame_needed = 0, uses_anonymous_args = 0
 801 0000 2DE9F041 		push	{r4, r5, r6, r7, r8, lr}
 802 0004 8846     		mov	r8, r1
 803 0006 0446     		mov	r4, r0
 804 0008 1546     		mov	r5, r2
 805 000a 1E46     		mov	r6, r3
 806 000c FFF7FEFF 		bl	HAL_GetTick
 807 0010 B8F1000F 		cmp	r8, #0
 808 0014 00F08A80 		beq	.L204
 809 0018 002D     		cmp	r5, #0
 810 001a 00F08780 		beq	.L204
 811 001e 94F88130 		ldrb	r3, [r4, #129]	@ zero_extendqisi2
ARM GAS  D:\Programs\cygwin64\tmp\ccFYcmIV.s 			page 15


 812 0022 DBB2     		uxtb	r3, r3
 813 0024 012B     		cmp	r3, #1
 814 0026 45D1     		bne	.L206
 815 0028 94F88020 		ldrb	r2, [r4, #128]	@ zero_extendqisi2
 816 002c 012A     		cmp	r2, #1
 817 002e 41D0     		beq	.L206
 818 0030 2222     		movs	r2, #34
 819 0032 84F88120 		strb	r2, [r4, #129]
 820 0036 0021     		movs	r1, #0
 821 0038 2268     		ldr	r2, [r4]
 822 003a C4F88410 		str	r1, [r4, #132]
 823 003e 0746     		mov	r7, r0
 824 0040 65F30F01 		bfi	r1, r5, #0, #16
 825 0044 1068     		ldr	r0, [r2]
 826 0046 84F88030 		strb	r3, [r4, #128]
 827 004a 65F31F41 		bfi	r1, r5, #16, #16
 828 004e C4E91A81 		strd	r8, r1, [r4, #104]
 829 0052 C103     		lsls	r1, r0, #15
 830 0054 1346     		mov	r3, r2
 831 0056 73D5     		bpl	.L222
 832              	.L174:
 833 0058 701C     		adds	r0, r6, #1
 834 005a 2ED0     		beq	.L182
 835 005c 002E     		cmp	r6, #0
 836 005e 00F0A380 		beq	.L183
 837 0062 5A69     		ldr	r2, [r3, #20]
 838 0064 12F4E02F 		tst	r2, #458752
 839 0068 0CD1     		bne	.L184
 840              	.L223:
 841 006a FFF7FEFF 		bl	HAL_GetTick
 842 006e C01B     		subs	r0, r0, r7
 843 0070 8642     		cmp	r6, r0
 844 0072 6AD3     		bcc	.L185
 845 0074 B4F86E50 		ldrh	r5, [r4, #110]
 846 0078 A5B1     		cbz	r5, .L179
 847              	.L225:
 848 007a 2368     		ldr	r3, [r4]
 849 007c 5A69     		ldr	r2, [r3, #20]
 850 007e 12F4E02F 		tst	r2, #458752
 851 0082 F2D0     		beq	.L223
 852              	.L184:
 853 0084 A16B     		ldr	r1, [r4, #56]
 854 0086 A26E     		ldr	r2, [r4, #104]
 855 0088 4029     		cmp	r1, #64
 856 008a 45D0     		beq	.L224
 857 008c 8029     		cmp	r1, #128
 858 008e 3CD9     		bls	.L189
 859 0090 DB69     		ldr	r3, [r3, #28]
 860 0092 42F8043B 		str	r3, [r2], #4
 861 0096 A266     		str	r2, [r4, #104]
 862              	.L190:
 863 0098 013D     		subs	r5, r5, #1
 864 009a ADB2     		uxth	r5, r5
 865 009c A4F86E50 		strh	r5, [r4, #110]	@ movhi
 866 00a0 002D     		cmp	r5, #0
 867 00a2 EAD1     		bne	.L225
 868              	.L179:
ARM GAS  D:\Programs\cygwin64\tmp\ccFYcmIV.s 			page 16


 869 00a4 0123     		movs	r3, #1
 870 00a6 0020     		movs	r0, #0
 871 00a8 84F88130 		strb	r3, [r4, #129]
 872 00ac 84F88000 		strb	r0, [r4, #128]
 873 00b0 BDE8F081 		pop	{r4, r5, r6, r7, r8, pc}
 874              	.L206:
 875 00b4 0220     		movs	r0, #2
 876 00b6 BDE8F081 		pop	{r4, r5, r6, r7, r8, pc}
 877              	.L182:
 878 00ba 5369     		ldr	r3, [r2, #20]
 879 00bc 13F4E02F 		tst	r3, #458752
 880 00c0 FBD0     		beq	.L182
 881 00c2 A16B     		ldr	r1, [r4, #56]
 882 00c4 A36E     		ldr	r3, [r4, #104]
 883 00c6 4029     		cmp	r1, #64
 884 00c8 1846     		mov	r0, r3
 885 00ca 15D0     		beq	.L226
 886              	.L219:
 887 00cc 8029     		cmp	r1, #128
 888 00ce 30D9     		bls	.L180
 889 00d0 D369     		ldr	r3, [r2, #28]
 890 00d2 40F8043B 		str	r3, [r0], #4
 891 00d6 A066     		str	r0, [r4, #104]
 892              	.L181:
 893 00d8 013D     		subs	r5, r5, #1
 894 00da ADB2     		uxth	r5, r5
 895 00dc A4F86E50 		strh	r5, [r4, #110]	@ movhi
 896 00e0 002D     		cmp	r5, #0
 897 00e2 DFD0     		beq	.L179
 898 00e4 2268     		ldr	r2, [r4]
 899 00e6 5369     		ldr	r3, [r2, #20]
 900 00e8 13F4E02F 		tst	r3, #458752
 901 00ec E5D0     		beq	.L182
 902 00ee A16B     		ldr	r1, [r4, #56]
 903 00f0 A36E     		ldr	r3, [r4, #104]
 904 00f2 4029     		cmp	r1, #64
 905 00f4 1846     		mov	r0, r3
 906 00f6 E9D1     		bne	.L219
 907              	.L226:
 908 00f8 E16A     		ldr	r1, [r4, #44]
 909 00fa 581C     		adds	r0, r3, #1
 910 00fc C9B9     		cbnz	r1, .L180
 911 00fe D269     		ldr	r2, [r2, #28]
 912 0100 A066     		str	r0, [r4, #104]
 913 0102 1A70     		strb	r2, [r3]
 914 0104 B4F86E50 		ldrh	r5, [r4, #110]
 915 0108 E6E7     		b	.L181
 916              	.L189:
 917 010a DB69     		ldr	r3, [r3, #28]
 918 010c 22F8023B 		strh	r3, [r2], #2	@ movhi
 919 0110 B4F86E50 		ldrh	r5, [r4, #110]
 920 0114 A266     		str	r2, [r4, #104]
 921 0116 BFE7     		b	.L190
 922              	.L224:
 923 0118 E16A     		ldr	r1, [r4, #44]
 924 011a 0029     		cmp	r1, #0
 925 011c F5D1     		bne	.L189
ARM GAS  D:\Programs\cygwin64\tmp\ccFYcmIV.s 			page 17


 926 011e DB69     		ldr	r3, [r3, #28]
 927 0120 511C     		adds	r1, r2, #1
 928 0122 A166     		str	r1, [r4, #104]
 929 0124 1370     		strb	r3, [r2]
 930 0126 B4F86E50 		ldrh	r5, [r4, #110]
 931 012a B5E7     		b	.L190
 932              	.L204:
 933 012c 0120     		movs	r0, #1
 934 012e BDE8F081 		pop	{r4, r5, r6, r7, r8, pc}
 935              	.L180:
 936 0132 D269     		ldr	r2, [r2, #28]
 937 0134 23F8022B 		strh	r2, [r3], #2	@ movhi
 938 0138 B4F86E50 		ldrh	r5, [r4, #110]
 939 013c A366     		str	r3, [r4, #104]
 940 013e CBE7     		b	.L181
 941              	.L222:
 942 0140 1168     		ldr	r1, [r2]
 943 0142 41F48031 		orr	r1, r1, #65536
 944 0146 1160     		str	r1, [r2]
 945 0148 86E7     		b	.L174
 946              	.L185:
 947 014a 2368     		ldr	r3, [r4]
 948              	.L198:
 949 014c D4F88410 		ldr	r1, [r4, #132]
 950 0150 2C4A     		ldr	r2, .L227
 951 0152 2D48     		ldr	r0, .L227+4
 952 0154 1268     		ldr	r2, [r2]
 953 0156 41F04001 		orr	r1, r1, #64
 954 015a 4FF0FF35 		mov	r5, #-1
 955 015e C4F88410 		str	r1, [r4, #132]
 956 0162 9D61     		str	r5, [r3, #24]
 957 0164 1968     		ldr	r1, [r3]
 958 0166 A0FB0202 		umull	r0, r2, r0, r2
 959 016a 21F48031 		bic	r1, r1, #65536
 960 016e 120B     		lsrs	r2, r2, #12
 961 0170 1960     		str	r1, [r3]
 962 0172 9200     		lsls	r2, r2, #2
 963 0174 02E0     		b	.L201
 964              	.L199:
 965 0176 1968     		ldr	r1, [r3]
 966 0178 C903     		lsls	r1, r1, #15
 967 017a 08D5     		bpl	.L200
 968              	.L201:
 969 017c 12F1FF32 		adds	r2, r2, #-1
 970 0180 F9D2     		bcs	.L199
 971 0182 D4F88420 		ldr	r2, [r4, #132]
 972 0186 42F04002 		orr	r2, r2, #64
 973 018a C4F88420 		str	r2, [r4, #132]
 974              	.L200:
 975 018e 5A68     		ldr	r2, [r3, #4]
 976 0190 0121     		movs	r1, #1
 977 0192 42F00802 		orr	r2, r2, #8
 978 0196 0025     		movs	r5, #0
 979 0198 5A60     		str	r2, [r3, #4]
 980 019a 0846     		mov	r0, r1
 981 019c 84F88110 		strb	r1, [r4, #129]
 982 01a0 84F88050 		strb	r5, [r4, #128]
ARM GAS  D:\Programs\cygwin64\tmp\ccFYcmIV.s 			page 18


 983 01a4 BDE8F081 		pop	{r4, r5, r6, r7, r8, pc}
 984              	.L183:
 985 01a8 5269     		ldr	r2, [r2, #20]
 986 01aa 12F4E02F 		tst	r2, #458752
 987 01ae CDD0     		beq	.L198
 988 01b0 11E0     		b	.L202
 989              	.L193:
 990 01b2 8029     		cmp	r1, #128
 991 01b4 1ED9     		bls	.L194
 992 01b6 DB69     		ldr	r3, [r3, #28]
 993 01b8 40F8043B 		str	r3, [r0], #4
 994 01bc A066     		str	r0, [r4, #104]
 995              	.L195:
 996 01be 013D     		subs	r5, r5, #1
 997 01c0 ADB2     		uxth	r5, r5
 998 01c2 A4F86E50 		strh	r5, [r4, #110]	@ movhi
 999 01c6 002D     		cmp	r5, #0
 1000 01c8 3FF46CAF 		beq	.L179
 1001 01cc 2368     		ldr	r3, [r4]
 1002 01ce 5A69     		ldr	r2, [r3, #20]
 1003 01d0 12F4E02F 		tst	r2, #458752
 1004 01d4 BAD0     		beq	.L198
 1005              	.L202:
 1006 01d6 A16B     		ldr	r1, [r4, #56]
 1007 01d8 A26E     		ldr	r2, [r4, #104]
 1008 01da 4029     		cmp	r1, #64
 1009 01dc 1646     		mov	r6, r2
 1010 01de 1046     		mov	r0, r2
 1011 01e0 E7D1     		bne	.L193
 1012 01e2 E16A     		ldr	r1, [r4, #44]
 1013 01e4 501C     		adds	r0, r2, #1
 1014 01e6 29B9     		cbnz	r1, .L194
 1015 01e8 DB69     		ldr	r3, [r3, #28]
 1016 01ea A066     		str	r0, [r4, #104]
 1017 01ec 1370     		strb	r3, [r2]
 1018 01ee B4F86E50 		ldrh	r5, [r4, #110]
 1019 01f2 E4E7     		b	.L195
 1020              	.L194:
 1021 01f4 DB69     		ldr	r3, [r3, #28]
 1022 01f6 26F8023B 		strh	r3, [r6], #2	@ movhi
 1023 01fa A666     		str	r6, [r4, #104]
 1024 01fc B4F86E50 		ldrh	r5, [r4, #110]
 1025 0200 DDE7     		b	.L195
 1026              	.L228:
 1027 0202 00BF     		.align	2
 1028              	.L227:
 1029 0204 00000000 		.word	SystemCoreClock
 1030 0208 1BECCB95 		.word	-1781797861
 1032              		.section	.text.HAL_SAI_Transmit_IT,"ax",%progbits
 1033              		.align	1
 1034              		.p2align 2,,3
 1035              		.global	HAL_SAI_Transmit_IT
 1036              		.syntax unified
 1037              		.thumb
 1038              		.thumb_func
 1039              		.fpu fpv4-sp-d16
 1041              	HAL_SAI_Transmit_IT:
ARM GAS  D:\Programs\cygwin64\tmp\ccFYcmIV.s 			page 19


 1042              		@ args = 0, pretend = 0, frame = 0
 1043              		@ frame_needed = 0, uses_anonymous_args = 0
 1044              		@ link register save eliminated.
 1045 0000 0029     		cmp	r1, #0
 1046 0002 54D0     		beq	.L251
 1047 0004 002A     		cmp	r2, #0
 1048 0006 52D0     		beq	.L251
 1049 0008 90F88130 		ldrb	r3, [r0, #129]	@ zero_extendqisi2
 1050 000c DBB2     		uxtb	r3, r3
 1051 000e 012B     		cmp	r3, #1
 1052 0010 4FD1     		bne	.L252
 1053 0012 70B4     		push	{r4, r5, r6}
 1054 0014 90F88040 		ldrb	r4, [r0, #128]	@ zero_extendqisi2
 1055 0018 012C     		cmp	r4, #1
 1056 001a 75D0     		beq	.L253
 1057 001c 0024     		movs	r4, #0
 1058 001e 866B     		ldr	r6, [r0, #56]
 1059 0020 80F88030 		strb	r3, [r0, #128]
 1060 0024 62F30F04 		bfi	r4, r2, #0, #16
 1061 0028 62F31F44 		bfi	r4, r2, #16, #16
 1062 002c 1223     		movs	r3, #18
 1063 002e 0022     		movs	r2, #0
 1064 0030 402E     		cmp	r6, #64
 1065 0032 C0F88420 		str	r2, [r0, #132]
 1066 0036 C0E91A14 		strd	r1, r4, [r0, #104]
 1067 003a 80F88130 		strb	r3, [r0, #129]
 1068 003e 3AD0     		beq	.L269
 1069 0040 802E     		cmp	r6, #128
 1070 0042 3AD9     		bls	.L232
 1071 0044 0368     		ldr	r3, [r0]
 1072 0046 444C     		ldr	r4, .L272
 1073 0048 5A69     		ldr	r2, [r3, #20]
 1074 004a C467     		str	r4, [r0, #124]
 1075 004c 02F4E022 		and	r2, r2, #458752
 1076 0050 B2F5A02F 		cmp	r2, #327680
 1077 0054 11D0     		beq	.L238
 1078              	.L239:
 1079 0056 B0F86E20 		ldrh	r2, [r0, #110]
 1080 005a 00E0     		b	.L242
 1081              	.L241:
 1082 005c 52B1     		cbz	r2, .L268
 1083              	.L242:
 1084 005e 51F8044B 		ldr	r4, [r1], #4
 1085 0062 DC61     		str	r4, [r3, #28]
 1086 0064 5C69     		ldr	r4, [r3, #20]
 1087 0066 04F4E024 		and	r4, r4, #458752
 1088 006a 013A     		subs	r2, r2, #1
 1089 006c B4F5A02F 		cmp	r4, #327680
 1090 0070 92B2     		uxth	r2, r2
 1091 0072 F3D1     		bne	.L241
 1092              	.L268:
 1093 0074 8166     		str	r1, [r0, #104]
 1094 0076 A0F86E20 		strh	r2, [r0, #110]	@ movhi
 1095              	.L238:
 1096 007a 416B     		ldr	r1, [r0, #52]
 1097 007c 4268     		ldr	r2, [r0, #4]
 1098 007e 0829     		cmp	r1, #8
ARM GAS  D:\Programs\cygwin64\tmp\ccFYcmIV.s 			page 20


 1099 0080 39D0     		beq	.L234
 1100 0082 0D24     		movs	r4, #13
 1101 0084 6925     		movs	r5, #105
 1102              	.L235:
 1103 0086 1969     		ldr	r1, [r3, #16]
 1104 0088 023A     		subs	r2, r2, #2
 1105 008a 012A     		cmp	r2, #1
 1106 008c 98BF     		it	ls
 1107 008e 2C46     		movls	r4, r5
 1108 0090 2143     		orrs	r1, r1, r4
 1109 0092 1961     		str	r1, [r3, #16]
 1110 0094 1A68     		ldr	r2, [r3]
 1111 0096 D203     		lsls	r2, r2, #15
 1112 0098 03D4     		bmi	.L249
 1113 009a 1A68     		ldr	r2, [r3]
 1114 009c 42F48032 		orr	r2, r2, #65536
 1115 00a0 1A60     		str	r2, [r3]
 1116              	.L249:
 1117 00a2 0023     		movs	r3, #0
 1118 00a4 80F88030 		strb	r3, [r0, #128]
 1119 00a8 1846     		mov	r0, r3
 1120              	.L230:
 1121 00aa 70BC     		pop	{r4, r5, r6}
 1122 00ac 7047     		bx	lr
 1123              	.L251:
 1124 00ae 0120     		movs	r0, #1
 1125 00b0 7047     		bx	lr
 1126              	.L252:
 1127 00b2 0220     		movs	r0, #2
 1128 00b4 7047     		bx	lr
 1129              	.L269:
 1130 00b6 C56A     		ldr	r5, [r0, #44]
 1131 00b8 45B3     		cbz	r5, .L270
 1132              	.L232:
 1133 00ba 0368     		ldr	r3, [r0]
 1134 00bc 274C     		ldr	r4, .L272+4
 1135 00be 5A69     		ldr	r2, [r3, #20]
 1136 00c0 C467     		str	r4, [r0, #124]
 1137 00c2 02F4E022 		and	r2, r2, #458752
 1138 00c6 B2F5A02F 		cmp	r2, #327680
 1139 00ca D6D0     		beq	.L238
 1140 00cc 402E     		cmp	r6, #64
 1141 00ce 41D0     		beq	.L271
 1142 00d0 802E     		cmp	r6, #128
 1143 00d2 C0D8     		bhi	.L239
 1144 00d4 B0F86E20 		ldrh	r2, [r0, #110]
 1145 00d8 01E0     		b	.L244
 1146              	.L243:
 1147 00da 002A     		cmp	r2, #0
 1148 00dc CAD0     		beq	.L268
 1149              	.L244:
 1150 00de 51F8024B 		ldr	r4, [r1], #2
 1151 00e2 DC61     		str	r4, [r3, #28]
 1152 00e4 5C69     		ldr	r4, [r3, #20]
 1153 00e6 04F4E024 		and	r4, r4, #458752
 1154 00ea 013A     		subs	r2, r2, #1
 1155 00ec B4F5A02F 		cmp	r4, #327680
ARM GAS  D:\Programs\cygwin64\tmp\ccFYcmIV.s 			page 21


 1156 00f0 92B2     		uxth	r2, r2
 1157 00f2 F2D1     		bne	.L243
 1158 00f4 BEE7     		b	.L268
 1159              	.L234:
 1160 00f6 22F00201 		bic	r1, r2, #2
 1161 00fa 0129     		cmp	r1, #1
 1162 00fc 0BBF     		itete	eq
 1163 00fe 1D24     		moveq	r4, #29
 1164 0100 0D24     		movne	r4, #13
 1165 0102 7925     		moveq	r5, #121
 1166 0104 6925     		movne	r5, #105
 1167 0106 BEE7     		b	.L235
 1168              	.L253:
 1169 0108 0220     		movs	r0, #2
 1170 010a CEE7     		b	.L230
 1171              	.L270:
 1172 010c 0368     		ldr	r3, [r0]
 1173 010e 144C     		ldr	r4, .L272+8
 1174 0110 5A69     		ldr	r2, [r3, #20]
 1175 0112 C467     		str	r4, [r0, #124]
 1176 0114 02F4E022 		and	r2, r2, #458752
 1177 0118 B2F5A02F 		cmp	r2, #327680
 1178 011c 12D1     		bne	.L247
 1179 011e ACE7     		b	.L238
 1180              	.L245:
 1181 0120 8266     		str	r2, [r0, #104]
 1182 0122 0978     		ldrb	r1, [r1]	@ zero_extendqisi2
 1183 0124 D961     		str	r1, [r3, #28]
 1184 0126 1146     		mov	r1, r2
 1185              	.L246:
 1186 0128 B0F86E20 		ldrh	r2, [r0, #110]
 1187 012c 5C69     		ldr	r4, [r3, #20]
 1188 012e 013A     		subs	r2, r2, #1
 1189 0130 04F4E024 		and	r4, r4, #458752
 1190 0134 92B2     		uxth	r2, r2
 1191 0136 B4F5A02F 		cmp	r4, #327680
 1192 013a A0F86E20 		strh	r2, [r0, #110]	@ movhi
 1193 013e 9CD0     		beq	.L238
 1194 0140 002A     		cmp	r2, #0
 1195 0142 9AD0     		beq	.L238
 1196              	.L247:
 1197 0144 4A1C     		adds	r2, r1, #1
 1198 0146 002D     		cmp	r5, #0
 1199 0148 EAD0     		beq	.L245
 1200 014a 51F8022B 		ldr	r2, [r1], #2
 1201 014e DA61     		str	r2, [r3, #28]
 1202 0150 8166     		str	r1, [r0, #104]
 1203 0152 E9E7     		b	.L246
 1204              	.L271:
 1205 0154 C56A     		ldr	r5, [r0, #44]
 1206 0156 F5E7     		b	.L247
 1207              	.L273:
 1208              		.align	2
 1209              	.L272:
 1210 0158 00000000 		.word	SAI_Transmit_IT32Bit
 1211 015c 00000000 		.word	SAI_Transmit_IT16Bit
 1212 0160 00000000 		.word	SAI_Transmit_IT8Bit
ARM GAS  D:\Programs\cygwin64\tmp\ccFYcmIV.s 			page 22


 1214              		.section	.text.HAL_SAI_Receive_IT,"ax",%progbits
 1215              		.align	1
 1216              		.p2align 2,,3
 1217              		.global	HAL_SAI_Receive_IT
 1218              		.syntax unified
 1219              		.thumb
 1220              		.thumb_func
 1221              		.fpu fpv4-sp-d16
 1223              	HAL_SAI_Receive_IT:
 1224              		@ args = 0, pretend = 0, frame = 0
 1225              		@ frame_needed = 0, uses_anonymous_args = 0
 1226              		@ link register save eliminated.
 1227 0000 0029     		cmp	r1, #0
 1228 0002 3CD0     		beq	.L284
 1229 0004 002A     		cmp	r2, #0
 1230 0006 3AD0     		beq	.L284
 1231 0008 90F88130 		ldrb	r3, [r0, #129]	@ zero_extendqisi2
 1232 000c DBB2     		uxtb	r3, r3
 1233 000e 012B     		cmp	r3, #1
 1234 0010 37D1     		bne	.L285
 1235 0012 30B4     		push	{r4, r5}
 1236 0014 90F88040 		ldrb	r4, [r0, #128]	@ zero_extendqisi2
 1237 0018 012C     		cmp	r4, #1
 1238 001a 45D0     		beq	.L286
 1239 001c 0024     		movs	r4, #0
 1240 001e 856B     		ldr	r5, [r0, #56]
 1241 0020 80F88030 		strb	r3, [r0, #128]
 1242 0024 62F30F04 		bfi	r4, r2, #0, #16
 1243 0028 62F31F44 		bfi	r4, r2, #16, #16
 1244 002c 2223     		movs	r3, #34
 1245 002e 0022     		movs	r2, #0
 1246 0030 402D     		cmp	r5, #64
 1247 0032 C0F88420 		str	r2, [r0, #132]
 1248 0036 C0E91A14 		strd	r1, r4, [r0, #104]
 1249 003a 80F88130 		strb	r3, [r0, #129]
 1250 003e 22D0     		beq	.L293
 1251 0040 802D     		cmp	r5, #128
 1252 0042 25D9     		bls	.L277
 1253 0044 194B     		ldr	r3, .L295
 1254 0046 C367     		str	r3, [r0, #124]
 1255              	.L278:
 1256 0048 436B     		ldr	r3, [r0, #52]
 1257 004a 4268     		ldr	r2, [r0, #4]
 1258 004c 082B     		cmp	r3, #8
 1259 004e 22D0     		beq	.L294
 1260 0050 0D24     		movs	r4, #13
 1261 0052 6925     		movs	r5, #105
 1262              	.L280:
 1263 0054 0368     		ldr	r3, [r0]
 1264 0056 023A     		subs	r2, r2, #2
 1265 0058 1969     		ldr	r1, [r3, #16]
 1266 005a 012A     		cmp	r2, #1
 1267 005c 98BF     		it	ls
 1268 005e 2C46     		movls	r4, r5
 1269 0060 2143     		orrs	r1, r1, r4
 1270 0062 1961     		str	r1, [r3, #16]
 1271 0064 1A68     		ldr	r2, [r3]
ARM GAS  D:\Programs\cygwin64\tmp\ccFYcmIV.s 			page 23


 1272 0066 D203     		lsls	r2, r2, #15
 1273 0068 03D4     		bmi	.L282
 1274 006a 1A68     		ldr	r2, [r3]
 1275 006c 42F48032 		orr	r2, r2, #65536
 1276 0070 1A60     		str	r2, [r3]
 1277              	.L282:
 1278 0072 0023     		movs	r3, #0
 1279 0074 80F88030 		strb	r3, [r0, #128]
 1280 0078 1846     		mov	r0, r3
 1281              	.L275:
 1282 007a 30BC     		pop	{r4, r5}
 1283 007c 7047     		bx	lr
 1284              	.L284:
 1285 007e 0120     		movs	r0, #1
 1286 0080 7047     		bx	lr
 1287              	.L285:
 1288 0082 0220     		movs	r0, #2
 1289 0084 7047     		bx	lr
 1290              	.L293:
 1291 0086 C36A     		ldr	r3, [r0, #44]
 1292 0088 13B9     		cbnz	r3, .L277
 1293 008a 094B     		ldr	r3, .L295+4
 1294 008c C367     		str	r3, [r0, #124]
 1295 008e DBE7     		b	.L278
 1296              	.L277:
 1297 0090 084B     		ldr	r3, .L295+8
 1298 0092 C367     		str	r3, [r0, #124]
 1299 0094 D8E7     		b	.L278
 1300              	.L294:
 1301 0096 22F00203 		bic	r3, r2, #2
 1302 009a 012B     		cmp	r3, #1
 1303 009c 0BBF     		itete	eq
 1304 009e 1D24     		moveq	r4, #29
 1305 00a0 0D24     		movne	r4, #13
 1306 00a2 7925     		moveq	r5, #121
 1307 00a4 6925     		movne	r5, #105
 1308 00a6 D5E7     		b	.L280
 1309              	.L286:
 1310 00a8 0220     		movs	r0, #2
 1311 00aa E6E7     		b	.L275
 1312              	.L296:
 1313              		.align	2
 1314              	.L295:
 1315 00ac 00000000 		.word	SAI_Receive_IT32Bit
 1316 00b0 00000000 		.word	SAI_Receive_IT8Bit
 1317 00b4 00000000 		.word	SAI_Receive_IT16Bit
 1319              		.section	.text.HAL_SAI_DMAPause,"ax",%progbits
 1320              		.align	1
 1321              		.p2align 2,,3
 1322              		.global	HAL_SAI_DMAPause
 1323              		.syntax unified
 1324              		.thumb
 1325              		.thumb_func
 1326              		.fpu fpv4-sp-d16
 1328              	HAL_SAI_DMAPause:
 1329              		@ args = 0, pretend = 0, frame = 0
 1330              		@ frame_needed = 0, uses_anonymous_args = 0
ARM GAS  D:\Programs\cygwin64\tmp\ccFYcmIV.s 			page 24


 1331              		@ link register save eliminated.
 1332 0000 90F88020 		ldrb	r2, [r0, #128]	@ zero_extendqisi2
 1333 0004 012A     		cmp	r2, #1
 1334 0006 0346     		mov	r3, r0
 1335 0008 09D0     		beq	.L299
 1336 000a 0068     		ldr	r0, [r0]
 1337 000c 0268     		ldr	r2, [r0]
 1338 000e 0021     		movs	r1, #0
 1339 0010 22F40032 		bic	r2, r2, #131072
 1340 0014 0260     		str	r2, [r0]
 1341 0016 0846     		mov	r0, r1
 1342 0018 83F88010 		strb	r1, [r3, #128]
 1343 001c 7047     		bx	lr
 1344              	.L299:
 1345 001e 0220     		movs	r0, #2
 1346 0020 7047     		bx	lr
 1348 0022 00BF     		.section	.text.HAL_SAI_DMAResume,"ax",%progbits
 1349              		.align	1
 1350              		.p2align 2,,3
 1351              		.global	HAL_SAI_DMAResume
 1352              		.syntax unified
 1353              		.thumb
 1354              		.thumb_func
 1355              		.fpu fpv4-sp-d16
 1357              	HAL_SAI_DMAResume:
 1358              		@ args = 0, pretend = 0, frame = 0
 1359              		@ frame_needed = 0, uses_anonymous_args = 0
 1360              		@ link register save eliminated.
 1361 0000 90F88030 		ldrb	r3, [r0, #128]	@ zero_extendqisi2
 1362 0004 012B     		cmp	r3, #1
 1363 0006 13D0     		beq	.L303
 1364 0008 0368     		ldr	r3, [r0]
 1365 000a 1A68     		ldr	r2, [r3]
 1366 000c 0121     		movs	r1, #1
 1367 000e 42F40032 		orr	r2, r2, #131072
 1368 0012 80F88010 		strb	r1, [r0, #128]
 1369 0016 1A60     		str	r2, [r3]
 1370 0018 1A68     		ldr	r2, [r3]
 1371 001a D203     		lsls	r2, r2, #15
 1372 001c 03D4     		bmi	.L302
 1373 001e 1A68     		ldr	r2, [r3]
 1374 0020 42F48032 		orr	r2, r2, #65536
 1375 0024 1A60     		str	r2, [r3]
 1376              	.L302:
 1377 0026 0023     		movs	r3, #0
 1378 0028 80F88030 		strb	r3, [r0, #128]
 1379 002c 1846     		mov	r0, r3
 1380 002e 7047     		bx	lr
 1381              	.L303:
 1382 0030 0220     		movs	r0, #2
 1383 0032 7047     		bx	lr
 1385              		.section	.text.HAL_SAI_DMAStop,"ax",%progbits
 1386              		.align	1
 1387              		.p2align 2,,3
 1388              		.global	HAL_SAI_DMAStop
 1389              		.syntax unified
 1390              		.thumb
ARM GAS  D:\Programs\cygwin64\tmp\ccFYcmIV.s 			page 25


 1391              		.thumb_func
 1392              		.fpu fpv4-sp-d16
 1394              	HAL_SAI_DMAStop:
 1395              		@ args = 0, pretend = 0, frame = 0
 1396              		@ frame_needed = 0, uses_anonymous_args = 0
 1397 0000 38B5     		push	{r3, r4, r5, lr}
 1398 0002 90F88030 		ldrb	r3, [r0, #128]	@ zero_extendqisi2
 1399 0006 012B     		cmp	r3, #1
 1400 0008 59D0     		beq	.L313
 1401 000a 0268     		ldr	r2, [r0]
 1402 000c 1368     		ldr	r3, [r2]
 1403 000e 0446     		mov	r4, r0
 1404 0010 006F     		ldr	r0, [r0, #112]
 1405 0012 0125     		movs	r5, #1
 1406 0014 23F40033 		bic	r3, r3, #131072
 1407 0018 84F88050 		strb	r5, [r4, #128]
 1408 001c 1360     		str	r3, [r2]
 1409 001e 18B1     		cbz	r0, .L308
 1410 0020 94F88130 		ldrb	r3, [r4, #129]	@ zero_extendqisi2
 1411 0024 122B     		cmp	r3, #18
 1412 0026 3BD0     		beq	.L331
 1413              	.L308:
 1414 0028 0025     		movs	r5, #0
 1415              	.L307:
 1416 002a 606F     		ldr	r0, [r4, #116]
 1417 002c 18B1     		cbz	r0, .L309
 1418 002e 94F88130 		ldrb	r3, [r4, #129]	@ zero_extendqisi2
 1419 0032 222B     		cmp	r3, #34
 1420 0034 24D0     		beq	.L332
 1421              	.L309:
 1422 0036 234B     		ldr	r3, .L333
 1423 0038 2168     		ldr	r1, [r4]
 1424 003a 1B68     		ldr	r3, [r3]
 1425 003c 2248     		ldr	r0, .L333+4
 1426 003e 0A68     		ldr	r2, [r1]
 1427 0040 A0FB0303 		umull	r0, r3, r0, r3
 1428 0044 1B0B     		lsrs	r3, r3, #12
 1429 0046 22F48032 		bic	r2, r2, #65536
 1430 004a 9B00     		lsls	r3, r3, #2
 1431 004c 0A60     		str	r2, [r1]
 1432 004e 02E0     		b	.L312
 1433              	.L310:
 1434 0050 0A68     		ldr	r2, [r1]
 1435 0052 D203     		lsls	r2, r2, #15
 1436 0054 08D5     		bpl	.L311
 1437              	.L312:
 1438 0056 13F1FF33 		adds	r3, r3, #-1
 1439 005a F9D2     		bcs	.L310
 1440 005c D4F88430 		ldr	r3, [r4, #132]
 1441 0060 43F04003 		orr	r3, r3, #64
 1442 0064 C4F88430 		str	r3, [r4, #132]
 1443              	.L311:
 1444 0068 4B68     		ldr	r3, [r1, #4]
 1445 006a 0120     		movs	r0, #1
 1446 006c 43F00803 		orr	r3, r3, #8
 1447 0070 0022     		movs	r2, #0
 1448 0072 4B60     		str	r3, [r1, #4]
ARM GAS  D:\Programs\cygwin64\tmp\ccFYcmIV.s 			page 26


 1449 0074 84F88100 		strb	r0, [r4, #129]
 1450 0078 84F88020 		strb	r2, [r4, #128]
 1451 007c 2846     		mov	r0, r5
 1452 007e 38BD     		pop	{r3, r4, r5, pc}
 1453              	.L332:
 1454 0080 FFF7FEFF 		bl	HAL_DMA_Abort
 1455 0084 0028     		cmp	r0, #0
 1456 0086 D6D0     		beq	.L309
 1457 0088 636F     		ldr	r3, [r4, #116]
 1458 008a 5B6D     		ldr	r3, [r3, #84]
 1459 008c 802B     		cmp	r3, #128
 1460 008e D2D0     		beq	.L309
 1461 0090 D4F88430 		ldr	r3, [r4, #132]
 1462 0094 43F08003 		orr	r3, r3, #128
 1463 0098 C4F88430 		str	r3, [r4, #132]
 1464 009c 0125     		movs	r5, #1
 1465 009e CAE7     		b	.L309
 1466              	.L331:
 1467 00a0 FFF7FEFF 		bl	HAL_DMA_Abort
 1468 00a4 0028     		cmp	r0, #0
 1469 00a6 BFD0     		beq	.L308
 1470 00a8 236F     		ldr	r3, [r4, #112]
 1471 00aa 5B6D     		ldr	r3, [r3, #84]
 1472 00ac 802B     		cmp	r3, #128
 1473 00ae BBD0     		beq	.L308
 1474 00b0 D4F88430 		ldr	r3, [r4, #132]
 1475 00b4 43F08003 		orr	r3, r3, #128
 1476 00b8 C4F88430 		str	r3, [r4, #132]
 1477 00bc B5E7     		b	.L307
 1478              	.L313:
 1479 00be 0225     		movs	r5, #2
 1480 00c0 2846     		mov	r0, r5
 1481 00c2 38BD     		pop	{r3, r4, r5, pc}
 1482              	.L334:
 1483              		.align	2
 1484              	.L333:
 1485 00c4 00000000 		.word	SystemCoreClock
 1486 00c8 1BECCB95 		.word	-1781797861
 1488              		.section	.text.HAL_SAI_Abort,"ax",%progbits
 1489              		.align	1
 1490              		.p2align 2,,3
 1491              		.global	HAL_SAI_Abort
 1492              		.syntax unified
 1493              		.thumb
 1494              		.thumb_func
 1495              		.fpu fpv4-sp-d16
 1497              	HAL_SAI_Abort:
 1498              		@ args = 0, pretend = 0, frame = 0
 1499              		@ frame_needed = 0, uses_anonymous_args = 0
 1500 0000 90F88030 		ldrb	r3, [r0, #128]	@ zero_extendqisi2
 1501 0004 012B     		cmp	r3, #1
 1502 0006 70B5     		push	{r4, r5, r6, lr}
 1503 0008 43D0     		beq	.L347
 1504 000a 0268     		ldr	r2, [r0]
 1505 000c 1568     		ldr	r5, [r2]
 1506 000e 0126     		movs	r6, #1
 1507 0010 15F40035 		ands	r5, r5, #131072
ARM GAS  D:\Programs\cygwin64\tmp\ccFYcmIV.s 			page 27


 1508 0014 0446     		mov	r4, r0
 1509 0016 80F88060 		strb	r6, [r0, #128]
 1510 001a 11D0     		beq	.L337
 1511 001c 1368     		ldr	r3, [r2]
 1512 001e 006F     		ldr	r0, [r0, #112]
 1513 0020 23F40033 		bic	r3, r3, #131072
 1514 0024 1360     		str	r3, [r2]
 1515 0026 18B1     		cbz	r0, .L340
 1516 0028 94F88130 		ldrb	r3, [r4, #129]	@ zero_extendqisi2
 1517 002c 122B     		cmp	r3, #18
 1518 002e 44D0     		beq	.L361
 1519              	.L340:
 1520 0030 0025     		movs	r5, #0
 1521              	.L339:
 1522 0032 606F     		ldr	r0, [r4, #116]
 1523 0034 18B1     		cbz	r0, .L360
 1524 0036 94F88130 		ldrb	r3, [r4, #129]	@ zero_extendqisi2
 1525 003a 222B     		cmp	r3, #34
 1526 003c 2CD0     		beq	.L342
 1527              	.L360:
 1528 003e 2268     		ldr	r2, [r4]
 1529              	.L337:
 1530 0040 264B     		ldr	r3, .L362
 1531 0042 2748     		ldr	r0, .L362+4
 1532 0044 1B68     		ldr	r3, [r3]
 1533 0046 0021     		movs	r1, #0
 1534 0048 1161     		str	r1, [r2, #16]
 1535 004a 4FF0FF31 		mov	r1, #-1
 1536 004e 9161     		str	r1, [r2, #24]
 1537 0050 1168     		ldr	r1, [r2]
 1538 0052 A0FB0303 		umull	r0, r3, r0, r3
 1539 0056 21F48031 		bic	r1, r1, #65536
 1540 005a 1B0B     		lsrs	r3, r3, #12
 1541 005c 1160     		str	r1, [r2]
 1542 005e 9B00     		lsls	r3, r3, #2
 1543 0060 02E0     		b	.L346
 1544              	.L344:
 1545 0062 1168     		ldr	r1, [r2]
 1546 0064 C903     		lsls	r1, r1, #15
 1547 0066 08D5     		bpl	.L345
 1548              	.L346:
 1549 0068 13F1FF33 		adds	r3, r3, #-1
 1550 006c F9D2     		bcs	.L344
 1551 006e D4F88430 		ldr	r3, [r4, #132]
 1552 0072 43F04003 		orr	r3, r3, #64
 1553 0076 C4F88430 		str	r3, [r4, #132]
 1554              	.L345:
 1555 007a 5368     		ldr	r3, [r2, #4]
 1556 007c 0120     		movs	r0, #1
 1557 007e 43F00803 		orr	r3, r3, #8
 1558 0082 0021     		movs	r1, #0
 1559 0084 5360     		str	r3, [r2, #4]
 1560 0086 84F88100 		strb	r0, [r4, #129]
 1561 008a 84F88010 		strb	r1, [r4, #128]
 1562 008e 2846     		mov	r0, r5
 1563 0090 70BD     		pop	{r4, r5, r6, pc}
 1564              	.L347:
ARM GAS  D:\Programs\cygwin64\tmp\ccFYcmIV.s 			page 28


 1565 0092 0225     		movs	r5, #2
 1566 0094 2846     		mov	r0, r5
 1567 0096 70BD     		pop	{r4, r5, r6, pc}
 1568              	.L342:
 1569 0098 FFF7FEFF 		bl	HAL_DMA_Abort
 1570 009c 0028     		cmp	r0, #0
 1571 009e CED0     		beq	.L360
 1572 00a0 636F     		ldr	r3, [r4, #116]
 1573 00a2 2268     		ldr	r2, [r4]
 1574 00a4 5B6D     		ldr	r3, [r3, #84]
 1575 00a6 802B     		cmp	r3, #128
 1576 00a8 CAD0     		beq	.L337
 1577 00aa D4F88430 		ldr	r3, [r4, #132]
 1578 00ae 43F08003 		orr	r3, r3, #128
 1579 00b2 C4F88430 		str	r3, [r4, #132]
 1580 00b6 0125     		movs	r5, #1
 1581 00b8 C2E7     		b	.L337
 1582              	.L361:
 1583 00ba FFF7FEFF 		bl	HAL_DMA_Abort
 1584 00be 0028     		cmp	r0, #0
 1585 00c0 B6D0     		beq	.L340
 1586 00c2 236F     		ldr	r3, [r4, #112]
 1587 00c4 5B6D     		ldr	r3, [r3, #84]
 1588 00c6 802B     		cmp	r3, #128
 1589 00c8 B2D0     		beq	.L340
 1590 00ca D4F88430 		ldr	r3, [r4, #132]
 1591 00ce 43F08003 		orr	r3, r3, #128
 1592 00d2 3546     		mov	r5, r6
 1593 00d4 C4F88430 		str	r3, [r4, #132]
 1594 00d8 ABE7     		b	.L339
 1595              	.L363:
 1596 00da 00BF     		.align	2
 1597              	.L362:
 1598 00dc 00000000 		.word	SystemCoreClock
 1599 00e0 1BECCB95 		.word	-1781797861
 1601              		.section	.text.HAL_SAI_Transmit_DMA,"ax",%progbits
 1602              		.align	1
 1603              		.p2align 2,,3
 1604              		.global	HAL_SAI_Transmit_DMA
 1605              		.syntax unified
 1606              		.thumb
 1607              		.thumb_func
 1608              		.fpu fpv4-sp-d16
 1610              	HAL_SAI_Transmit_DMA:
 1611              		@ args = 0, pretend = 0, frame = 0
 1612              		@ frame_needed = 0, uses_anonymous_args = 0
 1613 0000 0029     		cmp	r1, #0
 1614 0002 48D0     		beq	.L371
 1615 0004 002A     		cmp	r2, #0
 1616 0006 46D0     		beq	.L371
 1617 0008 F8B5     		push	{r3, r4, r5, r6, r7, lr}
 1618 000a 90F88150 		ldrb	r5, [r0, #129]	@ zero_extendqisi2
 1619 000e EDB2     		uxtb	r5, r5
 1620 0010 012D     		cmp	r5, #1
 1621 0012 3ED1     		bne	.L373
 1622 0014 90F88040 		ldrb	r4, [r0, #128]	@ zero_extendqisi2
 1623 0018 012C     		cmp	r4, #1
ARM GAS  D:\Programs\cygwin64\tmp\ccFYcmIV.s 			page 29


 1624 001a 3AD0     		beq	.L373
 1625 001c 0027     		movs	r7, #0
 1626 001e 0446     		mov	r4, r0
 1627 0020 1346     		mov	r3, r2
 1628 0022 62F30F07 		bfi	r7, r2, #0, #16
 1629 0026 63F31F47 		bfi	r7, r3, #16, #16
 1630 002a 006F     		ldr	r0, [r0, #112]
 1631 002c E766     		str	r7, [r4, #108]
 1632 002e 0026     		movs	r6, #0
 1633 0030 1227     		movs	r7, #18
 1634 0032 C4F88460 		str	r6, [r4, #132]
 1635 0036 84F88170 		strb	r7, [r4, #129]
 1636 003a 1E4F     		ldr	r7, .L382
 1637 003c 2268     		ldr	r2, [r4]
 1638 003e 84F88050 		strb	r5, [r4, #128]
 1639 0042 A166     		str	r1, [r4, #104]
 1640 0044 0764     		str	r7, [r0, #64]
 1641 0046 1C4F     		ldr	r7, .L382+4
 1642 0048 C763     		str	r7, [r0, #60]
 1643 004a 1C4F     		ldr	r7, .L382+8
 1644 004c 0665     		str	r6, [r0, #80]
 1645 004e 1C32     		adds	r2, r2, #28
 1646 0050 C764     		str	r7, [r0, #76]
 1647 0052 FFF7FEFF 		bl	HAL_DMA_Start_IT
 1648 0056 00BB     		cbnz	r0, .L380
 1649 0058 2368     		ldr	r3, [r4]
 1650 005a 1A68     		ldr	r2, [r3]
 1651 005c D203     		lsls	r2, r2, #15
 1652 005e 03D4     		bmi	.L367
 1653 0060 1A68     		ldr	r2, [r3]
 1654 0062 42F48032 		orr	r2, r2, #65536
 1655 0066 1A60     		str	r2, [r3]
 1656              	.L367:
 1657 0068 616B     		ldr	r1, [r4, #52]
 1658 006a 6268     		ldr	r2, [r4, #4]
 1659 006c 0829     		cmp	r1, #8
 1660 006e 18D0     		beq	.L381
 1661 0070 0525     		movs	r5, #5
 1662 0072 6126     		movs	r6, #97
 1663              	.L368:
 1664 0074 1969     		ldr	r1, [r3, #16]
 1665 0076 023A     		subs	r2, r2, #2
 1666 0078 012A     		cmp	r2, #1
 1667 007a 98BF     		it	ls
 1668 007c 3546     		movls	r5, r6
 1669 007e 2943     		orrs	r1, r1, r5
 1670 0080 1961     		str	r1, [r3, #16]
 1671 0082 1A68     		ldr	r2, [r3]
 1672 0084 0021     		movs	r1, #0
 1673 0086 42F40032 		orr	r2, r2, #131072
 1674 008a 1A60     		str	r2, [r3]
 1675 008c 84F88010 		strb	r1, [r4, #128]
 1676 0090 F8BD     		pop	{r3, r4, r5, r6, r7, pc}
 1677              	.L373:
 1678 0092 0220     		movs	r0, #2
 1679 0094 F8BD     		pop	{r3, r4, r5, r6, r7, pc}
 1680              	.L371:
ARM GAS  D:\Programs\cygwin64\tmp\ccFYcmIV.s 			page 30


 1681 0096 0120     		movs	r0, #1
 1682 0098 7047     		bx	lr
 1683              	.L380:
 1684 009a 84F88060 		strb	r6, [r4, #128]
 1685 009e 2846     		mov	r0, r5
 1686 00a0 F8BD     		pop	{r3, r4, r5, r6, r7, pc}
 1687              	.L381:
 1688 00a2 22F00201 		bic	r1, r2, #2
 1689 00a6 0129     		cmp	r1, #1
 1690 00a8 0BBF     		itete	eq
 1691 00aa 1525     		moveq	r5, #21
 1692 00ac 0525     		movne	r5, #5
 1693 00ae 7126     		moveq	r6, #113
 1694 00b0 6126     		movne	r6, #97
 1695 00b2 DFE7     		b	.L368
 1696              	.L383:
 1697              		.align	2
 1698              	.L382:
 1699 00b4 00000000 		.word	SAI_DMATxHalfCplt
 1700 00b8 00000000 		.word	SAI_DMATxCplt
 1701 00bc 00000000 		.word	SAI_DMAError
 1703              		.section	.text.HAL_SAI_Receive_DMA,"ax",%progbits
 1704              		.align	1
 1705              		.p2align 2,,3
 1706              		.global	HAL_SAI_Receive_DMA
 1707              		.syntax unified
 1708              		.thumb
 1709              		.thumb_func
 1710              		.fpu fpv4-sp-d16
 1712              	HAL_SAI_Receive_DMA:
 1713              		@ args = 0, pretend = 0, frame = 0
 1714              		@ frame_needed = 0, uses_anonymous_args = 0
 1715 0000 0029     		cmp	r1, #0
 1716 0002 4AD0     		beq	.L391
 1717 0004 002A     		cmp	r2, #0
 1718 0006 48D0     		beq	.L391
 1719 0008 F8B5     		push	{r3, r4, r5, r6, r7, lr}
 1720 000a 90F88150 		ldrb	r5, [r0, #129]	@ zero_extendqisi2
 1721 000e EDB2     		uxtb	r5, r5
 1722 0010 012D     		cmp	r5, #1
 1723 0012 40D1     		bne	.L393
 1724 0014 90F88030 		ldrb	r3, [r0, #128]	@ zero_extendqisi2
 1725 0018 012B     		cmp	r3, #1
 1726 001a 3CD0     		beq	.L393
 1727 001c 0026     		movs	r6, #0
 1728 001e 0446     		mov	r4, r0
 1729 0020 62F30F06 		bfi	r6, r2, #0, #16
 1730 0024 406F     		ldr	r0, [r0, #116]
 1731 0026 A166     		str	r1, [r4, #104]
 1732 0028 62F31F46 		bfi	r6, r2, #16, #16
 1733 002c E666     		str	r6, [r4, #108]
 1734 002e 0027     		movs	r7, #0
 1735 0030 214E     		ldr	r6, .L402
 1736 0032 C4F88470 		str	r7, [r4, #132]
 1737 0036 4FF0220C 		mov	ip, #34
 1738 003a 84F88050 		strb	r5, [r4, #128]
 1739 003e 84F881C0 		strb	ip, [r4, #129]
ARM GAS  D:\Programs\cygwin64\tmp\ccFYcmIV.s 			page 31


 1740 0042 1346     		mov	r3, r2
 1741 0044 0A46     		mov	r2, r1
 1742 0046 2168     		ldr	r1, [r4]
 1743 0048 0664     		str	r6, [r0, #64]
 1744 004a 1C4E     		ldr	r6, .L402+4
 1745 004c C663     		str	r6, [r0, #60]
 1746 004e 1C4E     		ldr	r6, .L402+8
 1747 0050 0765     		str	r7, [r0, #80]
 1748 0052 1C31     		adds	r1, r1, #28
 1749 0054 C664     		str	r6, [r0, #76]
 1750 0056 FFF7FEFF 		bl	HAL_DMA_Start_IT
 1751 005a 00BB     		cbnz	r0, .L400
 1752 005c 2368     		ldr	r3, [r4]
 1753 005e 1A68     		ldr	r2, [r3]
 1754 0060 D203     		lsls	r2, r2, #15
 1755 0062 03D4     		bmi	.L387
 1756 0064 1A68     		ldr	r2, [r3]
 1757 0066 42F48032 		orr	r2, r2, #65536
 1758 006a 1A60     		str	r2, [r3]
 1759              	.L387:
 1760 006c 616B     		ldr	r1, [r4, #52]
 1761 006e 6268     		ldr	r2, [r4, #4]
 1762 0070 0829     		cmp	r1, #8
 1763 0072 18D0     		beq	.L401
 1764 0074 0525     		movs	r5, #5
 1765 0076 6126     		movs	r6, #97
 1766              	.L388:
 1767 0078 1969     		ldr	r1, [r3, #16]
 1768 007a 023A     		subs	r2, r2, #2
 1769 007c 012A     		cmp	r2, #1
 1770 007e 98BF     		it	ls
 1771 0080 3546     		movls	r5, r6
 1772 0082 2943     		orrs	r1, r1, r5
 1773 0084 1961     		str	r1, [r3, #16]
 1774 0086 1A68     		ldr	r2, [r3]
 1775 0088 0021     		movs	r1, #0
 1776 008a 42F40032 		orr	r2, r2, #131072
 1777 008e 1A60     		str	r2, [r3]
 1778 0090 84F88010 		strb	r1, [r4, #128]
 1779 0094 F8BD     		pop	{r3, r4, r5, r6, r7, pc}
 1780              	.L393:
 1781 0096 0220     		movs	r0, #2
 1782 0098 F8BD     		pop	{r3, r4, r5, r6, r7, pc}
 1783              	.L391:
 1784 009a 0120     		movs	r0, #1
 1785 009c 7047     		bx	lr
 1786              	.L400:
 1787 009e 84F88070 		strb	r7, [r4, #128]
 1788 00a2 2846     		mov	r0, r5
 1789 00a4 F8BD     		pop	{r3, r4, r5, r6, r7, pc}
 1790              	.L401:
 1791 00a6 22F00201 		bic	r1, r2, #2
 1792 00aa 0129     		cmp	r1, #1
 1793 00ac 0BBF     		itete	eq
 1794 00ae 1525     		moveq	r5, #21
 1795 00b0 0525     		movne	r5, #5
 1796 00b2 7126     		moveq	r6, #113
ARM GAS  D:\Programs\cygwin64\tmp\ccFYcmIV.s 			page 32


 1797 00b4 6126     		movne	r6, #97
 1798 00b6 DFE7     		b	.L388
 1799              	.L403:
 1800              		.align	2
 1801              	.L402:
 1802 00b8 00000000 		.word	SAI_DMARxHalfCplt
 1803 00bc 00000000 		.word	SAI_DMARxCplt
 1804 00c0 00000000 		.word	SAI_DMAError
 1806              		.section	.text.HAL_SAI_EnableTxMuteMode,"ax",%progbits
 1807              		.align	1
 1808              		.p2align 2,,3
 1809              		.global	HAL_SAI_EnableTxMuteMode
 1810              		.syntax unified
 1811              		.thumb
 1812              		.thumb_func
 1813              		.fpu fpv4-sp-d16
 1815              	HAL_SAI_EnableTxMuteMode:
 1816              		@ args = 0, pretend = 0, frame = 0
 1817              		@ frame_needed = 0, uses_anonymous_args = 0
 1818              		@ link register save eliminated.
 1819 0000 90F88130 		ldrb	r3, [r0, #129]	@ zero_extendqisi2
 1820 0004 0BB9     		cbnz	r3, .L407
 1821 0006 0120     		movs	r0, #1
 1822 0008 7047     		bx	lr
 1823              	.L407:
 1824 000a 0368     		ldr	r3, [r0]
 1825 000c 5A68     		ldr	r2, [r3, #4]
 1826 000e 22F06002 		bic	r2, r2, #96
 1827 0012 5A60     		str	r2, [r3, #4]
 1828 0014 5A68     		ldr	r2, [r3, #4]
 1829 0016 41F02001 		orr	r1, r1, #32
 1830 001a 1143     		orrs	r1, r1, r2
 1831 001c 5960     		str	r1, [r3, #4]
 1832 001e 0020     		movs	r0, #0
 1833 0020 7047     		bx	lr
 1835 0022 00BF     		.section	.text.HAL_SAI_DisableTxMuteMode,"ax",%progbits
 1836              		.align	1
 1837              		.p2align 2,,3
 1838              		.global	HAL_SAI_DisableTxMuteMode
 1839              		.syntax unified
 1840              		.thumb
 1841              		.thumb_func
 1842              		.fpu fpv4-sp-d16
 1844              	HAL_SAI_DisableTxMuteMode:
 1845              		@ args = 0, pretend = 0, frame = 0
 1846              		@ frame_needed = 0, uses_anonymous_args = 0
 1847              		@ link register save eliminated.
 1848 0000 90F88130 		ldrb	r3, [r0, #129]	@ zero_extendqisi2
 1849 0004 0BB9     		cbnz	r3, .L411
 1850 0006 0120     		movs	r0, #1
 1851 0008 7047     		bx	lr
 1852              	.L411:
 1853 000a 0268     		ldr	r2, [r0]
 1854 000c 5368     		ldr	r3, [r2, #4]
 1855 000e 23F06003 		bic	r3, r3, #96
 1856 0012 5360     		str	r3, [r2, #4]
 1857 0014 0020     		movs	r0, #0
ARM GAS  D:\Programs\cygwin64\tmp\ccFYcmIV.s 			page 33


 1858 0016 7047     		bx	lr
 1860              		.section	.text.HAL_SAI_EnableRxMuteMode,"ax",%progbits
 1861              		.align	1
 1862              		.p2align 2,,3
 1863              		.global	HAL_SAI_EnableRxMuteMode
 1864              		.syntax unified
 1865              		.thumb
 1866              		.thumb_func
 1867              		.fpu fpv4-sp-d16
 1869              	HAL_SAI_EnableRxMuteMode:
 1870              		@ args = 0, pretend = 0, frame = 0
 1871              		@ frame_needed = 0, uses_anonymous_args = 0
 1872              		@ link register save eliminated.
 1873 0000 90F88130 		ldrb	r3, [r0, #129]	@ zero_extendqisi2
 1874 0004 0BB9     		cbnz	r3, .L419
 1875 0006 0120     		movs	r0, #1
 1876 0008 7047     		bx	lr
 1877              	.L419:
 1878 000a 0368     		ldr	r3, [r0]
 1879 000c 30B4     		push	{r4, r5}
 1880 000e 5D68     		ldr	r5, [r3, #4]
 1881 0010 25F4FC55 		bic	r5, r5, #8064
 1882 0014 5D60     		str	r5, [r3, #4]
 1883 0016 5C68     		ldr	r4, [r3, #4]
 1884 0018 44EAC214 		orr	r4, r4, r2, lsl #7
 1885 001c 5C60     		str	r4, [r3, #4]
 1886 001e 1A69     		ldr	r2, [r3, #16]
 1887 0020 8167     		str	r1, [r0, #120]
 1888 0022 42F00202 		orr	r2, r2, #2
 1889 0026 0020     		movs	r0, #0
 1890 0028 1A61     		str	r2, [r3, #16]
 1891 002a 30BC     		pop	{r4, r5}
 1892 002c 7047     		bx	lr
 1894 002e 00BF     		.section	.text.HAL_SAI_DisableRxMuteMode,"ax",%progbits
 1895              		.align	1
 1896              		.p2align 2,,3
 1897              		.global	HAL_SAI_DisableRxMuteMode
 1898              		.syntax unified
 1899              		.thumb
 1900              		.thumb_func
 1901              		.fpu fpv4-sp-d16
 1903              	HAL_SAI_DisableRxMuteMode:
 1904              		@ args = 0, pretend = 0, frame = 0
 1905              		@ frame_needed = 0, uses_anonymous_args = 0
 1906              		@ link register save eliminated.
 1907 0000 90F88130 		ldrb	r3, [r0, #129]	@ zero_extendqisi2
 1908 0004 0BB9     		cbnz	r3, .L423
 1909 0006 0120     		movs	r0, #1
 1910 0008 7047     		bx	lr
 1911              	.L423:
 1912 000a 0168     		ldr	r1, [r0]
 1913 000c 0A69     		ldr	r2, [r1, #16]
 1914 000e 0023     		movs	r3, #0
 1915 0010 22F00202 		bic	r2, r2, #2
 1916 0014 8367     		str	r3, [r0, #120]
 1917 0016 1846     		mov	r0, r3
 1918 0018 0A61     		str	r2, [r1, #16]
ARM GAS  D:\Programs\cygwin64\tmp\ccFYcmIV.s 			page 34


 1919 001a 7047     		bx	lr
 1921              		.section	.text.HAL_SAI_TxCpltCallback,"ax",%progbits
 1922              		.align	1
 1923              		.p2align 2,,3
 1924              		.weak	HAL_SAI_TxCpltCallback
 1925              		.syntax unified
 1926              		.thumb
 1927              		.thumb_func
 1928              		.fpu fpv4-sp-d16
 1930              	HAL_SAI_TxCpltCallback:
 1931              		@ args = 0, pretend = 0, frame = 0
 1932              		@ frame_needed = 0, uses_anonymous_args = 0
 1933              		@ link register save eliminated.
 1934 0000 7047     		bx	lr
 1936 0002 00BF     		.section	.text.SAI_Transmit_IT32Bit,"ax",%progbits
 1937              		.align	1
 1938              		.p2align 2,,3
 1939              		.syntax unified
 1940              		.thumb
 1941              		.thumb_func
 1942              		.fpu fpv4-sp-d16
 1944              	SAI_Transmit_IT32Bit:
 1945              		@ args = 0, pretend = 0, frame = 0
 1946              		@ frame_needed = 0, uses_anonymous_args = 0
 1947 0000 38B5     		push	{r3, r4, r5, lr}
 1948 0002 B0F86E30 		ldrh	r3, [r0, #110]
 1949 0006 0268     		ldr	r2, [r0]
 1950 0008 B3B9     		cbnz	r3, .L426
 1951 000a 436B     		ldr	r3, [r0, #52]
 1952 000c 4168     		ldr	r1, [r0, #4]
 1953 000e 082B     		cmp	r3, #8
 1954 0010 1BD0     		beq	.L433
 1955 0012 6FF06905 		mvn	r5, #105
 1956 0016 6FF00D04 		mvn	r4, #13
 1957              	.L427:
 1958 001a 0346     		mov	r3, r0
 1959 001c 0239     		subs	r1, r1, #2
 1960 001e 1069     		ldr	r0, [r2, #16]
 1961 0020 0129     		cmp	r1, #1
 1962 0022 98BF     		it	ls
 1963 0024 2C46     		movls	r4, r5
 1964 0026 2040     		ands	r0, r0, r4
 1965 0028 0124     		movs	r4, #1
 1966 002a 1061     		str	r0, [r2, #16]
 1967 002c 1846     		mov	r0, r3
 1968 002e 83F88140 		strb	r4, [r3, #129]
 1969 0032 FFF7FEFF 		bl	HAL_SAI_TxCpltCallback
 1970 0036 38BD     		pop	{r3, r4, r5, pc}
 1971              	.L426:
 1972 0038 816E     		ldr	r1, [r0, #104]
 1973 003a 013B     		subs	r3, r3, #1
 1974 003c 51F8044B 		ldr	r4, [r1], #4
 1975 0040 D461     		str	r4, [r2, #28]
 1976 0042 A0F86E30 		strh	r3, [r0, #110]	@ movhi
 1977 0046 8166     		str	r1, [r0, #104]
 1978 0048 38BD     		pop	{r3, r4, r5, pc}
 1979              	.L433:
ARM GAS  D:\Programs\cygwin64\tmp\ccFYcmIV.s 			page 35


 1980 004a 21F00203 		bic	r3, r1, #2
 1981 004e 012B     		cmp	r3, #1
 1982 0050 0BBF     		itete	eq
 1983 0052 6FF07905 		mvneq	r5, #121
 1984 0056 6FF06905 		mvnne	r5, #105
 1985 005a 6FF01D04 		mvneq	r4, #29
 1986 005e 6FF00D04 		mvnne	r4, #13
 1987 0062 DAE7     		b	.L427
 1989              		.section	.text.SAI_DMATxCplt,"ax",%progbits
 1990              		.align	1
 1991              		.p2align 2,,3
 1992              		.syntax unified
 1993              		.thumb
 1994              		.thumb_func
 1995              		.fpu fpv4-sp-d16
 1997              	SAI_DMATxCplt:
 1998              		@ args = 0, pretend = 0, frame = 0
 1999              		@ frame_needed = 0, uses_anonymous_args = 0
 2000 0000 38B5     		push	{r3, r4, r5, lr}
 2001 0002 0368     		ldr	r3, [r0]
 2002 0004 806B     		ldr	r0, [r0, #56]
 2003 0006 1B68     		ldr	r3, [r3]
 2004 0008 13F48073 		ands	r3, r3, #256
 2005 000c 18D1     		bne	.L435
 2006 000e 0268     		ldr	r2, [r0]
 2007 0010 446B     		ldr	r4, [r0, #52]
 2008 0012 1168     		ldr	r1, [r2]
 2009 0014 A0F86E30 		strh	r3, [r0, #110]	@ movhi
 2010 0018 21F40031 		bic	r1, r1, #131072
 2011 001c 082C     		cmp	r4, #8
 2012 001e 1160     		str	r1, [r2]
 2013 0020 4368     		ldr	r3, [r0, #4]
 2014 0022 10D0     		beq	.L441
 2015 0024 6FF06105 		mvn	r5, #97
 2016 0028 6FF00504 		mvn	r4, #5
 2017              	.L436:
 2018 002c 1169     		ldr	r1, [r2, #16]
 2019 002e 023B     		subs	r3, r3, #2
 2020 0030 012B     		cmp	r3, #1
 2021 0032 98BF     		it	ls
 2022 0034 2C46     		movls	r4, r5
 2023 0036 0C40     		ands	r4, r4, r1
 2024 0038 0121     		movs	r1, #1
 2025 003a 1461     		str	r4, [r2, #16]
 2026 003c 80F88110 		strb	r1, [r0, #129]
 2027              	.L435:
 2028 0040 FFF7FEFF 		bl	HAL_SAI_TxCpltCallback
 2029 0044 38BD     		pop	{r3, r4, r5, pc}
 2030              	.L441:
 2031 0046 23F00201 		bic	r1, r3, #2
 2032 004a 0129     		cmp	r1, #1
 2033 004c 0BBF     		itete	eq
 2034 004e 6FF07105 		mvneq	r5, #113
 2035 0052 6FF06105 		mvnne	r5, #97
 2036 0056 6FF01504 		mvneq	r4, #21
 2037 005a 6FF00504 		mvnne	r4, #5
 2038 005e E5E7     		b	.L436
ARM GAS  D:\Programs\cygwin64\tmp\ccFYcmIV.s 			page 36


 2040              		.section	.text.SAI_Transmit_IT8Bit,"ax",%progbits
 2041              		.align	1
 2042              		.p2align 2,,3
 2043              		.syntax unified
 2044              		.thumb
 2045              		.thumb_func
 2046              		.fpu fpv4-sp-d16
 2048              	SAI_Transmit_IT8Bit:
 2049              		@ args = 0, pretend = 0, frame = 0
 2050              		@ frame_needed = 0, uses_anonymous_args = 0
 2051 0000 38B5     		push	{r3, r4, r5, lr}
 2052 0002 B0F86E30 		ldrh	r3, [r0, #110]
 2053 0006 0268     		ldr	r2, [r0]
 2054 0008 B3B9     		cbnz	r3, .L443
 2055 000a 436B     		ldr	r3, [r0, #52]
 2056 000c 4168     		ldr	r1, [r0, #4]
 2057 000e 082B     		cmp	r3, #8
 2058 0010 1BD0     		beq	.L450
 2059 0012 6FF06905 		mvn	r5, #105
 2060 0016 6FF00D04 		mvn	r4, #13
 2061              	.L444:
 2062 001a 0346     		mov	r3, r0
 2063 001c 0239     		subs	r1, r1, #2
 2064 001e 1069     		ldr	r0, [r2, #16]
 2065 0020 0129     		cmp	r1, #1
 2066 0022 98BF     		it	ls
 2067 0024 2C46     		movls	r4, r5
 2068 0026 2040     		ands	r0, r0, r4
 2069 0028 0124     		movs	r4, #1
 2070 002a 1061     		str	r0, [r2, #16]
 2071 002c 1846     		mov	r0, r3
 2072 002e 83F88140 		strb	r4, [r3, #129]
 2073 0032 FFF7FEFF 		bl	HAL_SAI_TxCpltCallback
 2074 0036 38BD     		pop	{r3, r4, r5, pc}
 2075              	.L443:
 2076 0038 816E     		ldr	r1, [r0, #104]
 2077 003a 4C1C     		adds	r4, r1, #1
 2078 003c 8466     		str	r4, [r0, #104]
 2079 003e 0978     		ldrb	r1, [r1]	@ zero_extendqisi2
 2080 0040 D161     		str	r1, [r2, #28]
 2081 0042 013B     		subs	r3, r3, #1
 2082 0044 A0F86E30 		strh	r3, [r0, #110]	@ movhi
 2083 0048 38BD     		pop	{r3, r4, r5, pc}
 2084              	.L450:
 2085 004a 21F00203 		bic	r3, r1, #2
 2086 004e 012B     		cmp	r3, #1
 2087 0050 0BBF     		itete	eq
 2088 0052 6FF07905 		mvneq	r5, #121
 2089 0056 6FF06905 		mvnne	r5, #105
 2090 005a 6FF01D04 		mvneq	r4, #29
 2091 005e 6FF00D04 		mvnne	r4, #13
 2092 0062 DAE7     		b	.L444
 2094              		.section	.text.SAI_Transmit_IT16Bit,"ax",%progbits
 2095              		.align	1
 2096              		.p2align 2,,3
 2097              		.syntax unified
 2098              		.thumb
ARM GAS  D:\Programs\cygwin64\tmp\ccFYcmIV.s 			page 37


 2099              		.thumb_func
 2100              		.fpu fpv4-sp-d16
 2102              	SAI_Transmit_IT16Bit:
 2103              		@ args = 0, pretend = 0, frame = 0
 2104              		@ frame_needed = 0, uses_anonymous_args = 0
 2105 0000 38B5     		push	{r3, r4, r5, lr}
 2106 0002 B0F86E30 		ldrh	r3, [r0, #110]
 2107 0006 0268     		ldr	r2, [r0]
 2108 0008 B3B9     		cbnz	r3, .L452
 2109 000a 436B     		ldr	r3, [r0, #52]
 2110 000c 4168     		ldr	r1, [r0, #4]
 2111 000e 082B     		cmp	r3, #8
 2112 0010 1BD0     		beq	.L459
 2113 0012 6FF06905 		mvn	r5, #105
 2114 0016 6FF00D04 		mvn	r4, #13
 2115              	.L453:
 2116 001a 0346     		mov	r3, r0
 2117 001c 0239     		subs	r1, r1, #2
 2118 001e 1069     		ldr	r0, [r2, #16]
 2119 0020 0129     		cmp	r1, #1
 2120 0022 98BF     		it	ls
 2121 0024 2C46     		movls	r4, r5
 2122 0026 2040     		ands	r0, r0, r4
 2123 0028 0124     		movs	r4, #1
 2124 002a 1061     		str	r0, [r2, #16]
 2125 002c 1846     		mov	r0, r3
 2126 002e 83F88140 		strb	r4, [r3, #129]
 2127 0032 FFF7FEFF 		bl	HAL_SAI_TxCpltCallback
 2128 0036 38BD     		pop	{r3, r4, r5, pc}
 2129              	.L452:
 2130 0038 816E     		ldr	r1, [r0, #104]
 2131 003a 013B     		subs	r3, r3, #1
 2132 003c 31F8024B 		ldrh	r4, [r1], #2
 2133 0040 D461     		str	r4, [r2, #28]
 2134 0042 A0F86E30 		strh	r3, [r0, #110]	@ movhi
 2135 0046 8166     		str	r1, [r0, #104]
 2136 0048 38BD     		pop	{r3, r4, r5, pc}
 2137              	.L459:
 2138 004a 21F00203 		bic	r3, r1, #2
 2139 004e 012B     		cmp	r3, #1
 2140 0050 0BBF     		itete	eq
 2141 0052 6FF07905 		mvneq	r5, #121
 2142 0056 6FF06905 		mvnne	r5, #105
 2143 005a 6FF01D04 		mvneq	r4, #29
 2144 005e 6FF00D04 		mvnne	r4, #13
 2145 0062 DAE7     		b	.L453
 2147              		.section	.text.HAL_SAI_TxHalfCpltCallback,"ax",%progbits
 2148              		.align	1
 2149              		.p2align 2,,3
 2150              		.weak	HAL_SAI_TxHalfCpltCallback
 2151              		.syntax unified
 2152              		.thumb
 2153              		.thumb_func
 2154              		.fpu fpv4-sp-d16
 2156              	HAL_SAI_TxHalfCpltCallback:
 2157              		@ args = 0, pretend = 0, frame = 0
 2158              		@ frame_needed = 0, uses_anonymous_args = 0
ARM GAS  D:\Programs\cygwin64\tmp\ccFYcmIV.s 			page 38


 2159              		@ link register save eliminated.
 2160 0000 7047     		bx	lr
 2162 0002 00BF     		.section	.text.SAI_DMATxHalfCplt,"ax",%progbits
 2163              		.align	1
 2164              		.p2align 2,,3
 2165              		.syntax unified
 2166              		.thumb
 2167              		.thumb_func
 2168              		.fpu fpv4-sp-d16
 2170              	SAI_DMATxHalfCplt:
 2171              		@ args = 0, pretend = 0, frame = 0
 2172              		@ frame_needed = 0, uses_anonymous_args = 0
 2173 0000 08B5     		push	{r3, lr}
 2174 0002 806B     		ldr	r0, [r0, #56]
 2175 0004 FFF7FEFF 		bl	HAL_SAI_TxHalfCpltCallback
 2176 0008 08BD     		pop	{r3, pc}
 2178 000a 00BF     		.section	.text.HAL_SAI_RxCpltCallback,"ax",%progbits
 2179              		.align	1
 2180              		.p2align 2,,3
 2181              		.weak	HAL_SAI_RxCpltCallback
 2182              		.syntax unified
 2183              		.thumb
 2184              		.thumb_func
 2185              		.fpu fpv4-sp-d16
 2187              	HAL_SAI_RxCpltCallback:
 2188              		@ args = 0, pretend = 0, frame = 0
 2189              		@ frame_needed = 0, uses_anonymous_args = 0
 2190              		@ link register save eliminated.
 2191 0000 7047     		bx	lr
 2193 0002 00BF     		.section	.text.SAI_Receive_IT32Bit,"ax",%progbits
 2194              		.align	1
 2195              		.p2align 2,,3
 2196              		.syntax unified
 2197              		.thumb
 2198              		.thumb_func
 2199              		.fpu fpv4-sp-d16
 2201              	SAI_Receive_IT32Bit:
 2202              		@ args = 0, pretend = 0, frame = 0
 2203              		@ frame_needed = 0, uses_anonymous_args = 0
 2204 0000 0168     		ldr	r1, [r0]
 2205 0002 826E     		ldr	r2, [r0, #104]
 2206 0004 38B5     		push	{r3, r4, r5, lr}
 2207 0006 B0F86E30 		ldrh	r3, [r0, #110]
 2208 000a CC69     		ldr	r4, [r1, #28]
 2209 000c 42F8044B 		str	r4, [r2], #4
 2210 0010 013B     		subs	r3, r3, #1
 2211 0012 9BB2     		uxth	r3, r3
 2212 0014 8266     		str	r2, [r0, #104]
 2213 0016 A0F86E30 		strh	r3, [r0, #110]	@ movhi
 2214 001a B3B9     		cbnz	r3, .L464
 2215 001c 436B     		ldr	r3, [r0, #52]
 2216 001e 4268     		ldr	r2, [r0, #4]
 2217 0020 082B     		cmp	r3, #8
 2218 0022 13D0     		beq	.L471
 2219 0024 6FF06905 		mvn	r5, #105
 2220 0028 6FF00D04 		mvn	r4, #13
 2221              	.L466:
ARM GAS  D:\Programs\cygwin64\tmp\ccFYcmIV.s 			page 39


 2222 002c 0346     		mov	r3, r0
 2223 002e 023A     		subs	r2, r2, #2
 2224 0030 0869     		ldr	r0, [r1, #16]
 2225 0032 012A     		cmp	r2, #1
 2226 0034 98BF     		it	ls
 2227 0036 2C46     		movls	r4, r5
 2228 0038 2040     		ands	r0, r0, r4
 2229 003a 0124     		movs	r4, #1
 2230 003c 0861     		str	r0, [r1, #16]
 2231 003e 8C61     		str	r4, [r1, #24]
 2232 0040 1846     		mov	r0, r3
 2233 0042 83F88140 		strb	r4, [r3, #129]
 2234 0046 FFF7FEFF 		bl	HAL_SAI_RxCpltCallback
 2235              	.L464:
 2236 004a 38BD     		pop	{r3, r4, r5, pc}
 2237              	.L471:
 2238 004c 22F00203 		bic	r3, r2, #2
 2239 0050 012B     		cmp	r3, #1
 2240 0052 0BBF     		itete	eq
 2241 0054 6FF07905 		mvneq	r5, #121
 2242 0058 6FF06905 		mvnne	r5, #105
 2243 005c 6FF01D04 		mvneq	r4, #29
 2244 0060 6FF00D04 		mvnne	r4, #13
 2245 0064 E2E7     		b	.L466
 2247 0066 00BF     		.section	.text.SAI_Receive_IT16Bit,"ax",%progbits
 2248              		.align	1
 2249              		.p2align 2,,3
 2250              		.syntax unified
 2251              		.thumb
 2252              		.thumb_func
 2253              		.fpu fpv4-sp-d16
 2255              	SAI_Receive_IT16Bit:
 2256              		@ args = 0, pretend = 0, frame = 0
 2257              		@ frame_needed = 0, uses_anonymous_args = 0
 2258 0000 0168     		ldr	r1, [r0]
 2259 0002 826E     		ldr	r2, [r0, #104]
 2260 0004 38B5     		push	{r3, r4, r5, lr}
 2261 0006 CB69     		ldr	r3, [r1, #28]
 2262 0008 22F8023B 		strh	r3, [r2], #2	@ movhi
 2263 000c B0F86E30 		ldrh	r3, [r0, #110]
 2264 0010 8266     		str	r2, [r0, #104]
 2265 0012 013B     		subs	r3, r3, #1
 2266 0014 9BB2     		uxth	r3, r3
 2267 0016 A0F86E30 		strh	r3, [r0, #110]	@ movhi
 2268 001a B3B9     		cbnz	r3, .L472
 2269 001c 436B     		ldr	r3, [r0, #52]
 2270 001e 4268     		ldr	r2, [r0, #4]
 2271 0020 082B     		cmp	r3, #8
 2272 0022 13D0     		beq	.L479
 2273 0024 6FF06905 		mvn	r5, #105
 2274 0028 6FF00D04 		mvn	r4, #13
 2275              	.L474:
 2276 002c 0346     		mov	r3, r0
 2277 002e 023A     		subs	r2, r2, #2
 2278 0030 0869     		ldr	r0, [r1, #16]
 2279 0032 012A     		cmp	r2, #1
 2280 0034 98BF     		it	ls
ARM GAS  D:\Programs\cygwin64\tmp\ccFYcmIV.s 			page 40


 2281 0036 2C46     		movls	r4, r5
 2282 0038 2040     		ands	r0, r0, r4
 2283 003a 0124     		movs	r4, #1
 2284 003c 0861     		str	r0, [r1, #16]
 2285 003e 8C61     		str	r4, [r1, #24]
 2286 0040 1846     		mov	r0, r3
 2287 0042 83F88140 		strb	r4, [r3, #129]
 2288 0046 FFF7FEFF 		bl	HAL_SAI_RxCpltCallback
 2289              	.L472:
 2290 004a 38BD     		pop	{r3, r4, r5, pc}
 2291              	.L479:
 2292 004c 22F00203 		bic	r3, r2, #2
 2293 0050 012B     		cmp	r3, #1
 2294 0052 0BBF     		itete	eq
 2295 0054 6FF07905 		mvneq	r5, #121
 2296 0058 6FF06905 		mvnne	r5, #105
 2297 005c 6FF01D04 		mvneq	r4, #29
 2298 0060 6FF00D04 		mvnne	r4, #13
 2299 0064 E2E7     		b	.L474
 2301 0066 00BF     		.section	.text.SAI_Receive_IT8Bit,"ax",%progbits
 2302              		.align	1
 2303              		.p2align 2,,3
 2304              		.syntax unified
 2305              		.thumb
 2306              		.thumb_func
 2307              		.fpu fpv4-sp-d16
 2309              	SAI_Receive_IT8Bit:
 2310              		@ args = 0, pretend = 0, frame = 0
 2311              		@ frame_needed = 0, uses_anonymous_args = 0
 2312 0000 38B5     		push	{r3, r4, r5, lr}
 2313 0002 0268     		ldr	r2, [r0]
 2314 0004 836E     		ldr	r3, [r0, #104]
 2315 0006 D269     		ldr	r2, [r2, #28]
 2316 0008 591C     		adds	r1, r3, #1
 2317 000a 8166     		str	r1, [r0, #104]
 2318 000c 1A70     		strb	r2, [r3]
 2319 000e B0F86E30 		ldrh	r3, [r0, #110]
 2320 0012 013B     		subs	r3, r3, #1
 2321 0014 9BB2     		uxth	r3, r3
 2322 0016 A0F86E30 		strh	r3, [r0, #110]	@ movhi
 2323 001a BBB9     		cbnz	r3, .L480
 2324 001c 436B     		ldr	r3, [r0, #52]
 2325 001e 4268     		ldr	r2, [r0, #4]
 2326 0020 082B     		cmp	r3, #8
 2327 0022 14D0     		beq	.L487
 2328 0024 6FF06905 		mvn	r5, #105
 2329 0028 6FF00D04 		mvn	r4, #13
 2330              	.L482:
 2331 002c 0168     		ldr	r1, [r0]
 2332 002e 0346     		mov	r3, r0
 2333 0030 023A     		subs	r2, r2, #2
 2334 0032 0869     		ldr	r0, [r1, #16]
 2335 0034 012A     		cmp	r2, #1
 2336 0036 98BF     		it	ls
 2337 0038 2C46     		movls	r4, r5
 2338 003a 2040     		ands	r0, r0, r4
 2339 003c 0124     		movs	r4, #1
ARM GAS  D:\Programs\cygwin64\tmp\ccFYcmIV.s 			page 41


 2340 003e 0861     		str	r0, [r1, #16]
 2341 0040 8C61     		str	r4, [r1, #24]
 2342 0042 1846     		mov	r0, r3
 2343 0044 83F88140 		strb	r4, [r3, #129]
 2344 0048 FFF7FEFF 		bl	HAL_SAI_RxCpltCallback
 2345              	.L480:
 2346 004c 38BD     		pop	{r3, r4, r5, pc}
 2347              	.L487:
 2348 004e 22F00203 		bic	r3, r2, #2
 2349 0052 012B     		cmp	r3, #1
 2350 0054 0BBF     		itete	eq
 2351 0056 6FF07905 		mvneq	r5, #121
 2352 005a 6FF06905 		mvnne	r5, #105
 2353 005e 6FF01D04 		mvneq	r4, #29
 2354 0062 6FF00D04 		mvnne	r4, #13
 2355 0066 E1E7     		b	.L482
 2357              		.section	.text.SAI_DMARxCplt,"ax",%progbits
 2358              		.align	1
 2359              		.p2align 2,,3
 2360              		.syntax unified
 2361              		.thumb
 2362              		.thumb_func
 2363              		.fpu fpv4-sp-d16
 2365              	SAI_DMARxCplt:
 2366              		@ args = 0, pretend = 0, frame = 0
 2367              		@ frame_needed = 0, uses_anonymous_args = 0
 2368 0000 38B5     		push	{r3, r4, r5, lr}
 2369 0002 0368     		ldr	r3, [r0]
 2370 0004 806B     		ldr	r0, [r0, #56]
 2371 0006 1B68     		ldr	r3, [r3]
 2372 0008 13F48073 		ands	r3, r3, #256
 2373 000c 18D1     		bne	.L489
 2374 000e 0268     		ldr	r2, [r0]
 2375 0010 456B     		ldr	r5, [r0, #52]
 2376 0012 1468     		ldr	r4, [r2]
 2377 0014 4168     		ldr	r1, [r0, #4]
 2378 0016 24F40034 		bic	r4, r4, #131072
 2379 001a 082D     		cmp	r5, #8
 2380 001c 1460     		str	r4, [r2]
 2381 001e A0F86E30 		strh	r3, [r0, #110]	@ movhi
 2382 0022 10D0     		beq	.L495
 2383 0024 6FF06105 		mvn	r5, #97
 2384 0028 6FF00504 		mvn	r4, #5
 2385              	.L490:
 2386 002c 1369     		ldr	r3, [r2, #16]
 2387 002e 0239     		subs	r1, r1, #2
 2388 0030 0129     		cmp	r1, #1
 2389 0032 98BF     		it	ls
 2390 0034 2C46     		movls	r4, r5
 2391 0036 2340     		ands	r3, r3, r4
 2392 0038 0121     		movs	r1, #1
 2393 003a 1361     		str	r3, [r2, #16]
 2394 003c 80F88110 		strb	r1, [r0, #129]
 2395              	.L489:
 2396 0040 FFF7FEFF 		bl	HAL_SAI_RxCpltCallback
 2397 0044 38BD     		pop	{r3, r4, r5, pc}
 2398              	.L495:
ARM GAS  D:\Programs\cygwin64\tmp\ccFYcmIV.s 			page 42


 2399 0046 21F00203 		bic	r3, r1, #2
 2400 004a 012B     		cmp	r3, #1
 2401 004c 0BBF     		itete	eq
 2402 004e 6FF07105 		mvneq	r5, #113
 2403 0052 6FF06105 		mvnne	r5, #97
 2404 0056 6FF01504 		mvneq	r4, #21
 2405 005a 6FF00504 		mvnne	r4, #5
 2406 005e E5E7     		b	.L490
 2408              		.section	.text.HAL_SAI_RxHalfCpltCallback,"ax",%progbits
 2409              		.align	1
 2410              		.p2align 2,,3
 2411              		.weak	HAL_SAI_RxHalfCpltCallback
 2412              		.syntax unified
 2413              		.thumb
 2414              		.thumb_func
 2415              		.fpu fpv4-sp-d16
 2417              	HAL_SAI_RxHalfCpltCallback:
 2418              		@ args = 0, pretend = 0, frame = 0
 2419              		@ frame_needed = 0, uses_anonymous_args = 0
 2420              		@ link register save eliminated.
 2421 0000 7047     		bx	lr
 2423 0002 00BF     		.section	.text.SAI_DMARxHalfCplt,"ax",%progbits
 2424              		.align	1
 2425              		.p2align 2,,3
 2426              		.syntax unified
 2427              		.thumb
 2428              		.thumb_func
 2429              		.fpu fpv4-sp-d16
 2431              	SAI_DMARxHalfCplt:
 2432              		@ args = 0, pretend = 0, frame = 0
 2433              		@ frame_needed = 0, uses_anonymous_args = 0
 2434 0000 08B5     		push	{r3, lr}
 2435 0002 806B     		ldr	r0, [r0, #56]
 2436 0004 FFF7FEFF 		bl	HAL_SAI_RxHalfCpltCallback
 2437 0008 08BD     		pop	{r3, pc}
 2439 000a 00BF     		.section	.text.HAL_SAI_ErrorCallback,"ax",%progbits
 2440              		.align	1
 2441              		.p2align 2,,3
 2442              		.weak	HAL_SAI_ErrorCallback
 2443              		.syntax unified
 2444              		.thumb
 2445              		.thumb_func
 2446              		.fpu fpv4-sp-d16
 2448              	HAL_SAI_ErrorCallback:
 2449              		@ args = 0, pretend = 0, frame = 0
 2450              		@ frame_needed = 0, uses_anonymous_args = 0
 2451              		@ link register save eliminated.
 2452 0000 7047     		bx	lr
 2454 0002 00BF     		.section	.text.SAI_DMAError,"ax",%progbits
 2455              		.align	1
 2456              		.p2align 2,,3
 2457              		.syntax unified
 2458              		.thumb
 2459              		.thumb_func
 2460              		.fpu fpv4-sp-d16
 2462              	SAI_DMAError:
 2463              		@ args = 0, pretend = 0, frame = 0
ARM GAS  D:\Programs\cygwin64\tmp\ccFYcmIV.s 			page 43


 2464              		@ frame_needed = 0, uses_anonymous_args = 0
 2465 0000 806B     		ldr	r0, [r0, #56]
 2466 0002 D0F88430 		ldr	r3, [r0, #132]
 2467 0006 026F     		ldr	r2, [r0, #112]
 2468 0008 43F08003 		orr	r3, r3, #128
 2469 000c 10B5     		push	{r4, lr}
 2470 000e C0F88430 		str	r3, [r0, #132]
 2471 0012 536D     		ldr	r3, [r2, #84]
 2472 0014 012B     		cmp	r3, #1
 2473 0016 06D0     		beq	.L501
 2474 0018 436F     		ldr	r3, [r0, #116]
 2475 001a 5B6D     		ldr	r3, [r3, #84]
 2476 001c 012B     		cmp	r3, #1
 2477 001e 02D0     		beq	.L501
 2478 0020 FFF7FEFF 		bl	HAL_SAI_ErrorCallback
 2479 0024 10BD     		pop	{r4, pc}
 2480              	.L501:
 2481 0026 0168     		ldr	r1, [r0]
 2482 0028 124B     		ldr	r3, .L511
 2483 002a 0A68     		ldr	r2, [r1]
 2484 002c 1B68     		ldr	r3, [r3]
 2485 002e 124C     		ldr	r4, .L511+4
 2486 0030 22F40032 		bic	r2, r2, #131072
 2487 0034 0A60     		str	r2, [r1]
 2488 0036 0A68     		ldr	r2, [r1]
 2489 0038 A4FB0343 		umull	r4, r3, r4, r3
 2490 003c 22F48032 		bic	r2, r2, #65536
 2491 0040 1B0B     		lsrs	r3, r3, #12
 2492 0042 0A60     		str	r2, [r1]
 2493 0044 9B00     		lsls	r3, r3, #2
 2494 0046 02E0     		b	.L505
 2495              	.L503:
 2496 0048 0A68     		ldr	r2, [r1]
 2497 004a D203     		lsls	r2, r2, #15
 2498 004c 08D5     		bpl	.L504
 2499              	.L505:
 2500 004e 13F1FF33 		adds	r3, r3, #-1
 2501 0052 F9D2     		bcs	.L503
 2502 0054 D0F88430 		ldr	r3, [r0, #132]
 2503 0058 43F04003 		orr	r3, r3, #64
 2504 005c C0F88430 		str	r3, [r0, #132]
 2505              	.L504:
 2506 0060 0122     		movs	r2, #1
 2507 0062 0023     		movs	r3, #0
 2508 0064 80F88120 		strb	r2, [r0, #129]
 2509 0068 A0F86E30 		strh	r3, [r0, #110]	@ movhi
 2510 006c FFF7FEFF 		bl	HAL_SAI_ErrorCallback
 2511 0070 10BD     		pop	{r4, pc}
 2512              	.L512:
 2513 0072 00BF     		.align	2
 2514              	.L511:
 2515 0074 00000000 		.word	SystemCoreClock
 2516 0078 1BECCB95 		.word	-1781797861
 2518              		.section	.text.HAL_SAI_IRQHandler,"ax",%progbits
 2519              		.align	1
 2520              		.p2align 2,,3
 2521              		.global	HAL_SAI_IRQHandler
ARM GAS  D:\Programs\cygwin64\tmp\ccFYcmIV.s 			page 44


 2522              		.syntax unified
 2523              		.thumb
 2524              		.thumb_func
 2525              		.fpu fpv4-sp-d16
 2527              	HAL_SAI_IRQHandler:
 2528              		@ args = 0, pretend = 0, frame = 8
 2529              		@ frame_needed = 0, uses_anonymous_args = 0
 2530 0000 90F88120 		ldrb	r2, [r0, #129]	@ zero_extendqisi2
 2531 0004 02B9     		cbnz	r2, .L600
 2532 0006 7047     		bx	lr
 2533              	.L600:
 2534 0008 30B5     		push	{r4, r5, lr}
 2535 000a 0168     		ldr	r1, [r0]
 2536 000c 4A69     		ldr	r2, [r1, #20]
 2537 000e 0C69     		ldr	r4, [r1, #16]
 2538 0010 0D68     		ldr	r5, [r1]
 2539 0012 12F0080F 		tst	r2, #8
 2540 0016 83B0     		sub	sp, sp, #12
 2541 0018 0346     		mov	r3, r0
 2542 001a 07D0     		beq	.L516
 2543 001c 14F0080F 		tst	r4, #8
 2544 0020 04D0     		beq	.L516
 2545 0022 C36F     		ldr	r3, [r0, #124]
 2546 0024 03B0     		add	sp, sp, #12
 2547              		@ sp needed
 2548 0026 BDE83040 		pop	{r4, r5, lr}
 2549 002a 1847     		bx	r3	@ indirect register sibling call
 2550              	.L516:
 2551 002c D007     		lsls	r0, r2, #31
 2552 002e 13D5     		bpl	.L517
 2553 0030 E007     		lsls	r0, r4, #31
 2554 0032 11D5     		bpl	.L517
 2555 0034 0122     		movs	r2, #1
 2556 0036 8A61     		str	r2, [r1, #24]
 2557 0038 93F88110 		ldrb	r1, [r3, #129]	@ zero_extendqisi2
 2558 003c D3F88420 		ldr	r2, [r3, #132]
 2559 0040 2229     		cmp	r1, #34
 2560 0042 0CBF     		ite	eq
 2561 0044 0121     		moveq	r1, #1
 2562 0046 0221     		movne	r1, #2
 2563 0048 0A43     		orrs	r2, r2, r1
 2564 004a C3F88420 		str	r2, [r3, #132]
 2565 004e 1846     		mov	r0, r3
 2566 0050 FFF7FEFF 		bl	HAL_SAI_ErrorCallback
 2567              	.L513:
 2568 0054 03B0     		add	sp, sp, #12
 2569              		@ sp needed
 2570 0056 30BD     		pop	{r4, r5, pc}
 2571              	.L517:
 2572 0058 9007     		lsls	r0, r2, #30
 2573 005a 0AD5     		bpl	.L519
 2574 005c A007     		lsls	r0, r4, #30
 2575 005e 08D5     		bpl	.L519
 2576 0060 9B6F     		ldr	r3, [r3, #120]
 2577 0062 0222     		movs	r2, #2
 2578 0064 8A61     		str	r2, [r1, #24]
 2579 0066 002B     		cmp	r3, #0
ARM GAS  D:\Programs\cygwin64\tmp\ccFYcmIV.s 			page 45


 2580 0068 F4D0     		beq	.L513
 2581 006a 03B0     		add	sp, sp, #12
 2582              		@ sp needed
 2583 006c BDE83040 		pop	{r4, r5, lr}
 2584 0070 1847     		bx	r3	@ indirect register sibling call
 2585              	.L519:
 2586 0072 9006     		lsls	r0, r2, #26
 2587 0074 13D5     		bpl	.L521
 2588 0076 A006     		lsls	r0, r4, #26
 2589 0078 11D5     		bpl	.L521
 2590 007a D3F88420 		ldr	r2, [r3, #132]
 2591 007e AC03     		lsls	r4, r5, #14
 2592 0080 42F00402 		orr	r2, r2, #4
 2593 0084 C3F88420 		str	r2, [r3, #132]
 2594 0088 15D5     		bpl	.L522
 2595              	.L598:
 2596 008a 186F     		ldr	r0, [r3, #112]
 2597 008c 0028     		cmp	r0, #0
 2598 008e 45D0     		beq	.L528
 2599              	.L594:
 2600 0090 244B     		ldr	r3, .L601
 2601 0092 0365     		str	r3, [r0, #80]
 2602 0094 03B0     		add	sp, sp, #12
 2603              		@ sp needed
 2604 0096 BDE83040 		pop	{r4, r5, lr}
 2605 009a FFF7FEBF 		b	HAL_DMA_Abort_IT
 2606              	.L521:
 2607 009e 5006     		lsls	r0, r2, #25
 2608 00a0 12D5     		bpl	.L524
 2609 00a2 6006     		lsls	r0, r4, #25
 2610 00a4 10D5     		bpl	.L524
 2611 00a6 D3F88420 		ldr	r2, [r3, #132]
 2612 00aa AC03     		lsls	r4, r5, #14
 2613 00ac 42F00802 		orr	r2, r2, #8
 2614 00b0 C3F88420 		str	r2, [r3, #132]
 2615 00b4 E9D4     		bmi	.L598
 2616              	.L522:
 2617 00b6 1846     		mov	r0, r3
 2618 00b8 0193     		str	r3, [sp, #4]
 2619 00ba FFF7FEFF 		bl	HAL_SAI_Abort
 2620 00be 019B     		ldr	r3, [sp, #4]
 2621 00c0 1846     		mov	r0, r3
 2622 00c2 FFF7FEFF 		bl	HAL_SAI_ErrorCallback
 2623 00c6 C5E7     		b	.L513
 2624              	.L524:
 2625 00c8 5007     		lsls	r0, r2, #29
 2626 00ca 17D5     		bpl	.L526
 2627 00cc 6007     		lsls	r0, r4, #29
 2628 00ce 15D5     		bpl	.L526
 2629 00d0 D3F88420 		ldr	r2, [r3, #132]
 2630 00d4 15F40035 		ands	r5, r5, #131072
 2631 00d8 42F02002 		orr	r2, r2, #32
 2632 00dc C3F88420 		str	r2, [r3, #132]
 2633 00e0 D3D1     		bne	.L598
 2634 00e2 4FF0FF30 		mov	r0, #-1
 2635 00e6 0122     		movs	r2, #1
 2636 00e8 0D61     		str	r5, [r1, #16]
ARM GAS  D:\Programs\cygwin64\tmp\ccFYcmIV.s 			page 46


 2637 00ea 8861     		str	r0, [r1, #24]
 2638 00ec 1846     		mov	r0, r3
 2639 00ee A3F86E50 		strh	r5, [r3, #110]	@ movhi
 2640 00f2 83F88120 		strb	r2, [r3, #129]
 2641 00f6 FFF7FEFF 		bl	HAL_SAI_ErrorCallback
 2642 00fa ABE7     		b	.L513
 2643              	.L526:
 2644 00fc D006     		lsls	r0, r2, #27
 2645 00fe A9D5     		bpl	.L513
 2646 0100 E206     		lsls	r2, r4, #27
 2647 0102 A7D5     		bpl	.L513
 2648 0104 1022     		movs	r2, #16
 2649 0106 8A61     		str	r2, [r1, #24]
 2650 0108 D3F88420 		ldr	r2, [r3, #132]
 2651 010c 42F01002 		orr	r2, r2, #16
 2652 0110 C3F88420 		str	r2, [r3, #132]
 2653 0114 1846     		mov	r0, r3
 2654 0116 FFF7FEFF 		bl	HAL_SAI_ErrorCallback
 2655 011a 9BE7     		b	.L513
 2656              	.L528:
 2657 011c 586F     		ldr	r0, [r3, #116]
 2658 011e 0028     		cmp	r0, #0
 2659 0120 B6D1     		bne	.L594
 2660 0122 97E7     		b	.L513
 2661              	.L602:
 2662              		.align	2
 2663              	.L601:
 2664 0124 00000000 		.word	SAI_DMAAbort
 2666              		.section	.text.SAI_DMAAbort,"ax",%progbits
 2667              		.align	1
 2668              		.p2align 2,,3
 2669              		.syntax unified
 2670              		.thumb
 2671              		.thumb_func
 2672              		.fpu fpv4-sp-d16
 2674              	SAI_DMAAbort:
 2675              		@ args = 0, pretend = 0, frame = 0
 2676              		@ frame_needed = 0, uses_anonymous_args = 0
 2677 0000 806B     		ldr	r0, [r0, #56]
 2678 0002 0268     		ldr	r2, [r0]
 2679 0004 1368     		ldr	r3, [r2]
 2680 0006 10B5     		push	{r4, lr}
 2681 0008 23F40033 		bic	r3, r3, #131072
 2682 000c 0024     		movs	r4, #0
 2683 000e 4FF0FF31 		mov	r1, #-1
 2684 0012 1360     		str	r3, [r2]
 2685 0014 1461     		str	r4, [r2, #16]
 2686 0016 9161     		str	r1, [r2, #24]
 2687 0018 D0F88430 		ldr	r3, [r0, #132]
 2688 001c 202B     		cmp	r3, #32
 2689 001e 1BD0     		beq	.L604
 2690 0020 124B     		ldr	r3, .L613
 2691 0022 134C     		ldr	r4, .L613+4
 2692 0024 1B68     		ldr	r3, [r3]
 2693 0026 1168     		ldr	r1, [r2]
 2694 0028 A4FB0343 		umull	r4, r3, r4, r3
 2695 002c 1B0B     		lsrs	r3, r3, #12
ARM GAS  D:\Programs\cygwin64\tmp\ccFYcmIV.s 			page 47


 2696 002e 21F48031 		bic	r1, r1, #65536
 2697 0032 9B00     		lsls	r3, r3, #2
 2698 0034 1160     		str	r1, [r2]
 2699 0036 02E0     		b	.L607
 2700              	.L605:
 2701 0038 1168     		ldr	r1, [r2]
 2702 003a C903     		lsls	r1, r1, #15
 2703 003c 08D5     		bpl	.L606
 2704              	.L607:
 2705 003e 13F1FF33 		adds	r3, r3, #-1
 2706 0042 F9D2     		bcs	.L605
 2707 0044 D0F88430 		ldr	r3, [r0, #132]
 2708 0048 43F04003 		orr	r3, r3, #64
 2709 004c C0F88430 		str	r3, [r0, #132]
 2710              	.L606:
 2711 0050 5368     		ldr	r3, [r2, #4]
 2712 0052 43F00803 		orr	r3, r3, #8
 2713 0056 5360     		str	r3, [r2, #4]
 2714              	.L604:
 2715 0058 0122     		movs	r2, #1
 2716 005a 0023     		movs	r3, #0
 2717 005c 80F88120 		strb	r2, [r0, #129]
 2718 0060 A0F86E30 		strh	r3, [r0, #110]	@ movhi
 2719 0064 FFF7FEFF 		bl	HAL_SAI_ErrorCallback
 2720 0068 10BD     		pop	{r4, pc}
 2721              	.L614:
 2722 006a 00BF     		.align	2
 2723              	.L613:
 2724 006c 00000000 		.word	SystemCoreClock
 2725 0070 1BECCB95 		.word	-1781797861
 2727              		.section	.text.HAL_SAI_GetState,"ax",%progbits
 2728              		.align	1
 2729              		.p2align 2,,3
 2730              		.global	HAL_SAI_GetState
 2731              		.syntax unified
 2732              		.thumb
 2733              		.thumb_func
 2734              		.fpu fpv4-sp-d16
 2736              	HAL_SAI_GetState:
 2737              		@ args = 0, pretend = 0, frame = 0
 2738              		@ frame_needed = 0, uses_anonymous_args = 0
 2739              		@ link register save eliminated.
 2740 0000 90F88100 		ldrb	r0, [r0, #129]	@ zero_extendqisi2
 2741 0004 7047     		bx	lr
 2743 0006 00BF     		.section	.text.HAL_SAI_GetError,"ax",%progbits
 2744              		.align	1
 2745              		.p2align 2,,3
 2746              		.global	HAL_SAI_GetError
 2747              		.syntax unified
 2748              		.thumb
 2749              		.thumb_func
 2750              		.fpu fpv4-sp-d16
 2752              	HAL_SAI_GetError:
 2753              		@ args = 0, pretend = 0, frame = 0
 2754              		@ frame_needed = 0, uses_anonymous_args = 0
 2755              		@ link register save eliminated.
 2756 0000 D0F88400 		ldr	r0, [r0, #132]
ARM GAS  D:\Programs\cygwin64\tmp\ccFYcmIV.s 			page 48


 2757 0004 7047     		bx	lr
 2759 0006 00BF     		.ident	"GCC: (GNU Tools for Arm Embedded Processors 8-2018-q4-major) 8.2.1 20181213 (release) [gcc
ARM GAS  D:\Programs\cygwin64\tmp\ccFYcmIV.s 			page 49

