ARM GAS  D:\Programs\cygwin64\tmp\ccf80zwc.s 			page 1


   1              		.cpu cortex-m4
   2              		.eabi_attribute 27, 1
   3              		.eabi_attribute 28, 1
   4              		.eabi_attribute 20, 1
   5              		.eabi_attribute 21, 1
   6              		.eabi_attribute 23, 3
   7              		.eabi_attribute 24, 1
   8              		.eabi_attribute 25, 1
   9              		.eabi_attribute 26, 1
  10              		.eabi_attribute 30, 2
  11              		.eabi_attribute 34, 1
  12              		.eabi_attribute 18, 4
  13              		.file	"stm32f4xx_hal_ltdc.c"
  14              		.text
  15              		.section	.text.LTDC_SetConfig,"ax",%progbits
  16              		.align	1
  17              		.p2align 2,,3
  18              		.arch armv7e-m
  19              		.syntax unified
  20              		.thumb
  21              		.thumb_func
  22              		.fpu fpv4-sp-d16
  24              	LTDC_SetConfig:
  25              		@ args = 0, pretend = 0, frame = 0
  26              		@ frame_needed = 0, uses_anonymous_args = 0
  27 0000 2DE9F04F 		push	{r4, r5, r6, r7, r8, r9, r10, fp, lr}
  28 0004 D201     		lsls	r2, r2, #7
  29 0006 0468     		ldr	r4, [r0]
  30 0008 4868     		ldr	r0, [r1, #4]
  31 000a D4F80C80 		ldr	r8, [r4, #12]
  32 000e D1F800C0 		ldr	ip, [r1]
  33 0012 D1F81890 		ldr	r9, [r1, #24]
  34 0016 0F69     		ldr	r7, [r1, #16]
  35 0018 8432     		adds	r2, r2, #132
  36 001a A318     		adds	r3, r4, r2
  37 001c 0CF1010A 		add	r10, ip, #1
  38 0020 5D68     		ldr	r5, [r3, #4]
  39 0022 05F47045 		and	r5, r5, #61440
  40 0026 5D60     		str	r5, [r3, #4]
  41 0028 E568     		ldr	r5, [r4, #12]
  42 002a C8F30B48 		ubfx	r8, r8, #16, #12
  43 002e C5F30B45 		ubfx	r5, r5, #16, #12
  44 0032 8044     		add	r8, r8, r0
  45 0034 5544     		add	r5, r5, r10
  46 0036 45EA0845 		orr	r5, r5, r8, lsl #16
  47 003a D1E9026E 		ldrd	r6, lr, [r1, #8]
  48 003e 5D60     		str	r5, [r3, #4]
  49 0040 E568     		ldr	r5, [r4, #12]
  50 0042 D3F808A0 		ldr	r10, [r3, #8]
  51 0046 D1F81480 		ldr	r8, [r1, #20]
  52 004a 0AF4704A 		and	r10, r10, #61440
  53 004e C3F808A0 		str	r10, [r3, #8]
  54 0052 D4F80CB0 		ldr	fp, [r4, #12]
  55 0056 C5F30A0A 		ubfx	r10, r5, #0, #11
  56 005a 0136     		adds	r6, r6, #1
  57 005c CBF30A05 		ubfx	r5, fp, #0, #11
  58 0060 D644     		add	lr, lr, r10
ARM GAS  D:\Programs\cygwin64\tmp\ccf80zwc.s 			page 2


  59 0062 2E44     		add	r6, r6, r5
  60 0064 46EA0E46 		orr	r6, r6, lr, lsl #16
  61 0068 9E60     		str	r6, [r3, #8]
  62 006a 1D69     		ldr	r5, [r3, #16]
  63 006c 25F00705 		bic	r5, r5, #7
  64 0070 1D61     		str	r5, [r3, #16]
  65 0072 4FF0000E 		mov	lr, #0
  66 0076 1F61     		str	r7, [r3, #16]
  67 0078 9D69     		ldr	r5, [r3, #24]
  68 007a 91F83260 		ldrb	r6, [r1, #50]	@ zero_extendqisi2
  69 007e 91F831A0 		ldrb	r10, [r1, #49]	@ zero_extendqisi2
  70 0082 C3F818E0 		str	lr, [r3, #24]
  71 0086 91F83050 		ldrb	r5, [r1, #48]	@ zero_extendqisi2
  72 008a 45EA0965 		orr	r5, r5, r9, lsl #24
  73 008e 45EA0A25 		orr	r5, r5, r10, lsl #8
  74 0092 45EA0645 		orr	r5, r5, r6, lsl #16
  75 0096 9D61     		str	r5, [r3, #24]
  76 0098 5D69     		ldr	r5, [r3, #20]
  77 009a 25F0FF05 		bic	r5, r5, #255
  78 009e 5D61     		str	r5, [r3, #20]
  79 00a0 C3F81480 		str	r8, [r3, #20]
  80 00a4 DD69     		ldr	r5, [r3, #28]
  81 00a6 25F4E065 		bic	r5, r5, #1792
  82 00aa 25F00705 		bic	r5, r5, #7
  83 00ae DD61     		str	r5, [r3, #28]
  84 00b0 01F11C05 		add	r5, r1, #28
  85 00b4 95E86001 		ldm	r5, {r5, r6, r8}
  86 00b8 3543     		orrs	r5, r5, r6
  87 00ba DD61     		str	r5, [r3, #28]
  88 00bc 9D6A     		ldr	r5, [r3, #40]
  89 00be C3F828E0 		str	lr, [r3, #40]
  90 00c2 C3F82880 		str	r8, [r3, #40]
  91 00c6 5FB1     		cbz	r7, .L3
  92 00c8 012F     		cmp	r7, #1
  93 00ca 28D0     		beq	.L4
  94 00cc BD1E     		subs	r5, r7, #2
  95 00ce 022D     		cmp	r5, #2
  96 00d0 28D9     		bls	.L5
  97 00d2 072F     		cmp	r7, #7
  98 00d4 0CBF     		ite	eq
  99 00d6 4FF0020E 		moveq	lr, #2
 100 00da 4FF0010E 		movne	lr, #1
 101 00de 01E0     		b	.L2
 102              	.L3:
 103 00e0 4FF0040E 		mov	lr, #4
 104              	.L2:
 105 00e4 8E6A     		ldr	r6, [r1, #40]
 106 00e6 DD6A     		ldr	r5, [r3, #44]
 107 00e8 CF6A     		ldr	r7, [r1, #44]
 108 00ea A0EB0C00 		sub	r0, r0, ip
 109 00ee 0EFB00F0 		mul	r0, lr, r0
 110 00f2 0330     		adds	r0, r0, #3
 111 00f4 06FB0EF6 		mul	r6, r6, lr
 112 00f8 40EA0640 		orr	r0, r0, r6, lsl #16
 113 00fc 05F0E025 		and	r5, r5, #-536813568
 114 0100 DD62     		str	r5, [r3, #44]
 115 0102 D862     		str	r0, [r3, #44]
ARM GAS  D:\Programs\cygwin64\tmp\ccf80zwc.s 			page 3


 116 0104 196B     		ldr	r1, [r3, #48]
 117 0106 21F4FF61 		bic	r1, r1, #2040
 118 010a 21F00701 		bic	r1, r1, #7
 119 010e 1963     		str	r1, [r3, #48]
 120 0110 1F63     		str	r7, [r3, #48]
 121 0112 A358     		ldr	r3, [r4, r2]
 122 0114 43F00103 		orr	r3, r3, #1
 123 0118 A350     		str	r3, [r4, r2]
 124 011a BDE8F08F 		pop	{r4, r5, r6, r7, r8, r9, r10, fp, pc}
 125              	.L4:
 126 011e 4FF0030E 		mov	lr, #3
 127 0122 DFE7     		b	.L2
 128              	.L5:
 129 0124 4FF0020E 		mov	lr, #2
 130 0128 DCE7     		b	.L2
 132 012a 00BF     		.section	.text.HAL_LTDC_MspInit,"ax",%progbits
 133              		.align	1
 134              		.p2align 2,,3
 135              		.weak	HAL_LTDC_MspInit
 136              		.syntax unified
 137              		.thumb
 138              		.thumb_func
 139              		.fpu fpv4-sp-d16
 141              	HAL_LTDC_MspInit:
 142              		@ args = 0, pretend = 0, frame = 0
 143              		@ frame_needed = 0, uses_anonymous_args = 0
 144              		@ link register save eliminated.
 145 0000 7047     		bx	lr
 147 0002 00BF     		.section	.text.HAL_LTDC_Init,"ax",%progbits
 148              		.align	1
 149              		.p2align 2,,3
 150              		.global	HAL_LTDC_Init
 151              		.syntax unified
 152              		.thumb
 153              		.thumb_func
 154              		.fpu fpv4-sp-d16
 156              	HAL_LTDC_Init:
 157              		@ args = 0, pretend = 0, frame = 0
 158              		@ frame_needed = 0, uses_anonymous_args = 0
 159 0000 0028     		cmp	r0, #0
 160 0002 68D0     		beq	.L13
 161 0004 F8B5     		push	{r3, r4, r5, r6, r7, lr}
 162 0006 90F8A130 		ldrb	r3, [r0, #161]	@ zero_extendqisi2
 163 000a 0446     		mov	r4, r0
 164 000c 03F0FF02 		and	r2, r3, #255
 165 0010 002B     		cmp	r3, #0
 166 0012 5BD0     		beq	.L18
 167              	.L12:
 168 0014 2368     		ldr	r3, [r4]
 169 0016 0222     		movs	r2, #2
 170 0018 84F8A120 		strb	r2, [r4, #161]
 171 001c 9969     		ldr	r1, [r3, #24]
 172 001e D4E90120 		ldrd	r2, r0, [r4, #4]
 173 0022 D4E90365 		ldrd	r6, r5, [r4, #12]
 174 0026 21F07041 		bic	r1, r1, #-268435456
 175 002a 9961     		str	r1, [r3, #24]
 176 002c 0243     		orrs	r2, r2, r0
ARM GAS  D:\Programs\cygwin64\tmp\ccf80zwc.s 			page 4


 177 002e 9969     		ldr	r1, [r3, #24]
 178 0030 2A48     		ldr	r0, .L19
 179 0032 3243     		orrs	r2, r2, r6
 180 0034 2A43     		orrs	r2, r2, r5
 181 0036 0A43     		orrs	r2, r2, r1
 182 0038 9A61     		str	r2, [r3, #24]
 183 003a 9D68     		ldr	r5, [r3, #8]
 184 003c E669     		ldr	r6, [r4, #28]
 185 003e 0540     		ands	r5, r5, r0
 186 0040 D4E90572 		ldrd	r7, r2, [r4, #20]
 187 0044 9D60     		str	r5, [r3, #8]
 188 0046 9968     		ldr	r1, [r3, #8]
 189 0048 41EA0741 		orr	r1, r1, r7, lsl #16
 190 004c 1143     		orrs	r1, r1, r2
 191 004e 9960     		str	r1, [r3, #8]
 192 0050 DD68     		ldr	r5, [r3, #12]
 193 0052 0540     		ands	r5, r5, r0
 194 0054 D4E90817 		ldrd	r1, r7, [r4, #32]
 195 0058 DD60     		str	r5, [r3, #12]
 196 005a DA68     		ldr	r2, [r3, #12]
 197 005c 42EA0642 		orr	r2, r2, r6, lsl #16
 198 0060 0A43     		orrs	r2, r2, r1
 199 0062 DA60     		str	r2, [r3, #12]
 200 0064 1D69     		ldr	r5, [r3, #16]
 201 0066 0540     		ands	r5, r5, r0
 202 0068 D4E90A26 		ldrd	r2, r6, [r4, #40]
 203 006c 1D61     		str	r5, [r3, #16]
 204 006e 1969     		ldr	r1, [r3, #16]
 205 0070 41EA0741 		orr	r1, r1, r7, lsl #16
 206 0074 1143     		orrs	r1, r1, r2
 207 0076 1961     		str	r1, [r3, #16]
 208 0078 5969     		ldr	r1, [r3, #20]
 209 007a 0840     		ands	r0, r0, r1
 210 007c 5861     		str	r0, [r3, #20]
 211 007e 5A69     		ldr	r2, [r3, #20]
 212 0080 216B     		ldr	r1, [r4, #48]
 213 0082 42EA0642 		orr	r2, r2, r6, lsl #16
 214 0086 0A43     		orrs	r2, r2, r1
 215 0088 5A61     		str	r2, [r3, #20]
 216 008a D96A     		ldr	r1, [r3, #44]
 217 008c 94F83550 		ldrb	r5, [r4, #53]	@ zero_extendqisi2
 218 0090 94F83600 		ldrb	r0, [r4, #54]	@ zero_extendqisi2
 219 0094 01F07F41 		and	r1, r1, #-16777216
 220 0098 D962     		str	r1, [r3, #44]
 221 009a D96A     		ldr	r1, [r3, #44]
 222 009c 94F83420 		ldrb	r2, [r4, #52]	@ zero_extendqisi2
 223 00a0 0A43     		orrs	r2, r2, r1
 224 00a2 42EA0522 		orr	r2, r2, r5, lsl #8
 225 00a6 42EA0042 		orr	r2, r2, r0, lsl #16
 226 00aa DA62     		str	r2, [r3, #44]
 227 00ac 5A6B     		ldr	r2, [r3, #52]
 228 00ae 42F00602 		orr	r2, r2, #6
 229 00b2 5A63     		str	r2, [r3, #52]
 230 00b4 9A69     		ldr	r2, [r3, #24]
 231 00b6 0021     		movs	r1, #0
 232 00b8 42F00102 		orr	r2, r2, #1
 233 00bc 0125     		movs	r5, #1
ARM GAS  D:\Programs\cygwin64\tmp\ccf80zwc.s 			page 5


 234 00be 9A61     		str	r2, [r3, #24]
 235 00c0 0846     		mov	r0, r1
 236 00c2 C4F8A410 		str	r1, [r4, #164]
 237 00c6 84F8A150 		strb	r5, [r4, #161]
 238 00ca F8BD     		pop	{r3, r4, r5, r6, r7, pc}
 239              	.L18:
 240 00cc 80F8A020 		strb	r2, [r0, #160]
 241 00d0 FFF7FEFF 		bl	HAL_LTDC_MspInit
 242 00d4 9EE7     		b	.L12
 243              	.L13:
 244 00d6 0120     		movs	r0, #1
 245 00d8 7047     		bx	lr
 246              	.L20:
 247 00da 00BF     		.align	2
 248              	.L19:
 249 00dc 00F800F0 		.word	-268371968
 251              		.section	.text.HAL_LTDC_MspDeInit,"ax",%progbits
 252              		.align	1
 253              		.p2align 2,,3
 254              		.weak	HAL_LTDC_MspDeInit
 255              		.syntax unified
 256              		.thumb
 257              		.thumb_func
 258              		.fpu fpv4-sp-d16
 260              	HAL_LTDC_MspDeInit:
 261              		@ args = 0, pretend = 0, frame = 0
 262              		@ frame_needed = 0, uses_anonymous_args = 0
 263              		@ link register save eliminated.
 264 0000 7047     		bx	lr
 266 0002 00BF     		.section	.text.HAL_LTDC_DeInit,"ax",%progbits
 267              		.align	1
 268              		.p2align 2,,3
 269              		.global	HAL_LTDC_DeInit
 270              		.syntax unified
 271              		.thumb
 272              		.thumb_func
 273              		.fpu fpv4-sp-d16
 275              	HAL_LTDC_DeInit:
 276              		@ args = 0, pretend = 0, frame = 0
 277              		@ frame_needed = 0, uses_anonymous_args = 0
 278 0000 10B5     		push	{r4, lr}
 279 0002 0446     		mov	r4, r0
 280 0004 FFF7FEFF 		bl	HAL_LTDC_MspDeInit
 281 0008 0020     		movs	r0, #0
 282 000a C4F8A400 		str	r0, [r4, #164]
 283 000e 84F8A000 		strb	r0, [r4, #160]
 284 0012 84F8A100 		strb	r0, [r4, #161]
 285 0016 10BD     		pop	{r4, pc}
 287              		.section	.text.HAL_LTDC_ErrorCallback,"ax",%progbits
 288              		.align	1
 289              		.p2align 2,,3
 290              		.weak	HAL_LTDC_ErrorCallback
 291              		.syntax unified
 292              		.thumb
 293              		.thumb_func
 294              		.fpu fpv4-sp-d16
 296              	HAL_LTDC_ErrorCallback:
ARM GAS  D:\Programs\cygwin64\tmp\ccf80zwc.s 			page 6


 297              		@ args = 0, pretend = 0, frame = 0
 298              		@ frame_needed = 0, uses_anonymous_args = 0
 299              		@ link register save eliminated.
 300 0000 7047     		bx	lr
 302 0002 00BF     		.section	.text.HAL_LTDC_LineEventCallback,"ax",%progbits
 303              		.align	1
 304              		.p2align 2,,3
 305              		.weak	HAL_LTDC_LineEventCallback
 306              		.syntax unified
 307              		.thumb
 308              		.thumb_func
 309              		.fpu fpv4-sp-d16
 311              	HAL_LTDC_LineEventCallback:
 312              		@ args = 0, pretend = 0, frame = 0
 313              		@ frame_needed = 0, uses_anonymous_args = 0
 314              		@ link register save eliminated.
 315 0000 7047     		bx	lr
 317 0002 00BF     		.section	.text.HAL_LTDC_ReloadEventCallback,"ax",%progbits
 318              		.align	1
 319              		.p2align 2,,3
 320              		.weak	HAL_LTDC_ReloadEventCallback
 321              		.syntax unified
 322              		.thumb
 323              		.thumb_func
 324              		.fpu fpv4-sp-d16
 326              	HAL_LTDC_ReloadEventCallback:
 327              		@ args = 0, pretend = 0, frame = 0
 328              		@ frame_needed = 0, uses_anonymous_args = 0
 329              		@ link register save eliminated.
 330 0000 7047     		bx	lr
 332 0002 00BF     		.section	.text.HAL_LTDC_IRQHandler,"ax",%progbits
 333              		.align	1
 334              		.p2align 2,,3
 335              		.global	HAL_LTDC_IRQHandler
 336              		.syntax unified
 337              		.thumb
 338              		.thumb_func
 339              		.fpu fpv4-sp-d16
 341              	HAL_LTDC_IRQHandler:
 342              		@ args = 0, pretend = 0, frame = 0
 343              		@ frame_needed = 0, uses_anonymous_args = 0
 344 0000 0368     		ldr	r3, [r0]
 345 0002 70B5     		push	{r4, r5, r6, lr}
 346 0004 9C6B     		ldr	r4, [r3, #56]
 347 0006 5E6B     		ldr	r6, [r3, #52]
 348 0008 6207     		lsls	r2, r4, #29
 349 000a 0546     		mov	r5, r0
 350 000c 01D5     		bpl	.L28
 351 000e 7107     		lsls	r1, r6, #29
 352 0010 1DD4     		bmi	.L57
 353              	.L28:
 354 0012 A207     		lsls	r2, r4, #30
 355 0014 01D5     		bpl	.L29
 356 0016 B307     		lsls	r3, r6, #30
 357 0018 2DD4     		bmi	.L58
 358              	.L29:
 359 001a E007     		lsls	r0, r4, #31
ARM GAS  D:\Programs\cygwin64\tmp\ccf80zwc.s 			page 7


 360 001c 01D5     		bpl	.L30
 361 001e F107     		lsls	r1, r6, #31
 362 0020 3FD4     		bmi	.L59
 363              	.L30:
 364 0022 2207     		lsls	r2, r4, #28
 365 0024 01D5     		bpl	.L27
 366 0026 3307     		lsls	r3, r6, #28
 367 0028 00D4     		bmi	.L60
 368              	.L27:
 369 002a 70BD     		pop	{r4, r5, r6, pc}
 370              	.L60:
 371 002c 2B68     		ldr	r3, [r5]
 372 002e 5A6B     		ldr	r2, [r3, #52]
 373 0030 0820     		movs	r0, #8
 374 0032 22F00802 		bic	r2, r2, #8
 375 0036 0124     		movs	r4, #1
 376 0038 0021     		movs	r1, #0
 377 003a 5A63     		str	r2, [r3, #52]
 378 003c D863     		str	r0, [r3, #60]
 379 003e 2846     		mov	r0, r5
 380 0040 85F8A140 		strb	r4, [r5, #161]
 381 0044 85F8A010 		strb	r1, [r5, #160]
 382 0048 FFF7FEFF 		bl	HAL_LTDC_ReloadEventCallback
 383 004c 70BD     		pop	{r4, r5, r6, pc}
 384              	.L57:
 385 004e 5A6B     		ldr	r2, [r3, #52]
 386 0050 0421     		movs	r1, #4
 387 0052 22F00402 		bic	r2, r2, #4
 388 0056 5A63     		str	r2, [r3, #52]
 389 0058 D963     		str	r1, [r3, #60]
 390 005a D0F8A430 		ldr	r3, [r0, #164]
 391 005e 0022     		movs	r2, #0
 392 0060 43F00103 		orr	r3, r3, #1
 393 0064 C0F8A430 		str	r3, [r0, #164]
 394 0068 80F8A020 		strb	r2, [r0, #160]
 395 006c 80F8A110 		strb	r1, [r0, #161]
 396 0070 FFF7FEFF 		bl	HAL_LTDC_ErrorCallback
 397 0074 CDE7     		b	.L28
 398              	.L58:
 399 0076 2B68     		ldr	r3, [r5]
 400 0078 5A6B     		ldr	r2, [r3, #52]
 401 007a 0221     		movs	r1, #2
 402 007c 22F00202 		bic	r2, r2, #2
 403 0080 5A63     		str	r2, [r3, #52]
 404 0082 D963     		str	r1, [r3, #60]
 405 0084 D5F8A430 		ldr	r3, [r5, #164]
 406 0088 0422     		movs	r2, #4
 407 008a 0B43     		orrs	r3, r3, r1
 408 008c 0021     		movs	r1, #0
 409 008e C5F8A430 		str	r3, [r5, #164]
 410 0092 85F8A010 		strb	r1, [r5, #160]
 411 0096 85F8A120 		strb	r2, [r5, #161]
 412 009a 2846     		mov	r0, r5
 413 009c FFF7FEFF 		bl	HAL_LTDC_ErrorCallback
 414 00a0 BBE7     		b	.L29
 415              	.L59:
 416 00a2 2B68     		ldr	r3, [r5]
ARM GAS  D:\Programs\cygwin64\tmp\ccf80zwc.s 			page 8


 417 00a4 5A6B     		ldr	r2, [r3, #52]
 418 00a6 22F00102 		bic	r2, r2, #1
 419 00aa 5A63     		str	r2, [r3, #52]
 420 00ac 0121     		movs	r1, #1
 421 00ae 0022     		movs	r2, #0
 422 00b0 D963     		str	r1, [r3, #60]
 423 00b2 2846     		mov	r0, r5
 424 00b4 85F8A110 		strb	r1, [r5, #161]
 425 00b8 85F8A020 		strb	r2, [r5, #160]
 426 00bc FFF7FEFF 		bl	HAL_LTDC_LineEventCallback
 427 00c0 AFE7     		b	.L30
 429 00c2 00BF     		.section	.text.HAL_LTDC_ConfigLayer,"ax",%progbits
 430              		.align	1
 431              		.p2align 2,,3
 432              		.global	HAL_LTDC_ConfigLayer
 433              		.syntax unified
 434              		.thumb
 435              		.thumb_func
 436              		.fpu fpv4-sp-d16
 438              	HAL_LTDC_ConfigLayer:
 439              		@ args = 0, pretend = 0, frame = 0
 440              		@ frame_needed = 0, uses_anonymous_args = 0
 441 0000 90F8A030 		ldrb	r3, [r0, #160]	@ zero_extendqisi2
 442 0004 012B     		cmp	r3, #1
 443 0006 29D0     		beq	.L63
 444 0008 2DE9F041 		push	{r4, r5, r6, r7, r8, lr}
 445 000c 0D46     		mov	r5, r1
 446 000e 0646     		mov	r6, r0
 447 0010 9446     		mov	ip, r2
 448 0012 0F46     		mov	r7, r1
 449 0014 0FCD     		ldmia	r5!, {r0, r1, r2, r3}
 450 0016 3424     		movs	r4, #52
 451 0018 04FB0C64 		mla	r4, r4, ip, r6
 452 001c 4FF00108 		mov	r8, #1
 453 0020 4FF0020E 		mov	lr, #2
 454 0024 3834     		adds	r4, r4, #56
 455 0026 86F8A080 		strb	r8, [r6, #160]
 456 002a 86F8A1E0 		strb	lr, [r6, #161]
 457 002e 0FC4     		stmia	r4!, {r0, r1, r2, r3}
 458 0030 0FCD     		ldmia	r5!, {r0, r1, r2, r3}
 459 0032 0FC4     		stmia	r4!, {r0, r1, r2, r3}
 460 0034 0FCD     		ldmia	r5!, {r0, r1, r2, r3}
 461 0036 0FC4     		stmia	r4!, {r0, r1, r2, r3}
 462 0038 2B68     		ldr	r3, [r5]
 463 003a 2360     		str	r3, [r4]
 464 003c 6246     		mov	r2, ip
 465 003e 3046     		mov	r0, r6
 466 0040 3946     		mov	r1, r7
 467 0042 FFF7FEFF 		bl	LTDC_SetConfig
 468 0046 3268     		ldr	r2, [r6]
 469 0048 0023     		movs	r3, #0
 470 004a C2F82480 		str	r8, [r2, #36]
 471 004e 1846     		mov	r0, r3
 472 0050 86F8A180 		strb	r8, [r6, #161]
 473 0054 86F8A030 		strb	r3, [r6, #160]
 474 0058 BDE8F081 		pop	{r4, r5, r6, r7, r8, pc}
 475              	.L63:
ARM GAS  D:\Programs\cygwin64\tmp\ccf80zwc.s 			page 9


 476 005c 0220     		movs	r0, #2
 477 005e 7047     		bx	lr
 479              		.section	.text.HAL_LTDC_ConfigColorKeying,"ax",%progbits
 480              		.align	1
 481              		.p2align 2,,3
 482              		.global	HAL_LTDC_ConfigColorKeying
 483              		.syntax unified
 484              		.thumb
 485              		.thumb_func
 486              		.fpu fpv4-sp-d16
 488              	HAL_LTDC_ConfigColorKeying:
 489              		@ args = 0, pretend = 0, frame = 0
 490              		@ frame_needed = 0, uses_anonymous_args = 0
 491              		@ link register save eliminated.
 492 0000 0346     		mov	r3, r0
 493 0002 90F8A000 		ldrb	r0, [r0, #160]	@ zero_extendqisi2
 494 0006 0128     		cmp	r0, #1
 495 0008 18D0     		beq	.L70
 496 000a 70B4     		push	{r4, r5, r6}
 497 000c 1E68     		ldr	r6, [r3]
 498 000e 0220     		movs	r0, #2
 499 0010 06EBC212 		add	r2, r6, r2, lsl #7
 500 0014 83F8A100 		strb	r0, [r3, #161]
 501 0018 D2F89000 		ldr	r0, [r2, #144]
 502 001c 0125     		movs	r5, #1
 503 001e 0024     		movs	r4, #0
 504 0020 00F07F40 		and	r0, r0, #-16777216
 505 0024 C2F89000 		str	r0, [r2, #144]
 506 0028 C2F89010 		str	r1, [r2, #144]
 507 002c 2046     		mov	r0, r4
 508 002e 7562     		str	r5, [r6, #36]
 509 0030 83F8A150 		strb	r5, [r3, #161]
 510 0034 83F8A040 		strb	r4, [r3, #160]
 511 0038 70BC     		pop	{r4, r5, r6}
 512 003a 7047     		bx	lr
 513              	.L70:
 514 003c 0220     		movs	r0, #2
 515 003e 7047     		bx	lr
 517              		.section	.text.HAL_LTDC_ConfigCLUT,"ax",%progbits
 518              		.align	1
 519              		.p2align 2,,3
 520              		.global	HAL_LTDC_ConfigCLUT
 521              		.syntax unified
 522              		.thumb
 523              		.thumb_func
 524              		.fpu fpv4-sp-d16
 526              	HAL_LTDC_ConfigCLUT:
 527              		@ args = 0, pretend = 0, frame = 0
 528              		@ frame_needed = 0, uses_anonymous_args = 0
 529              		@ link register save eliminated.
 530 0000 70B4     		push	{r4, r5, r6}
 531 0002 90F8A040 		ldrb	r4, [r0, #160]	@ zero_extendqisi2
 532 0006 012C     		cmp	r4, #1
 533 0008 34D0     		beq	.L83
 534 000a 0125     		movs	r5, #1
 535 000c 0224     		movs	r4, #2
 536 000e 80F8A050 		strb	r5, [r0, #160]
ARM GAS  D:\Programs\cygwin64\tmp\ccf80zwc.s 			page 10


 537 0012 80F8A140 		strb	r4, [r0, #161]
 538 0016 AAB1     		cbz	r2, .L82
 539 0018 3424     		movs	r4, #52
 540 001a 04FB0304 		mla	r4, r4, r3, r0
 541 001e 0668     		ldr	r6, [r0]
 542 0020 A46C     		ldr	r4, [r4, #72]
 543 0022 DB01     		lsls	r3, r3, #7
 544 0024 8433     		adds	r3, r3, #132
 545 0026 062C     		cmp	r4, #6
 546 0028 1E44     		add	r6, r6, r3
 547 002a 14D0     		beq	.L78
 548 002c 0439     		subs	r1, r1, #4
 549 002e 0024     		movs	r4, #0
 550              	.L79:
 551 0030 51F8043F 		ldr	r3, [r1, #4]!
 552 0034 23F07F43 		bic	r3, r3, #-16777216
 553 0038 43EA0463 		orr	r3, r3, r4, lsl #24
 554 003c 0134     		adds	r4, r4, #1
 555 003e 9442     		cmp	r4, r2
 556 0040 3364     		str	r3, [r6, #64]
 557 0042 F5D1     		bne	.L79
 558              	.L82:
 559 0044 0023     		movs	r3, #0
 560 0046 0122     		movs	r2, #1
 561 0048 80F8A120 		strb	r2, [r0, #161]
 562 004c 80F8A030 		strb	r3, [r0, #160]
 563 0050 70BC     		pop	{r4, r5, r6}
 564 0052 1846     		mov	r0, r3
 565 0054 7047     		bx	lr
 566              	.L78:
 567 0056 0024     		movs	r4, #0
 568 0058 0439     		subs	r1, r1, #4
 569 005a 2546     		mov	r5, r4
 570              	.L81:
 571 005c 51F8043F 		ldr	r3, [r1, #4]!
 572 0060 0135     		adds	r5, r5, #1
 573 0062 23F07F43 		bic	r3, r3, #-16777216
 574 0066 2343     		orrs	r3, r3, r4
 575 0068 AA42     		cmp	r2, r5
 576 006a 3364     		str	r3, [r6, #64]
 577 006c 04F18854 		add	r4, r4, #285212672
 578 0070 F4D1     		bne	.L81
 579 0072 E7E7     		b	.L82
 580              	.L83:
 581 0074 0220     		movs	r0, #2
 582 0076 70BC     		pop	{r4, r5, r6}
 583 0078 7047     		bx	lr
 585 007a 00BF     		.section	.text.HAL_LTDC_EnableColorKeying,"ax",%progbits
 586              		.align	1
 587              		.p2align 2,,3
 588              		.global	HAL_LTDC_EnableColorKeying
 589              		.syntax unified
 590              		.thumb
 591              		.thumb_func
 592              		.fpu fpv4-sp-d16
 594              	HAL_LTDC_EnableColorKeying:
 595              		@ args = 0, pretend = 0, frame = 0
ARM GAS  D:\Programs\cygwin64\tmp\ccf80zwc.s 			page 11


 596              		@ frame_needed = 0, uses_anonymous_args = 0
 597              		@ link register save eliminated.
 598 0000 90F8A020 		ldrb	r2, [r0, #160]	@ zero_extendqisi2
 599 0004 012A     		cmp	r2, #1
 600 0006 15D0     		beq	.L89
 601 0008 0346     		mov	r3, r0
 602 000a C901     		lsls	r1, r1, #7
 603 000c 30B4     		push	{r4, r5}
 604 000e 1A68     		ldr	r2, [r3]
 605 0010 8431     		adds	r1, r1, #132
 606 0012 0220     		movs	r0, #2
 607 0014 83F8A100 		strb	r0, [r3, #161]
 608 0018 5058     		ldr	r0, [r2, r1]
 609 001a 0125     		movs	r5, #1
 610 001c 0024     		movs	r4, #0
 611 001e 40F00200 		orr	r0, r0, #2
 612 0022 5050     		str	r0, [r2, r1]
 613 0024 5562     		str	r5, [r2, #36]
 614 0026 2046     		mov	r0, r4
 615 0028 83F8A150 		strb	r5, [r3, #161]
 616 002c 83F8A040 		strb	r4, [r3, #160]
 617 0030 30BC     		pop	{r4, r5}
 618 0032 7047     		bx	lr
 619              	.L89:
 620 0034 0220     		movs	r0, #2
 621 0036 7047     		bx	lr
 623              		.section	.text.HAL_LTDC_DisableColorKeying,"ax",%progbits
 624              		.align	1
 625              		.p2align 2,,3
 626              		.global	HAL_LTDC_DisableColorKeying
 627              		.syntax unified
 628              		.thumb
 629              		.thumb_func
 630              		.fpu fpv4-sp-d16
 632              	HAL_LTDC_DisableColorKeying:
 633              		@ args = 0, pretend = 0, frame = 0
 634              		@ frame_needed = 0, uses_anonymous_args = 0
 635              		@ link register save eliminated.
 636 0000 90F8A020 		ldrb	r2, [r0, #160]	@ zero_extendqisi2
 637 0004 012A     		cmp	r2, #1
 638 0006 15D0     		beq	.L96
 639 0008 0346     		mov	r3, r0
 640 000a C901     		lsls	r1, r1, #7
 641 000c 30B4     		push	{r4, r5}
 642 000e 1A68     		ldr	r2, [r3]
 643 0010 8431     		adds	r1, r1, #132
 644 0012 0220     		movs	r0, #2
 645 0014 83F8A100 		strb	r0, [r3, #161]
 646 0018 5058     		ldr	r0, [r2, r1]
 647 001a 0125     		movs	r5, #1
 648 001c 0024     		movs	r4, #0
 649 001e 20F00200 		bic	r0, r0, #2
 650 0022 5050     		str	r0, [r2, r1]
 651 0024 5562     		str	r5, [r2, #36]
 652 0026 2046     		mov	r0, r4
 653 0028 83F8A150 		strb	r5, [r3, #161]
 654 002c 83F8A040 		strb	r4, [r3, #160]
ARM GAS  D:\Programs\cygwin64\tmp\ccf80zwc.s 			page 12


 655 0030 30BC     		pop	{r4, r5}
 656 0032 7047     		bx	lr
 657              	.L96:
 658 0034 0220     		movs	r0, #2
 659 0036 7047     		bx	lr
 661              		.section	.text.HAL_LTDC_EnableCLUT,"ax",%progbits
 662              		.align	1
 663              		.p2align 2,,3
 664              		.global	HAL_LTDC_EnableCLUT
 665              		.syntax unified
 666              		.thumb
 667              		.thumb_func
 668              		.fpu fpv4-sp-d16
 670              	HAL_LTDC_EnableCLUT:
 671              		@ args = 0, pretend = 0, frame = 0
 672              		@ frame_needed = 0, uses_anonymous_args = 0
 673              		@ link register save eliminated.
 674 0000 90F8A020 		ldrb	r2, [r0, #160]	@ zero_extendqisi2
 675 0004 012A     		cmp	r2, #1
 676 0006 15D0     		beq	.L103
 677 0008 0346     		mov	r3, r0
 678 000a C901     		lsls	r1, r1, #7
 679 000c 30B4     		push	{r4, r5}
 680 000e 1A68     		ldr	r2, [r3]
 681 0010 8431     		adds	r1, r1, #132
 682 0012 0220     		movs	r0, #2
 683 0014 83F8A100 		strb	r0, [r3, #161]
 684 0018 5058     		ldr	r0, [r2, r1]
 685 001a 0125     		movs	r5, #1
 686 001c 0024     		movs	r4, #0
 687 001e 40F01000 		orr	r0, r0, #16
 688 0022 5050     		str	r0, [r2, r1]
 689 0024 5562     		str	r5, [r2, #36]
 690 0026 2046     		mov	r0, r4
 691 0028 83F8A150 		strb	r5, [r3, #161]
 692 002c 83F8A040 		strb	r4, [r3, #160]
 693 0030 30BC     		pop	{r4, r5}
 694 0032 7047     		bx	lr
 695              	.L103:
 696 0034 0220     		movs	r0, #2
 697 0036 7047     		bx	lr
 699              		.section	.text.HAL_LTDC_DisableCLUT,"ax",%progbits
 700              		.align	1
 701              		.p2align 2,,3
 702              		.global	HAL_LTDC_DisableCLUT
 703              		.syntax unified
 704              		.thumb
 705              		.thumb_func
 706              		.fpu fpv4-sp-d16
 708              	HAL_LTDC_DisableCLUT:
 709              		@ args = 0, pretend = 0, frame = 0
 710              		@ frame_needed = 0, uses_anonymous_args = 0
 711              		@ link register save eliminated.
 712 0000 90F8A020 		ldrb	r2, [r0, #160]	@ zero_extendqisi2
 713 0004 012A     		cmp	r2, #1
 714 0006 15D0     		beq	.L110
 715 0008 0346     		mov	r3, r0
ARM GAS  D:\Programs\cygwin64\tmp\ccf80zwc.s 			page 13


 716 000a C901     		lsls	r1, r1, #7
 717 000c 30B4     		push	{r4, r5}
 718 000e 1A68     		ldr	r2, [r3]
 719 0010 8431     		adds	r1, r1, #132
 720 0012 0220     		movs	r0, #2
 721 0014 83F8A100 		strb	r0, [r3, #161]
 722 0018 5058     		ldr	r0, [r2, r1]
 723 001a 0125     		movs	r5, #1
 724 001c 0024     		movs	r4, #0
 725 001e 20F01000 		bic	r0, r0, #16
 726 0022 5050     		str	r0, [r2, r1]
 727 0024 5562     		str	r5, [r2, #36]
 728 0026 2046     		mov	r0, r4
 729 0028 83F8A150 		strb	r5, [r3, #161]
 730 002c 83F8A040 		strb	r4, [r3, #160]
 731 0030 30BC     		pop	{r4, r5}
 732 0032 7047     		bx	lr
 733              	.L110:
 734 0034 0220     		movs	r0, #2
 735 0036 7047     		bx	lr
 737              		.section	.text.HAL_LTDC_EnableDither,"ax",%progbits
 738              		.align	1
 739              		.p2align 2,,3
 740              		.global	HAL_LTDC_EnableDither
 741              		.syntax unified
 742              		.thumb
 743              		.thumb_func
 744              		.fpu fpv4-sp-d16
 746              	HAL_LTDC_EnableDither:
 747              		@ args = 0, pretend = 0, frame = 0
 748              		@ frame_needed = 0, uses_anonymous_args = 0
 749              		@ link register save eliminated.
 750 0000 90F8A020 		ldrb	r2, [r0, #160]	@ zero_extendqisi2
 751 0004 012A     		cmp	r2, #1
 752 0006 13D0     		beq	.L117
 753 0008 0346     		mov	r3, r0
 754 000a 0222     		movs	r2, #2
 755 000c 0948     		ldr	r0, .L122
 756 000e 10B4     		push	{r4}
 757 0010 83F8A120 		strb	r2, [r3, #161]
 758 0014 8269     		ldr	r2, [r0, #24]
 759 0016 0124     		movs	r4, #1
 760 0018 0021     		movs	r1, #0
 761 001a 42F48032 		orr	r2, r2, #65536
 762 001e 8261     		str	r2, [r0, #24]
 763 0020 0846     		mov	r0, r1
 764 0022 83F8A140 		strb	r4, [r3, #161]
 765 0026 83F8A010 		strb	r1, [r3, #160]
 766 002a 5DF8044B 		ldr	r4, [sp], #4
 767 002e 7047     		bx	lr
 768              	.L117:
 769 0030 0220     		movs	r0, #2
 770 0032 7047     		bx	lr
 771              	.L123:
 772              		.align	2
 773              	.L122:
 774 0034 00680140 		.word	1073833984
ARM GAS  D:\Programs\cygwin64\tmp\ccf80zwc.s 			page 14


 776              		.section	.text.HAL_LTDC_DisableDither,"ax",%progbits
 777              		.align	1
 778              		.p2align 2,,3
 779              		.global	HAL_LTDC_DisableDither
 780              		.syntax unified
 781              		.thumb
 782              		.thumb_func
 783              		.fpu fpv4-sp-d16
 785              	HAL_LTDC_DisableDither:
 786              		@ args = 0, pretend = 0, frame = 0
 787              		@ frame_needed = 0, uses_anonymous_args = 0
 788              		@ link register save eliminated.
 789 0000 90F8A020 		ldrb	r2, [r0, #160]	@ zero_extendqisi2
 790 0004 012A     		cmp	r2, #1
 791 0006 13D0     		beq	.L126
 792 0008 0346     		mov	r3, r0
 793 000a 0222     		movs	r2, #2
 794 000c 0948     		ldr	r0, .L131
 795 000e 10B4     		push	{r4}
 796 0010 83F8A120 		strb	r2, [r3, #161]
 797 0014 8269     		ldr	r2, [r0, #24]
 798 0016 0124     		movs	r4, #1
 799 0018 0021     		movs	r1, #0
 800 001a 22F48032 		bic	r2, r2, #65536
 801 001e 8261     		str	r2, [r0, #24]
 802 0020 0846     		mov	r0, r1
 803 0022 83F8A140 		strb	r4, [r3, #161]
 804 0026 83F8A010 		strb	r1, [r3, #160]
 805 002a 5DF8044B 		ldr	r4, [sp], #4
 806 002e 7047     		bx	lr
 807              	.L126:
 808 0030 0220     		movs	r0, #2
 809 0032 7047     		bx	lr
 810              	.L132:
 811              		.align	2
 812              	.L131:
 813 0034 00680140 		.word	1073833984
 815              		.section	.text.HAL_LTDC_SetWindowSize,"ax",%progbits
 816              		.align	1
 817              		.p2align 2,,3
 818              		.global	HAL_LTDC_SetWindowSize
 819              		.syntax unified
 820              		.thumb
 821              		.thumb_func
 822              		.fpu fpv4-sp-d16
 824              	HAL_LTDC_SetWindowSize:
 825              		@ args = 0, pretend = 0, frame = 0
 826              		@ frame_needed = 0, uses_anonymous_args = 0
 827 0000 2DE9F047 		push	{r4, r5, r6, r7, r8, r9, r10, lr}
 828 0004 90F8A050 		ldrb	r5, [r0, #160]	@ zero_extendqisi2
 829 0008 012D     		cmp	r5, #1
 830 000a 2AD0     		beq	.L135
 831 000c 3426     		movs	r6, #52
 832 000e 06FB03F6 		mul	r6, r6, r3
 833 0012 8519     		adds	r5, r0, r6
 834 0014 8C46     		mov	ip, r1
 835 0016 1746     		mov	r7, r2
ARM GAS  D:\Programs\cygwin64\tmp\ccf80zwc.s 			page 15


 836 0018 296C     		ldr	r1, [r5, #64]
 837 001a AA6B     		ldr	r2, [r5, #56]
 838 001c 0446     		mov	r4, r0
 839 001e 02EB0C09 		add	r9, r2, ip
 840 0022 4FF00108 		mov	r8, #1
 841 0026 01EB070E 		add	lr, r1, r7
 842 002a 3836     		adds	r6, r6, #56
 843 002c 4FF0020A 		mov	r10, #2
 844 0030 80F8A080 		strb	r8, [r0, #160]
 845 0034 80F8A1A0 		strb	r10, [r0, #161]
 846 0038 1A46     		mov	r2, r3
 847 003a 8119     		adds	r1, r0, r6
 848 003c C5F83C90 		str	r9, [r5, #60]
 849 0040 C5E918C7 		strd	ip, r7, [r5, #96]
 850 0044 C5F844E0 		str	lr, [r5, #68]
 851 0048 FFF7FEFF 		bl	LTDC_SetConfig
 852 004c 2268     		ldr	r2, [r4]
 853 004e 0023     		movs	r3, #0
 854 0050 C2F82480 		str	r8, [r2, #36]
 855 0054 1846     		mov	r0, r3
 856 0056 84F8A180 		strb	r8, [r4, #161]
 857 005a 84F8A030 		strb	r3, [r4, #160]
 858 005e BDE8F087 		pop	{r4, r5, r6, r7, r8, r9, r10, pc}
 859              	.L135:
 860 0062 0220     		movs	r0, #2
 861 0064 BDE8F087 		pop	{r4, r5, r6, r7, r8, r9, r10, pc}
 863              		.section	.text.HAL_LTDC_SetWindowPosition,"ax",%progbits
 864              		.align	1
 865              		.p2align 2,,3
 866              		.global	HAL_LTDC_SetWindowPosition
 867              		.syntax unified
 868              		.thumb
 869              		.thumb_func
 870              		.fpu fpv4-sp-d16
 872              	HAL_LTDC_SetWindowPosition:
 873              		@ args = 0, pretend = 0, frame = 0
 874              		@ frame_needed = 0, uses_anonymous_args = 0
 875 0000 2DE9F047 		push	{r4, r5, r6, r7, r8, r9, r10, lr}
 876 0004 90F8A050 		ldrb	r5, [r0, #160]	@ zero_extendqisi2
 877 0008 012D     		cmp	r5, #1
 878 000a 28D0     		beq	.L139
 879 000c 3426     		movs	r6, #52
 880 000e 06FB03F6 		mul	r6, r6, r3
 881 0012 8519     		adds	r5, r0, r6
 882 0014 8C46     		mov	ip, r1
 883 0016 1746     		mov	r7, r2
 884 0018 D5E91821 		ldrd	r2, r1, [r5, #96]
 885 001c 0446     		mov	r4, r0
 886 001e 02EB0C09 		add	r9, r2, ip
 887 0022 4FF00108 		mov	r8, #1
 888 0026 01EB070E 		add	lr, r1, r7
 889 002a 3836     		adds	r6, r6, #56
 890 002c 4FF0020A 		mov	r10, #2
 891 0030 80F8A080 		strb	r8, [r0, #160]
 892 0034 80F8A1A0 		strb	r10, [r0, #161]
 893 0038 1A46     		mov	r2, r3
 894 003a 8119     		adds	r1, r0, r6
ARM GAS  D:\Programs\cygwin64\tmp\ccf80zwc.s 			page 16


 895 003c C5E90EC9 		strd	ip, r9, [r5, #56]
 896 0040 C5E9107E 		strd	r7, lr, [r5, #64]
 897 0044 FFF7FEFF 		bl	LTDC_SetConfig
 898 0048 2268     		ldr	r2, [r4]
 899 004a 0023     		movs	r3, #0
 900 004c C2F82480 		str	r8, [r2, #36]
 901 0050 1846     		mov	r0, r3
 902 0052 84F8A180 		strb	r8, [r4, #161]
 903 0056 84F8A030 		strb	r3, [r4, #160]
 904 005a BDE8F087 		pop	{r4, r5, r6, r7, r8, r9, r10, pc}
 905              	.L139:
 906 005e 0220     		movs	r0, #2
 907 0060 BDE8F087 		pop	{r4, r5, r6, r7, r8, r9, r10, pc}
 909              		.section	.text.HAL_LTDC_SetPixelFormat,"ax",%progbits
 910              		.align	1
 911              		.p2align 2,,3
 912              		.global	HAL_LTDC_SetPixelFormat
 913              		.syntax unified
 914              		.thumb
 915              		.thumb_func
 916              		.fpu fpv4-sp-d16
 918              	HAL_LTDC_SetPixelFormat:
 919              		@ args = 0, pretend = 0, frame = 0
 920              		@ frame_needed = 0, uses_anonymous_args = 0
 921 0000 F8B5     		push	{r3, r4, r5, r6, r7, lr}
 922 0002 90F8A050 		ldrb	r5, [r0, #160]	@ zero_extendqisi2
 923 0006 012D     		cmp	r5, #1
 924 0008 1AD0     		beq	.L143
 925 000a 3423     		movs	r3, #52
 926 000c 03FB02F3 		mul	r3, r3, r2
 927 0010 C718     		adds	r7, r0, r3
 928 0012 0446     		mov	r4, r0
 929 0014 0126     		movs	r6, #1
 930 0016 0D46     		mov	r5, r1
 931 0018 3833     		adds	r3, r3, #56
 932 001a 4FF0020C 		mov	ip, #2
 933 001e C118     		adds	r1, r0, r3
 934 0020 80F8A060 		strb	r6, [r0, #160]
 935 0024 80F8A1C0 		strb	ip, [r0, #161]
 936 0028 BD64     		str	r5, [r7, #72]
 937 002a FFF7FEFF 		bl	LTDC_SetConfig
 938 002e 2268     		ldr	r2, [r4]
 939 0030 0023     		movs	r3, #0
 940 0032 5662     		str	r6, [r2, #36]
 941 0034 1846     		mov	r0, r3
 942 0036 84F8A160 		strb	r6, [r4, #161]
 943 003a 84F8A030 		strb	r3, [r4, #160]
 944 003e F8BD     		pop	{r3, r4, r5, r6, r7, pc}
 945              	.L143:
 946 0040 0220     		movs	r0, #2
 947 0042 F8BD     		pop	{r3, r4, r5, r6, r7, pc}
 949              		.section	.text.HAL_LTDC_SetAlpha,"ax",%progbits
 950              		.align	1
 951              		.p2align 2,,3
 952              		.global	HAL_LTDC_SetAlpha
 953              		.syntax unified
 954              		.thumb
ARM GAS  D:\Programs\cygwin64\tmp\ccf80zwc.s 			page 17


 955              		.thumb_func
 956              		.fpu fpv4-sp-d16
 958              	HAL_LTDC_SetAlpha:
 959              		@ args = 0, pretend = 0, frame = 0
 960              		@ frame_needed = 0, uses_anonymous_args = 0
 961 0000 F8B5     		push	{r3, r4, r5, r6, r7, lr}
 962 0002 90F8A050 		ldrb	r5, [r0, #160]	@ zero_extendqisi2
 963 0006 012D     		cmp	r5, #1
 964 0008 1AD0     		beq	.L147
 965 000a 3423     		movs	r3, #52
 966 000c 03FB02F3 		mul	r3, r3, r2
 967 0010 C718     		adds	r7, r0, r3
 968 0012 0446     		mov	r4, r0
 969 0014 0126     		movs	r6, #1
 970 0016 0D46     		mov	r5, r1
 971 0018 3833     		adds	r3, r3, #56
 972 001a 4FF0020C 		mov	ip, #2
 973 001e C118     		adds	r1, r0, r3
 974 0020 80F8A060 		strb	r6, [r0, #160]
 975 0024 80F8A1C0 		strb	ip, [r0, #161]
 976 0028 FD64     		str	r5, [r7, #76]
 977 002a FFF7FEFF 		bl	LTDC_SetConfig
 978 002e 2268     		ldr	r2, [r4]
 979 0030 0023     		movs	r3, #0
 980 0032 5662     		str	r6, [r2, #36]
 981 0034 1846     		mov	r0, r3
 982 0036 84F8A160 		strb	r6, [r4, #161]
 983 003a 84F8A030 		strb	r3, [r4, #160]
 984 003e F8BD     		pop	{r3, r4, r5, r6, r7, pc}
 985              	.L147:
 986 0040 0220     		movs	r0, #2
 987 0042 F8BD     		pop	{r3, r4, r5, r6, r7, pc}
 989              		.section	.text.HAL_LTDC_SetAddress,"ax",%progbits
 990              		.align	1
 991              		.p2align 2,,3
 992              		.global	HAL_LTDC_SetAddress
 993              		.syntax unified
 994              		.thumb
 995              		.thumb_func
 996              		.fpu fpv4-sp-d16
 998              	HAL_LTDC_SetAddress:
 999              		@ args = 0, pretend = 0, frame = 0
 1000              		@ frame_needed = 0, uses_anonymous_args = 0
 1001 0000 F8B5     		push	{r3, r4, r5, r6, r7, lr}
 1002 0002 90F8A050 		ldrb	r5, [r0, #160]	@ zero_extendqisi2
 1003 0006 012D     		cmp	r5, #1
 1004 0008 1AD0     		beq	.L151
 1005 000a 3423     		movs	r3, #52
 1006 000c 03FB02F3 		mul	r3, r3, r2
 1007 0010 C718     		adds	r7, r0, r3
 1008 0012 0446     		mov	r4, r0
 1009 0014 0126     		movs	r6, #1
 1010 0016 0D46     		mov	r5, r1
 1011 0018 3833     		adds	r3, r3, #56
 1012 001a 4FF0020C 		mov	ip, #2
 1013 001e C118     		adds	r1, r0, r3
 1014 0020 80F8A060 		strb	r6, [r0, #160]
ARM GAS  D:\Programs\cygwin64\tmp\ccf80zwc.s 			page 18


 1015 0024 80F8A1C0 		strb	ip, [r0, #161]
 1016 0028 FD65     		str	r5, [r7, #92]
 1017 002a FFF7FEFF 		bl	LTDC_SetConfig
 1018 002e 2268     		ldr	r2, [r4]
 1019 0030 0023     		movs	r3, #0
 1020 0032 5662     		str	r6, [r2, #36]
 1021 0034 1846     		mov	r0, r3
 1022 0036 84F8A160 		strb	r6, [r4, #161]
 1023 003a 84F8A030 		strb	r3, [r4, #160]
 1024 003e F8BD     		pop	{r3, r4, r5, r6, r7, pc}
 1025              	.L151:
 1026 0040 0220     		movs	r0, #2
 1027 0042 F8BD     		pop	{r3, r4, r5, r6, r7, pc}
 1029              		.section	.text.HAL_LTDC_SetPitch,"ax",%progbits
 1030              		.align	1
 1031              		.p2align 2,,3
 1032              		.global	HAL_LTDC_SetPitch
 1033              		.syntax unified
 1034              		.thumb
 1035              		.thumb_func
 1036              		.fpu fpv4-sp-d16
 1038              	HAL_LTDC_SetPitch:
 1039              		@ args = 0, pretend = 0, frame = 0
 1040              		@ frame_needed = 0, uses_anonymous_args = 0
 1041              		@ link register save eliminated.
 1042 0000 0346     		mov	r3, r0
 1043 0002 90F8A000 		ldrb	r0, [r0, #160]	@ zero_extendqisi2
 1044 0006 0128     		cmp	r0, #1
 1045 0008 33D0     		beq	.L160
 1046 000a 3420     		movs	r0, #52
 1047 000c 00FB0230 		mla	r0, r0, r2, r3
 1048 0010 70B4     		push	{r4, r5, r6}
 1049 0012 806C     		ldr	r0, [r0, #72]
 1050 0014 0224     		movs	r4, #2
 1051 0016 83F8A140 		strb	r4, [r3, #161]
 1052 001a F0B9     		cbnz	r0, .L155
 1053 001c A140     		lsls	r1, r1, r4
 1054              	.L156:
 1055 001e 1868     		ldr	r0, [r3]
 1056 0020 154C     		ldr	r4, .L169
 1057 0022 D201     		lsls	r2, r2, #7
 1058 0024 8432     		adds	r2, r2, #132
 1059 0026 0244     		add	r2, r2, r0
 1060 0028 0126     		movs	r6, #1
 1061 002a D06A     		ldr	r0, [r2, #44]
 1062 002c 20F0FF50 		bic	r0, r0, #534773760
 1063 0030 20F4F810 		bic	r0, r0, #2031616
 1064 0034 D062     		str	r0, [r2, #44]
 1065 0036 656A     		ldr	r5, [r4, #36]
 1066 0038 3543     		orrs	r5, r5, r6
 1067 003a 6562     		str	r5, [r4, #36]
 1068 003c D06A     		ldr	r0, [r2, #44]
 1069 003e 40EA0140 		orr	r0, r0, r1, lsl #16
 1070 0042 D062     		str	r0, [r2, #44]
 1071 0044 626A     		ldr	r2, [r4, #36]
 1072 0046 0021     		movs	r1, #0
 1073 0048 3243     		orrs	r2, r2, r6
ARM GAS  D:\Programs\cygwin64\tmp\ccf80zwc.s 			page 19


 1074 004a 6262     		str	r2, [r4, #36]
 1075 004c 0846     		mov	r0, r1
 1076 004e 83F8A160 		strb	r6, [r3, #161]
 1077 0052 83F8A010 		strb	r1, [r3, #160]
 1078 0056 70BC     		pop	{r4, r5, r6}
 1079 0058 7047     		bx	lr
 1080              	.L155:
 1081 005a 0128     		cmp	r0, #1
 1082 005c 06D0     		beq	.L168
 1083 005e 841E     		subs	r4, r0, #2
 1084 0060 022C     		cmp	r4, #2
 1085 0062 01D9     		bls	.L159
 1086 0064 0728     		cmp	r0, #7
 1087 0066 DAD1     		bne	.L156
 1088              	.L159:
 1089 0068 4900     		lsls	r1, r1, #1
 1090 006a D8E7     		b	.L156
 1091              	.L168:
 1092 006c 01EB4101 		add	r1, r1, r1, lsl #1
 1093 0070 D5E7     		b	.L156
 1094              	.L160:
 1095 0072 0220     		movs	r0, #2
 1096 0074 7047     		bx	lr
 1097              	.L170:
 1098 0076 00BF     		.align	2
 1099              	.L169:
 1100 0078 00680140 		.word	1073833984
 1102              		.section	.text.HAL_LTDC_ProgramLineEvent,"ax",%progbits
 1103              		.align	1
 1104              		.p2align 2,,3
 1105              		.global	HAL_LTDC_ProgramLineEvent
 1106              		.syntax unified
 1107              		.thumb
 1108              		.thumb_func
 1109              		.fpu fpv4-sp-d16
 1111              	HAL_LTDC_ProgramLineEvent:
 1112              		@ args = 0, pretend = 0, frame = 0
 1113              		@ frame_needed = 0, uses_anonymous_args = 0
 1114              		@ link register save eliminated.
 1115 0000 90F8A020 		ldrb	r2, [r0, #160]	@ zero_extendqisi2
 1116 0004 012A     		cmp	r2, #1
 1117 0006 17D0     		beq	.L173
 1118 0008 0346     		mov	r3, r0
 1119 000a 0220     		movs	r0, #2
 1120 000c 1A68     		ldr	r2, [r3]
 1121 000e 30B4     		push	{r4, r5}
 1122 0010 83F8A100 		strb	r0, [r3, #161]
 1123 0014 506B     		ldr	r0, [r2, #52]
 1124 0016 094C     		ldr	r4, .L178
 1125 0018 20F00100 		bic	r0, r0, #1
 1126 001c 5063     		str	r0, [r2, #52]
 1127 001e 2164     		str	r1, [r4, #64]
 1128 0020 516B     		ldr	r1, [r2, #52]
 1129 0022 0125     		movs	r5, #1
 1130 0024 0024     		movs	r4, #0
 1131 0026 2943     		orrs	r1, r1, r5
 1132 0028 5163     		str	r1, [r2, #52]
ARM GAS  D:\Programs\cygwin64\tmp\ccf80zwc.s 			page 20


 1133 002a 2046     		mov	r0, r4
 1134 002c 83F8A150 		strb	r5, [r3, #161]
 1135 0030 83F8A040 		strb	r4, [r3, #160]
 1136 0034 30BC     		pop	{r4, r5}
 1137 0036 7047     		bx	lr
 1138              	.L173:
 1139 0038 0220     		movs	r0, #2
 1140 003a 7047     		bx	lr
 1141              	.L179:
 1142              		.align	2
 1143              	.L178:
 1144 003c 00680140 		.word	1073833984
 1146              		.section	.text.HAL_LTDC_Reload,"ax",%progbits
 1147              		.align	1
 1148              		.p2align 2,,3
 1149              		.global	HAL_LTDC_Reload
 1150              		.syntax unified
 1151              		.thumb
 1152              		.thumb_func
 1153              		.fpu fpv4-sp-d16
 1155              	HAL_LTDC_Reload:
 1156              		@ args = 0, pretend = 0, frame = 0
 1157              		@ frame_needed = 0, uses_anonymous_args = 0
 1158              		@ link register save eliminated.
 1159 0000 90F8A020 		ldrb	r2, [r0, #160]	@ zero_extendqisi2
 1160 0004 012A     		cmp	r2, #1
 1161 0006 13D0     		beq	.L182
 1162 0008 0346     		mov	r3, r0
 1163 000a 30B4     		push	{r4, r5}
 1164 000c 1A68     		ldr	r2, [r3]
 1165 000e 0220     		movs	r0, #2
 1166 0010 83F8A100 		strb	r0, [r3, #161]
 1167 0014 506B     		ldr	r0, [r2, #52]
 1168 0016 0024     		movs	r4, #0
 1169 0018 0125     		movs	r5, #1
 1170 001a 40F00800 		orr	r0, r0, #8
 1171 001e 5063     		str	r0, [r2, #52]
 1172 0020 5162     		str	r1, [r2, #36]
 1173 0022 2046     		mov	r0, r4
 1174 0024 83F8A150 		strb	r5, [r3, #161]
 1175 0028 83F8A040 		strb	r4, [r3, #160]
 1176 002c 30BC     		pop	{r4, r5}
 1177 002e 7047     		bx	lr
 1178              	.L182:
 1179 0030 0220     		movs	r0, #2
 1180 0032 7047     		bx	lr
 1182              		.section	.text.HAL_LTDC_ConfigLayer_NoReload,"ax",%progbits
 1183              		.align	1
 1184              		.p2align 2,,3
 1185              		.global	HAL_LTDC_ConfigLayer_NoReload
 1186              		.syntax unified
 1187              		.thumb
 1188              		.thumb_func
 1189              		.fpu fpv4-sp-d16
 1191              	HAL_LTDC_ConfigLayer_NoReload:
 1192              		@ args = 0, pretend = 0, frame = 0
 1193              		@ frame_needed = 0, uses_anonymous_args = 0
ARM GAS  D:\Programs\cygwin64\tmp\ccf80zwc.s 			page 21


 1194 0000 90F8A030 		ldrb	r3, [r0, #160]	@ zero_extendqisi2
 1195 0004 012B     		cmp	r3, #1
 1196 0006 25D0     		beq	.L189
 1197 0008 2DE9F041 		push	{r4, r5, r6, r7, r8, lr}
 1198 000c 0D46     		mov	r5, r1
 1199 000e 0646     		mov	r6, r0
 1200 0010 9446     		mov	ip, r2
 1201 0012 0F46     		mov	r7, r1
 1202 0014 0FCD     		ldmia	r5!, {r0, r1, r2, r3}
 1203 0016 3424     		movs	r4, #52
 1204 0018 04FB0C64 		mla	r4, r4, ip, r6
 1205 001c 4FF00108 		mov	r8, #1
 1206 0020 4FF0020E 		mov	lr, #2
 1207 0024 3834     		adds	r4, r4, #56
 1208 0026 86F8A080 		strb	r8, [r6, #160]
 1209 002a 86F8A1E0 		strb	lr, [r6, #161]
 1210 002e 0FC4     		stmia	r4!, {r0, r1, r2, r3}
 1211 0030 0FCD     		ldmia	r5!, {r0, r1, r2, r3}
 1212 0032 0FC4     		stmia	r4!, {r0, r1, r2, r3}
 1213 0034 0FCD     		ldmia	r5!, {r0, r1, r2, r3}
 1214 0036 0FC4     		stmia	r4!, {r0, r1, r2, r3}
 1215 0038 2B68     		ldr	r3, [r5]
 1216 003a 2360     		str	r3, [r4]
 1217 003c 3046     		mov	r0, r6
 1218 003e 6246     		mov	r2, ip
 1219 0040 3946     		mov	r1, r7
 1220 0042 FFF7FEFF 		bl	LTDC_SetConfig
 1221 0046 0020     		movs	r0, #0
 1222 0048 86F8A180 		strb	r8, [r6, #161]
 1223 004c 86F8A000 		strb	r0, [r6, #160]
 1224 0050 BDE8F081 		pop	{r4, r5, r6, r7, r8, pc}
 1225              	.L189:
 1226 0054 0220     		movs	r0, #2
 1227 0056 7047     		bx	lr
 1229              		.section	.text.HAL_LTDC_SetWindowSize_NoReload,"ax",%progbits
 1230              		.align	1
 1231              		.p2align 2,,3
 1232              		.global	HAL_LTDC_SetWindowSize_NoReload
 1233              		.syntax unified
 1234              		.thumb
 1235              		.thumb_func
 1236              		.fpu fpv4-sp-d16
 1238              	HAL_LTDC_SetWindowSize_NoReload:
 1239              		@ args = 0, pretend = 0, frame = 0
 1240              		@ frame_needed = 0, uses_anonymous_args = 0
 1241 0000 2DE9F047 		push	{r4, r5, r6, r7, r8, r9, r10, lr}
 1242 0004 90F8A050 		ldrb	r5, [r0, #160]	@ zero_extendqisi2
 1243 0008 012D     		cmp	r5, #1
 1244 000a 26D0     		beq	.L196
 1245 000c 3426     		movs	r6, #52
 1246 000e 06FB03F6 		mul	r6, r6, r3
 1247 0012 8519     		adds	r5, r0, r6
 1248 0014 8C46     		mov	ip, r1
 1249 0016 1746     		mov	r7, r2
 1250 0018 296C     		ldr	r1, [r5, #64]
 1251 001a AA6B     		ldr	r2, [r5, #56]
 1252 001c 01EB070E 		add	lr, r1, r7
ARM GAS  D:\Programs\cygwin64\tmp\ccf80zwc.s 			page 22


 1253 0020 02EB0C09 		add	r9, r2, ip
 1254 0024 4FF00108 		mov	r8, #1
 1255 0028 3836     		adds	r6, r6, #56
 1256 002a 4FF0020A 		mov	r10, #2
 1257 002e 80F8A080 		strb	r8, [r0, #160]
 1258 0032 80F8A1A0 		strb	r10, [r0, #161]
 1259 0036 0446     		mov	r4, r0
 1260 0038 8119     		adds	r1, r0, r6
 1261 003a 1A46     		mov	r2, r3
 1262 003c C5F83C90 		str	r9, [r5, #60]
 1263 0040 C5E918C7 		strd	ip, r7, [r5, #96]
 1264 0044 C5F844E0 		str	lr, [r5, #68]
 1265 0048 FFF7FEFF 		bl	LTDC_SetConfig
 1266 004c 0020     		movs	r0, #0
 1267 004e 84F8A180 		strb	r8, [r4, #161]
 1268 0052 84F8A000 		strb	r0, [r4, #160]
 1269 0056 BDE8F087 		pop	{r4, r5, r6, r7, r8, r9, r10, pc}
 1270              	.L196:
 1271 005a 0220     		movs	r0, #2
 1272 005c BDE8F087 		pop	{r4, r5, r6, r7, r8, r9, r10, pc}
 1274              		.section	.text.HAL_LTDC_SetWindowPosition_NoReload,"ax",%progbits
 1275              		.align	1
 1276              		.p2align 2,,3
 1277              		.global	HAL_LTDC_SetWindowPosition_NoReload
 1278              		.syntax unified
 1279              		.thumb
 1280              		.thumb_func
 1281              		.fpu fpv4-sp-d16
 1283              	HAL_LTDC_SetWindowPosition_NoReload:
 1284              		@ args = 0, pretend = 0, frame = 0
 1285              		@ frame_needed = 0, uses_anonymous_args = 0
 1286 0000 2DE9F047 		push	{r4, r5, r6, r7, r8, r9, r10, lr}
 1287 0004 90F8A050 		ldrb	r5, [r0, #160]	@ zero_extendqisi2
 1288 0008 012D     		cmp	r5, #1
 1289 000a 24D0     		beq	.L200
 1290 000c 3426     		movs	r6, #52
 1291 000e 06FB03F6 		mul	r6, r6, r3
 1292 0012 8519     		adds	r5, r0, r6
 1293 0014 8C46     		mov	ip, r1
 1294 0016 1746     		mov	r7, r2
 1295 0018 D5E91821 		ldrd	r2, r1, [r5, #96]
 1296 001c 4FF00108 		mov	r8, #1
 1297 0020 02EB0C09 		add	r9, r2, ip
 1298 0024 01EB070E 		add	lr, r1, r7
 1299 0028 3836     		adds	r6, r6, #56
 1300 002a 4FF0020A 		mov	r10, #2
 1301 002e 0446     		mov	r4, r0
 1302 0030 80F8A080 		strb	r8, [r0, #160]
 1303 0034 80F8A1A0 		strb	r10, [r0, #161]
 1304 0038 8119     		adds	r1, r0, r6
 1305 003a 1A46     		mov	r2, r3
 1306 003c C5E90EC9 		strd	ip, r9, [r5, #56]
 1307 0040 C5E9107E 		strd	r7, lr, [r5, #64]
 1308 0044 FFF7FEFF 		bl	LTDC_SetConfig
 1309 0048 0020     		movs	r0, #0
 1310 004a 84F8A180 		strb	r8, [r4, #161]
 1311 004e 84F8A000 		strb	r0, [r4, #160]
ARM GAS  D:\Programs\cygwin64\tmp\ccf80zwc.s 			page 23


 1312 0052 BDE8F087 		pop	{r4, r5, r6, r7, r8, r9, r10, pc}
 1313              	.L200:
 1314 0056 0220     		movs	r0, #2
 1315 0058 BDE8F087 		pop	{r4, r5, r6, r7, r8, r9, r10, pc}
 1317              		.section	.text.HAL_LTDC_SetPixelFormat_NoReload,"ax",%progbits
 1318              		.align	1
 1319              		.p2align 2,,3
 1320              		.global	HAL_LTDC_SetPixelFormat_NoReload
 1321              		.syntax unified
 1322              		.thumb
 1323              		.thumb_func
 1324              		.fpu fpv4-sp-d16
 1326              	HAL_LTDC_SetPixelFormat_NoReload:
 1327              		@ args = 0, pretend = 0, frame = 0
 1328              		@ frame_needed = 0, uses_anonymous_args = 0
 1329 0000 F8B5     		push	{r3, r4, r5, r6, r7, lr}
 1330 0002 90F8A050 		ldrb	r5, [r0, #160]	@ zero_extendqisi2
 1331 0006 012D     		cmp	r5, #1
 1332 0008 17D0     		beq	.L204
 1333 000a 3423     		movs	r3, #52
 1334 000c 03FB02F3 		mul	r3, r3, r2
 1335 0010 C718     		adds	r7, r0, r3
 1336 0012 0D46     		mov	r5, r1
 1337 0014 3833     		adds	r3, r3, #56
 1338 0016 0126     		movs	r6, #1
 1339 0018 4FF0020C 		mov	ip, #2
 1340 001c 0446     		mov	r4, r0
 1341 001e 80F8A060 		strb	r6, [r0, #160]
 1342 0022 80F8A1C0 		strb	ip, [r0, #161]
 1343 0026 C118     		adds	r1, r0, r3
 1344 0028 BD64     		str	r5, [r7, #72]
 1345 002a FFF7FEFF 		bl	LTDC_SetConfig
 1346 002e 0020     		movs	r0, #0
 1347 0030 84F8A160 		strb	r6, [r4, #161]
 1348 0034 84F8A000 		strb	r0, [r4, #160]
 1349 0038 F8BD     		pop	{r3, r4, r5, r6, r7, pc}
 1350              	.L204:
 1351 003a 0220     		movs	r0, #2
 1352 003c F8BD     		pop	{r3, r4, r5, r6, r7, pc}
 1354 003e 00BF     		.section	.text.HAL_LTDC_SetAlpha_NoReload,"ax",%progbits
 1355              		.align	1
 1356              		.p2align 2,,3
 1357              		.global	HAL_LTDC_SetAlpha_NoReload
 1358              		.syntax unified
 1359              		.thumb
 1360              		.thumb_func
 1361              		.fpu fpv4-sp-d16
 1363              	HAL_LTDC_SetAlpha_NoReload:
 1364              		@ args = 0, pretend = 0, frame = 0
 1365              		@ frame_needed = 0, uses_anonymous_args = 0
 1366 0000 F8B5     		push	{r3, r4, r5, r6, r7, lr}
 1367 0002 90F8A050 		ldrb	r5, [r0, #160]	@ zero_extendqisi2
 1368 0006 012D     		cmp	r5, #1
 1369 0008 17D0     		beq	.L208
 1370 000a 3423     		movs	r3, #52
 1371 000c 03FB02F3 		mul	r3, r3, r2
 1372 0010 C718     		adds	r7, r0, r3
ARM GAS  D:\Programs\cygwin64\tmp\ccf80zwc.s 			page 24


 1373 0012 0D46     		mov	r5, r1
 1374 0014 3833     		adds	r3, r3, #56
 1375 0016 0126     		movs	r6, #1
 1376 0018 4FF0020C 		mov	ip, #2
 1377 001c 0446     		mov	r4, r0
 1378 001e 80F8A060 		strb	r6, [r0, #160]
 1379 0022 80F8A1C0 		strb	ip, [r0, #161]
 1380 0026 C118     		adds	r1, r0, r3
 1381 0028 FD64     		str	r5, [r7, #76]
 1382 002a FFF7FEFF 		bl	LTDC_SetConfig
 1383 002e 0020     		movs	r0, #0
 1384 0030 84F8A160 		strb	r6, [r4, #161]
 1385 0034 84F8A000 		strb	r0, [r4, #160]
 1386 0038 F8BD     		pop	{r3, r4, r5, r6, r7, pc}
 1387              	.L208:
 1388 003a 0220     		movs	r0, #2
 1389 003c F8BD     		pop	{r3, r4, r5, r6, r7, pc}
 1391 003e 00BF     		.section	.text.HAL_LTDC_SetAddress_NoReload,"ax",%progbits
 1392              		.align	1
 1393              		.p2align 2,,3
 1394              		.global	HAL_LTDC_SetAddress_NoReload
 1395              		.syntax unified
 1396              		.thumb
 1397              		.thumb_func
 1398              		.fpu fpv4-sp-d16
 1400              	HAL_LTDC_SetAddress_NoReload:
 1401              		@ args = 0, pretend = 0, frame = 0
 1402              		@ frame_needed = 0, uses_anonymous_args = 0
 1403 0000 F8B5     		push	{r3, r4, r5, r6, r7, lr}
 1404 0002 90F8A050 		ldrb	r5, [r0, #160]	@ zero_extendqisi2
 1405 0006 012D     		cmp	r5, #1
 1406 0008 17D0     		beq	.L212
 1407 000a 3423     		movs	r3, #52
 1408 000c 03FB02F3 		mul	r3, r3, r2
 1409 0010 C718     		adds	r7, r0, r3
 1410 0012 0D46     		mov	r5, r1
 1411 0014 3833     		adds	r3, r3, #56
 1412 0016 0126     		movs	r6, #1
 1413 0018 4FF0020C 		mov	ip, #2
 1414 001c 0446     		mov	r4, r0
 1415 001e 80F8A060 		strb	r6, [r0, #160]
 1416 0022 80F8A1C0 		strb	ip, [r0, #161]
 1417 0026 C118     		adds	r1, r0, r3
 1418 0028 FD65     		str	r5, [r7, #92]
 1419 002a FFF7FEFF 		bl	LTDC_SetConfig
 1420 002e 0020     		movs	r0, #0
 1421 0030 84F8A160 		strb	r6, [r4, #161]
 1422 0034 84F8A000 		strb	r0, [r4, #160]
 1423 0038 F8BD     		pop	{r3, r4, r5, r6, r7, pc}
 1424              	.L212:
 1425 003a 0220     		movs	r0, #2
 1426 003c F8BD     		pop	{r3, r4, r5, r6, r7, pc}
 1428 003e 00BF     		.section	.text.HAL_LTDC_SetPitch_NoReload,"ax",%progbits
 1429              		.align	1
 1430              		.p2align 2,,3
 1431              		.global	HAL_LTDC_SetPitch_NoReload
 1432              		.syntax unified
ARM GAS  D:\Programs\cygwin64\tmp\ccf80zwc.s 			page 25


 1433              		.thumb
 1434              		.thumb_func
 1435              		.fpu fpv4-sp-d16
 1437              	HAL_LTDC_SetPitch_NoReload:
 1438              		@ args = 0, pretend = 0, frame = 0
 1439              		@ frame_needed = 0, uses_anonymous_args = 0
 1440              		@ link register save eliminated.
 1441 0000 0346     		mov	r3, r0
 1442 0002 90F8A000 		ldrb	r0, [r0, #160]	@ zero_extendqisi2
 1443 0006 0128     		cmp	r0, #1
 1444 0008 2CD0     		beq	.L221
 1445 000a 30B4     		push	{r4, r5}
 1446 000c 3424     		movs	r4, #52
 1447 000e 04FB0234 		mla	r4, r4, r2, r3
 1448 0012 0225     		movs	r5, #2
 1449 0014 A06C     		ldr	r0, [r4, #72]
 1450 0016 83F8A150 		strb	r5, [r3, #161]
 1451 001a B8B9     		cbnz	r0, .L216
 1452 001c A940     		lsls	r1, r1, r5
 1453              	.L217:
 1454 001e 1868     		ldr	r0, [r3]
 1455 0020 D201     		lsls	r2, r2, #7
 1456 0022 8432     		adds	r2, r2, #132
 1457 0024 0244     		add	r2, r2, r0
 1458 0026 0124     		movs	r4, #1
 1459 0028 D06A     		ldr	r0, [r2, #44]
 1460 002a 20F0FF50 		bic	r0, r0, #534773760
 1461 002e 20F4F810 		bic	r0, r0, #2031616
 1462 0032 D062     		str	r0, [r2, #44]
 1463 0034 D06A     		ldr	r0, [r2, #44]
 1464 0036 40EA0140 		orr	r0, r0, r1, lsl #16
 1465 003a 0021     		movs	r1, #0
 1466 003c D062     		str	r0, [r2, #44]
 1467 003e 0846     		mov	r0, r1
 1468 0040 83F8A140 		strb	r4, [r3, #161]
 1469 0044 83F8A010 		strb	r1, [r3, #160]
 1470 0048 30BC     		pop	{r4, r5}
 1471 004a 7047     		bx	lr
 1472              	.L216:
 1473 004c 0128     		cmp	r0, #1
 1474 004e 06D0     		beq	.L229
 1475 0050 841E     		subs	r4, r0, #2
 1476 0052 022C     		cmp	r4, #2
 1477 0054 01D9     		bls	.L220
 1478 0056 0728     		cmp	r0, #7
 1479 0058 E1D1     		bne	.L217
 1480              	.L220:
 1481 005a 4900     		lsls	r1, r1, #1
 1482 005c DFE7     		b	.L217
 1483              	.L229:
 1484 005e 01EB4101 		add	r1, r1, r1, lsl #1
 1485 0062 DCE7     		b	.L217
 1486              	.L221:
 1487 0064 0220     		movs	r0, #2
 1488 0066 7047     		bx	lr
 1490              		.section	.text.HAL_LTDC_ConfigColorKeying_NoReload,"ax",%progbits
 1491              		.align	1
ARM GAS  D:\Programs\cygwin64\tmp\ccf80zwc.s 			page 26


 1492              		.p2align 2,,3
 1493              		.global	HAL_LTDC_ConfigColorKeying_NoReload
 1494              		.syntax unified
 1495              		.thumb
 1496              		.thumb_func
 1497              		.fpu fpv4-sp-d16
 1499              	HAL_LTDC_ConfigColorKeying_NoReload:
 1500              		@ args = 0, pretend = 0, frame = 0
 1501              		@ frame_needed = 0, uses_anonymous_args = 0
 1502              		@ link register save eliminated.
 1503 0000 0346     		mov	r3, r0
 1504 0002 90F8A000 		ldrb	r0, [r0, #160]	@ zero_extendqisi2
 1505 0006 0128     		cmp	r0, #1
 1506 0008 15D0     		beq	.L232
 1507 000a 1868     		ldr	r0, [r3]
 1508 000c D201     		lsls	r2, r2, #7
 1509 000e 8432     		adds	r2, r2, #132
 1510 0010 30B4     		push	{r4, r5}
 1511 0012 0244     		add	r2, r2, r0
 1512 0014 0220     		movs	r0, #2
 1513 0016 83F8A100 		strb	r0, [r3, #161]
 1514 001a D068     		ldr	r0, [r2, #12]
 1515 001c 0024     		movs	r4, #0
 1516 001e 0125     		movs	r5, #1
 1517 0020 00F07F40 		and	r0, r0, #-16777216
 1518 0024 D060     		str	r0, [r2, #12]
 1519 0026 D160     		str	r1, [r2, #12]
 1520 0028 2046     		mov	r0, r4
 1521 002a 83F8A150 		strb	r5, [r3, #161]
 1522 002e 83F8A040 		strb	r4, [r3, #160]
 1523 0032 30BC     		pop	{r4, r5}
 1524 0034 7047     		bx	lr
 1525              	.L232:
 1526 0036 0220     		movs	r0, #2
 1527 0038 7047     		bx	lr
 1529 003a 00BF     		.section	.text.HAL_LTDC_EnableColorKeying_NoReload,"ax",%progbits
 1530              		.align	1
 1531              		.p2align 2,,3
 1532              		.global	HAL_LTDC_EnableColorKeying_NoReload
 1533              		.syntax unified
 1534              		.thumb
 1535              		.thumb_func
 1536              		.fpu fpv4-sp-d16
 1538              	HAL_LTDC_EnableColorKeying_NoReload:
 1539              		@ args = 0, pretend = 0, frame = 0
 1540              		@ frame_needed = 0, uses_anonymous_args = 0
 1541              		@ link register save eliminated.
 1542 0000 90F8A020 		ldrb	r2, [r0, #160]	@ zero_extendqisi2
 1543 0004 012A     		cmp	r2, #1
 1544 0006 14D0     		beq	.L239
 1545 0008 0346     		mov	r3, r0
 1546 000a C901     		lsls	r1, r1, #7
 1547 000c 30B4     		push	{r4, r5}
 1548 000e 0068     		ldr	r0, [r0]
 1549 0010 8431     		adds	r1, r1, #132
 1550 0012 0222     		movs	r2, #2
 1551 0014 83F8A120 		strb	r2, [r3, #161]
ARM GAS  D:\Programs\cygwin64\tmp\ccf80zwc.s 			page 27


 1552 0018 4258     		ldr	r2, [r0, r1]
 1553 001a 0024     		movs	r4, #0
 1554 001c 0125     		movs	r5, #1
 1555 001e 42F00202 		orr	r2, r2, #2
 1556 0022 4250     		str	r2, [r0, r1]
 1557 0024 2046     		mov	r0, r4
 1558 0026 83F8A150 		strb	r5, [r3, #161]
 1559 002a 83F8A040 		strb	r4, [r3, #160]
 1560 002e 30BC     		pop	{r4, r5}
 1561 0030 7047     		bx	lr
 1562              	.L239:
 1563 0032 0220     		movs	r0, #2
 1564 0034 7047     		bx	lr
 1566 0036 00BF     		.section	.text.HAL_LTDC_DisableColorKeying_NoReload,"ax",%progbits
 1567              		.align	1
 1568              		.p2align 2,,3
 1569              		.global	HAL_LTDC_DisableColorKeying_NoReload
 1570              		.syntax unified
 1571              		.thumb
 1572              		.thumb_func
 1573              		.fpu fpv4-sp-d16
 1575              	HAL_LTDC_DisableColorKeying_NoReload:
 1576              		@ args = 0, pretend = 0, frame = 0
 1577              		@ frame_needed = 0, uses_anonymous_args = 0
 1578              		@ link register save eliminated.
 1579 0000 90F8A020 		ldrb	r2, [r0, #160]	@ zero_extendqisi2
 1580 0004 012A     		cmp	r2, #1
 1581 0006 14D0     		beq	.L246
 1582 0008 0346     		mov	r3, r0
 1583 000a C901     		lsls	r1, r1, #7
 1584 000c 30B4     		push	{r4, r5}
 1585 000e 0068     		ldr	r0, [r0]
 1586 0010 8431     		adds	r1, r1, #132
 1587 0012 0222     		movs	r2, #2
 1588 0014 83F8A120 		strb	r2, [r3, #161]
 1589 0018 4258     		ldr	r2, [r0, r1]
 1590 001a 0024     		movs	r4, #0
 1591 001c 0125     		movs	r5, #1
 1592 001e 22F00202 		bic	r2, r2, #2
 1593 0022 4250     		str	r2, [r0, r1]
 1594 0024 2046     		mov	r0, r4
 1595 0026 83F8A150 		strb	r5, [r3, #161]
 1596 002a 83F8A040 		strb	r4, [r3, #160]
 1597 002e 30BC     		pop	{r4, r5}
 1598 0030 7047     		bx	lr
 1599              	.L246:
 1600 0032 0220     		movs	r0, #2
 1601 0034 7047     		bx	lr
 1603 0036 00BF     		.section	.text.HAL_LTDC_EnableCLUT_NoReload,"ax",%progbits
 1604              		.align	1
 1605              		.p2align 2,,3
 1606              		.global	HAL_LTDC_EnableCLUT_NoReload
 1607              		.syntax unified
 1608              		.thumb
 1609              		.thumb_func
 1610              		.fpu fpv4-sp-d16
 1612              	HAL_LTDC_EnableCLUT_NoReload:
ARM GAS  D:\Programs\cygwin64\tmp\ccf80zwc.s 			page 28


 1613              		@ args = 0, pretend = 0, frame = 0
 1614              		@ frame_needed = 0, uses_anonymous_args = 0
 1615              		@ link register save eliminated.
 1616 0000 90F8A020 		ldrb	r2, [r0, #160]	@ zero_extendqisi2
 1617 0004 012A     		cmp	r2, #1
 1618 0006 14D0     		beq	.L253
 1619 0008 0346     		mov	r3, r0
 1620 000a C901     		lsls	r1, r1, #7
 1621 000c 30B4     		push	{r4, r5}
 1622 000e 0068     		ldr	r0, [r0]
 1623 0010 8431     		adds	r1, r1, #132
 1624 0012 0222     		movs	r2, #2
 1625 0014 83F8A120 		strb	r2, [r3, #161]
 1626 0018 4258     		ldr	r2, [r0, r1]
 1627 001a 0024     		movs	r4, #0
 1628 001c 0125     		movs	r5, #1
 1629 001e 42F01002 		orr	r2, r2, #16
 1630 0022 4250     		str	r2, [r0, r1]
 1631 0024 2046     		mov	r0, r4
 1632 0026 83F8A150 		strb	r5, [r3, #161]
 1633 002a 83F8A040 		strb	r4, [r3, #160]
 1634 002e 30BC     		pop	{r4, r5}
 1635 0030 7047     		bx	lr
 1636              	.L253:
 1637 0032 0220     		movs	r0, #2
 1638 0034 7047     		bx	lr
 1640 0036 00BF     		.section	.text.HAL_LTDC_DisableCLUT_NoReload,"ax",%progbits
 1641              		.align	1
 1642              		.p2align 2,,3
 1643              		.global	HAL_LTDC_DisableCLUT_NoReload
 1644              		.syntax unified
 1645              		.thumb
 1646              		.thumb_func
 1647              		.fpu fpv4-sp-d16
 1649              	HAL_LTDC_DisableCLUT_NoReload:
 1650              		@ args = 0, pretend = 0, frame = 0
 1651              		@ frame_needed = 0, uses_anonymous_args = 0
 1652              		@ link register save eliminated.
 1653 0000 90F8A020 		ldrb	r2, [r0, #160]	@ zero_extendqisi2
 1654 0004 012A     		cmp	r2, #1
 1655 0006 14D0     		beq	.L260
 1656 0008 0346     		mov	r3, r0
 1657 000a C901     		lsls	r1, r1, #7
 1658 000c 30B4     		push	{r4, r5}
 1659 000e 0068     		ldr	r0, [r0]
 1660 0010 8431     		adds	r1, r1, #132
 1661 0012 0222     		movs	r2, #2
 1662 0014 83F8A120 		strb	r2, [r3, #161]
 1663 0018 4258     		ldr	r2, [r0, r1]
 1664 001a 0024     		movs	r4, #0
 1665 001c 0125     		movs	r5, #1
 1666 001e 22F01002 		bic	r2, r2, #16
 1667 0022 4250     		str	r2, [r0, r1]
 1668 0024 2046     		mov	r0, r4
 1669 0026 83F8A150 		strb	r5, [r3, #161]
 1670 002a 83F8A040 		strb	r4, [r3, #160]
 1671 002e 30BC     		pop	{r4, r5}
ARM GAS  D:\Programs\cygwin64\tmp\ccf80zwc.s 			page 29


 1672 0030 7047     		bx	lr
 1673              	.L260:
 1674 0032 0220     		movs	r0, #2
 1675 0034 7047     		bx	lr
 1677 0036 00BF     		.section	.text.HAL_LTDC_GetState,"ax",%progbits
 1678              		.align	1
 1679              		.p2align 2,,3
 1680              		.global	HAL_LTDC_GetState
 1681              		.syntax unified
 1682              		.thumb
 1683              		.thumb_func
 1684              		.fpu fpv4-sp-d16
 1686              	HAL_LTDC_GetState:
 1687              		@ args = 0, pretend = 0, frame = 0
 1688              		@ frame_needed = 0, uses_anonymous_args = 0
 1689              		@ link register save eliminated.
 1690 0000 90F8A100 		ldrb	r0, [r0, #161]	@ zero_extendqisi2
 1691 0004 7047     		bx	lr
 1693 0006 00BF     		.section	.text.HAL_LTDC_GetError,"ax",%progbits
 1694              		.align	1
 1695              		.p2align 2,,3
 1696              		.global	HAL_LTDC_GetError
 1697              		.syntax unified
 1698              		.thumb
 1699              		.thumb_func
 1700              		.fpu fpv4-sp-d16
 1702              	HAL_LTDC_GetError:
 1703              		@ args = 0, pretend = 0, frame = 0
 1704              		@ frame_needed = 0, uses_anonymous_args = 0
 1705              		@ link register save eliminated.
 1706 0000 D0F8A400 		ldr	r0, [r0, #164]
 1707 0004 7047     		bx	lr
 1709 0006 00BF     		.ident	"GCC: (GNU Tools for Arm Embedded Processors 8-2018-q4-major) 8.2.1 20181213 (release) [gcc
ARM GAS  D:\Programs\cygwin64\tmp\ccf80zwc.s 			page 30

