ARM GAS  D:\Programs\cygwin64\tmp\cc1dAwJs.s 			page 1


   1              		.cpu cortex-m4
   2              		.eabi_attribute 27, 1
   3              		.eabi_attribute 28, 1
   4              		.eabi_attribute 20, 1
   5              		.eabi_attribute 21, 1
   6              		.eabi_attribute 23, 3
   7              		.eabi_attribute 24, 1
   8              		.eabi_attribute 25, 1
   9              		.eabi_attribute 26, 1
  10              		.eabi_attribute 30, 2
  11              		.eabi_attribute 34, 1
  12              		.eabi_attribute 18, 4
  13              		.file	"stm32f4xx_hal_dac_ex.c"
  14              		.text
  15              		.section	.text.HAL_DACEx_DualGetValue,"ax",%progbits
  16              		.align	1
  17              		.p2align 2,,3
  18              		.global	HAL_DACEx_DualGetValue
  19              		.arch armv7e-m
  20              		.syntax unified
  21              		.thumb
  22              		.thumb_func
  23              		.fpu fpv4-sp-d16
  25              	HAL_DACEx_DualGetValue:
  26              		@ args = 0, pretend = 0, frame = 0
  27              		@ frame_needed = 0, uses_anonymous_args = 0
  28              		@ link register save eliminated.
  29 0000 0368     		ldr	r3, [r0]
  30 0002 DA6A     		ldr	r2, [r3, #44]
  31 0004 186B     		ldr	r0, [r3, #48]
  32 0006 42EA0040 		orr	r0, r2, r0, lsl #16
  33 000a 7047     		bx	lr
  35              		.section	.text.HAL_DACEx_TriangleWaveGenerate,"ax",%progbits
  36              		.align	1
  37              		.p2align 2,,3
  38              		.global	HAL_DACEx_TriangleWaveGenerate
  39              		.syntax unified
  40              		.thumb
  41              		.thumb_func
  42              		.fpu fpv4-sp-d16
  44              	HAL_DACEx_TriangleWaveGenerate:
  45              		@ args = 0, pretend = 0, frame = 0
  46              		@ frame_needed = 0, uses_anonymous_args = 0
  47              		@ link register save eliminated.
  48 0000 0346     		mov	r3, r0
  49 0002 4079     		ldrb	r0, [r0, #5]	@ zero_extendqisi2
  50 0004 0128     		cmp	r0, #1
  51 0006 15D0     		beq	.L5
  52 0008 30B4     		push	{r4, r5}
  53 000a 0220     		movs	r0, #2
  54 000c 1D68     		ldr	r5, [r3]
  55 000e 1871     		strb	r0, [r3, #4]
  56 0010 2868     		ldr	r0, [r5]
  57 0012 4FF47C64 		mov	r4, #4032
  58 0016 8C40     		lsls	r4, r4, r1
  59 0018 42F08002 		orr	r2, r2, #128
  60 001c 20EA0400 		bic	r0, r0, r4
ARM GAS  D:\Programs\cygwin64\tmp\cc1dAwJs.s 			page 2


  61 0020 8A40     		lsls	r2, r2, r1
  62 0022 0243     		orrs	r2, r2, r0
  63 0024 0124     		movs	r4, #1
  64 0026 0021     		movs	r1, #0
  65 0028 2A60     		str	r2, [r5]
  66 002a 0846     		mov	r0, r1
  67 002c 1C71     		strb	r4, [r3, #4]
  68 002e 5971     		strb	r1, [r3, #5]
  69 0030 30BC     		pop	{r4, r5}
  70 0032 7047     		bx	lr
  71              	.L5:
  72 0034 0220     		movs	r0, #2
  73 0036 7047     		bx	lr
  75              		.section	.text.HAL_DACEx_NoiseWaveGenerate,"ax",%progbits
  76              		.align	1
  77              		.p2align 2,,3
  78              		.global	HAL_DACEx_NoiseWaveGenerate
  79              		.syntax unified
  80              		.thumb
  81              		.thumb_func
  82              		.fpu fpv4-sp-d16
  84              	HAL_DACEx_NoiseWaveGenerate:
  85              		@ args = 0, pretend = 0, frame = 0
  86              		@ frame_needed = 0, uses_anonymous_args = 0
  87              		@ link register save eliminated.
  88 0000 0346     		mov	r3, r0
  89 0002 4079     		ldrb	r0, [r0, #5]	@ zero_extendqisi2
  90 0004 0128     		cmp	r0, #1
  91 0006 15D0     		beq	.L12
  92 0008 30B4     		push	{r4, r5}
  93 000a 0220     		movs	r0, #2
  94 000c 1D68     		ldr	r5, [r3]
  95 000e 1871     		strb	r0, [r3, #4]
  96 0010 2868     		ldr	r0, [r5]
  97 0012 4FF47C64 		mov	r4, #4032
  98 0016 8C40     		lsls	r4, r4, r1
  99 0018 42F04002 		orr	r2, r2, #64
 100 001c 20EA0400 		bic	r0, r0, r4
 101 0020 8A40     		lsls	r2, r2, r1
 102 0022 0243     		orrs	r2, r2, r0
 103 0024 0124     		movs	r4, #1
 104 0026 0021     		movs	r1, #0
 105 0028 2A60     		str	r2, [r5]
 106 002a 0846     		mov	r0, r1
 107 002c 1C71     		strb	r4, [r3, #4]
 108 002e 5971     		strb	r1, [r3, #5]
 109 0030 30BC     		pop	{r4, r5}
 110 0032 7047     		bx	lr
 111              	.L12:
 112 0034 0220     		movs	r0, #2
 113 0036 7047     		bx	lr
 115              		.section	.text.HAL_DACEx_DualSetValue,"ax",%progbits
 116              		.align	1
 117              		.p2align 2,,3
 118              		.global	HAL_DACEx_DualSetValue
 119              		.syntax unified
 120              		.thumb
ARM GAS  D:\Programs\cygwin64\tmp\cc1dAwJs.s 			page 3


 121              		.thumb_func
 122              		.fpu fpv4-sp-d16
 124              	HAL_DACEx_DualSetValue:
 125              		@ args = 0, pretend = 0, frame = 0
 126              		@ frame_needed = 0, uses_anonymous_args = 0
 127              		@ link register save eliminated.
 128 0000 10B4     		push	{r4}
 129 0002 0468     		ldr	r4, [r0]
 130 0004 0829     		cmp	r1, #8
 131 0006 04F12004 		add	r4, r4, #32
 132 000a 0CBF     		ite	eq
 133 000c 42EA0322 		orreq	r2, r2, r3, lsl #8
 134 0010 42EA0342 		orrne	r2, r2, r3, lsl #16
 135 0014 0020     		movs	r0, #0
 136 0016 0A51     		str	r2, [r1, r4]
 137 0018 5DF8044B 		ldr	r4, [sp], #4
 138 001c 7047     		bx	lr
 140 001e 00BF     		.section	.text.HAL_DACEx_ConvCpltCallbackCh2,"ax",%progbits
 141              		.align	1
 142              		.p2align 2,,3
 143              		.weak	HAL_DACEx_ConvCpltCallbackCh2
 144              		.syntax unified
 145              		.thumb
 146              		.thumb_func
 147              		.fpu fpv4-sp-d16
 149              	HAL_DACEx_ConvCpltCallbackCh2:
 150              		@ args = 0, pretend = 0, frame = 0
 151              		@ frame_needed = 0, uses_anonymous_args = 0
 152              		@ link register save eliminated.
 153 0000 7047     		bx	lr
 155 0002 00BF     		.section	.text.HAL_DACEx_ConvHalfCpltCallbackCh2,"ax",%progbits
 156              		.align	1
 157              		.p2align 2,,3
 158              		.weak	HAL_DACEx_ConvHalfCpltCallbackCh2
 159              		.syntax unified
 160              		.thumb
 161              		.thumb_func
 162              		.fpu fpv4-sp-d16
 164              	HAL_DACEx_ConvHalfCpltCallbackCh2:
 165              		@ args = 0, pretend = 0, frame = 0
 166              		@ frame_needed = 0, uses_anonymous_args = 0
 167              		@ link register save eliminated.
 168 0000 7047     		bx	lr
 170 0002 00BF     		.section	.text.HAL_DACEx_ErrorCallbackCh2,"ax",%progbits
 171              		.align	1
 172              		.p2align 2,,3
 173              		.weak	HAL_DACEx_ErrorCallbackCh2
 174              		.syntax unified
 175              		.thumb
 176              		.thumb_func
 177              		.fpu fpv4-sp-d16
 179              	HAL_DACEx_ErrorCallbackCh2:
 180              		@ args = 0, pretend = 0, frame = 0
 181              		@ frame_needed = 0, uses_anonymous_args = 0
 182              		@ link register save eliminated.
 183 0000 7047     		bx	lr
 185 0002 00BF     		.section	.text.HAL_DACEx_DMAUnderrunCallbackCh2,"ax",%progbits
ARM GAS  D:\Programs\cygwin64\tmp\cc1dAwJs.s 			page 4


 186              		.align	1
 187              		.p2align 2,,3
 188              		.weak	HAL_DACEx_DMAUnderrunCallbackCh2
 189              		.syntax unified
 190              		.thumb
 191              		.thumb_func
 192              		.fpu fpv4-sp-d16
 194              	HAL_DACEx_DMAUnderrunCallbackCh2:
 195              		@ args = 0, pretend = 0, frame = 0
 196              		@ frame_needed = 0, uses_anonymous_args = 0
 197              		@ link register save eliminated.
 198 0000 7047     		bx	lr
 200 0002 00BF     		.section	.text.DAC_DMAConvCpltCh2,"ax",%progbits
 201              		.align	1
 202              		.p2align 2,,3
 203              		.global	DAC_DMAConvCpltCh2
 204              		.syntax unified
 205              		.thumb
 206              		.thumb_func
 207              		.fpu fpv4-sp-d16
 209              	DAC_DMAConvCpltCh2:
 210              		@ args = 0, pretend = 0, frame = 0
 211              		@ frame_needed = 0, uses_anonymous_args = 0
 212 0000 10B5     		push	{r4, lr}
 213 0002 846B     		ldr	r4, [r0, #56]
 214 0004 2046     		mov	r0, r4
 215 0006 FFF7FEFF 		bl	HAL_DACEx_ConvCpltCallbackCh2
 216 000a 0123     		movs	r3, #1
 217 000c 2371     		strb	r3, [r4, #4]
 218 000e 10BD     		pop	{r4, pc}
 220              		.section	.text.DAC_DMAHalfConvCpltCh2,"ax",%progbits
 221              		.align	1
 222              		.p2align 2,,3
 223              		.global	DAC_DMAHalfConvCpltCh2
 224              		.syntax unified
 225              		.thumb
 226              		.thumb_func
 227              		.fpu fpv4-sp-d16
 229              	DAC_DMAHalfConvCpltCh2:
 230              		@ args = 0, pretend = 0, frame = 0
 231              		@ frame_needed = 0, uses_anonymous_args = 0
 232 0000 08B5     		push	{r3, lr}
 233 0002 806B     		ldr	r0, [r0, #56]
 234 0004 FFF7FEFF 		bl	HAL_DACEx_ConvHalfCpltCallbackCh2
 235 0008 08BD     		pop	{r3, pc}
 237 000a 00BF     		.section	.text.DAC_DMAErrorCh2,"ax",%progbits
 238              		.align	1
 239              		.p2align 2,,3
 240              		.global	DAC_DMAErrorCh2
 241              		.syntax unified
 242              		.thumb
 243              		.thumb_func
 244              		.fpu fpv4-sp-d16
 246              	DAC_DMAErrorCh2:
 247              		@ args = 0, pretend = 0, frame = 0
 248              		@ frame_needed = 0, uses_anonymous_args = 0
 249 0000 10B5     		push	{r4, lr}
ARM GAS  D:\Programs\cygwin64\tmp\cc1dAwJs.s 			page 5


 250 0002 846B     		ldr	r4, [r0, #56]
 251 0004 2369     		ldr	r3, [r4, #16]
 252 0006 43F00403 		orr	r3, r3, #4
 253 000a 2361     		str	r3, [r4, #16]
 254 000c 2046     		mov	r0, r4
 255 000e FFF7FEFF 		bl	HAL_DACEx_ErrorCallbackCh2
 256 0012 0123     		movs	r3, #1
 257 0014 2371     		strb	r3, [r4, #4]
 258 0016 10BD     		pop	{r4, pc}
 260              		.ident	"GCC: (GNU Tools for Arm Embedded Processors 8-2018-q4-major) 8.2.1 20181213 (release) [gcc
ARM GAS  D:\Programs\cygwin64\tmp\cc1dAwJs.s 			page 6

