ARM GAS  D:\Programs\cygwin64\tmp\ccMT2NLA.s 			page 1


   1              		.cpu cortex-m4
   2              		.eabi_attribute 27, 1
   3              		.eabi_attribute 28, 1
   4              		.eabi_attribute 20, 1
   5              		.eabi_attribute 21, 1
   6              		.eabi_attribute 23, 3
   7              		.eabi_attribute 24, 1
   8              		.eabi_attribute 25, 1
   9              		.eabi_attribute 26, 1
  10              		.eabi_attribute 30, 2
  11              		.eabi_attribute 34, 1
  12              		.eabi_attribute 18, 4
  13              		.file	"stm32f4xx_hal_i2s.c"
  14              		.text
  15              		.section	.text.HAL_I2S_MspInit,"ax",%progbits
  16              		.align	1
  17              		.p2align 2,,3
  18              		.weak	HAL_I2S_MspInit
  19              		.arch armv7e-m
  20              		.syntax unified
  21              		.thumb
  22              		.thumb_func
  23              		.fpu fpv4-sp-d16
  25              	HAL_I2S_MspInit:
  26              		@ args = 0, pretend = 0, frame = 0
  27              		@ frame_needed = 0, uses_anonymous_args = 0
  28              		@ link register save eliminated.
  29 0000 7047     		bx	lr
  31 0002 00BF     		.section	.text.HAL_I2S_Init,"ax",%progbits
  32              		.align	1
  33              		.p2align 2,,3
  34              		.global	HAL_I2S_Init
  35              		.syntax unified
  36              		.thumb
  37              		.thumb_func
  38              		.fpu fpv4-sp-d16
  40              	HAL_I2S_Init:
  41              		@ args = 0, pretend = 0, frame = 0
  42              		@ frame_needed = 0, uses_anonymous_args = 0
  43 0000 0028     		cmp	r0, #0
  44 0002 00F09380 		beq	.L17
  45 0006 F8B5     		push	{r3, r4, r5, r6, r7, lr}
  46 0008 90F84130 		ldrb	r3, [r0, #65]	@ zero_extendqisi2
  47 000c 0446     		mov	r4, r0
  48 000e 03F0FF02 		and	r2, r3, #255
  49 0012 002B     		cmp	r3, #0
  50 0014 76D0     		beq	.L26
  51              	.L5:
  52 0016 0222     		movs	r2, #2
  53 0018 2168     		ldr	r1, [r4]
  54 001a 84F84120 		strb	r2, [r4, #65]
  55 001e C869     		ldr	r0, [r1, #28]
  56 0020 6369     		ldr	r3, [r4, #20]
  57 0022 E568     		ldr	r5, [r4, #12]
  58 0024 20F47B60 		bic	r0, r0, #4016
  59 0028 20F00F00 		bic	r0, r0, #15
  60 002c 9342     		cmp	r3, r2
ARM GAS  D:\Programs\cygwin64\tmp\ccMT2NLA.s 			page 2


  61 002e C861     		str	r0, [r1, #28]
  62 0030 0A62     		str	r2, [r1, #32]
  63 0032 65D0     		beq	.L6
  64 0034 002D     		cmp	r5, #0
  65 0036 A268     		ldr	r2, [r4, #8]
  66 0038 15BF     		itete	ne
  67 003a 4023     		movne	r3, #64
  68 003c 2023     		moveq	r3, #32
  69 003e 2025     		movne	r5, #32
  70 0040 1025     		moveq	r5, #16
  71 0042 0120     		movs	r0, #1
  72 0044 202A     		cmp	r2, #32
  73 0046 98BF     		it	ls
  74 0048 1D46     		movls	r5, r3
  75 004a FFF7FEFF 		bl	HAL_RCCEx_GetPeriphCLKFreq
  76 004e 2269     		ldr	r2, [r4, #16]
  77 0050 B2F5007F 		cmp	r2, #512
  78 0054 5DD0     		beq	.L27
  79 0056 B0FBF5F0 		udiv	r0, r0, r5
  80 005a 00EB8000 		add	r0, r0, r0, lsl #2
  81 005e 4300     		lsls	r3, r0, #1
  82 0060 6069     		ldr	r0, [r4, #20]
  83 0062 B3FBF0F3 		udiv	r3, r3, r0
  84 0066 0533     		adds	r3, r3, #5
  85              	.L11:
  86 0068 3249     		ldr	r1, .L28
  87 006a A1FB0313 		umull	r1, r3, r1, r3
  88 006e DB08     		lsrs	r3, r3, #3
  89 0070 5908     		lsrs	r1, r3, #1
  90 0072 881E     		subs	r0, r1, #2
  91 0074 FD28     		cmp	r0, #253
  92 0076 03F00103 		and	r3, r3, #1
  93 007a 3BD8     		bhi	.L12
  94 007c 41EA0323 		orr	r3, r1, r3, lsl #8
  95 0080 E568     		ldr	r5, [r4, #12]
  96 0082 2168     		ldr	r1, [r4]
  97              	.L13:
  98 0084 A669     		ldr	r6, [r4, #24]
  99 0086 2C4F     		ldr	r7, .L28+4
 100 0088 1343     		orrs	r3, r3, r2
 101 008a D4E901C0 		ldrd	ip, r0, [r4, #4]
 102 008e 0B62     		str	r3, [r1, #32]
 103 0090 CB69     		ldr	r3, [r1, #28]
 104 0092 4CEA0002 		orr	r2, ip, r0
 105 0096 3B40     		ands	r3, r3, r7
 106 0098 1343     		orrs	r3, r3, r2
 107 009a 3343     		orrs	r3, r3, r6
 108 009c 226A     		ldr	r2, [r4, #32]
 109 009e 2B43     		orrs	r3, r3, r5
 110 00a0 43F40063 		orr	r3, r3, #2048
 111 00a4 012A     		cmp	r2, #1
 112 00a6 CB61     		str	r3, [r1, #28]
 113 00a8 1ED1     		bne	.L14
 114 00aa 244A     		ldr	r2, .L28+8
 115 00ac 244B     		ldr	r3, .L28+12
 116 00ae 9142     		cmp	r1, r2
 117 00b0 0CBF     		ite	eq
ARM GAS  D:\Programs\cygwin64\tmp\ccMT2NLA.s 			page 3


 118 00b2 1946     		moveq	r1, r3
 119 00b4 4FF04021 		movne	r1, #1073758208
 120 00b8 224A     		ldr	r2, .L28+16
 121 00ba CB69     		ldr	r3, [r1, #28]
 122 00bc 6263     		str	r2, [r4, #52]
 123 00be 1F40     		ands	r7, r7, r3
 124 00c0 3CF40072 		bics	r2, ip, #512
 125 00c4 4FF00202 		mov	r2, #2
 126 00c8 CF61     		str	r7, [r1, #28]
 127 00ca 40EA0600 		orr	r0, r0, r6
 128 00ce 0A62     		str	r2, [r1, #32]
 129 00d0 0CBF     		ite	eq
 130 00d2 4FF48073 		moveq	r3, #256
 131 00d6 0023     		movne	r3, #0
 132 00d8 CA69     		ldr	r2, [r1, #28]
 133 00da 0343     		orrs	r3, r3, r0
 134 00dc 2B43     		orrs	r3, r3, r5
 135 00de 1343     		orrs	r3, r3, r2
 136 00e0 9BB2     		uxth	r3, r3
 137 00e2 43F40063 		orr	r3, r3, #2048
 138 00e6 CB61     		str	r3, [r1, #28]
 139              	.L14:
 140 00e8 0020     		movs	r0, #0
 141 00ea 0123     		movs	r3, #1
 142 00ec 6064     		str	r0, [r4, #68]
 143 00ee 84F84130 		strb	r3, [r4, #65]
 144 00f2 F8BD     		pop	{r3, r4, r5, r6, r7, pc}
 145              	.L12:
 146 00f4 636C     		ldr	r3, [r4, #68]
 147 00f6 43F01003 		orr	r3, r3, #16
 148 00fa 6364     		str	r3, [r4, #68]
 149 00fc 0120     		movs	r0, #1
 150 00fe F8BD     		pop	{r3, r4, r5, r6, r7, pc}
 151              	.L6:
 152 0100 2269     		ldr	r2, [r4, #16]
 153 0102 BFE7     		b	.L13
 154              	.L26:
 155 0104 104B     		ldr	r3, .L28+20
 156 0106 80F84020 		strb	r2, [r0, #64]
 157 010a 4363     		str	r3, [r0, #52]
 158 010c FFF7FEFF 		bl	HAL_I2S_MspInit
 159 0110 81E7     		b	.L5
 160              	.L27:
 161 0112 E168     		ldr	r1, [r4, #12]
 162 0114 6669     		ldr	r6, [r4, #20]
 163 0116 59B1     		cbz	r1, .L10
 164 0118 AD00     		lsls	r5, r5, #2
 165              	.L25:
 166 011a B0FBF5F0 		udiv	r0, r0, r5
 167 011e 00EB8000 		add	r0, r0, r0, lsl #2
 168 0122 4300     		lsls	r3, r0, #1
 169 0124 B3FBF6F3 		udiv	r3, r3, r6
 170 0128 0533     		adds	r3, r3, #5
 171 012a 9DE7     		b	.L11
 172              	.L17:
 173 012c 0120     		movs	r0, #1
 174 012e 7047     		bx	lr
ARM GAS  D:\Programs\cygwin64\tmp\ccMT2NLA.s 			page 4


 175              	.L10:
 176 0130 ED00     		lsls	r5, r5, #3
 177 0132 F2E7     		b	.L25
 178              	.L29:
 179              		.align	2
 180              	.L28:
 181 0134 CDCCCCCC 		.word	-858993459
 182 0138 40F0FFFF 		.word	-4032
 183 013c 00380040 		.word	1073756160
 184 0140 00340040 		.word	1073755136
 185 0144 00000000 		.word	HAL_I2SEx_FullDuplex_IRQHandler
 186 0148 00000000 		.word	I2S_IRQHandler
 188              		.section	.text.HAL_I2S_MspDeInit,"ax",%progbits
 189              		.align	1
 190              		.p2align 2,,3
 191              		.weak	HAL_I2S_MspDeInit
 192              		.syntax unified
 193              		.thumb
 194              		.thumb_func
 195              		.fpu fpv4-sp-d16
 197              	HAL_I2S_MspDeInit:
 198              		@ args = 0, pretend = 0, frame = 0
 199              		@ frame_needed = 0, uses_anonymous_args = 0
 200              		@ link register save eliminated.
 201 0000 7047     		bx	lr
 203 0002 00BF     		.section	.text.HAL_I2S_DeInit,"ax",%progbits
 204              		.align	1
 205              		.p2align 2,,3
 206              		.global	HAL_I2S_DeInit
 207              		.syntax unified
 208              		.thumb
 209              		.thumb_func
 210              		.fpu fpv4-sp-d16
 212              	HAL_I2S_DeInit:
 213              		@ args = 0, pretend = 0, frame = 0
 214              		@ frame_needed = 0, uses_anonymous_args = 0
 215 0000 98B1     		cbz	r0, .L33
 216 0002 0268     		ldr	r2, [r0]
 217 0004 0223     		movs	r3, #2
 218 0006 10B5     		push	{r4, lr}
 219 0008 80F84130 		strb	r3, [r0, #65]
 220 000c D369     		ldr	r3, [r2, #28]
 221 000e 23F48063 		bic	r3, r3, #1024
 222 0012 0446     		mov	r4, r0
 223 0014 D361     		str	r3, [r2, #28]
 224 0016 FFF7FEFF 		bl	HAL_I2S_MspDeInit
 225 001a 0023     		movs	r3, #0
 226 001c 6364     		str	r3, [r4, #68]
 227 001e 1846     		mov	r0, r3
 228 0020 84F84130 		strb	r3, [r4, #65]
 229 0024 84F84030 		strb	r3, [r4, #64]
 230 0028 10BD     		pop	{r4, pc}
 231              	.L33:
 232 002a 0120     		movs	r0, #1
 233 002c 7047     		bx	lr
 235 002e 00BF     		.section	.text.HAL_I2S_Transmit,"ax",%progbits
 236              		.align	1
ARM GAS  D:\Programs\cygwin64\tmp\ccMT2NLA.s 			page 5


 237              		.p2align 2,,3
 238              		.global	HAL_I2S_Transmit
 239              		.syntax unified
 240              		.thumb
 241              		.thumb_func
 242              		.fpu fpv4-sp-d16
 244              	HAL_I2S_Transmit:
 245              		@ args = 0, pretend = 0, frame = 8
 246              		@ frame_needed = 0, uses_anonymous_args = 0
 247 0000 0029     		cmp	r1, #0
 248 0002 56D0     		beq	.L65
 249 0004 002A     		cmp	r2, #0
 250 0006 54D0     		beq	.L65
 251 0008 2DE9F043 		push	{r4, r5, r6, r7, r8, r9, lr}
 252 000c 90F84040 		ldrb	r4, [r0, #64]	@ zero_extendqisi2
 253 0010 012C     		cmp	r4, #1
 254 0012 83B0     		sub	sp, sp, #12
 255 0014 54D0     		beq	.L66
 256 0016 0124     		movs	r4, #1
 257 0018 80F84040 		strb	r4, [r0, #64]
 258 001c 90F84140 		ldrb	r4, [r0, #65]	@ zero_extendqisi2
 259 0020 012C     		cmp	r4, #1
 260 0022 40F08580 		bne	.L84
 261 0026 0324     		movs	r4, #3
 262 0028 80F84140 		strb	r4, [r0, #65]
 263 002c 0025     		movs	r5, #0
 264 002e 0468     		ldr	r4, [r0]
 265 0030 4564     		str	r5, [r0, #68]
 266 0032 E669     		ldr	r6, [r4, #28]
 267 0034 4162     		str	r1, [r0, #36]
 268 0036 06F00701 		and	r1, r6, #7
 269 003a 0329     		cmp	r1, #3
 270 003c 3BD0     		beq	.L41
 271 003e 0529     		cmp	r1, #5
 272 0040 39D0     		beq	.L41
 273 0042 0285     		strh	r2, [r0, #40]	@ movhi
 274 0044 4285     		strh	r2, [r0, #42]	@ movhi
 275              	.L43:
 276 0046 E669     		ldr	r6, [r4, #28]
 277 0048 E269     		ldr	r2, [r4, #28]
 278 004a 5205     		lsls	r2, r2, #21
 279 004c 03D4     		bmi	.L44
 280 004e E269     		ldr	r2, [r4, #28]
 281 0050 42F48062 		orr	r2, r2, #1024
 282 0054 E261     		str	r2, [r4, #28]
 283              	.L44:
 284 0056 1D46     		mov	r5, r3
 285 0058 0446     		mov	r4, r0
 286 005a FFF7FEFF 		bl	HAL_GetTick
 287 005e 8046     		mov	r8, r0
 288              	.L45:
 289 0060 6B1C     		adds	r3, r5, #1
 290 0062 2268     		ldr	r2, [r4]
 291 0064 4AD1     		bne	.L46
 292              	.L47:
 293 0066 9368     		ldr	r3, [r2, #8]
 294 0068 9F07     		lsls	r7, r3, #30
ARM GAS  D:\Programs\cygwin64\tmp\ccMT2NLA.s 			page 6


 295 006a FCD5     		bpl	.L47
 296              	.L48:
 297 006c 0027     		movs	r7, #0
 298              	.L55:
 299 006e 638D     		ldrh	r3, [r4, #42]
 300 0070 9BB2     		uxth	r3, r3
 301 0072 002B     		cmp	r3, #0
 302 0074 63D0     		beq	.L85
 303 0076 636A     		ldr	r3, [r4, #36]
 304 0078 33F8021B 		ldrh	r1, [r3], #2
 305 007c D160     		str	r1, [r2, #12]
 306 007e 628D     		ldrh	r2, [r4, #42]
 307 0080 6362     		str	r3, [r4, #36]
 308 0082 013A     		subs	r2, r2, #1
 309 0084 92B2     		uxth	r2, r2
 310 0086 6285     		strh	r2, [r4, #42]	@ movhi
 311 0088 FFF7FEFF 		bl	HAL_GetTick
 312 008c 8146     		mov	r9, r0
 313              	.L50:
 314 008e 681C     		adds	r0, r5, #1
 315 0090 2268     		ldr	r2, [r4]
 316 0092 19D1     		bne	.L51
 317              	.L52:
 318 0094 9368     		ldr	r3, [r2, #8]
 319 0096 9907     		lsls	r1, r3, #30
 320 0098 FCD5     		bpl	.L52
 321              	.L53:
 322 009a 9368     		ldr	r3, [r2, #8]
 323 009c 1B07     		lsls	r3, r3, #28
 324 009e E6D5     		bpl	.L55
 325 00a0 0197     		str	r7, [sp, #4]
 326 00a2 9368     		ldr	r3, [r2, #8]
 327 00a4 0193     		str	r3, [sp, #4]
 328 00a6 019B     		ldr	r3, [sp, #4]
 329 00a8 636C     		ldr	r3, [r4, #68]
 330 00aa 43F00403 		orr	r3, r3, #4
 331 00ae 6364     		str	r3, [r4, #68]
 332 00b0 DDE7     		b	.L55
 333              	.L65:
 334 00b2 0120     		movs	r0, #1
 335 00b4 7047     		bx	lr
 336              	.L41:
 337 00b6 5200     		lsls	r2, r2, #1
 338 00b8 92B2     		uxth	r2, r2
 339 00ba 0285     		strh	r2, [r0, #40]	@ movhi
 340 00bc 4285     		strh	r2, [r0, #42]	@ movhi
 341 00be C2E7     		b	.L43
 342              	.L66:
 343 00c0 0220     		movs	r0, #2
 344              	.L39:
 345 00c2 03B0     		add	sp, sp, #12
 346              		@ sp needed
 347 00c4 BDE8F083 		pop	{r4, r5, r6, r7, r8, r9, pc}
 348              	.L51:
 349 00c8 9368     		ldr	r3, [r2, #8]
 350 00ca 13F00208 		ands	r8, r3, #2
 351 00ce E4D1     		bne	.L53
ARM GAS  D:\Programs\cygwin64\tmp\ccMT2NLA.s 			page 7


 352 00d0 FFF7FEFF 		bl	HAL_GetTick
 353 00d4 A0EB0900 		sub	r0, r0, r9
 354 00d8 8542     		cmp	r5, r0
 355 00da D8D8     		bhi	.L50
 356 00dc 0123     		movs	r3, #1
 357 00de 84F84130 		strb	r3, [r4, #65]
 358 00e2 84F84080 		strb	r8, [r4, #64]
 359 00e6 626C     		ldr	r2, [r4, #68]
 360 00e8 1846     		mov	r0, r3
 361 00ea 1A43     		orrs	r2, r2, r3
 362 00ec 6264     		str	r2, [r4, #68]
 363 00ee 84F84130 		strb	r3, [r4, #65]
 364 00f2 84F84080 		strb	r8, [r4, #64]
 365 00f6 03B0     		add	sp, sp, #12
 366              		@ sp needed
 367 00f8 BDE8F083 		pop	{r4, r5, r6, r7, r8, r9, pc}
 368              	.L46:
 369 00fc 9768     		ldr	r7, [r2, #8]
 370 00fe 17F00207 		ands	r7, r7, #2
 371 0102 B3D1     		bne	.L48
 372 0104 FFF7FEFF 		bl	HAL_GetTick
 373 0108 A0EB0800 		sub	r0, r0, r8
 374 010c 8542     		cmp	r5, r0
 375 010e A7D8     		bhi	.L45
 376 0110 0123     		movs	r3, #1
 377 0112 84F84130 		strb	r3, [r4, #65]
 378 0116 84F84070 		strb	r7, [r4, #64]
 379 011a 626C     		ldr	r2, [r4, #68]
 380 011c 1846     		mov	r0, r3
 381 011e 1A43     		orrs	r2, r2, r3
 382 0120 6264     		str	r2, [r4, #68]
 383 0122 84F84130 		strb	r3, [r4, #65]
 384 0126 84F84070 		strb	r7, [r4, #64]
 385 012a 03B0     		add	sp, sp, #12
 386              		@ sp needed
 387 012c BDE8F083 		pop	{r4, r5, r6, r7, r8, r9, pc}
 388              	.L84:
 389 0130 0023     		movs	r3, #0
 390 0132 80F84030 		strb	r3, [r0, #64]
 391 0136 0220     		movs	r0, #2
 392 0138 03B0     		add	sp, sp, #12
 393              		@ sp needed
 394 013a BDE8F083 		pop	{r4, r5, r6, r7, r8, r9, pc}
 395              	.L85:
 396 013e B605     		lsls	r6, r6, #22
 397 0140 09D5     		bpl	.L58
 398              	.L62:
 399 0142 0023     		movs	r3, #0
 400 0144 0122     		movs	r2, #1
 401 0146 1846     		mov	r0, r3
 402 0148 84F84120 		strb	r2, [r4, #65]
 403 014c 84F84030 		strb	r3, [r4, #64]
 404 0150 03B0     		add	sp, sp, #12
 405              		@ sp needed
 406 0152 BDE8F083 		pop	{r4, r5, r6, r7, r8, r9, pc}
 407              	.L58:
 408 0156 FFF7FEFF 		bl	HAL_GetTick
ARM GAS  D:\Programs\cygwin64\tmp\ccMT2NLA.s 			page 8


 409 015a 0646     		mov	r6, r0
 410              	.L59:
 411 015c 681C     		adds	r0, r5, #1
 412 015e 2268     		ldr	r2, [r4]
 413 0160 03D1     		bne	.L60
 414              	.L61:
 415 0162 9368     		ldr	r3, [r2, #8]
 416 0164 1906     		lsls	r1, r3, #24
 417 0166 FCD4     		bmi	.L61
 418 0168 EBE7     		b	.L62
 419              	.L60:
 420 016a 9368     		ldr	r3, [r2, #8]
 421 016c 1B06     		lsls	r3, r3, #24
 422 016e E8D5     		bpl	.L62
 423 0170 FFF7FEFF 		bl	HAL_GetTick
 424 0174 801B     		subs	r0, r0, r6
 425 0176 8542     		cmp	r5, r0
 426 0178 F0D8     		bhi	.L59
 427 017a 0123     		movs	r3, #1
 428 017c 0021     		movs	r1, #0
 429 017e 84F84130 		strb	r3, [r4, #65]
 430 0182 84F84010 		strb	r1, [r4, #64]
 431 0186 626C     		ldr	r2, [r4, #68]
 432 0188 1A43     		orrs	r2, r2, r3
 433 018a 6264     		str	r2, [r4, #68]
 434 018c 1846     		mov	r0, r3
 435 018e 84F84130 		strb	r3, [r4, #65]
 436 0192 84F84010 		strb	r1, [r4, #64]
 437 0196 94E7     		b	.L39
 439              		.section	.text.HAL_I2S_Receive,"ax",%progbits
 440              		.align	1
 441              		.p2align 2,,3
 442              		.global	HAL_I2S_Receive
 443              		.syntax unified
 444              		.thumb
 445              		.thumb_func
 446              		.fpu fpv4-sp-d16
 448              	HAL_I2S_Receive:
 449              		@ args = 0, pretend = 0, frame = 8
 450              		@ frame_needed = 0, uses_anonymous_args = 0
 451 0000 0029     		cmp	r1, #0
 452 0002 65D0     		beq	.L103
 453 0004 002A     		cmp	r2, #0
 454 0006 63D0     		beq	.L103
 455 0008 2DE9F041 		push	{r4, r5, r6, r7, r8, lr}
 456 000c 90F84040 		ldrb	r4, [r0, #64]	@ zero_extendqisi2
 457 0010 012C     		cmp	r4, #1
 458 0012 82B0     		sub	sp, sp, #8
 459 0014 63D0     		beq	.L104
 460 0016 0124     		movs	r4, #1
 461 0018 80F84040 		strb	r4, [r0, #64]
 462 001c 90F84140 		ldrb	r4, [r0, #65]	@ zero_extendqisi2
 463 0020 012C     		cmp	r4, #1
 464 0022 7AD1     		bne	.L117
 465 0024 0424     		movs	r4, #4
 466 0026 80F84140 		strb	r4, [r0, #65]
 467 002a 0025     		movs	r5, #0
ARM GAS  D:\Programs\cygwin64\tmp\ccMT2NLA.s 			page 9


 468 002c 0468     		ldr	r4, [r0]
 469 002e 4564     		str	r5, [r0, #68]
 470 0030 E669     		ldr	r6, [r4, #28]
 471 0032 C162     		str	r1, [r0, #44]
 472 0034 06F00701 		and	r1, r6, #7
 473 0038 0329     		cmp	r1, #3
 474 003a 4BD0     		beq	.L89
 475 003c 0529     		cmp	r1, #5
 476 003e 49D0     		beq	.L89
 477 0040 0286     		strh	r2, [r0, #48]	@ movhi
 478 0042 4286     		strh	r2, [r0, #50]	@ movhi
 479              	.L91:
 480 0044 E269     		ldr	r2, [r4, #28]
 481 0046 5505     		lsls	r5, r2, #21
 482 0048 03D4     		bmi	.L92
 483 004a E269     		ldr	r2, [r4, #28]
 484 004c 42F48062 		orr	r2, r2, #1024
 485 0050 E261     		str	r2, [r4, #28]
 486              	.L92:
 487 0052 E269     		ldr	r2, [r4, #28]
 488 0054 02F44072 		and	r2, r2, #768
 489 0058 B2F5407F 		cmp	r2, #768
 490 005c 06D1     		bne	.L93
 491 005e 0022     		movs	r2, #0
 492 0060 0092     		str	r2, [sp]
 493 0062 E268     		ldr	r2, [r4, #12]
 494 0064 0092     		str	r2, [sp]
 495 0066 A268     		ldr	r2, [r4, #8]
 496 0068 0092     		str	r2, [sp]
 497 006a 009A     		ldr	r2, [sp]
 498              	.L93:
 499 006c 1D46     		mov	r5, r3
 500 006e 0446     		mov	r4, r0
 501 0070 0026     		movs	r6, #0
 502              	.L100:
 503 0072 628E     		ldrh	r2, [r4, #50]
 504 0074 92B2     		uxth	r2, r2
 505 0076 12B3     		cbz	r2, .L118
 506              	.L101:
 507 0078 FFF7FEFF 		bl	HAL_GetTick
 508 007c 8046     		mov	r8, r0
 509              	.L95:
 510 007e 681C     		adds	r0, r5, #1
 511 0080 2168     		ldr	r1, [r4]
 512 0082 30D1     		bne	.L96
 513              	.L97:
 514 0084 8B68     		ldr	r3, [r1, #8]
 515 0086 DA07     		lsls	r2, r3, #31
 516 0088 FCD5     		bpl	.L97
 517              	.L98:
 518 008a E36A     		ldr	r3, [r4, #44]
 519 008c CA68     		ldr	r2, [r1, #12]
 520 008e 23F8022B 		strh	r2, [r3], #2	@ movhi
 521 0092 628E     		ldrh	r2, [r4, #50]
 522 0094 E362     		str	r3, [r4, #44]
 523 0096 013A     		subs	r2, r2, #1
 524 0098 92B2     		uxth	r2, r2
ARM GAS  D:\Programs\cygwin64\tmp\ccMT2NLA.s 			page 10


 525 009a 6286     		strh	r2, [r4, #50]	@ movhi
 526 009c 8B68     		ldr	r3, [r1, #8]
 527 009e 5B06     		lsls	r3, r3, #25
 528 00a0 E7D5     		bpl	.L100
 529 00a2 0196     		str	r6, [sp, #4]
 530 00a4 CB68     		ldr	r3, [r1, #12]
 531 00a6 0193     		str	r3, [sp, #4]
 532 00a8 8B68     		ldr	r3, [r1, #8]
 533 00aa 0193     		str	r3, [sp, #4]
 534 00ac 019B     		ldr	r3, [sp, #4]
 535 00ae 636C     		ldr	r3, [r4, #68]
 536 00b0 43F00203 		orr	r3, r3, #2
 537 00b4 6364     		str	r3, [r4, #68]
 538 00b6 628E     		ldrh	r2, [r4, #50]
 539 00b8 92B2     		uxth	r2, r2
 540 00ba 002A     		cmp	r2, #0
 541 00bc DCD1     		bne	.L101
 542              	.L118:
 543 00be 0123     		movs	r3, #1
 544 00c0 1046     		mov	r0, r2
 545 00c2 84F84130 		strb	r3, [r4, #65]
 546 00c6 84F84020 		strb	r2, [r4, #64]
 547 00ca 02B0     		add	sp, sp, #8
 548              		@ sp needed
 549 00cc BDE8F081 		pop	{r4, r5, r6, r7, r8, pc}
 550              	.L103:
 551 00d0 0120     		movs	r0, #1
 552 00d2 7047     		bx	lr
 553              	.L89:
 554 00d4 5200     		lsls	r2, r2, #1
 555 00d6 92B2     		uxth	r2, r2
 556 00d8 0286     		strh	r2, [r0, #48]	@ movhi
 557 00da 4286     		strh	r2, [r0, #50]	@ movhi
 558 00dc B2E7     		b	.L91
 559              	.L104:
 560 00de 0220     		movs	r0, #2
 561 00e0 02B0     		add	sp, sp, #8
 562              		@ sp needed
 563 00e2 BDE8F081 		pop	{r4, r5, r6, r7, r8, pc}
 564              	.L96:
 565 00e6 8F68     		ldr	r7, [r1, #8]
 566 00e8 17F00107 		ands	r7, r7, #1
 567 00ec CDD1     		bne	.L98
 568 00ee FFF7FEFF 		bl	HAL_GetTick
 569 00f2 A0EB0800 		sub	r0, r0, r8
 570 00f6 8542     		cmp	r5, r0
 571 00f8 C1D8     		bhi	.L95
 572 00fa 0123     		movs	r3, #1
 573 00fc 84F84130 		strb	r3, [r4, #65]
 574 0100 84F84070 		strb	r7, [r4, #64]
 575 0104 626C     		ldr	r2, [r4, #68]
 576 0106 1846     		mov	r0, r3
 577 0108 1A43     		orrs	r2, r2, r3
 578 010a 6264     		str	r2, [r4, #68]
 579 010c 84F84130 		strb	r3, [r4, #65]
 580 0110 84F84070 		strb	r7, [r4, #64]
 581 0114 02B0     		add	sp, sp, #8
ARM GAS  D:\Programs\cygwin64\tmp\ccMT2NLA.s 			page 11


 582              		@ sp needed
 583 0116 BDE8F081 		pop	{r4, r5, r6, r7, r8, pc}
 584              	.L117:
 585 011a 0023     		movs	r3, #0
 586 011c 80F84030 		strb	r3, [r0, #64]
 587 0120 0220     		movs	r0, #2
 588 0122 02B0     		add	sp, sp, #8
 589              		@ sp needed
 590 0124 BDE8F081 		pop	{r4, r5, r6, r7, r8, pc}
 592              		.section	.text.HAL_I2S_Transmit_IT,"ax",%progbits
 593              		.align	1
 594              		.p2align 2,,3
 595              		.global	HAL_I2S_Transmit_IT
 596              		.syntax unified
 597              		.thumb
 598              		.thumb_func
 599              		.fpu fpv4-sp-d16
 601              	HAL_I2S_Transmit_IT:
 602              		@ args = 0, pretend = 0, frame = 0
 603              		@ frame_needed = 0, uses_anonymous_args = 0
 604              		@ link register save eliminated.
 605 0000 69B3     		cbz	r1, .L127
 606 0002 62B3     		cbz	r2, .L127
 607 0004 90F84030 		ldrb	r3, [r0, #64]	@ zero_extendqisi2
 608 0008 012B     		cmp	r3, #1
 609 000a 2FD0     		beq	.L128
 610 000c 0123     		movs	r3, #1
 611 000e 80F84030 		strb	r3, [r0, #64]
 612 0012 90F84130 		ldrb	r3, [r0, #65]	@ zero_extendqisi2
 613 0016 012B     		cmp	r3, #1
 614 0018 2AD1     		bne	.L135
 615 001a 30B4     		push	{r4, r5}
 616 001c 0368     		ldr	r3, [r0]
 617 001e 0325     		movs	r5, #3
 618 0020 0024     		movs	r4, #0
 619 0022 80F84150 		strb	r5, [r0, #65]
 620 0026 4464     		str	r4, [r0, #68]
 621 0028 DC69     		ldr	r4, [r3, #28]
 622 002a 4162     		str	r1, [r0, #36]
 623 002c 04F00701 		and	r1, r4, #7
 624 0030 A942     		cmp	r1, r5
 625 0032 16D0     		beq	.L122
 626 0034 0529     		cmp	r1, #5
 627 0036 14D0     		beq	.L122
 628 0038 0285     		strh	r2, [r0, #40]	@ movhi
 629 003a 4285     		strh	r2, [r0, #42]	@ movhi
 630              	.L124:
 631 003c 5A68     		ldr	r2, [r3, #4]
 632 003e 42F0A002 		orr	r2, r2, #160
 633 0042 5A60     		str	r2, [r3, #4]
 634 0044 DA69     		ldr	r2, [r3, #28]
 635 0046 5205     		lsls	r2, r2, #21
 636 0048 03D4     		bmi	.L125
 637 004a DA69     		ldr	r2, [r3, #28]
 638 004c 42F48062 		orr	r2, r2, #1024
 639 0050 DA61     		str	r2, [r3, #28]
 640              	.L125:
ARM GAS  D:\Programs\cygwin64\tmp\ccMT2NLA.s 			page 12


 641 0052 0023     		movs	r3, #0
 642 0054 80F84030 		strb	r3, [r0, #64]
 643 0058 30BC     		pop	{r4, r5}
 644 005a 1846     		mov	r0, r3
 645 005c 7047     		bx	lr
 646              	.L127:
 647 005e 0120     		movs	r0, #1
 648 0060 7047     		bx	lr
 649              	.L122:
 650 0062 5200     		lsls	r2, r2, #1
 651 0064 92B2     		uxth	r2, r2
 652 0066 0285     		strh	r2, [r0, #40]	@ movhi
 653 0068 4285     		strh	r2, [r0, #42]	@ movhi
 654 006a E7E7     		b	.L124
 655              	.L128:
 656 006c 0220     		movs	r0, #2
 657 006e 7047     		bx	lr
 658              	.L135:
 659 0070 0023     		movs	r3, #0
 660 0072 80F84030 		strb	r3, [r0, #64]
 661 0076 0220     		movs	r0, #2
 662 0078 7047     		bx	lr
 664 007a 00BF     		.section	.text.HAL_I2S_Receive_IT,"ax",%progbits
 665              		.align	1
 666              		.p2align 2,,3
 667              		.global	HAL_I2S_Receive_IT
 668              		.syntax unified
 669              		.thumb
 670              		.thumb_func
 671              		.fpu fpv4-sp-d16
 673              	HAL_I2S_Receive_IT:
 674              		@ args = 0, pretend = 0, frame = 0
 675              		@ frame_needed = 0, uses_anonymous_args = 0
 676              		@ link register save eliminated.
 677 0000 69B3     		cbz	r1, .L144
 678 0002 62B3     		cbz	r2, .L144
 679 0004 90F84030 		ldrb	r3, [r0, #64]	@ zero_extendqisi2
 680 0008 012B     		cmp	r3, #1
 681 000a 2FD0     		beq	.L145
 682 000c 0123     		movs	r3, #1
 683 000e 80F84030 		strb	r3, [r0, #64]
 684 0012 90F84130 		ldrb	r3, [r0, #65]	@ zero_extendqisi2
 685 0016 012B     		cmp	r3, #1
 686 0018 2AD1     		bne	.L152
 687 001a 30B4     		push	{r4, r5}
 688 001c 0368     		ldr	r3, [r0]
 689 001e 0024     		movs	r4, #0
 690 0020 0425     		movs	r5, #4
 691 0022 80F84150 		strb	r5, [r0, #65]
 692 0026 4464     		str	r4, [r0, #68]
 693 0028 DC69     		ldr	r4, [r3, #28]
 694 002a C162     		str	r1, [r0, #44]
 695 002c 04F00701 		and	r1, r4, #7
 696 0030 0329     		cmp	r1, #3
 697 0032 16D0     		beq	.L139
 698 0034 0529     		cmp	r1, #5
 699 0036 14D0     		beq	.L139
ARM GAS  D:\Programs\cygwin64\tmp\ccMT2NLA.s 			page 13


 700 0038 0286     		strh	r2, [r0, #48]	@ movhi
 701 003a 4286     		strh	r2, [r0, #50]	@ movhi
 702              	.L141:
 703 003c 5A68     		ldr	r2, [r3, #4]
 704 003e 42F06002 		orr	r2, r2, #96
 705 0042 5A60     		str	r2, [r3, #4]
 706 0044 DA69     		ldr	r2, [r3, #28]
 707 0046 5205     		lsls	r2, r2, #21
 708 0048 03D4     		bmi	.L142
 709 004a DA69     		ldr	r2, [r3, #28]
 710 004c 42F48062 		orr	r2, r2, #1024
 711 0050 DA61     		str	r2, [r3, #28]
 712              	.L142:
 713 0052 0023     		movs	r3, #0
 714 0054 80F84030 		strb	r3, [r0, #64]
 715 0058 30BC     		pop	{r4, r5}
 716 005a 1846     		mov	r0, r3
 717 005c 7047     		bx	lr
 718              	.L144:
 719 005e 0120     		movs	r0, #1
 720 0060 7047     		bx	lr
 721              	.L139:
 722 0062 5200     		lsls	r2, r2, #1
 723 0064 92B2     		uxth	r2, r2
 724 0066 0286     		strh	r2, [r0, #48]	@ movhi
 725 0068 4286     		strh	r2, [r0, #50]	@ movhi
 726 006a E7E7     		b	.L141
 727              	.L145:
 728 006c 0220     		movs	r0, #2
 729 006e 7047     		bx	lr
 730              	.L152:
 731 0070 0023     		movs	r3, #0
 732 0072 80F84030 		strb	r3, [r0, #64]
 733 0076 0220     		movs	r0, #2
 734 0078 7047     		bx	lr
 736 007a 00BF     		.section	.text.HAL_I2S_Transmit_DMA,"ax",%progbits
 737              		.align	1
 738              		.p2align 2,,3
 739              		.global	HAL_I2S_Transmit_DMA
 740              		.syntax unified
 741              		.thumb
 742              		.thumb_func
 743              		.fpu fpv4-sp-d16
 745              	HAL_I2S_Transmit_DMA:
 746              		@ args = 0, pretend = 0, frame = 0
 747              		@ frame_needed = 0, uses_anonymous_args = 0
 748 0000 0029     		cmp	r1, #0
 749 0002 3ED0     		beq	.L163
 750 0004 002A     		cmp	r2, #0
 751 0006 3CD0     		beq	.L163
 752 0008 38B5     		push	{r3, r4, r5, lr}
 753 000a 90F84030 		ldrb	r3, [r0, #64]	@ zero_extendqisi2
 754 000e 012B     		cmp	r3, #1
 755 0010 3ED0     		beq	.L164
 756 0012 0123     		movs	r3, #1
 757 0014 80F84030 		strb	r3, [r0, #64]
 758 0018 90F84130 		ldrb	r3, [r0, #65]	@ zero_extendqisi2
ARM GAS  D:\Programs\cygwin64\tmp\ccMT2NLA.s 			page 14


 759 001c 012B     		cmp	r3, #1
 760 001e 39D1     		bne	.L172
 761 0020 0324     		movs	r4, #3
 762 0022 0023     		movs	r3, #0
 763 0024 0568     		ldr	r5, [r0]
 764 0026 80F84140 		strb	r4, [r0, #65]
 765 002a 4364     		str	r3, [r0, #68]
 766 002c EB69     		ldr	r3, [r5, #28]
 767 002e 4162     		str	r1, [r0, #36]
 768 0030 03F00703 		and	r3, r3, #7
 769 0034 A342     		cmp	r3, r4
 770 0036 26D0     		beq	.L156
 771 0038 052B     		cmp	r3, #5
 772 003a 24D0     		beq	.L156
 773 003c 0285     		strh	r2, [r0, #40]	@ movhi
 774 003e 4285     		strh	r2, [r0, #42]	@ movhi
 775              	.L158:
 776 0040 0446     		mov	r4, r0
 777 0042 806B     		ldr	r0, [r0, #56]
 778 0044 1C4A     		ldr	r2, .L174
 779 0046 238D     		ldrh	r3, [r4, #40]
 780 0048 0264     		str	r2, [r0, #64]
 781 004a 1C4A     		ldr	r2, .L174+4
 782 004c C263     		str	r2, [r0, #60]
 783 004e 1C4A     		ldr	r2, .L174+8
 784 0050 C264     		str	r2, [r0, #76]
 785 0052 05F10C02 		add	r2, r5, #12
 786 0056 FFF7FEFF 		bl	HAL_DMA_Start_IT
 787 005a 00BB     		cbnz	r0, .L173
 788 005c 2368     		ldr	r3, [r4]
 789 005e DA69     		ldr	r2, [r3, #28]
 790 0060 5105     		lsls	r1, r2, #21
 791 0062 03D4     		bmi	.L160
 792 0064 DA69     		ldr	r2, [r3, #28]
 793 0066 42F48062 		orr	r2, r2, #1024
 794 006a DA61     		str	r2, [r3, #28]
 795              	.L160:
 796 006c 5A68     		ldr	r2, [r3, #4]
 797 006e 9207     		lsls	r2, r2, #30
 798 0070 03D4     		bmi	.L161
 799 0072 5A68     		ldr	r2, [r3, #4]
 800 0074 42F00202 		orr	r2, r2, #2
 801 0078 5A60     		str	r2, [r3, #4]
 802              	.L161:
 803 007a 0023     		movs	r3, #0
 804 007c 84F84030 		strb	r3, [r4, #64]
 805 0080 38BD     		pop	{r3, r4, r5, pc}
 806              	.L163:
 807 0082 0120     		movs	r0, #1
 808 0084 7047     		bx	lr
 809              	.L156:
 810 0086 5300     		lsls	r3, r2, #1
 811 0088 9BB2     		uxth	r3, r3
 812 008a 0385     		strh	r3, [r0, #40]	@ movhi
 813 008c 4385     		strh	r3, [r0, #42]	@ movhi
 814 008e D7E7     		b	.L158
 815              	.L164:
ARM GAS  D:\Programs\cygwin64\tmp\ccMT2NLA.s 			page 15


 816 0090 0220     		movs	r0, #2
 817 0092 38BD     		pop	{r3, r4, r5, pc}
 818              	.L172:
 819 0094 0023     		movs	r3, #0
 820 0096 80F84030 		strb	r3, [r0, #64]
 821 009a 0220     		movs	r0, #2
 822 009c 38BD     		pop	{r3, r4, r5, pc}
 823              	.L173:
 824 009e 636C     		ldr	r3, [r4, #68]
 825 00a0 0122     		movs	r2, #1
 826 00a2 43F00803 		orr	r3, r3, #8
 827 00a6 0021     		movs	r1, #0
 828 00a8 6364     		str	r3, [r4, #68]
 829 00aa 1046     		mov	r0, r2
 830 00ac 84F84120 		strb	r2, [r4, #65]
 831 00b0 84F84010 		strb	r1, [r4, #64]
 832 00b4 38BD     		pop	{r3, r4, r5, pc}
 833              	.L175:
 834 00b6 00BF     		.align	2
 835              	.L174:
 836 00b8 00000000 		.word	I2S_DMATxHalfCplt
 837 00bc 00000000 		.word	I2S_DMATxCplt
 838 00c0 00000000 		.word	I2S_DMAError
 840              		.section	.text.HAL_I2S_Receive_DMA,"ax",%progbits
 841              		.align	1
 842              		.p2align 2,,3
 843              		.global	HAL_I2S_Receive_DMA
 844              		.syntax unified
 845              		.thumb
 846              		.thumb_func
 847              		.fpu fpv4-sp-d16
 849              	HAL_I2S_Receive_DMA:
 850              		@ args = 0, pretend = 0, frame = 8
 851              		@ frame_needed = 0, uses_anonymous_args = 0
 852 0000 0029     		cmp	r1, #0
 853 0002 4FD0     		beq	.L187
 854 0004 002A     		cmp	r2, #0
 855 0006 4DD0     		beq	.L187
 856 0008 90F84030 		ldrb	r3, [r0, #64]	@ zero_extendqisi2
 857 000c 012B     		cmp	r3, #1
 858 000e 50D0     		beq	.L188
 859 0010 0123     		movs	r3, #1
 860 0012 80F84030 		strb	r3, [r0, #64]
 861 0016 90F84130 		ldrb	r3, [r0, #65]	@ zero_extendqisi2
 862 001a 012B     		cmp	r3, #1
 863 001c 4BD1     		bne	.L195
 864 001e 70B5     		push	{r4, r5, r6, lr}
 865 0020 0023     		movs	r3, #0
 866 0022 0424     		movs	r4, #4
 867 0024 0568     		ldr	r5, [r0]
 868 0026 80F84140 		strb	r4, [r0, #65]
 869 002a 4364     		str	r3, [r0, #68]
 870 002c EB69     		ldr	r3, [r5, #28]
 871 002e C162     		str	r1, [r0, #44]
 872 0030 03F00703 		and	r3, r3, #7
 873 0034 032B     		cmp	r3, #3
 874 0036 82B0     		sub	sp, sp, #8
ARM GAS  D:\Programs\cygwin64\tmp\ccMT2NLA.s 			page 16


 875 0038 36D0     		beq	.L179
 876 003a 052B     		cmp	r3, #5
 877 003c 34D0     		beq	.L179
 878 003e 0286     		strh	r2, [r0, #48]	@ movhi
 879 0040 4286     		strh	r2, [r0, #50]	@ movhi
 880              	.L181:
 881 0042 EB69     		ldr	r3, [r5, #28]
 882 0044 C46B     		ldr	r4, [r0, #60]
 883 0046 254A     		ldr	r2, .L197
 884 0048 254E     		ldr	r6, .L197+4
 885 004a 2264     		str	r2, [r4, #64]
 886 004c 03F44073 		and	r3, r3, #768
 887 0050 244A     		ldr	r2, .L197+8
 888 0052 E663     		str	r6, [r4, #60]
 889 0054 B3F5407F 		cmp	r3, #768
 890 0058 E264     		str	r2, [r4, #76]
 891 005a 06D1     		bne	.L182
 892 005c 0023     		movs	r3, #0
 893 005e 0193     		str	r3, [sp, #4]
 894 0060 EB68     		ldr	r3, [r5, #12]
 895 0062 0193     		str	r3, [sp, #4]
 896 0064 AB68     		ldr	r3, [r5, #8]
 897 0066 0193     		str	r3, [sp, #4]
 898 0068 019B     		ldr	r3, [sp, #4]
 899              	.L182:
 900 006a 038E     		ldrh	r3, [r0, #48]
 901 006c 0A46     		mov	r2, r1
 902 006e 0646     		mov	r6, r0
 903 0070 05F10C01 		add	r1, r5, #12
 904 0074 2046     		mov	r0, r4
 905 0076 FFF7FEFF 		bl	HAL_DMA_Start_IT
 906 007a 08BB     		cbnz	r0, .L196
 907 007c 3368     		ldr	r3, [r6]
 908 007e DA69     		ldr	r2, [r3, #28]
 909 0080 5105     		lsls	r1, r2, #21
 910 0082 03D4     		bmi	.L184
 911 0084 DA69     		ldr	r2, [r3, #28]
 912 0086 42F48062 		orr	r2, r2, #1024
 913 008a DA61     		str	r2, [r3, #28]
 914              	.L184:
 915 008c 5A68     		ldr	r2, [r3, #4]
 916 008e D207     		lsls	r2, r2, #31
 917 0090 03D4     		bmi	.L185
 918 0092 5A68     		ldr	r2, [r3, #4]
 919 0094 42F00102 		orr	r2, r2, #1
 920 0098 5A60     		str	r2, [r3, #4]
 921              	.L185:
 922 009a 0023     		movs	r3, #0
 923 009c 86F84030 		strb	r3, [r6, #64]
 924 00a0 02B0     		add	sp, sp, #8
 925              		@ sp needed
 926 00a2 70BD     		pop	{r4, r5, r6, pc}
 927              	.L187:
 928 00a4 0120     		movs	r0, #1
 929 00a6 7047     		bx	lr
 930              	.L179:
 931 00a8 5200     		lsls	r2, r2, #1
ARM GAS  D:\Programs\cygwin64\tmp\ccMT2NLA.s 			page 17


 932 00aa 92B2     		uxth	r2, r2
 933 00ac 0286     		strh	r2, [r0, #48]	@ movhi
 934 00ae 4286     		strh	r2, [r0, #50]	@ movhi
 935 00b0 C7E7     		b	.L181
 936              	.L188:
 937 00b2 0220     		movs	r0, #2
 938 00b4 7047     		bx	lr
 939              	.L195:
 940 00b6 0023     		movs	r3, #0
 941 00b8 80F84030 		strb	r3, [r0, #64]
 942 00bc 0220     		movs	r0, #2
 943 00be 7047     		bx	lr
 944              	.L196:
 945 00c0 736C     		ldr	r3, [r6, #68]
 946 00c2 0122     		movs	r2, #1
 947 00c4 43F00803 		orr	r3, r3, #8
 948 00c8 0021     		movs	r1, #0
 949 00ca 1046     		mov	r0, r2
 950 00cc 7364     		str	r3, [r6, #68]
 951 00ce 86F84120 		strb	r2, [r6, #65]
 952 00d2 86F84010 		strb	r1, [r6, #64]
 953 00d6 02B0     		add	sp, sp, #8
 954              		@ sp needed
 955 00d8 70BD     		pop	{r4, r5, r6, pc}
 956              	.L198:
 957 00da 00BF     		.align	2
 958              	.L197:
 959 00dc 00000000 		.word	I2S_DMARxHalfCplt
 960 00e0 00000000 		.word	I2S_DMARxCplt
 961 00e4 00000000 		.word	I2S_DMAError
 963              		.section	.text.HAL_I2S_DMAPause,"ax",%progbits
 964              		.align	1
 965              		.p2align 2,,3
 966              		.global	HAL_I2S_DMAPause
 967              		.syntax unified
 968              		.thumb
 969              		.thumb_func
 970              		.fpu fpv4-sp-d16
 972              	HAL_I2S_DMAPause:
 973              		@ args = 0, pretend = 0, frame = 0
 974              		@ frame_needed = 0, uses_anonymous_args = 0
 975              		@ link register save eliminated.
 976 0000 90F84030 		ldrb	r3, [r0, #64]	@ zero_extendqisi2
 977 0004 012B     		cmp	r3, #1
 978 0006 3ED0     		beq	.L205
 979 0008 0123     		movs	r3, #1
 980 000a 80F84030 		strb	r3, [r0, #64]
 981 000e 90F84130 		ldrb	r3, [r0, #65]	@ zero_extendqisi2
 982 0012 032B     		cmp	r3, #3
 983 0014 0CD0     		beq	.L212
 984 0016 90F84130 		ldrb	r3, [r0, #65]	@ zero_extendqisi2
 985 001a 042B     		cmp	r3, #4
 986 001c 12D0     		beq	.L213
 987 001e 90F84130 		ldrb	r3, [r0, #65]	@ zero_extendqisi2
 988 0022 052B     		cmp	r3, #5
 989 0024 18D0     		beq	.L214
 990 0026 0023     		movs	r3, #0
ARM GAS  D:\Programs\cygwin64\tmp\ccMT2NLA.s 			page 18


 991 0028 80F84030 		strb	r3, [r0, #64]
 992 002c 1846     		mov	r0, r3
 993 002e 7047     		bx	lr
 994              	.L212:
 995 0030 0268     		ldr	r2, [r0]
 996 0032 5368     		ldr	r3, [r2, #4]
 997 0034 23F00203 		bic	r3, r3, #2
 998 0038 5360     		str	r3, [r2, #4]
 999 003a 0023     		movs	r3, #0
 1000 003c 80F84030 		strb	r3, [r0, #64]
 1001 0040 1846     		mov	r0, r3
 1002 0042 7047     		bx	lr
 1003              	.L213:
 1004 0044 0268     		ldr	r2, [r0]
 1005 0046 5368     		ldr	r3, [r2, #4]
 1006 0048 23F00103 		bic	r3, r3, #1
 1007 004c 5360     		str	r3, [r2, #4]
 1008 004e 0023     		movs	r3, #0
 1009 0050 80F84030 		strb	r3, [r0, #64]
 1010 0054 1846     		mov	r0, r3
 1011 0056 7047     		bx	lr
 1012              	.L214:
 1013 0058 0268     		ldr	r2, [r0]
 1014 005a 0C4B     		ldr	r3, .L215
 1015 005c 5168     		ldr	r1, [r2, #4]
 1016 005e 10B4     		push	{r4}
 1017 0060 0B4C     		ldr	r4, .L215+4
 1018 0062 21F00301 		bic	r1, r1, #3
 1019 0066 A242     		cmp	r2, r4
 1020 0068 18BF     		it	ne
 1021 006a 4FF04023 		movne	r3, #1073758208
 1022 006e 5160     		str	r1, [r2, #4]
 1023 0070 5A68     		ldr	r2, [r3, #4]
 1024 0072 5DF8044B 		ldr	r4, [sp], #4
 1025 0076 22F00302 		bic	r2, r2, #3
 1026 007a 5A60     		str	r2, [r3, #4]
 1027 007c 0023     		movs	r3, #0
 1028 007e 80F84030 		strb	r3, [r0, #64]
 1029 0082 1846     		mov	r0, r3
 1030 0084 7047     		bx	lr
 1031              	.L205:
 1032 0086 0220     		movs	r0, #2
 1033 0088 7047     		bx	lr
 1034              	.L216:
 1035 008a 00BF     		.align	2
 1036              	.L215:
 1037 008c 00340040 		.word	1073755136
 1038 0090 00380040 		.word	1073756160
 1040              		.section	.text.HAL_I2S_DMAResume,"ax",%progbits
 1041              		.align	1
 1042              		.p2align 2,,3
 1043              		.global	HAL_I2S_DMAResume
 1044              		.syntax unified
 1045              		.thumb
 1046              		.thumb_func
 1047              		.fpu fpv4-sp-d16
 1049              	HAL_I2S_DMAResume:
ARM GAS  D:\Programs\cygwin64\tmp\ccMT2NLA.s 			page 19


 1050              		@ args = 0, pretend = 0, frame = 0
 1051              		@ frame_needed = 0, uses_anonymous_args = 0
 1052              		@ link register save eliminated.
 1053 0000 90F84030 		ldrb	r3, [r0, #64]	@ zero_extendqisi2
 1054 0004 012B     		cmp	r3, #1
 1055 0006 49D0     		beq	.L226
 1056 0008 0123     		movs	r3, #1
 1057 000a 80F84030 		strb	r3, [r0, #64]
 1058 000e 90F84120 		ldrb	r2, [r0, #65]	@ zero_extendqisi2
 1059 0012 0368     		ldr	r3, [r0]
 1060 0014 032A     		cmp	r2, #3
 1061 0016 13D0     		beq	.L235
 1062 0018 90F84120 		ldrb	r2, [r0, #65]	@ zero_extendqisi2
 1063 001c 042A     		cmp	r2, #4
 1064 001e 14D0     		beq	.L236
 1065 0020 90F84120 		ldrb	r2, [r0, #65]	@ zero_extendqisi2
 1066 0024 052A     		cmp	r2, #5
 1067 0026 15D0     		beq	.L237
 1068              	.L229:
 1069 0028 DA69     		ldr	r2, [r3, #28]
 1070 002a 5205     		lsls	r2, r2, #21
 1071 002c 03D4     		bmi	.L231
 1072 002e DA69     		ldr	r2, [r3, #28]
 1073 0030 42F48062 		orr	r2, r2, #1024
 1074 0034 DA61     		str	r2, [r3, #28]
 1075              	.L231:
 1076 0036 0023     		movs	r3, #0
 1077 0038 80F84030 		strb	r3, [r0, #64]
 1078 003c 1846     		mov	r0, r3
 1079 003e 7047     		bx	lr
 1080              	.L235:
 1081 0040 5A68     		ldr	r2, [r3, #4]
 1082 0042 42F00202 		orr	r2, r2, #2
 1083 0046 5A60     		str	r2, [r3, #4]
 1084 0048 EEE7     		b	.L229
 1085              	.L236:
 1086 004a 5A68     		ldr	r2, [r3, #4]
 1087 004c 42F00102 		orr	r2, r2, #1
 1088 0050 5A60     		str	r2, [r3, #4]
 1089 0052 E9E7     		b	.L229
 1090              	.L237:
 1091 0054 5968     		ldr	r1, [r3, #4]
 1092 0056 124A     		ldr	r2, .L238
 1093 0058 10B4     		push	{r4}
 1094 005a 124C     		ldr	r4, .L238+4
 1095 005c 41F00301 		orr	r1, r1, #3
 1096 0060 A342     		cmp	r3, r4
 1097 0062 18BF     		it	ne
 1098 0064 4FF04022 		movne	r2, #1073758208
 1099 0068 5960     		str	r1, [r3, #4]
 1100 006a 5168     		ldr	r1, [r2, #4]
 1101 006c 41F00301 		orr	r1, r1, #3
 1102 0070 5160     		str	r1, [r2, #4]
 1103 0072 D169     		ldr	r1, [r2, #28]
 1104 0074 4C05     		lsls	r4, r1, #21
 1105 0076 03D4     		bmi	.L220
 1106 0078 D169     		ldr	r1, [r2, #28]
ARM GAS  D:\Programs\cygwin64\tmp\ccMT2NLA.s 			page 20


 1107 007a 41F48061 		orr	r1, r1, #1024
 1108 007e D161     		str	r1, [r2, #28]
 1109              	.L220:
 1110 0080 DA69     		ldr	r2, [r3, #28]
 1111 0082 5105     		lsls	r1, r2, #21
 1112 0084 03D4     		bmi	.L225
 1113 0086 DA69     		ldr	r2, [r3, #28]
 1114 0088 42F48062 		orr	r2, r2, #1024
 1115 008c DA61     		str	r2, [r3, #28]
 1116              	.L225:
 1117 008e 0023     		movs	r3, #0
 1118 0090 80F84030 		strb	r3, [r0, #64]
 1119 0094 5DF8044B 		ldr	r4, [sp], #4
 1120 0098 1846     		mov	r0, r3
 1121 009a 7047     		bx	lr
 1122              	.L226:
 1123 009c 0220     		movs	r0, #2
 1124 009e 7047     		bx	lr
 1125              	.L239:
 1126              		.align	2
 1127              	.L238:
 1128 00a0 00340040 		.word	1073755136
 1129 00a4 00380040 		.word	1073756160
 1131              		.section	.text.HAL_I2S_DMAStop,"ax",%progbits
 1132              		.align	1
 1133              		.p2align 2,,3
 1134              		.global	HAL_I2S_DMAStop
 1135              		.syntax unified
 1136              		.thumb
 1137              		.thumb_func
 1138              		.fpu fpv4-sp-d16
 1140              	HAL_I2S_DMAStop:
 1141              		@ args = 0, pretend = 0, frame = 0
 1142              		@ frame_needed = 0, uses_anonymous_args = 0
 1143 0000 38B5     		push	{r3, r4, r5, lr}
 1144 0002 0368     		ldr	r3, [r0]
 1145 0004 5A68     		ldr	r2, [r3, #4]
 1146 0006 22F00202 		bic	r2, r2, #2
 1147 000a 0446     		mov	r4, r0
 1148 000c 806B     		ldr	r0, [r0, #56]
 1149 000e 5A60     		str	r2, [r3, #4]
 1150 0010 5A68     		ldr	r2, [r3, #4]
 1151 0012 22F00102 		bic	r2, r2, #1
 1152 0016 5A60     		str	r2, [r3, #4]
 1153 0018 10B1     		cbz	r0, .L243
 1154 001a FFF7FEFF 		bl	HAL_DMA_Abort
 1155 001e 58BB     		cbnz	r0, .L258
 1156              	.L243:
 1157 0020 0025     		movs	r5, #0
 1158              	.L242:
 1159 0022 E06B     		ldr	r0, [r4, #60]
 1160 0024 10B1     		cbz	r0, .L244
 1161 0026 FFF7FEFF 		bl	HAL_DMA_Abort
 1162 002a F8B9     		cbnz	r0, .L259
 1163              	.L244:
 1164 002c 94F84130 		ldrb	r3, [r4, #65]	@ zero_extendqisi2
 1165 0030 2268     		ldr	r2, [r4]
ARM GAS  D:\Programs\cygwin64\tmp\ccMT2NLA.s 			page 21


 1166 0032 052B     		cmp	r3, #5
 1167 0034 11D1     		bne	.L245
 1168 0036 1349     		ldr	r1, .L260
 1169 0038 134B     		ldr	r3, .L260+4
 1170 003a 8A42     		cmp	r2, r1
 1171 003c 18BF     		it	ne
 1172 003e 4FF04023 		movne	r3, #1073758208
 1173 0042 5968     		ldr	r1, [r3, #4]
 1174 0044 21F00201 		bic	r1, r1, #2
 1175 0048 5960     		str	r1, [r3, #4]
 1176 004a 5968     		ldr	r1, [r3, #4]
 1177 004c 21F00101 		bic	r1, r1, #1
 1178 0050 5960     		str	r1, [r3, #4]
 1179 0052 D969     		ldr	r1, [r3, #28]
 1180 0054 21F48061 		bic	r1, r1, #1024
 1181 0058 D961     		str	r1, [r3, #28]
 1182              	.L245:
 1183 005a D369     		ldr	r3, [r2, #28]
 1184 005c 0121     		movs	r1, #1
 1185 005e 23F48063 		bic	r3, r3, #1024
 1186 0062 D361     		str	r3, [r2, #28]
 1187 0064 2846     		mov	r0, r5
 1188 0066 84F84110 		strb	r1, [r4, #65]
 1189 006a 38BD     		pop	{r3, r4, r5, pc}
 1190              	.L259:
 1191 006c 636C     		ldr	r3, [r4, #68]
 1192 006e 43F00803 		orr	r3, r3, #8
 1193 0072 6364     		str	r3, [r4, #68]
 1194 0074 0125     		movs	r5, #1
 1195 0076 D9E7     		b	.L244
 1196              	.L258:
 1197 0078 636C     		ldr	r3, [r4, #68]
 1198 007a 43F00803 		orr	r3, r3, #8
 1199 007e 6364     		str	r3, [r4, #68]
 1200 0080 0125     		movs	r5, #1
 1201 0082 CEE7     		b	.L242
 1202              	.L261:
 1203              		.align	2
 1204              	.L260:
 1205 0084 00380040 		.word	1073756160
 1206 0088 00340040 		.word	1073755136
 1208              		.section	.text.HAL_I2S_IRQHandler,"ax",%progbits
 1209              		.align	1
 1210              		.p2align 2,,3
 1211              		.global	HAL_I2S_IRQHandler
 1212              		.syntax unified
 1213              		.thumb
 1214              		.thumb_func
 1215              		.fpu fpv4-sp-d16
 1217              	HAL_I2S_IRQHandler:
 1218              		@ args = 0, pretend = 0, frame = 0
 1219              		@ frame_needed = 0, uses_anonymous_args = 0
 1220              		@ link register save eliminated.
 1221 0000 436B     		ldr	r3, [r0, #52]
 1222 0002 1847     		bx	r3	@ indirect register sibling call
 1224              		.section	.text.HAL_I2S_TxHalfCpltCallback,"ax",%progbits
 1225              		.align	1
ARM GAS  D:\Programs\cygwin64\tmp\ccMT2NLA.s 			page 22


 1226              		.p2align 2,,3
 1227              		.weak	HAL_I2S_TxHalfCpltCallback
 1228              		.syntax unified
 1229              		.thumb
 1230              		.thumb_func
 1231              		.fpu fpv4-sp-d16
 1233              	HAL_I2S_TxHalfCpltCallback:
 1234              		@ args = 0, pretend = 0, frame = 0
 1235              		@ frame_needed = 0, uses_anonymous_args = 0
 1236              		@ link register save eliminated.
 1237 0000 7047     		bx	lr
 1239 0002 00BF     		.section	.text.I2S_DMATxHalfCplt,"ax",%progbits
 1240              		.align	1
 1241              		.p2align 2,,3
 1242              		.syntax unified
 1243              		.thumb
 1244              		.thumb_func
 1245              		.fpu fpv4-sp-d16
 1247              	I2S_DMATxHalfCplt:
 1248              		@ args = 0, pretend = 0, frame = 0
 1249              		@ frame_needed = 0, uses_anonymous_args = 0
 1250 0000 08B5     		push	{r3, lr}
 1251 0002 806B     		ldr	r0, [r0, #56]
 1252 0004 FFF7FEFF 		bl	HAL_I2S_TxHalfCpltCallback
 1253 0008 08BD     		pop	{r3, pc}
 1255 000a 00BF     		.section	.text.HAL_I2S_TxCpltCallback,"ax",%progbits
 1256              		.align	1
 1257              		.p2align 2,,3
 1258              		.weak	HAL_I2S_TxCpltCallback
 1259              		.syntax unified
 1260              		.thumb
 1261              		.thumb_func
 1262              		.fpu fpv4-sp-d16
 1264              	HAL_I2S_TxCpltCallback:
 1265              		@ args = 0, pretend = 0, frame = 0
 1266              		@ frame_needed = 0, uses_anonymous_args = 0
 1267              		@ link register save eliminated.
 1268 0000 7047     		bx	lr
 1270 0002 00BF     		.section	.text.I2S_DMATxCplt,"ax",%progbits
 1271              		.align	1
 1272              		.p2align 2,,3
 1273              		.syntax unified
 1274              		.thumb
 1275              		.thumb_func
 1276              		.fpu fpv4-sp-d16
 1278              	I2S_DMATxCplt:
 1279              		@ args = 0, pretend = 0, frame = 0
 1280              		@ frame_needed = 0, uses_anonymous_args = 0
 1281 0000 C369     		ldr	r3, [r0, #28]
 1282 0002 806B     		ldr	r0, [r0, #56]
 1283 0004 10B5     		push	{r4, lr}
 1284 0006 43B9     		cbnz	r3, .L268
 1285 0008 0168     		ldr	r1, [r0]
 1286 000a 4A68     		ldr	r2, [r1, #4]
 1287 000c 0124     		movs	r4, #1
 1288 000e 22F00202 		bic	r2, r2, #2
 1289 0012 4A60     		str	r2, [r1, #4]
ARM GAS  D:\Programs\cygwin64\tmp\ccMT2NLA.s 			page 23


 1290 0014 4385     		strh	r3, [r0, #42]	@ movhi
 1291 0016 80F84140 		strb	r4, [r0, #65]
 1292              	.L268:
 1293 001a FFF7FEFF 		bl	HAL_I2S_TxCpltCallback
 1294 001e 10BD     		pop	{r4, pc}
 1296              		.section	.text.HAL_I2S_RxHalfCpltCallback,"ax",%progbits
 1297              		.align	1
 1298              		.p2align 2,,3
 1299              		.weak	HAL_I2S_RxHalfCpltCallback
 1300              		.syntax unified
 1301              		.thumb
 1302              		.thumb_func
 1303              		.fpu fpv4-sp-d16
 1305              	HAL_I2S_RxHalfCpltCallback:
 1306              		@ args = 0, pretend = 0, frame = 0
 1307              		@ frame_needed = 0, uses_anonymous_args = 0
 1308              		@ link register save eliminated.
 1309 0000 7047     		bx	lr
 1311 0002 00BF     		.section	.text.I2S_DMARxHalfCplt,"ax",%progbits
 1312              		.align	1
 1313              		.p2align 2,,3
 1314              		.syntax unified
 1315              		.thumb
 1316              		.thumb_func
 1317              		.fpu fpv4-sp-d16
 1319              	I2S_DMARxHalfCplt:
 1320              		@ args = 0, pretend = 0, frame = 0
 1321              		@ frame_needed = 0, uses_anonymous_args = 0
 1322 0000 08B5     		push	{r3, lr}
 1323 0002 806B     		ldr	r0, [r0, #56]
 1324 0004 FFF7FEFF 		bl	HAL_I2S_RxHalfCpltCallback
 1325 0008 08BD     		pop	{r3, pc}
 1327 000a 00BF     		.section	.text.HAL_I2S_RxCpltCallback,"ax",%progbits
 1328              		.align	1
 1329              		.p2align 2,,3
 1330              		.weak	HAL_I2S_RxCpltCallback
 1331              		.syntax unified
 1332              		.thumb
 1333              		.thumb_func
 1334              		.fpu fpv4-sp-d16
 1336              	HAL_I2S_RxCpltCallback:
 1337              		@ args = 0, pretend = 0, frame = 0
 1338              		@ frame_needed = 0, uses_anonymous_args = 0
 1339              		@ link register save eliminated.
 1340 0000 7047     		bx	lr
 1342 0002 00BF     		.section	.text.I2S_DMARxCplt,"ax",%progbits
 1343              		.align	1
 1344              		.p2align 2,,3
 1345              		.syntax unified
 1346              		.thumb
 1347              		.thumb_func
 1348              		.fpu fpv4-sp-d16
 1350              	I2S_DMARxCplt:
 1351              		@ args = 0, pretend = 0, frame = 0
 1352              		@ frame_needed = 0, uses_anonymous_args = 0
 1353 0000 C369     		ldr	r3, [r0, #28]
 1354 0002 806B     		ldr	r0, [r0, #56]
ARM GAS  D:\Programs\cygwin64\tmp\ccMT2NLA.s 			page 24


 1355 0004 10B5     		push	{r4, lr}
 1356 0006 43B9     		cbnz	r3, .L275
 1357 0008 0168     		ldr	r1, [r0]
 1358 000a 4A68     		ldr	r2, [r1, #4]
 1359 000c 0124     		movs	r4, #1
 1360 000e 22F00102 		bic	r2, r2, #1
 1361 0012 4A60     		str	r2, [r1, #4]
 1362 0014 4386     		strh	r3, [r0, #50]	@ movhi
 1363 0016 80F84140 		strb	r4, [r0, #65]
 1364              	.L275:
 1365 001a FFF7FEFF 		bl	HAL_I2S_RxCpltCallback
 1366 001e 10BD     		pop	{r4, pc}
 1368              		.section	.text.HAL_I2S_ErrorCallback,"ax",%progbits
 1369              		.align	1
 1370              		.p2align 2,,3
 1371              		.weak	HAL_I2S_ErrorCallback
 1372              		.syntax unified
 1373              		.thumb
 1374              		.thumb_func
 1375              		.fpu fpv4-sp-d16
 1377              	HAL_I2S_ErrorCallback:
 1378              		@ args = 0, pretend = 0, frame = 0
 1379              		@ frame_needed = 0, uses_anonymous_args = 0
 1380              		@ link register save eliminated.
 1381 0000 7047     		bx	lr
 1383 0002 00BF     		.section	.text.I2S_IRQHandler,"ax",%progbits
 1384              		.align	1
 1385              		.p2align 2,,3
 1386              		.syntax unified
 1387              		.thumb
 1388              		.thumb_func
 1389              		.fpu fpv4-sp-d16
 1391              	I2S_IRQHandler:
 1392              		@ args = 0, pretend = 0, frame = 16
 1393              		@ frame_needed = 0, uses_anonymous_args = 0
 1394 0000 10B5     		push	{r4, lr}
 1395 0002 0368     		ldr	r3, [r0]
 1396 0004 84B0     		sub	sp, sp, #16
 1397 0006 9A68     		ldr	r2, [r3, #8]
 1398 0008 0192     		str	r2, [sp, #4]
 1399 000a 90F84120 		ldrb	r2, [r0, #65]	@ zero_extendqisi2
 1400 000e 042A     		cmp	r2, #4
 1401 0010 0446     		mov	r4, r0
 1402 0012 05D0     		beq	.L310
 1403              	.L280:
 1404 0014 94F84130 		ldrb	r3, [r4, #65]	@ zero_extendqisi2
 1405 0018 032B     		cmp	r3, #3
 1406 001a 31D0     		beq	.L311
 1407              	.L278:
 1408 001c 04B0     		add	sp, sp, #16
 1409              		@ sp needed
 1410 001e 10BD     		pop	{r4, pc}
 1411              	.L310:
 1412 0020 019A     		ldr	r2, [sp, #4]
 1413 0022 D107     		lsls	r1, r2, #31
 1414 0024 0FD5     		bpl	.L282
 1415 0026 5A68     		ldr	r2, [r3, #4]
ARM GAS  D:\Programs\cygwin64\tmp\ccMT2NLA.s 			page 25


 1416 0028 5206     		lsls	r2, r2, #25
 1417 002a 0CD5     		bpl	.L282
 1418 002c C16A     		ldr	r1, [r0, #44]
 1419 002e DA68     		ldr	r2, [r3, #12]
 1420 0030 21F8022B 		strh	r2, [r1], #2	@ movhi
 1421 0034 428E     		ldrh	r2, [r0, #50]
 1422 0036 C162     		str	r1, [r0, #44]
 1423 0038 013A     		subs	r2, r2, #1
 1424 003a 92B2     		uxth	r2, r2
 1425 003c 4286     		strh	r2, [r0, #50]	@ movhi
 1426 003e 428E     		ldrh	r2, [r0, #50]
 1427 0040 92B2     		uxth	r2, r2
 1428 0042 002A     		cmp	r2, #0
 1429 0044 4AD0     		beq	.L312
 1430              	.L282:
 1431 0046 019B     		ldr	r3, [sp, #4]
 1432 0048 5906     		lsls	r1, r3, #25
 1433 004a E3D5     		bpl	.L280
 1434 004c 2368     		ldr	r3, [r4]
 1435 004e 5A68     		ldr	r2, [r3, #4]
 1436 0050 9206     		lsls	r2, r2, #26
 1437 0052 DFD5     		bpl	.L280
 1438 0054 5A68     		ldr	r2, [r3, #4]
 1439 0056 0021     		movs	r1, #0
 1440 0058 22F06002 		bic	r2, r2, #96
 1441 005c 5A60     		str	r2, [r3, #4]
 1442 005e 0291     		str	r1, [sp, #8]
 1443 0060 DA68     		ldr	r2, [r3, #12]
 1444 0062 0292     		str	r2, [sp, #8]
 1445 0064 9B68     		ldr	r3, [r3, #8]
 1446 0066 0293     		str	r3, [sp, #8]
 1447 0068 0123     		movs	r3, #1
 1448 006a 029A     		ldr	r2, [sp, #8]
 1449 006c 84F84130 		strb	r3, [r4, #65]
 1450 0070 636C     		ldr	r3, [r4, #68]
 1451 0072 43F00203 		orr	r3, r3, #2
 1452 0076 6364     		str	r3, [r4, #68]
 1453 0078 2046     		mov	r0, r4
 1454 007a FFF7FEFF 		bl	HAL_I2S_ErrorCallback
 1455 007e C9E7     		b	.L280
 1456              	.L311:
 1457 0080 019B     		ldr	r3, [sp, #4]
 1458 0082 9B07     		lsls	r3, r3, #30
 1459 0084 0FD5     		bpl	.L288
 1460 0086 2368     		ldr	r3, [r4]
 1461 0088 5A68     		ldr	r2, [r3, #4]
 1462 008a 1006     		lsls	r0, r2, #24
 1463 008c 0BD5     		bpl	.L288
 1464 008e 616A     		ldr	r1, [r4, #36]
 1465 0090 31F8022B 		ldrh	r2, [r1], #2
 1466 0094 DA60     		str	r2, [r3, #12]
 1467 0096 628D     		ldrh	r2, [r4, #42]
 1468 0098 6162     		str	r1, [r4, #36]
 1469 009a 013A     		subs	r2, r2, #1
 1470 009c 92B2     		uxth	r2, r2
 1471 009e 6285     		strh	r2, [r4, #42]	@ movhi
 1472 00a0 628D     		ldrh	r2, [r4, #42]
ARM GAS  D:\Programs\cygwin64\tmp\ccMT2NLA.s 			page 26


 1473 00a2 92B2     		uxth	r2, r2
 1474 00a4 22B3     		cbz	r2, .L313
 1475              	.L288:
 1476 00a6 019B     		ldr	r3, [sp, #4]
 1477 00a8 1907     		lsls	r1, r3, #28
 1478 00aa B7D5     		bpl	.L278
 1479 00ac 2368     		ldr	r3, [r4]
 1480 00ae 5A68     		ldr	r2, [r3, #4]
 1481 00b0 9206     		lsls	r2, r2, #26
 1482 00b2 B3D5     		bpl	.L278
 1483 00b4 5A68     		ldr	r2, [r3, #4]
 1484 00b6 0021     		movs	r1, #0
 1485 00b8 22F0A002 		bic	r2, r2, #160
 1486 00bc 5A60     		str	r2, [r3, #4]
 1487 00be 0391     		str	r1, [sp, #12]
 1488 00c0 9B68     		ldr	r3, [r3, #8]
 1489 00c2 0393     		str	r3, [sp, #12]
 1490 00c4 0123     		movs	r3, #1
 1491 00c6 039A     		ldr	r2, [sp, #12]
 1492 00c8 84F84130 		strb	r3, [r4, #65]
 1493 00cc 636C     		ldr	r3, [r4, #68]
 1494 00ce 43F00403 		orr	r3, r3, #4
 1495 00d2 6364     		str	r3, [r4, #68]
 1496 00d4 2046     		mov	r0, r4
 1497 00d6 FFF7FEFF 		bl	HAL_I2S_ErrorCallback
 1498 00da 9FE7     		b	.L278
 1499              	.L312:
 1500 00dc 5A68     		ldr	r2, [r3, #4]
 1501 00de 0121     		movs	r1, #1
 1502 00e0 22F06002 		bic	r2, r2, #96
 1503 00e4 5A60     		str	r2, [r3, #4]
 1504 00e6 80F84110 		strb	r1, [r0, #65]
 1505 00ea FFF7FEFF 		bl	HAL_I2S_RxCpltCallback
 1506 00ee AAE7     		b	.L282
 1507              	.L313:
 1508 00f0 5A68     		ldr	r2, [r3, #4]
 1509 00f2 0121     		movs	r1, #1
 1510 00f4 22F0A002 		bic	r2, r2, #160
 1511 00f8 5A60     		str	r2, [r3, #4]
 1512 00fa 2046     		mov	r0, r4
 1513 00fc 84F84110 		strb	r1, [r4, #65]
 1514 0100 FFF7FEFF 		bl	HAL_I2S_TxCpltCallback
 1515 0104 CFE7     		b	.L288
 1517 0106 00BF     		.section	.text.I2S_DMAError,"ax",%progbits
 1518              		.align	1
 1519              		.p2align 2,,3
 1520              		.syntax unified
 1521              		.thumb
 1522              		.thumb_func
 1523              		.fpu fpv4-sp-d16
 1525              	I2S_DMAError:
 1526              		@ args = 0, pretend = 0, frame = 0
 1527              		@ frame_needed = 0, uses_anonymous_args = 0
 1528 0000 806B     		ldr	r0, [r0, #56]
 1529 0002 0168     		ldr	r1, [r0]
 1530 0004 4B68     		ldr	r3, [r1, #4]
 1531 0006 10B5     		push	{r4, lr}
ARM GAS  D:\Programs\cygwin64\tmp\ccMT2NLA.s 			page 27


 1532 0008 0022     		movs	r2, #0
 1533 000a 23F00303 		bic	r3, r3, #3
 1534 000e 0124     		movs	r4, #1
 1535 0010 4B60     		str	r3, [r1, #4]
 1536 0012 4285     		strh	r2, [r0, #42]	@ movhi
 1537 0014 4286     		strh	r2, [r0, #50]	@ movhi
 1538 0016 80F84140 		strb	r4, [r0, #65]
 1539 001a 436C     		ldr	r3, [r0, #68]
 1540 001c 43F00803 		orr	r3, r3, #8
 1541 0020 4364     		str	r3, [r0, #68]
 1542 0022 FFF7FEFF 		bl	HAL_I2S_ErrorCallback
 1543 0026 10BD     		pop	{r4, pc}
 1545              		.section	.text.HAL_I2S_GetState,"ax",%progbits
 1546              		.align	1
 1547              		.p2align 2,,3
 1548              		.global	HAL_I2S_GetState
 1549              		.syntax unified
 1550              		.thumb
 1551              		.thumb_func
 1552              		.fpu fpv4-sp-d16
 1554              	HAL_I2S_GetState:
 1555              		@ args = 0, pretend = 0, frame = 0
 1556              		@ frame_needed = 0, uses_anonymous_args = 0
 1557              		@ link register save eliminated.
 1558 0000 90F84100 		ldrb	r0, [r0, #65]	@ zero_extendqisi2
 1559 0004 7047     		bx	lr
 1561 0006 00BF     		.section	.text.HAL_I2S_GetError,"ax",%progbits
 1562              		.align	1
 1563              		.p2align 2,,3
 1564              		.global	HAL_I2S_GetError
 1565              		.syntax unified
 1566              		.thumb
 1567              		.thumb_func
 1568              		.fpu fpv4-sp-d16
 1570              	HAL_I2S_GetError:
 1571              		@ args = 0, pretend = 0, frame = 0
 1572              		@ frame_needed = 0, uses_anonymous_args = 0
 1573              		@ link register save eliminated.
 1574 0000 406C     		ldr	r0, [r0, #68]
 1575 0002 7047     		bx	lr
 1577              		.ident	"GCC: (GNU Tools for Arm Embedded Processors 8-2018-q4-major) 8.2.1 20181213 (release) [gcc
ARM GAS  D:\Programs\cygwin64\tmp\ccMT2NLA.s 			page 28

