ARM GAS  D:\Programs\cygwin64\tmp\ccxA2i4l.s 			page 1


   1              		.cpu cortex-m4
   2              		.eabi_attribute 27, 1
   3              		.eabi_attribute 28, 1
   4              		.eabi_attribute 20, 1
   5              		.eabi_attribute 21, 1
   6              		.eabi_attribute 23, 3
   7              		.eabi_attribute 24, 1
   8              		.eabi_attribute 25, 1
   9              		.eabi_attribute 26, 1
  10              		.eabi_attribute 30, 2
  11              		.eabi_attribute 34, 1
  12              		.eabi_attribute 18, 4
  13              		.file	"stm32f4xx_hal_flash.c"
  14              		.text
  15              		.section	.text.FLASH_SetErrorCode,"ax",%progbits
  16              		.align	1
  17              		.p2align 2,,3
  18              		.arch armv7e-m
  19              		.syntax unified
  20              		.thumb
  21              		.thumb_func
  22              		.fpu fpv4-sp-d16
  24              	FLASH_SetErrorCode:
  25              		@ args = 0, pretend = 0, frame = 0
  26              		@ frame_needed = 0, uses_anonymous_args = 0
  27              		@ link register save eliminated.
  28 0000 214B     		ldr	r3, .L27
  29 0002 DA68     		ldr	r2, [r3, #12]
  30 0004 D006     		lsls	r0, r2, #27
  31 0006 05D5     		bpl	.L2
  32 0008 2049     		ldr	r1, .L27+4
  33 000a CA69     		ldr	r2, [r1, #28]
  34 000c 1020     		movs	r0, #16
  35 000e 0243     		orrs	r2, r2, r0
  36 0010 CA61     		str	r2, [r1, #28]
  37 0012 D860     		str	r0, [r3, #12]
  38              	.L2:
  39 0014 1C4B     		ldr	r3, .L27
  40 0016 DA68     		ldr	r2, [r3, #12]
  41 0018 9106     		lsls	r1, r2, #26
  42 001a 06D5     		bpl	.L3
  43 001c 1B49     		ldr	r1, .L27+4
  44 001e CA69     		ldr	r2, [r1, #28]
  45 0020 2020     		movs	r0, #32
  46 0022 42F00802 		orr	r2, r2, #8
  47 0026 CA61     		str	r2, [r1, #28]
  48 0028 D860     		str	r0, [r3, #12]
  49              	.L3:
  50 002a 174B     		ldr	r3, .L27
  51 002c DA68     		ldr	r2, [r3, #12]
  52 002e 5206     		lsls	r2, r2, #25
  53 0030 06D5     		bpl	.L4
  54 0032 1649     		ldr	r1, .L27+4
  55 0034 CA69     		ldr	r2, [r1, #28]
  56 0036 4020     		movs	r0, #64
  57 0038 42F00402 		orr	r2, r2, #4
  58 003c CA61     		str	r2, [r1, #28]
ARM GAS  D:\Programs\cygwin64\tmp\ccxA2i4l.s 			page 2


  59 003e D860     		str	r0, [r3, #12]
  60              	.L4:
  61 0040 114B     		ldr	r3, .L27
  62 0042 DA68     		ldr	r2, [r3, #12]
  63 0044 1006     		lsls	r0, r2, #24
  64 0046 06D5     		bpl	.L5
  65 0048 1049     		ldr	r1, .L27+4
  66 004a CA69     		ldr	r2, [r1, #28]
  67 004c 8020     		movs	r0, #128
  68 004e 42F00202 		orr	r2, r2, #2
  69 0052 CA61     		str	r2, [r1, #28]
  70 0054 D860     		str	r0, [r3, #12]
  71              	.L5:
  72 0056 0C4B     		ldr	r3, .L27
  73 0058 DA68     		ldr	r2, [r3, #12]
  74 005a D105     		lsls	r1, r2, #23
  75 005c 07D5     		bpl	.L6
  76 005e 0B49     		ldr	r1, .L27+4
  77 0060 CA69     		ldr	r2, [r1, #28]
  78 0062 4FF48070 		mov	r0, #256
  79 0066 42F00102 		orr	r2, r2, #1
  80 006a CA61     		str	r2, [r1, #28]
  81 006c D860     		str	r0, [r3, #12]
  82              	.L6:
  83 006e 064B     		ldr	r3, .L27
  84 0070 DA68     		ldr	r2, [r3, #12]
  85 0072 9207     		lsls	r2, r2, #30
  86 0074 06D5     		bpl	.L1
  87 0076 0549     		ldr	r1, .L27+4
  88 0078 CA69     		ldr	r2, [r1, #28]
  89 007a 0220     		movs	r0, #2
  90 007c 42F02002 		orr	r2, r2, #32
  91 0080 CA61     		str	r2, [r1, #28]
  92 0082 D860     		str	r0, [r3, #12]
  93              	.L1:
  94 0084 7047     		bx	lr
  95              	.L28:
  96 0086 00BF     		.align	2
  97              	.L27:
  98 0088 003C0240 		.word	1073888256
  99 008c 00000000 		.word	pFlash
 101              		.section	.text.HAL_FLASH_Program,"ax",%progbits
 102              		.align	1
 103              		.p2align 2,,3
 104              		.global	HAL_FLASH_Program
 105              		.syntax unified
 106              		.thumb
 107              		.thumb_func
 108              		.fpu fpv4-sp-d16
 110              	HAL_FLASH_Program:
 111              		@ args = 0, pretend = 0, frame = 0
 112              		@ frame_needed = 0, uses_anonymous_args = 0
 113 0000 2DE9F84F 		push	{r3, r4, r5, r6, r7, r8, r9, r10, fp, lr}
 114 0004 484C     		ldr	r4, .L60
 115 0006 267E     		ldrb	r6, [r4, #24]	@ zero_extendqisi2
 116 0008 012E     		cmp	r6, #1
 117 000a 5DD0     		beq	.L45
ARM GAS  D:\Programs\cygwin64\tmp\ccxA2i4l.s 			page 3


 118 000c 9946     		mov	r9, r3
 119 000e 1546     		mov	r5, r2
 120 0010 0023     		movs	r3, #0
 121 0012 0122     		movs	r2, #1
 122 0014 8846     		mov	r8, r1
 123 0016 0746     		mov	r7, r0
 124 0018 2276     		strb	r2, [r4, #24]
 125 001a E361     		str	r3, [r4, #28]
 126 001c FFF7FEFF 		bl	HAL_GetTick
 127 0020 424E     		ldr	r6, .L60+4
 128 0022 8346     		mov	fp, r0
 129 0024 4CF2503A 		movw	r10, #50000
 130 0028 05E0     		b	.L31
 131              	.L33:
 132 002a FFF7FEFF 		bl	HAL_GetTick
 133 002e A0EB0B00 		sub	r0, r0, fp
 134 0032 5045     		cmp	r0, r10
 135 0034 43D8     		bhi	.L46
 136              	.L31:
 137 0036 F368     		ldr	r3, [r6, #12]
 138 0038 D803     		lsls	r0, r3, #15
 139 003a F6D4     		bmi	.L33
 140 003c F368     		ldr	r3, [r6, #12]
 141 003e D907     		lsls	r1, r3, #31
 142 0040 44BF     		itt	mi
 143 0042 0123     		movmi	r3, #1
 144 0044 F360     		strmi	r3, [r6, #12]
 145 0046 394E     		ldr	r6, .L60+4
 146 0048 F368     		ldr	r3, [r6, #12]
 147 004a 13F4F97F 		tst	r3, #498
 148 004e 4ED1     		bne	.L35
 149 0050 002F     		cmp	r7, #0
 150 0052 3CD0     		beq	.L36
 151 0054 3369     		ldr	r3, [r6, #16]
 152 0056 23F44073 		bic	r3, r3, #768
 153 005a 3361     		str	r3, [r6, #16]
 154 005c 012F     		cmp	r7, #1
 155 005e 3369     		ldr	r3, [r6, #16]
 156 0060 49D0     		beq	.L57
 157 0062 022F     		cmp	r7, #2
 158 0064 56D0     		beq	.L58
 159 0066 43F44073 		orr	r3, r3, #768
 160 006a 3361     		str	r3, [r6, #16]
 161 006c 3369     		ldr	r3, [r6, #16]
 162 006e 43F00103 		orr	r3, r3, #1
 163 0072 3361     		str	r3, [r6, #16]
 164 0074 C8F80050 		str	r5, [r8]
 165 0078 C8F80490 		str	r9, [r8, #4]
 166              	.L38:
 167 007c 0023     		movs	r3, #0
 168 007e E361     		str	r3, [r4, #28]
 169 0080 FFF7FEFF 		bl	HAL_GetTick
 170 0084 294D     		ldr	r5, .L60+4
 171 0086 0746     		mov	r7, r0
 172 0088 4CF25036 		movw	r6, #50000
 173 008c 04E0     		b	.L41
 174              	.L43:
ARM GAS  D:\Programs\cygwin64\tmp\ccxA2i4l.s 			page 4


 175 008e FFF7FEFF 		bl	HAL_GetTick
 176 0092 C01B     		subs	r0, r0, r7
 177 0094 B042     		cmp	r0, r6
 178 0096 28D8     		bhi	.L47
 179              	.L41:
 180 0098 EB68     		ldr	r3, [r5, #12]
 181 009a DA03     		lsls	r2, r3, #15
 182 009c F7D4     		bmi	.L43
 183 009e EB68     		ldr	r3, [r5, #12]
 184 00a0 DB07     		lsls	r3, r3, #31
 185 00a2 44BF     		itt	mi
 186 00a4 0123     		movmi	r3, #1
 187 00a6 EB60     		strmi	r3, [r5, #12]
 188 00a8 204B     		ldr	r3, .L60+4
 189 00aa D868     		ldr	r0, [r3, #12]
 190 00ac 10F4F970 		ands	r0, r0, #498
 191 00b0 2CD1     		bne	.L59
 192              	.L42:
 193 00b2 1E4A     		ldr	r2, .L60+4
 194 00b4 1369     		ldr	r3, [r2, #16]
 195 00b6 23F00103 		bic	r3, r3, #1
 196 00ba 1361     		str	r3, [r2, #16]
 197 00bc 00E0     		b	.L32
 198              	.L46:
 199 00be 0320     		movs	r0, #3
 200              	.L32:
 201 00c0 0023     		movs	r3, #0
 202 00c2 2376     		strb	r3, [r4, #24]
 203 00c4 BDE8F88F 		pop	{r3, r4, r5, r6, r7, r8, r9, r10, fp, pc}
 204              	.L45:
 205 00c8 0220     		movs	r0, #2
 206 00ca BDE8F88F 		pop	{r3, r4, r5, r6, r7, r8, r9, r10, fp, pc}
 207              	.L36:
 208 00ce 3369     		ldr	r3, [r6, #16]
 209 00d0 23F44073 		bic	r3, r3, #768
 210 00d4 3361     		str	r3, [r6, #16]
 211 00d6 3369     		ldr	r3, [r6, #16]
 212 00d8 3361     		str	r3, [r6, #16]
 213 00da 3369     		ldr	r3, [r6, #16]
 214 00dc EDB2     		uxtb	r5, r5
 215 00de 43F00103 		orr	r3, r3, #1
 216 00e2 3361     		str	r3, [r6, #16]
 217 00e4 88F80050 		strb	r5, [r8]
 218 00e8 C8E7     		b	.L38
 219              	.L47:
 220 00ea 0320     		movs	r0, #3
 221 00ec E1E7     		b	.L42
 222              	.L35:
 223 00ee FFF7FEFF 		bl	FLASH_SetErrorCode
 224 00f2 0120     		movs	r0, #1
 225 00f4 E4E7     		b	.L32
 226              	.L57:
 227 00f6 43F48073 		orr	r3, r3, #256
 228 00fa 3361     		str	r3, [r6, #16]
 229 00fc 3369     		ldr	r3, [r6, #16]
 230 00fe ADB2     		uxth	r5, r5
 231 0100 43F00103 		orr	r3, r3, #1
ARM GAS  D:\Programs\cygwin64\tmp\ccxA2i4l.s 			page 5


 232 0104 3361     		str	r3, [r6, #16]
 233 0106 A8F80050 		strh	r5, [r8]	@ movhi
 234 010a B7E7     		b	.L38
 235              	.L59:
 236 010c FFF7FEFF 		bl	FLASH_SetErrorCode
 237 0110 0120     		movs	r0, #1
 238 0112 CEE7     		b	.L42
 239              	.L58:
 240 0114 43F40073 		orr	r3, r3, #512
 241 0118 3361     		str	r3, [r6, #16]
 242 011a 3369     		ldr	r3, [r6, #16]
 243 011c 43F00103 		orr	r3, r3, #1
 244 0120 3361     		str	r3, [r6, #16]
 245 0122 C8F80050 		str	r5, [r8]
 246 0126 A9E7     		b	.L38
 247              	.L61:
 248              		.align	2
 249              	.L60:
 250 0128 00000000 		.word	pFlash
 251 012c 003C0240 		.word	1073888256
 253              		.section	.text.HAL_FLASH_Program_IT,"ax",%progbits
 254              		.align	1
 255              		.p2align 2,,3
 256              		.global	HAL_FLASH_Program_IT
 257              		.syntax unified
 258              		.thumb
 259              		.thumb_func
 260              		.fpu fpv4-sp-d16
 262              	HAL_FLASH_Program_IT:
 263              		@ args = 0, pretend = 0, frame = 0
 264              		@ frame_needed = 0, uses_anonymous_args = 0
 265              		@ link register save eliminated.
 266 0000 F0B4     		push	{r4, r5, r6, r7}
 267 0002 2C4D     		ldr	r5, .L71
 268 0004 2C7E     		ldrb	r4, [r5, #24]	@ zero_extendqisi2
 269 0006 012C     		cmp	r4, #1
 270 0008 50D0     		beq	.L67
 271 000a 2B4C     		ldr	r4, .L71+4
 272 000c 2669     		ldr	r6, [r4, #16]
 273 000e 46F08076 		orr	r6, r6, #16777216
 274 0012 2661     		str	r6, [r4, #16]
 275 0014 2669     		ldr	r6, [r4, #16]
 276 0016 46F00076 		orr	r6, r6, #33554432
 277 001a 2661     		str	r6, [r4, #16]
 278 001c 0327     		movs	r7, #3
 279 001e 0126     		movs	r6, #1
 280 0020 2F70     		strb	r7, [r5]
 281 0022 2E76     		strb	r6, [r5, #24]
 282 0024 6961     		str	r1, [r5, #20]
 283 0026 60B9     		cbnz	r0, .L64
 284 0028 2369     		ldr	r3, [r4, #16]
 285 002a 23F44073 		bic	r3, r3, #768
 286 002e 2361     		str	r3, [r4, #16]
 287 0030 2369     		ldr	r3, [r4, #16]
 288 0032 2361     		str	r3, [r4, #16]
 289 0034 2369     		ldr	r3, [r4, #16]
 290 0036 D2B2     		uxtb	r2, r2
ARM GAS  D:\Programs\cygwin64\tmp\ccxA2i4l.s 			page 6


 291 0038 3343     		orrs	r3, r3, r6
 292 003a 2361     		str	r3, [r4, #16]
 293 003c 0A70     		strb	r2, [r1]
 294              	.L63:
 295 003e F0BC     		pop	{r4, r5, r6, r7}
 296 0040 7047     		bx	lr
 297              	.L64:
 298 0042 0128     		cmp	r0, #1
 299 0044 21D0     		beq	.L69
 300 0046 0228     		cmp	r0, #2
 301 0048 10D0     		beq	.L70
 302 004a 2069     		ldr	r0, [r4, #16]
 303 004c 20F44070 		bic	r0, r0, #768
 304 0050 2061     		str	r0, [r4, #16]
 305 0052 2069     		ldr	r0, [r4, #16]
 306 0054 40F44070 		orr	r0, r0, #768
 307 0058 2061     		str	r0, [r4, #16]
 308 005a 2069     		ldr	r0, [r4, #16]
 309 005c 40F00100 		orr	r0, r0, #1
 310 0060 2061     		str	r0, [r4, #16]
 311 0062 0020     		movs	r0, #0
 312 0064 0A60     		str	r2, [r1]
 313 0066 4B60     		str	r3, [r1, #4]
 314 0068 F0BC     		pop	{r4, r5, r6, r7}
 315 006a 7047     		bx	lr
 316              	.L70:
 317 006c 2369     		ldr	r3, [r4, #16]
 318 006e 23F44073 		bic	r3, r3, #768
 319 0072 2361     		str	r3, [r4, #16]
 320 0074 2369     		ldr	r3, [r4, #16]
 321 0076 43F40073 		orr	r3, r3, #512
 322 007a 2361     		str	r3, [r4, #16]
 323 007c 2369     		ldr	r3, [r4, #16]
 324 007e 43F00103 		orr	r3, r3, #1
 325 0082 2361     		str	r3, [r4, #16]
 326 0084 0020     		movs	r0, #0
 327 0086 0A60     		str	r2, [r1]
 328 0088 D9E7     		b	.L63
 329              	.L69:
 330 008a 2369     		ldr	r3, [r4, #16]
 331 008c 23F44073 		bic	r3, r3, #768
 332 0090 2361     		str	r3, [r4, #16]
 333 0092 2369     		ldr	r3, [r4, #16]
 334 0094 43F48073 		orr	r3, r3, #256
 335 0098 2361     		str	r3, [r4, #16]
 336 009a 2369     		ldr	r3, [r4, #16]
 337 009c 92B2     		uxth	r2, r2
 338 009e 43F00103 		orr	r3, r3, #1
 339 00a2 2361     		str	r3, [r4, #16]
 340 00a4 0020     		movs	r0, #0
 341 00a6 0A80     		strh	r2, [r1]	@ movhi
 342 00a8 F0BC     		pop	{r4, r5, r6, r7}
 343 00aa 7047     		bx	lr
 344              	.L67:
 345 00ac 0220     		movs	r0, #2
 346 00ae F0BC     		pop	{r4, r5, r6, r7}
 347 00b0 7047     		bx	lr
ARM GAS  D:\Programs\cygwin64\tmp\ccxA2i4l.s 			page 7


 348              	.L72:
 349 00b2 00BF     		.align	2
 350              	.L71:
 351 00b4 00000000 		.word	pFlash
 352 00b8 003C0240 		.word	1073888256
 354              		.section	.text.HAL_FLASH_EndOfOperationCallback,"ax",%progbits
 355              		.align	1
 356              		.p2align 2,,3
 357              		.weak	HAL_FLASH_EndOfOperationCallback
 358              		.syntax unified
 359              		.thumb
 360              		.thumb_func
 361              		.fpu fpv4-sp-d16
 363              	HAL_FLASH_EndOfOperationCallback:
 364              		@ args = 0, pretend = 0, frame = 0
 365              		@ frame_needed = 0, uses_anonymous_args = 0
 366              		@ link register save eliminated.
 367 0000 7047     		bx	lr
 369 0002 00BF     		.section	.text.HAL_FLASH_OperationErrorCallback,"ax",%progbits
 370              		.align	1
 371              		.p2align 2,,3
 372              		.weak	HAL_FLASH_OperationErrorCallback
 373              		.syntax unified
 374              		.thumb
 375              		.thumb_func
 376              		.fpu fpv4-sp-d16
 378              	HAL_FLASH_OperationErrorCallback:
 379              		@ args = 0, pretend = 0, frame = 0
 380              		@ frame_needed = 0, uses_anonymous_args = 0
 381              		@ link register save eliminated.
 382 0000 7047     		bx	lr
 384 0002 00BF     		.section	.text.HAL_FLASH_IRQHandler,"ax",%progbits
 385              		.align	1
 386              		.p2align 2,,3
 387              		.global	HAL_FLASH_IRQHandler
 388              		.syntax unified
 389              		.thumb
 390              		.thumb_func
 391              		.fpu fpv4-sp-d16
 393              	HAL_FLASH_IRQHandler:
 394              		@ args = 0, pretend = 0, frame = 0
 395              		@ frame_needed = 0, uses_anonymous_args = 0
 396 0000 38B5     		push	{r3, r4, r5, lr}
 397 0002 304B     		ldr	r3, .L96
 398 0004 304C     		ldr	r4, .L96+4
 399 0006 DB68     		ldr	r3, [r3, #12]
 400 0008 13F4F97F 		tst	r3, #498
 401 000c 0ED0     		beq	.L76
 402 000e 2378     		ldrb	r3, [r4]	@ zero_extendqisi2
 403 0010 012B     		cmp	r3, #1
 404 0012 41D0     		beq	.L93
 405 0014 2378     		ldrb	r3, [r4]	@ zero_extendqisi2
 406 0016 022B     		cmp	r3, #2
 407 0018 0CBF     		ite	eq
 408 001a 2569     		ldreq	r5, [r4, #16]
 409 001c 6569     		ldrne	r5, [r4, #20]
 410              	.L78:
ARM GAS  D:\Programs\cygwin64\tmp\ccxA2i4l.s 			page 8


 411 001e FFF7FEFF 		bl	FLASH_SetErrorCode
 412 0022 2846     		mov	r0, r5
 413 0024 FFF7FEFF 		bl	HAL_FLASH_OperationErrorCallback
 414 0028 0023     		movs	r3, #0
 415 002a 2370     		strb	r3, [r4]
 416              	.L76:
 417 002c 254B     		ldr	r3, .L96
 418 002e DA68     		ldr	r2, [r3, #12]
 419 0030 D207     		lsls	r2, r2, #31
 420 0032 0CD5     		bpl	.L80
 421 0034 0122     		movs	r2, #1
 422 0036 DA60     		str	r2, [r3, #12]
 423 0038 2378     		ldrb	r3, [r4]	@ zero_extendqisi2
 424 003a 9342     		cmp	r3, r2
 425 003c 1CD0     		beq	.L94
 426 003e 2378     		ldrb	r3, [r4]	@ zero_extendqisi2
 427 0040 022B     		cmp	r3, #2
 428 0042 2ED0     		beq	.L95
 429 0044 6069     		ldr	r0, [r4, #20]
 430 0046 FFF7FEFF 		bl	HAL_FLASH_EndOfOperationCallback
 431              	.L84:
 432 004a 0023     		movs	r3, #0
 433 004c 2370     		strb	r3, [r4]
 434              	.L80:
 435 004e 2378     		ldrb	r3, [r4]	@ zero_extendqisi2
 436 0050 03F0FF01 		and	r1, r3, #255
 437 0054 7BB9     		cbnz	r3, .L75
 438 0056 1B4B     		ldr	r3, .L96
 439 0058 1A69     		ldr	r2, [r3, #16]
 440 005a 22F40042 		bic	r2, r2, #32768
 441 005e 22F0FF02 		bic	r2, r2, #255
 442 0062 1A61     		str	r2, [r3, #16]
 443 0064 1A69     		ldr	r2, [r3, #16]
 444 0066 22F08072 		bic	r2, r2, #16777216
 445 006a 1A61     		str	r2, [r3, #16]
 446 006c 1A69     		ldr	r2, [r3, #16]
 447 006e 22F00072 		bic	r2, r2, #33554432
 448 0072 1A61     		str	r2, [r3, #16]
 449 0074 2176     		strb	r1, [r4, #24]
 450              	.L75:
 451 0076 38BD     		pop	{r3, r4, r5, pc}
 452              	.L94:
 453 0078 6368     		ldr	r3, [r4, #4]
 454 007a 013B     		subs	r3, r3, #1
 455 007c 6360     		str	r3, [r4, #4]
 456 007e 6368     		ldr	r3, [r4, #4]
 457 0080 ABB1     		cbz	r3, .L82
 458 0082 E068     		ldr	r0, [r4, #12]
 459 0084 FFF7FEFF 		bl	HAL_FLASH_EndOfOperationCallback
 460 0088 E368     		ldr	r3, [r4, #12]
 461 008a 0133     		adds	r3, r3, #1
 462 008c E360     		str	r3, [r4, #12]
 463 008e E068     		ldr	r0, [r4, #12]
 464 0090 217A     		ldrb	r1, [r4, #8]	@ zero_extendqisi2
 465 0092 FFF7FEFF 		bl	FLASH_Erase_Sector
 466 0096 DAE7     		b	.L80
 467              	.L93:
ARM GAS  D:\Programs\cygwin64\tmp\ccxA2i4l.s 			page 9


 468 0098 4FF0FF33 		mov	r3, #-1
 469 009c E568     		ldr	r5, [r4, #12]
 470 009e E360     		str	r3, [r4, #12]
 471 00a0 BDE7     		b	.L78
 472              	.L95:
 473 00a2 FFF7FEFF 		bl	FLASH_FlushCaches
 474 00a6 2069     		ldr	r0, [r4, #16]
 475 00a8 FFF7FEFF 		bl	HAL_FLASH_EndOfOperationCallback
 476 00ac CDE7     		b	.L84
 477              	.L82:
 478 00ae 4FF0FF35 		mov	r5, #-1
 479 00b2 E560     		str	r5, [r4, #12]
 480 00b4 2370     		strb	r3, [r4]
 481 00b6 FFF7FEFF 		bl	FLASH_FlushCaches
 482 00ba 2846     		mov	r0, r5
 483 00bc FFF7FEFF 		bl	HAL_FLASH_EndOfOperationCallback
 484 00c0 C5E7     		b	.L80
 485              	.L97:
 486 00c2 00BF     		.align	2
 487              	.L96:
 488 00c4 003C0240 		.word	1073888256
 489 00c8 00000000 		.word	pFlash
 491              		.section	.text.HAL_FLASH_Unlock,"ax",%progbits
 492              		.align	1
 493              		.p2align 2,,3
 494              		.global	HAL_FLASH_Unlock
 495              		.syntax unified
 496              		.thumb
 497              		.thumb_func
 498              		.fpu fpv4-sp-d16
 500              	HAL_FLASH_Unlock:
 501              		@ args = 0, pretend = 0, frame = 0
 502              		@ frame_needed = 0, uses_anonymous_args = 0
 503              		@ link register save eliminated.
 504 0000 064B     		ldr	r3, .L102
 505 0002 1A69     		ldr	r2, [r3, #16]
 506 0004 002A     		cmp	r2, #0
 507 0006 01DB     		blt	.L101
 508 0008 0020     		movs	r0, #0
 509 000a 7047     		bx	lr
 510              	.L101:
 511 000c 0449     		ldr	r1, .L102+4
 512 000e 054A     		ldr	r2, .L102+8
 513 0010 5960     		str	r1, [r3, #4]
 514 0012 5A60     		str	r2, [r3, #4]
 515 0014 1869     		ldr	r0, [r3, #16]
 516 0016 C00F     		lsrs	r0, r0, #31
 517 0018 7047     		bx	lr
 518              	.L103:
 519 001a 00BF     		.align	2
 520              	.L102:
 521 001c 003C0240 		.word	1073888256
 522 0020 23016745 		.word	1164378403
 523 0024 AB89EFCD 		.word	-839939669
 525              		.section	.text.HAL_FLASH_Lock,"ax",%progbits
 526              		.align	1
 527              		.p2align 2,,3
ARM GAS  D:\Programs\cygwin64\tmp\ccxA2i4l.s 			page 10


 528              		.global	HAL_FLASH_Lock
 529              		.syntax unified
 530              		.thumb
 531              		.thumb_func
 532              		.fpu fpv4-sp-d16
 534              	HAL_FLASH_Lock:
 535              		@ args = 0, pretend = 0, frame = 0
 536              		@ frame_needed = 0, uses_anonymous_args = 0
 537              		@ link register save eliminated.
 538 0000 034A     		ldr	r2, .L105
 539 0002 1369     		ldr	r3, [r2, #16]
 540 0004 43F00043 		orr	r3, r3, #-2147483648
 541 0008 1361     		str	r3, [r2, #16]
 542 000a 0020     		movs	r0, #0
 543 000c 7047     		bx	lr
 544              	.L106:
 545 000e 00BF     		.align	2
 546              	.L105:
 547 0010 003C0240 		.word	1073888256
 549              		.section	.text.HAL_FLASH_OB_Unlock,"ax",%progbits
 550              		.align	1
 551              		.p2align 2,,3
 552              		.global	HAL_FLASH_OB_Unlock
 553              		.syntax unified
 554              		.thumb
 555              		.thumb_func
 556              		.fpu fpv4-sp-d16
 558              	HAL_FLASH_OB_Unlock:
 559              		@ args = 0, pretend = 0, frame = 0
 560              		@ frame_needed = 0, uses_anonymous_args = 0
 561              		@ link register save eliminated.
 562 0000 054B     		ldr	r3, .L110
 563 0002 5A69     		ldr	r2, [r3, #20]
 564 0004 D207     		lsls	r2, r2, #31
 565 0006 05D5     		bpl	.L109
 566 0008 0449     		ldr	r1, .L110+4
 567 000a 054A     		ldr	r2, .L110+8
 568 000c 9960     		str	r1, [r3, #8]
 569 000e 0020     		movs	r0, #0
 570 0010 9A60     		str	r2, [r3, #8]
 571 0012 7047     		bx	lr
 572              	.L109:
 573 0014 0120     		movs	r0, #1
 574 0016 7047     		bx	lr
 575              	.L111:
 576              		.align	2
 577              	.L110:
 578 0018 003C0240 		.word	1073888256
 579 001c 3B2A1908 		.word	135866939
 580 0020 7F6E5D4C 		.word	1281191551
 582              		.section	.text.HAL_FLASH_OB_Lock,"ax",%progbits
 583              		.align	1
 584              		.p2align 2,,3
 585              		.global	HAL_FLASH_OB_Lock
 586              		.syntax unified
 587              		.thumb
 588              		.thumb_func
ARM GAS  D:\Programs\cygwin64\tmp\ccxA2i4l.s 			page 11


 589              		.fpu fpv4-sp-d16
 591              	HAL_FLASH_OB_Lock:
 592              		@ args = 0, pretend = 0, frame = 0
 593              		@ frame_needed = 0, uses_anonymous_args = 0
 594              		@ link register save eliminated.
 595 0000 034A     		ldr	r2, .L113
 596 0002 5369     		ldr	r3, [r2, #20]
 597 0004 43F00103 		orr	r3, r3, #1
 598 0008 5361     		str	r3, [r2, #20]
 599 000a 0020     		movs	r0, #0
 600 000c 7047     		bx	lr
 601              	.L114:
 602 000e 00BF     		.align	2
 603              	.L113:
 604 0010 003C0240 		.word	1073888256
 606              		.section	.text.HAL_FLASH_OB_Launch,"ax",%progbits
 607              		.align	1
 608              		.p2align 2,,3
 609              		.global	HAL_FLASH_OB_Launch
 610              		.syntax unified
 611              		.thumb
 612              		.thumb_func
 613              		.fpu fpv4-sp-d16
 615              	HAL_FLASH_OB_Launch:
 616              		@ args = 0, pretend = 0, frame = 0
 617              		@ frame_needed = 0, uses_anonymous_args = 0
 618 0000 70B5     		push	{r4, r5, r6, lr}
 619 0002 144A     		ldr	r2, .L127
 620 0004 1449     		ldr	r1, .L127+4
 621 0006 1378     		ldrb	r3, [r2]	@ zero_extendqisi2
 622 0008 144C     		ldr	r4, .L127+8
 623 000a 43F00203 		orr	r3, r3, #2
 624 000e 1370     		strb	r3, [r2]
 625 0010 0023     		movs	r3, #0
 626 0012 CB61     		str	r3, [r1, #28]
 627 0014 FFF7FEFF 		bl	HAL_GetTick
 628 0018 4CF25036 		movw	r6, #50000
 629 001c 0546     		mov	r5, r0
 630 001e 04E0     		b	.L116
 631              	.L118:
 632 0020 FFF7FEFF 		bl	HAL_GetTick
 633 0024 401B     		subs	r0, r0, r5
 634 0026 B042     		cmp	r0, r6
 635 0028 0DD8     		bhi	.L120
 636              	.L116:
 637 002a E368     		ldr	r3, [r4, #12]
 638 002c DA03     		lsls	r2, r3, #15
 639 002e F7D4     		bmi	.L118
 640 0030 E368     		ldr	r3, [r4, #12]
 641 0032 DB07     		lsls	r3, r3, #31
 642 0034 44BF     		itt	mi
 643 0036 0123     		movmi	r3, #1
 644 0038 E360     		strmi	r3, [r4, #12]
 645 003a 084B     		ldr	r3, .L127+8
 646 003c D868     		ldr	r0, [r3, #12]
 647 003e 10F4F970 		ands	r0, r0, #498
 648 0042 02D1     		bne	.L126
ARM GAS  D:\Programs\cygwin64\tmp\ccxA2i4l.s 			page 12


 649 0044 70BD     		pop	{r4, r5, r6, pc}
 650              	.L120:
 651 0046 0320     		movs	r0, #3
 652 0048 70BD     		pop	{r4, r5, r6, pc}
 653              	.L126:
 654 004a FFF7FEFF 		bl	FLASH_SetErrorCode
 655 004e 0120     		movs	r0, #1
 656 0050 70BD     		pop	{r4, r5, r6, pc}
 657              	.L128:
 658 0052 00BF     		.align	2
 659              	.L127:
 660 0054 143C0240 		.word	1073888276
 661 0058 00000000 		.word	pFlash
 662 005c 003C0240 		.word	1073888256
 664              		.section	.text.HAL_FLASH_GetError,"ax",%progbits
 665              		.align	1
 666              		.p2align 2,,3
 667              		.global	HAL_FLASH_GetError
 668              		.syntax unified
 669              		.thumb
 670              		.thumb_func
 671              		.fpu fpv4-sp-d16
 673              	HAL_FLASH_GetError:
 674              		@ args = 0, pretend = 0, frame = 0
 675              		@ frame_needed = 0, uses_anonymous_args = 0
 676              		@ link register save eliminated.
 677 0000 014B     		ldr	r3, .L130
 678 0002 D869     		ldr	r0, [r3, #28]
 679 0004 7047     		bx	lr
 680              	.L131:
 681 0006 00BF     		.align	2
 682              	.L130:
 683 0008 00000000 		.word	pFlash
 685              		.section	.text.FLASH_WaitForLastOperation,"ax",%progbits
 686              		.align	1
 687              		.p2align 2,,3
 688              		.global	FLASH_WaitForLastOperation
 689              		.syntax unified
 690              		.thumb
 691              		.thumb_func
 692              		.fpu fpv4-sp-d16
 694              	FLASH_WaitForLastOperation:
 695              		@ args = 0, pretend = 0, frame = 0
 696              		@ frame_needed = 0, uses_anonymous_args = 0
 697 0000 164B     		ldr	r3, .L155
 698 0002 70B5     		push	{r4, r5, r6, lr}
 699 0004 0022     		movs	r2, #0
 700 0006 0446     		mov	r4, r0
 701 0008 DA61     		str	r2, [r3, #28]
 702 000a FFF7FEFF 		bl	HAL_GetTick
 703 000e 631C     		adds	r3, r4, #1
 704 0010 0FD1     		bne	.L151
 705 0012 134A     		ldr	r2, .L155+4
 706              	.L133:
 707 0014 D368     		ldr	r3, [r2, #12]
 708 0016 D803     		lsls	r0, r3, #15
 709 0018 FCD4     		bmi	.L133
ARM GAS  D:\Programs\cygwin64\tmp\ccxA2i4l.s 			page 13


 710              	.L134:
 711 001a 114B     		ldr	r3, .L155+4
 712 001c DA68     		ldr	r2, [r3, #12]
 713 001e D207     		lsls	r2, r2, #31
 714 0020 44BF     		itt	mi
 715 0022 0122     		movmi	r2, #1
 716 0024 DA60     		strmi	r2, [r3, #12]
 717 0026 0E4B     		ldr	r3, .L155+4
 718 0028 D868     		ldr	r0, [r3, #12]
 719 002a 10F4F970 		ands	r0, r0, #498
 720 002e 0FD1     		bne	.L154
 721 0030 70BD     		pop	{r4, r5, r6, pc}
 722              	.L151:
 723 0032 0B4D     		ldr	r5, .L155+4
 724 0034 EA68     		ldr	r2, [r5, #12]
 725 0036 D603     		lsls	r6, r2, #15
 726 0038 EFD5     		bpl	.L134
 727 003a 0646     		mov	r6, r0
 728 003c 64B1     		cbz	r4, .L137
 729              	.L135:
 730 003e FFF7FEFF 		bl	HAL_GetTick
 731 0042 801B     		subs	r0, r0, r6
 732 0044 A042     		cmp	r0, r4
 733 0046 07D8     		bhi	.L137
 734 0048 EB68     		ldr	r3, [r5, #12]
 735 004a D903     		lsls	r1, r3, #15
 736 004c F7D4     		bmi	.L135
 737 004e E4E7     		b	.L134
 738              	.L154:
 739 0050 FFF7FEFF 		bl	FLASH_SetErrorCode
 740 0054 0120     		movs	r0, #1
 741 0056 70BD     		pop	{r4, r5, r6, pc}
 742              	.L137:
 743 0058 0320     		movs	r0, #3
 744 005a 70BD     		pop	{r4, r5, r6, pc}
 745              	.L156:
 746              		.align	2
 747              	.L155:
 748 005c 00000000 		.word	pFlash
 749 0060 003C0240 		.word	1073888256
 751              		.comm	pFlash,32,4
 752              		.ident	"GCC: (GNU Tools for Arm Embedded Processors 8-2018-q4-major) 8.2.1 20181213 (release) [gcc
ARM GAS  D:\Programs\cygwin64\tmp\ccxA2i4l.s 			page 14

