ARM GAS  D:\Programs\cygwin64\tmp\ccnP8CjY.s 			page 1


   1              		.cpu cortex-m4
   2              		.eabi_attribute 27, 1
   3              		.eabi_attribute 28, 1
   4              		.eabi_attribute 20, 1
   5              		.eabi_attribute 21, 1
   6              		.eabi_attribute 23, 3
   7              		.eabi_attribute 24, 1
   8              		.eabi_attribute 25, 1
   9              		.eabi_attribute 26, 1
  10              		.eabi_attribute 30, 2
  11              		.eabi_attribute 34, 1
  12              		.eabi_attribute 18, 4
  13              		.file	"stm32f429i_discovery_lcd.c"
  14              		.text
  15              		.section	.text.BSP_LCD_GetXSize,"ax",%progbits
  16              		.align	1
  17              		.p2align 2,,3
  18              		.global	BSP_LCD_GetXSize
  19              		.arch armv7e-m
  20              		.syntax unified
  21              		.thumb
  22              		.thumb_func
  23              		.fpu fpv4-sp-d16
  25              	BSP_LCD_GetXSize:
  26              		@ args = 0, pretend = 0, frame = 0
  27              		@ frame_needed = 0, uses_anonymous_args = 0
  28 0000 08B5     		push	{r3, lr}
  29 0002 024B     		ldr	r3, .L4
  30 0004 1B68     		ldr	r3, [r3]
  31 0006 9B6A     		ldr	r3, [r3, #40]
  32 0008 9847     		blx	r3
  33 000a 08BD     		pop	{r3, pc}
  34              	.L5:
  35              		.align	2
  36              	.L4:
  37 000c 00000000 		.word	LcdDrv
  39              		.section	.text.BSP_LCD_GetYSize,"ax",%progbits
  40              		.align	1
  41              		.p2align 2,,3
  42              		.global	BSP_LCD_GetYSize
  43              		.syntax unified
  44              		.thumb
  45              		.thumb_func
  46              		.fpu fpv4-sp-d16
  48              	BSP_LCD_GetYSize:
  49              		@ args = 0, pretend = 0, frame = 0
  50              		@ frame_needed = 0, uses_anonymous_args = 0
  51 0000 08B5     		push	{r3, lr}
  52 0002 024B     		ldr	r3, .L8
  53 0004 1B68     		ldr	r3, [r3]
  54 0006 DB6A     		ldr	r3, [r3, #44]
  55 0008 9847     		blx	r3
  56 000a 08BD     		pop	{r3, pc}
  57              	.L9:
  58              		.align	2
  59              	.L8:
  60 000c 00000000 		.word	LcdDrv
ARM GAS  D:\Programs\cygwin64\tmp\ccnP8CjY.s 			page 2


  62              		.section	.text.BSP_LCD_LayerDefaultInit,"ax",%progbits
  63              		.align	1
  64              		.p2align 2,,3
  65              		.global	BSP_LCD_LayerDefaultInit
  66              		.syntax unified
  67              		.thumb
  68              		.thumb_func
  69              		.fpu fpv4-sp-d16
  71              	BSP_LCD_LayerDefaultInit:
  72              		@ args = 0, pretend = 0, frame = 56
  73              		@ frame_needed = 0, uses_anonymous_args = 0
  74 0000 2DE9F041 		push	{r4, r5, r6, r7, r8, lr}
  75 0004 1F4E     		ldr	r6, .L12
  76 0006 204F     		ldr	r7, .L12+4
  77 0008 3368     		ldr	r3, [r6]
  78 000a 8EB0     		sub	sp, sp, #56
  79 000c 0025     		movs	r5, #0
  80 000e 0195     		str	r5, [sp, #4]
  81 0010 9B6A     		ldr	r3, [r3, #40]
  82 0012 8846     		mov	r8, r1
  83 0014 0446     		mov	r4, r0
  84 0016 9847     		blx	r3
  85 0018 3368     		ldr	r3, [r6]
  86 001a CDE90205 		strd	r0, r5, [sp, #8]
  87 001e DB6A     		ldr	r3, [r3, #44]
  88 0020 9847     		blx	r3
  89 0022 3368     		ldr	r3, [r6]
  90 0024 ADF83450 		strh	r5, [sp, #52]	@ movhi
  91 0028 FF22     		movs	r2, #255
  92 002a 8DF83650 		strb	r5, [sp, #54]
  93 002e 4FF4C061 		mov	r1, #1536
  94 0032 0692     		str	r2, [sp, #24]
  95 0034 0722     		movs	r2, #7
  96 0036 CDE90812 		strd	r1, r2, [sp, #32]
  97 003a 0595     		str	r5, [sp, #20]
  98 003c 0795     		str	r5, [sp, #28]
  99 003e CDF82880 		str	r8, [sp, #40]
 100 0042 0490     		str	r0, [sp, #16]
 101 0044 9B6A     		ldr	r3, [r3, #40]
 102 0046 9847     		blx	r3
 103 0048 3368     		ldr	r3, [r6]
 104 004a 0B90     		str	r0, [sp, #44]
 105 004c DB6A     		ldr	r3, [r3, #44]
 106 004e 9847     		blx	r3
 107 0050 2246     		mov	r2, r4
 108 0052 0C90     		str	r0, [sp, #48]
 109 0054 01A9     		add	r1, sp, #4
 110 0056 3846     		mov	r0, r7
 111 0058 04EB4404 		add	r4, r4, r4, lsl #1
 112 005c FFF7FEFF 		bl	HAL_LTDC_ConfigLayer
 113 0060 A400     		lsls	r4, r4, #2
 114 0062 0A4A     		ldr	r2, .L12+8
 115 0064 0A49     		ldr	r1, .L12+12
 116 0066 4FF07F45 		mov	r5, #-16777216
 117 006a 1319     		adds	r3, r2, r4
 118 006c 1551     		str	r5, [r2, r4]
 119 006e 4FF0FF32 		mov	r2, #-1
ARM GAS  D:\Programs\cygwin64\tmp\ccnP8CjY.s 			page 3


 120 0072 3846     		mov	r0, r7
 121 0074 C3E90121 		strd	r2, r1, [r3, #4]
 122 0078 FFF7FEFF 		bl	HAL_LTDC_EnableDither
 123 007c 0EB0     		add	sp, sp, #56
 124              		@ sp needed
 125 007e BDE8F081 		pop	{r4, r5, r6, r7, r8, pc}
 126              	.L13:
 127 0082 00BF     		.align	2
 128              	.L12:
 129 0084 00000000 		.word	LcdDrv
 130 0088 00000000 		.word	LtdcHandler
 131 008c 00000000 		.word	.LANCHOR0
 132 0090 00000000 		.word	.LANCHOR1
 134              		.section	.text.BSP_LCD_SelectLayer,"ax",%progbits
 135              		.align	1
 136              		.p2align 2,,3
 137              		.global	BSP_LCD_SelectLayer
 138              		.syntax unified
 139              		.thumb
 140              		.thumb_func
 141              		.fpu fpv4-sp-d16
 143              	BSP_LCD_SelectLayer:
 144              		@ args = 0, pretend = 0, frame = 0
 145              		@ frame_needed = 0, uses_anonymous_args = 0
 146              		@ link register save eliminated.
 147 0000 014B     		ldr	r3, .L15
 148 0002 1860     		str	r0, [r3]
 149 0004 7047     		bx	lr
 150              	.L16:
 151 0006 00BF     		.align	2
 152              	.L15:
 153 0008 00000000 		.word	.LANCHOR2
 155              		.section	.text.BSP_LCD_SetLayerVisible,"ax",%progbits
 156              		.align	1
 157              		.p2align 2,,3
 158              		.global	BSP_LCD_SetLayerVisible
 159              		.syntax unified
 160              		.thumb
 161              		.thumb_func
 162              		.fpu fpv4-sp-d16
 164              	BSP_LCD_SetLayerVisible:
 165              		@ args = 0, pretend = 0, frame = 0
 166              		@ frame_needed = 0, uses_anonymous_args = 0
 167              		@ link register save eliminated.
 168 0000 084B     		ldr	r3, .L20
 169 0002 1B68     		ldr	r3, [r3]
 170 0004 C001     		lsls	r0, r0, #7
 171 0006 03F18402 		add	r2, r3, #132
 172 000a 0129     		cmp	r1, #1
 173 000c 8158     		ldr	r1, [r0, r2]
 174 000e 0CBF     		ite	eq
 175 0010 41F00101 		orreq	r1, r1, #1
 176 0014 21F00101 		bicne	r1, r1, #1
 177 0018 8150     		str	r1, [r0, r2]
 178 001a 5A6A     		ldr	r2, [r3, #36]
 179 001c 42F00102 		orr	r2, r2, #1
 180 0020 5A62     		str	r2, [r3, #36]
ARM GAS  D:\Programs\cygwin64\tmp\ccnP8CjY.s 			page 4


 181 0022 7047     		bx	lr
 182              	.L21:
 183              		.align	2
 184              	.L20:
 185 0024 00000000 		.word	LtdcHandler
 187              		.section	.text.BSP_LCD_SetLayerVisible_NoReload,"ax",%progbits
 188              		.align	1
 189              		.p2align 2,,3
 190              		.global	BSP_LCD_SetLayerVisible_NoReload
 191              		.syntax unified
 192              		.thumb
 193              		.thumb_func
 194              		.fpu fpv4-sp-d16
 196              	BSP_LCD_SetLayerVisible_NoReload:
 197              		@ args = 0, pretend = 0, frame = 0
 198              		@ frame_needed = 0, uses_anonymous_args = 0
 199              		@ link register save eliminated.
 200 0000 064B     		ldr	r3, .L25
 201 0002 1B68     		ldr	r3, [r3]
 202 0004 C001     		lsls	r0, r0, #7
 203 0006 8433     		adds	r3, r3, #132
 204 0008 0129     		cmp	r1, #1
 205 000a 1A58     		ldr	r2, [r3, r0]
 206 000c 0CBF     		ite	eq
 207 000e 42F00102 		orreq	r2, r2, #1
 208 0012 22F00102 		bicne	r2, r2, #1
 209 0016 1A50     		str	r2, [r3, r0]
 210 0018 7047     		bx	lr
 211              	.L26:
 212 001a 00BF     		.align	2
 213              	.L25:
 214 001c 00000000 		.word	LtdcHandler
 216              		.section	.text.BSP_LCD_SetTransparency,"ax",%progbits
 217              		.align	1
 218              		.p2align 2,,3
 219              		.global	BSP_LCD_SetTransparency
 220              		.syntax unified
 221              		.thumb
 222              		.thumb_func
 223              		.fpu fpv4-sp-d16
 225              	BSP_LCD_SetTransparency:
 226              		@ args = 0, pretend = 0, frame = 0
 227              		@ frame_needed = 0, uses_anonymous_args = 0
 228              		@ link register save eliminated.
 229 0000 0246     		mov	r2, r0
 230 0002 0148     		ldr	r0, .L28
 231 0004 FFF7FEBF 		b	HAL_LTDC_SetAlpha
 232              	.L29:
 233              		.align	2
 234              	.L28:
 235 0008 00000000 		.word	LtdcHandler
 237              		.section	.text.BSP_LCD_SetTransparency_NoReload,"ax",%progbits
 238              		.align	1
 239              		.p2align 2,,3
 240              		.global	BSP_LCD_SetTransparency_NoReload
 241              		.syntax unified
 242              		.thumb
ARM GAS  D:\Programs\cygwin64\tmp\ccnP8CjY.s 			page 5


 243              		.thumb_func
 244              		.fpu fpv4-sp-d16
 246              	BSP_LCD_SetTransparency_NoReload:
 247              		@ args = 0, pretend = 0, frame = 0
 248              		@ frame_needed = 0, uses_anonymous_args = 0
 249              		@ link register save eliminated.
 250 0000 0246     		mov	r2, r0
 251 0002 0148     		ldr	r0, .L31
 252 0004 FFF7FEBF 		b	HAL_LTDC_SetAlpha_NoReload
 253              	.L32:
 254              		.align	2
 255              	.L31:
 256 0008 00000000 		.word	LtdcHandler
 258              		.section	.text.BSP_LCD_SetLayerAddress,"ax",%progbits
 259              		.align	1
 260              		.p2align 2,,3
 261              		.global	BSP_LCD_SetLayerAddress
 262              		.syntax unified
 263              		.thumb
 264              		.thumb_func
 265              		.fpu fpv4-sp-d16
 267              	BSP_LCD_SetLayerAddress:
 268              		@ args = 0, pretend = 0, frame = 0
 269              		@ frame_needed = 0, uses_anonymous_args = 0
 270              		@ link register save eliminated.
 271 0000 0246     		mov	r2, r0
 272 0002 0148     		ldr	r0, .L34
 273 0004 FFF7FEBF 		b	HAL_LTDC_SetAddress
 274              	.L35:
 275              		.align	2
 276              	.L34:
 277 0008 00000000 		.word	LtdcHandler
 279              		.section	.text.BSP_LCD_SetLayerAddress_NoReload,"ax",%progbits
 280              		.align	1
 281              		.p2align 2,,3
 282              		.global	BSP_LCD_SetLayerAddress_NoReload
 283              		.syntax unified
 284              		.thumb
 285              		.thumb_func
 286              		.fpu fpv4-sp-d16
 288              	BSP_LCD_SetLayerAddress_NoReload:
 289              		@ args = 0, pretend = 0, frame = 0
 290              		@ frame_needed = 0, uses_anonymous_args = 0
 291              		@ link register save eliminated.
 292 0000 0246     		mov	r2, r0
 293 0002 0148     		ldr	r0, .L37
 294 0004 FFF7FEBF 		b	HAL_LTDC_SetAddress_NoReload
 295              	.L38:
 296              		.align	2
 297              	.L37:
 298 0008 00000000 		.word	LtdcHandler
 300              		.section	.text.BSP_LCD_SetLayerWindow,"ax",%progbits
 301              		.align	1
 302              		.p2align 2,,3
 303              		.global	BSP_LCD_SetLayerWindow
 304              		.syntax unified
 305              		.thumb
ARM GAS  D:\Programs\cygwin64\tmp\ccnP8CjY.s 			page 6


 306              		.thumb_func
 307              		.fpu fpv4-sp-d16
 309              	BSP_LCD_SetLayerWindow:
 310              		@ args = 4, pretend = 0, frame = 0
 311              		@ frame_needed = 0, uses_anonymous_args = 0
 312 0000 2DE9F041 		push	{r4, r5, r6, r7, r8, lr}
 313 0004 094C     		ldr	r4, .L41
 314 0006 0546     		mov	r5, r0
 315 0008 0E46     		mov	r6, r1
 316 000a 1746     		mov	r7, r2
 317 000c 1946     		mov	r1, r3
 318 000e BDF81820 		ldrh	r2, [sp, #24]
 319 0012 0346     		mov	r3, r0
 320 0014 2046     		mov	r0, r4
 321 0016 FFF7FEFF 		bl	HAL_LTDC_SetWindowSize
 322 001a 2B46     		mov	r3, r5
 323 001c 3A46     		mov	r2, r7
 324 001e 3146     		mov	r1, r6
 325 0020 2046     		mov	r0, r4
 326 0022 BDE8F041 		pop	{r4, r5, r6, r7, r8, lr}
 327 0026 FFF7FEBF 		b	HAL_LTDC_SetWindowPosition
 328              	.L42:
 329 002a 00BF     		.align	2
 330              	.L41:
 331 002c 00000000 		.word	LtdcHandler
 333              		.section	.text.BSP_LCD_SetLayerWindow_NoReload,"ax",%progbits
 334              		.align	1
 335              		.p2align 2,,3
 336              		.global	BSP_LCD_SetLayerWindow_NoReload
 337              		.syntax unified
 338              		.thumb
 339              		.thumb_func
 340              		.fpu fpv4-sp-d16
 342              	BSP_LCD_SetLayerWindow_NoReload:
 343              		@ args = 4, pretend = 0, frame = 0
 344              		@ frame_needed = 0, uses_anonymous_args = 0
 345 0000 2DE9F041 		push	{r4, r5, r6, r7, r8, lr}
 346 0004 094C     		ldr	r4, .L45
 347 0006 0546     		mov	r5, r0
 348 0008 0E46     		mov	r6, r1
 349 000a 1746     		mov	r7, r2
 350 000c 1946     		mov	r1, r3
 351 000e BDF81820 		ldrh	r2, [sp, #24]
 352 0012 0346     		mov	r3, r0
 353 0014 2046     		mov	r0, r4
 354 0016 FFF7FEFF 		bl	HAL_LTDC_SetWindowSize_NoReload
 355 001a 2B46     		mov	r3, r5
 356 001c 3A46     		mov	r2, r7
 357 001e 3146     		mov	r1, r6
 358 0020 2046     		mov	r0, r4
 359 0022 BDE8F041 		pop	{r4, r5, r6, r7, r8, lr}
 360 0026 FFF7FEBF 		b	HAL_LTDC_SetWindowPosition_NoReload
 361              	.L46:
 362 002a 00BF     		.align	2
 363              	.L45:
 364 002c 00000000 		.word	LtdcHandler
 366              		.section	.text.BSP_LCD_SetColorKeying,"ax",%progbits
ARM GAS  D:\Programs\cygwin64\tmp\ccnP8CjY.s 			page 7


 367              		.align	1
 368              		.p2align 2,,3
 369              		.global	BSP_LCD_SetColorKeying
 370              		.syntax unified
 371              		.thumb
 372              		.thumb_func
 373              		.fpu fpv4-sp-d16
 375              	BSP_LCD_SetColorKeying:
 376              		@ args = 0, pretend = 0, frame = 0
 377              		@ frame_needed = 0, uses_anonymous_args = 0
 378 0000 38B5     		push	{r3, r4, r5, lr}
 379 0002 064C     		ldr	r4, .L49
 380 0004 0546     		mov	r5, r0
 381 0006 0246     		mov	r2, r0
 382 0008 2046     		mov	r0, r4
 383 000a FFF7FEFF 		bl	HAL_LTDC_ConfigColorKeying
 384 000e 2946     		mov	r1, r5
 385 0010 2046     		mov	r0, r4
 386 0012 BDE83840 		pop	{r3, r4, r5, lr}
 387 0016 FFF7FEBF 		b	HAL_LTDC_EnableColorKeying
 388              	.L50:
 389 001a 00BF     		.align	2
 390              	.L49:
 391 001c 00000000 		.word	LtdcHandler
 393              		.section	.text.BSP_LCD_SetColorKeying_NoReload,"ax",%progbits
 394              		.align	1
 395              		.p2align 2,,3
 396              		.global	BSP_LCD_SetColorKeying_NoReload
 397              		.syntax unified
 398              		.thumb
 399              		.thumb_func
 400              		.fpu fpv4-sp-d16
 402              	BSP_LCD_SetColorKeying_NoReload:
 403              		@ args = 0, pretend = 0, frame = 0
 404              		@ frame_needed = 0, uses_anonymous_args = 0
 405 0000 38B5     		push	{r3, r4, r5, lr}
 406 0002 064C     		ldr	r4, .L53
 407 0004 0546     		mov	r5, r0
 408 0006 0246     		mov	r2, r0
 409 0008 2046     		mov	r0, r4
 410 000a FFF7FEFF 		bl	HAL_LTDC_ConfigColorKeying_NoReload
 411 000e 2946     		mov	r1, r5
 412 0010 2046     		mov	r0, r4
 413 0012 BDE83840 		pop	{r3, r4, r5, lr}
 414 0016 FFF7FEBF 		b	HAL_LTDC_EnableColorKeying_NoReload
 415              	.L54:
 416 001a 00BF     		.align	2
 417              	.L53:
 418 001c 00000000 		.word	LtdcHandler
 420              		.section	.text.BSP_LCD_ResetColorKeying,"ax",%progbits
 421              		.align	1
 422              		.p2align 2,,3
 423              		.global	BSP_LCD_ResetColorKeying
 424              		.syntax unified
 425              		.thumb
 426              		.thumb_func
 427              		.fpu fpv4-sp-d16
ARM GAS  D:\Programs\cygwin64\tmp\ccnP8CjY.s 			page 8


 429              	BSP_LCD_ResetColorKeying:
 430              		@ args = 0, pretend = 0, frame = 0
 431              		@ frame_needed = 0, uses_anonymous_args = 0
 432              		@ link register save eliminated.
 433 0000 0146     		mov	r1, r0
 434 0002 0148     		ldr	r0, .L56
 435 0004 FFF7FEBF 		b	HAL_LTDC_DisableColorKeying
 436              	.L57:
 437              		.align	2
 438              	.L56:
 439 0008 00000000 		.word	LtdcHandler
 441              		.section	.text.BSP_LCD_ResetColorKeying_NoReload,"ax",%progbits
 442              		.align	1
 443              		.p2align 2,,3
 444              		.global	BSP_LCD_ResetColorKeying_NoReload
 445              		.syntax unified
 446              		.thumb
 447              		.thumb_func
 448              		.fpu fpv4-sp-d16
 450              	BSP_LCD_ResetColorKeying_NoReload:
 451              		@ args = 0, pretend = 0, frame = 0
 452              		@ frame_needed = 0, uses_anonymous_args = 0
 453              		@ link register save eliminated.
 454 0000 0146     		mov	r1, r0
 455 0002 0148     		ldr	r0, .L59
 456 0004 FFF7FEBF 		b	HAL_LTDC_DisableColorKeying_NoReload
 457              	.L60:
 458              		.align	2
 459              	.L59:
 460 0008 00000000 		.word	LtdcHandler
 462              		.section	.text.BSP_LCD_Relaod,"ax",%progbits
 463              		.align	1
 464              		.p2align 2,,3
 465              		.global	BSP_LCD_Relaod
 466              		.syntax unified
 467              		.thumb
 468              		.thumb_func
 469              		.fpu fpv4-sp-d16
 471              	BSP_LCD_Relaod:
 472              		@ args = 0, pretend = 0, frame = 0
 473              		@ frame_needed = 0, uses_anonymous_args = 0
 474              		@ link register save eliminated.
 475 0000 0146     		mov	r1, r0
 476 0002 0148     		ldr	r0, .L62
 477 0004 FFF7FEBF 		b	HAL_LTDC_Reload
 478              	.L63:
 479              		.align	2
 480              	.L62:
 481 0008 00000000 		.word	LtdcHandler
 483              		.section	.text.BSP_LCD_GetTextColor,"ax",%progbits
 484              		.align	1
 485              		.p2align 2,,3
 486              		.global	BSP_LCD_GetTextColor
 487              		.syntax unified
 488              		.thumb
 489              		.thumb_func
 490              		.fpu fpv4-sp-d16
ARM GAS  D:\Programs\cygwin64\tmp\ccnP8CjY.s 			page 9


 492              	BSP_LCD_GetTextColor:
 493              		@ args = 0, pretend = 0, frame = 0
 494              		@ frame_needed = 0, uses_anonymous_args = 0
 495              		@ link register save eliminated.
 496 0000 034B     		ldr	r3, .L65
 497 0002 044A     		ldr	r2, .L65+4
 498 0004 1B68     		ldr	r3, [r3]
 499 0006 03EB4303 		add	r3, r3, r3, lsl #1
 500 000a 52F82300 		ldr	r0, [r2, r3, lsl #2]
 501 000e 7047     		bx	lr
 502              	.L66:
 503              		.align	2
 504              	.L65:
 505 0010 00000000 		.word	.LANCHOR2
 506 0014 00000000 		.word	.LANCHOR0
 508              		.section	.text.BSP_LCD_GetBackColor,"ax",%progbits
 509              		.align	1
 510              		.p2align 2,,3
 511              		.global	BSP_LCD_GetBackColor
 512              		.syntax unified
 513              		.thumb
 514              		.thumb_func
 515              		.fpu fpv4-sp-d16
 517              	BSP_LCD_GetBackColor:
 518              		@ args = 0, pretend = 0, frame = 0
 519              		@ frame_needed = 0, uses_anonymous_args = 0
 520              		@ link register save eliminated.
 521 0000 044B     		ldr	r3, .L68
 522 0002 054A     		ldr	r2, .L68+4
 523 0004 1B68     		ldr	r3, [r3]
 524 0006 03EB4303 		add	r3, r3, r3, lsl #1
 525 000a 02EB8303 		add	r3, r2, r3, lsl #2
 526 000e 5868     		ldr	r0, [r3, #4]
 527 0010 7047     		bx	lr
 528              	.L69:
 529 0012 00BF     		.align	2
 530              	.L68:
 531 0014 00000000 		.word	.LANCHOR2
 532 0018 00000000 		.word	.LANCHOR0
 534              		.section	.text.BSP_LCD_SetTextColor,"ax",%progbits
 535              		.align	1
 536              		.p2align 2,,3
 537              		.global	BSP_LCD_SetTextColor
 538              		.syntax unified
 539              		.thumb
 540              		.thumb_func
 541              		.fpu fpv4-sp-d16
 543              	BSP_LCD_SetTextColor:
 544              		@ args = 0, pretend = 0, frame = 0
 545              		@ frame_needed = 0, uses_anonymous_args = 0
 546              		@ link register save eliminated.
 547 0000 034B     		ldr	r3, .L71
 548 0002 044A     		ldr	r2, .L71+4
 549 0004 1B68     		ldr	r3, [r3]
 550 0006 03EB4303 		add	r3, r3, r3, lsl #1
 551 000a 42F82300 		str	r0, [r2, r3, lsl #2]
 552 000e 7047     		bx	lr
ARM GAS  D:\Programs\cygwin64\tmp\ccnP8CjY.s 			page 10


 553              	.L72:
 554              		.align	2
 555              	.L71:
 556 0010 00000000 		.word	.LANCHOR2
 557 0014 00000000 		.word	.LANCHOR0
 559              		.section	.text.BSP_LCD_SetBackColor,"ax",%progbits
 560              		.align	1
 561              		.p2align 2,,3
 562              		.global	BSP_LCD_SetBackColor
 563              		.syntax unified
 564              		.thumb
 565              		.thumb_func
 566              		.fpu fpv4-sp-d16
 568              	BSP_LCD_SetBackColor:
 569              		@ args = 0, pretend = 0, frame = 0
 570              		@ frame_needed = 0, uses_anonymous_args = 0
 571              		@ link register save eliminated.
 572 0000 044B     		ldr	r3, .L74
 573 0002 054A     		ldr	r2, .L74+4
 574 0004 1B68     		ldr	r3, [r3]
 575 0006 03EB4303 		add	r3, r3, r3, lsl #1
 576 000a 02EB8303 		add	r3, r2, r3, lsl #2
 577 000e 5860     		str	r0, [r3, #4]
 578 0010 7047     		bx	lr
 579              	.L75:
 580 0012 00BF     		.align	2
 581              	.L74:
 582 0014 00000000 		.word	.LANCHOR2
 583 0018 00000000 		.word	.LANCHOR0
 585              		.section	.text.BSP_LCD_SetFont,"ax",%progbits
 586              		.align	1
 587              		.p2align 2,,3
 588              		.global	BSP_LCD_SetFont
 589              		.syntax unified
 590              		.thumb
 591              		.thumb_func
 592              		.fpu fpv4-sp-d16
 594              	BSP_LCD_SetFont:
 595              		@ args = 0, pretend = 0, frame = 0
 596              		@ frame_needed = 0, uses_anonymous_args = 0
 597              		@ link register save eliminated.
 598 0000 044B     		ldr	r3, .L77
 599 0002 054A     		ldr	r2, .L77+4
 600 0004 1B68     		ldr	r3, [r3]
 601 0006 03EB4303 		add	r3, r3, r3, lsl #1
 602 000a 02EB8303 		add	r3, r2, r3, lsl #2
 603 000e 9860     		str	r0, [r3, #8]
 604 0010 7047     		bx	lr
 605              	.L78:
 606 0012 00BF     		.align	2
 607              	.L77:
 608 0014 00000000 		.word	.LANCHOR2
 609 0018 00000000 		.word	.LANCHOR0
 611              		.section	.text.BSP_LCD_GetFont,"ax",%progbits
 612              		.align	1
 613              		.p2align 2,,3
 614              		.global	BSP_LCD_GetFont
ARM GAS  D:\Programs\cygwin64\tmp\ccnP8CjY.s 			page 11


 615              		.syntax unified
 616              		.thumb
 617              		.thumb_func
 618              		.fpu fpv4-sp-d16
 620              	BSP_LCD_GetFont:
 621              		@ args = 0, pretend = 0, frame = 0
 622              		@ frame_needed = 0, uses_anonymous_args = 0
 623              		@ link register save eliminated.
 624 0000 044B     		ldr	r3, .L80
 625 0002 054A     		ldr	r2, .L80+4
 626 0004 1B68     		ldr	r3, [r3]
 627 0006 03EB4303 		add	r3, r3, r3, lsl #1
 628 000a 02EB8303 		add	r3, r2, r3, lsl #2
 629 000e 9868     		ldr	r0, [r3, #8]
 630 0010 7047     		bx	lr
 631              	.L81:
 632 0012 00BF     		.align	2
 633              	.L80:
 634 0014 00000000 		.word	.LANCHOR2
 635 0018 00000000 		.word	.LANCHOR0
 637              		.section	.text.BSP_LCD_ReadPixel,"ax",%progbits
 638              		.align	1
 639              		.p2align 2,,3
 640              		.global	BSP_LCD_ReadPixel
 641              		.syntax unified
 642              		.thumb
 643              		.thumb_func
 644              		.fpu fpv4-sp-d16
 646              	BSP_LCD_ReadPixel:
 647              		@ args = 0, pretend = 0, frame = 0
 648              		@ frame_needed = 0, uses_anonymous_args = 0
 649 0000 194B     		ldr	r3, .L89
 650 0002 1A4A     		ldr	r2, .L89+4
 651 0004 1B68     		ldr	r3, [r3]
 652 0006 70B5     		push	{r4, r5, r6, lr}
 653 0008 194C     		ldr	r4, .L89+8
 654 000a 3425     		movs	r5, #52
 655 000c 05FB0343 		mla	r3, r5, r3, r4
 656 0010 1468     		ldr	r4, [r2]
 657 0012 9A6C     		ldr	r2, [r3, #72]
 658 0014 DD6D     		ldr	r5, [r3, #92]
 659 0016 A36A     		ldr	r3, [r4, #40]
 660 0018 0646     		mov	r6, r0
 661 001a 0C46     		mov	r4, r1
 662 001c 2AB9     		cbnz	r2, .L83
 663 001e 9847     		blx	r3
 664 0020 04FB0060 		mla	r0, r4, r0, r6
 665 0024 55F82000 		ldr	r0, [r5, r0, lsl #2]
 666 0028 70BD     		pop	{r4, r5, r6, pc}
 667              	.L83:
 668 002a 012A     		cmp	r2, #1
 669 002c 14D0     		beq	.L88
 670 002e 072A     		cmp	r2, #7
 671 0030 0BD8     		bhi	.L86
 672 0032 9421     		movs	r1, #148
 673 0034 21FA02F2 		lsr	r2, r1, r2
 674 0038 D207     		lsls	r2, r2, #31
ARM GAS  D:\Programs\cygwin64\tmp\ccnP8CjY.s 			page 12


 675 003a 06D5     		bpl	.L86
 676 003c 9847     		blx	r3
 677 003e 04FB0060 		mla	r0, r4, r0, r6
 678 0042 35F81000 		ldrh	r0, [r5, r0, lsl #1]
 679 0046 80B2     		uxth	r0, r0
 680 0048 70BD     		pop	{r4, r5, r6, pc}
 681              	.L86:
 682 004a 9847     		blx	r3
 683 004c 04FB0060 		mla	r0, r4, r0, r6
 684 0050 15F81000 		ldrb	r0, [r5, r0, lsl #1]	@ zero_extendqisi2
 685 0054 C0B2     		uxtb	r0, r0
 686 0056 70BD     		pop	{r4, r5, r6, pc}
 687              	.L88:
 688 0058 9847     		blx	r3
 689 005a 04FB0060 		mla	r0, r4, r0, r6
 690 005e 55F82000 		ldr	r0, [r5, r0, lsl #2]
 691 0062 20F07F40 		bic	r0, r0, #-16777216
 692 0066 70BD     		pop	{r4, r5, r6, pc}
 693              	.L90:
 694              		.align	2
 695              	.L89:
 696 0068 00000000 		.word	.LANCHOR2
 697 006c 00000000 		.word	LcdDrv
 698 0070 00000000 		.word	LtdcHandler
 700              		.section	.text.BSP_LCD_Clear,"ax",%progbits
 701              		.align	1
 702              		.p2align 2,,3
 703              		.global	BSP_LCD_Clear
 704              		.syntax unified
 705              		.thumb
 706              		.thumb_func
 707              		.fpu fpv4-sp-d16
 709              	BSP_LCD_Clear:
 710              		@ args = 0, pretend = 0, frame = 0
 711              		@ frame_needed = 0, uses_anonymous_args = 0
 712 0000 2DE9F043 		push	{r4, r5, r6, r7, r8, r9, lr}
 713 0004 1C4B     		ldr	r3, .L97
 714 0006 1D4D     		ldr	r5, .L97+4
 715 0008 1E68     		ldr	r6, [r3]
 716 000a 2B68     		ldr	r3, [r5]
 717 000c 1C49     		ldr	r1, .L97+8
 718 000e 9A6A     		ldr	r2, [r3, #40]
 719 0010 1C4C     		ldr	r4, .L97+12
 720 0012 3423     		movs	r3, #52
 721 0014 03FB0613 		mla	r3, r3, r6, r1
 722 0018 83B0     		sub	sp, sp, #12
 723 001a D3F85C80 		ldr	r8, [r3, #92]
 724 001e 0746     		mov	r7, r0
 725 0020 9047     		blx	r2
 726 0022 2B68     		ldr	r3, [r5]
 727 0024 DB6A     		ldr	r3, [r3, #44]
 728 0026 8146     		mov	r9, r0
 729 0028 9847     		blx	r3
 730 002a 4FF44033 		mov	r3, #196608
 731 002e 0546     		mov	r5, r0
 732 0030 154A     		ldr	r2, .L97+16
 733 0032 6360     		str	r3, [r4, #4]
ARM GAS  D:\Programs\cygwin64\tmp\ccnP8CjY.s 			page 13


 734 0034 2046     		mov	r0, r4
 735 0036 0023     		movs	r3, #0
 736 0038 2260     		str	r2, [r4]
 737 003a C4E90233 		strd	r3, r3, [r4, #8]
 738 003e FFF7FEFF 		bl	HAL_DMA2D_Init
 739 0042 10B1     		cbz	r0, .L96
 740              	.L91:
 741 0044 03B0     		add	sp, sp, #12
 742              		@ sp needed
 743 0046 BDE8F083 		pop	{r4, r5, r6, r7, r8, r9, pc}
 744              	.L96:
 745 004a 3146     		mov	r1, r6
 746 004c 2046     		mov	r0, r4
 747 004e FFF7FEFF 		bl	HAL_DMA2D_ConfigLayer
 748 0052 0028     		cmp	r0, #0
 749 0054 F6D1     		bne	.L91
 750 0056 0095     		str	r5, [sp]
 751 0058 4B46     		mov	r3, r9
 752 005a 4246     		mov	r2, r8
 753 005c 3946     		mov	r1, r7
 754 005e 2046     		mov	r0, r4
 755 0060 FFF7FEFF 		bl	HAL_DMA2D_Start
 756 0064 0028     		cmp	r0, #0
 757 0066 EDD1     		bne	.L91
 758 0068 2046     		mov	r0, r4
 759 006a 0A21     		movs	r1, #10
 760 006c 03B0     		add	sp, sp, #12
 761              		@ sp needed
 762 006e BDE8F043 		pop	{r4, r5, r6, r7, r8, r9, lr}
 763 0072 FFF7FEBF 		b	HAL_DMA2D_PollForTransfer
 764              	.L98:
 765 0076 00BF     		.align	2
 766              	.L97:
 767 0078 00000000 		.word	.LANCHOR2
 768 007c 00000000 		.word	LcdDrv
 769 0080 00000000 		.word	LtdcHandler
 770 0084 00000000 		.word	.LANCHOR3
 771 0088 00B00240 		.word	1073917952
 773              		.section	.text.BSP_LCD_ClearStringLine,"ax",%progbits
 774              		.align	1
 775              		.p2align 2,,3
 776              		.global	BSP_LCD_ClearStringLine
 777              		.syntax unified
 778              		.thumb
 779              		.thumb_func
 780              		.fpu fpv4-sp-d16
 782              	BSP_LCD_ClearStringLine:
 783              		@ args = 0, pretend = 0, frame = 16
 784              		@ frame_needed = 0, uses_anonymous_args = 0
 785 0000 2DE9F04F 		push	{r4, r5, r6, r7, r8, r9, r10, fp, lr}
 786 0004 354E     		ldr	r6, .L105
 787 0006 364C     		ldr	r4, .L105+4
 788 0008 3368     		ldr	r3, [r6]
 789 000a DFF8E4A0 		ldr	r10, .L105+20
 790 000e 354D     		ldr	r5, .L105+8
 791 0010 DAF80020 		ldr	r2, [r10]
 792 0014 03EB4303 		add	r3, r3, r3, lsl #1
ARM GAS  D:\Programs\cygwin64\tmp\ccnP8CjY.s 			page 14


 793 0018 9B00     		lsls	r3, r3, #2
 794 001a E118     		adds	r1, r4, r3
 795 001c D1E90117 		ldrd	r1, r7, [r1, #4]
 796 0020 87B0     		sub	sp, sp, #28
 797 0022 FF88     		ldrh	r7, [r7, #6]
 798 0024 926A     		ldr	r2, [r2, #40]
 799 0026 54F80380 		ldr	r8, [r4, r3]
 800 002a 0297     		str	r7, [sp, #8]
 801 002c E150     		str	r1, [r4, r3]
 802 002e 8146     		mov	r9, r0
 803 0030 9047     		blx	r2
 804 0032 3368     		ldr	r3, [r6]
 805 0034 DAF80020 		ldr	r2, [r10]
 806 0038 03EB4301 		add	r1, r3, r3, lsl #1
 807 003c 0746     		mov	r7, r0
 808 003e 04EB8101 		add	r1, r4, r1, lsl #2
 809 0042 2948     		ldr	r0, .L105+12
 810 0044 8968     		ldr	r1, [r1, #8]
 811 0046 926A     		ldr	r2, [r2, #40]
 812 0048 C988     		ldrh	r1, [r1, #6]
 813 004a 0391     		str	r1, [sp, #12]
 814 004c 4FF0340C 		mov	ip, #52
 815 0050 0CFB0303 		mla	r3, ip, r3, r0
 816 0054 DB6D     		ldr	r3, [r3, #92]
 817 0056 0493     		str	r3, [sp, #16]
 818 0058 9047     		blx	r2
 819 005a DAF80030 		ldr	r3, [r10]
 820 005e D6F800A0 		ldr	r10, [r6]
 821 0062 9B6A     		ldr	r3, [r3, #40]
 822 0064 8346     		mov	fp, r0
 823 0066 9847     		blx	r3
 824 0068 3368     		ldr	r3, [r6]
 825 006a 204A     		ldr	r2, .L105+16
 826 006c 2A60     		str	r2, [r5]
 827 006e 03EB4303 		add	r3, r3, r3, lsl #1
 828 0072 C01B     		subs	r0, r0, r7
 829 0074 4FF44031 		mov	r1, #196608
 830 0078 E860     		str	r0, [r5, #12]
 831 007a 0022     		movs	r2, #0
 832 007c 54F82330 		ldr	r3, [r4, r3, lsl #2]
 833 0080 6960     		str	r1, [r5, #4]
 834 0082 2846     		mov	r0, r5
 835 0084 AA60     		str	r2, [r5, #8]
 836 0086 0593     		str	r3, [sp, #20]
 837 0088 FFF7FEFF 		bl	HAL_DMA2D_Init
 838 008c 38B1     		cbz	r0, .L104
 839              	.L101:
 840 008e 3368     		ldr	r3, [r6]
 841 0090 03EB4303 		add	r3, r3, r3, lsl #1
 842 0094 44F82380 		str	r8, [r4, r3, lsl #2]
 843 0098 07B0     		add	sp, sp, #28
 844              		@ sp needed
 845 009a BDE8F08F 		pop	{r4, r5, r6, r7, r8, r9, r10, fp, pc}
 846              	.L104:
 847 009e 5146     		mov	r1, r10
 848 00a0 2846     		mov	r0, r5
 849 00a2 FFF7FEFF 		bl	HAL_DMA2D_ConfigLayer
ARM GAS  D:\Programs\cygwin64\tmp\ccnP8CjY.s 			page 15


 850 00a6 0028     		cmp	r0, #0
 851 00a8 F1D1     		bne	.L101
 852 00aa 029B     		ldr	r3, [sp, #8]
 853 00ac 0599     		ldr	r1, [sp, #20]
 854 00ae 19FB03F9 		smulbb	r9, r9, r3
 855 00b2 1FFA89F2 		uxth	r2, r9
 856 00b6 049B     		ldr	r3, [sp, #16]
 857 00b8 0BFB02F2 		mul	r2, fp, r2
 858 00bc 03EB8202 		add	r2, r3, r2, lsl #2
 859 00c0 039B     		ldr	r3, [sp, #12]
 860 00c2 0093     		str	r3, [sp]
 861 00c4 2846     		mov	r0, r5
 862 00c6 3B46     		mov	r3, r7
 863 00c8 FFF7FEFF 		bl	HAL_DMA2D_Start
 864 00cc 0028     		cmp	r0, #0
 865 00ce DED1     		bne	.L101
 866 00d0 2846     		mov	r0, r5
 867 00d2 0A21     		movs	r1, #10
 868 00d4 FFF7FEFF 		bl	HAL_DMA2D_PollForTransfer
 869 00d8 D9E7     		b	.L101
 870              	.L106:
 871 00da 00BF     		.align	2
 872              	.L105:
 873 00dc 00000000 		.word	.LANCHOR2
 874 00e0 00000000 		.word	.LANCHOR0
 875 00e4 00000000 		.word	.LANCHOR3
 876 00e8 00000000 		.word	LtdcHandler
 877 00ec 00B00240 		.word	1073917952
 878 00f0 00000000 		.word	LcdDrv
 880              		.section	.text.BSP_LCD_DisplayChar,"ax",%progbits
 881              		.align	1
 882              		.p2align 2,,3
 883              		.global	BSP_LCD_DisplayChar
 884              		.syntax unified
 885              		.thumb
 886              		.thumb_func
 887              		.fpu fpv4-sp-d16
 889              	BSP_LCD_DisplayChar:
 890              		@ args = 0, pretend = 0, frame = 40
 891              		@ frame_needed = 0, uses_anonymous_args = 0
 892 0000 2DE9F04F 		push	{r4, r5, r6, r7, r8, r9, r10, fp, lr}
 893 0004 3F4F     		ldr	r7, .L125
 894 0006 404C     		ldr	r4, .L125+4
 895 0008 3B68     		ldr	r3, [r7]
 896 000a 03EB4303 		add	r3, r3, r3, lsl #1
 897 000e 04EB8303 		add	r3, r4, r3, lsl #2
 898 0012 8BB0     		sub	sp, sp, #44
 899 0014 9B68     		ldr	r3, [r3, #8]
 900 0016 B3F80480 		ldrh	r8, [r3, #4]
 901 001a DD88     		ldrh	r5, [r3, #6]
 902 001c 0195     		str	r5, [sp, #4]
 903 001e 08F10704 		add	r4, r8, #7
 904 0022 203A     		subs	r2, r2, #32
 905 0024 4FEAE409 		asr	r9, r4, #3
 906 0028 05FB02F2 		mul	r2, r5, r2
 907 002c 1B68     		ldr	r3, [r3]
 908 002e C8EBC904 		rsb	r4, r8, r9, lsl #3
ARM GAS  D:\Programs\cygwin64\tmp\ccnP8CjY.s 			page 16


 909 0032 09FB02F2 		mul	r2, r9, r2
 910 0036 002D     		cmp	r5, #0
 911 0038 58D0     		beq	.L107
 912 003a E4B2     		uxtb	r4, r4
 913 003c CDE90701 		strd	r0, r1, [sp, #28]
 914 0040 08F1FF31 		add	r1, r8, #-1
 915 0044 2144     		add	r1, r1, r4
 916 0046 03EB020A 		add	r10, r3, r2
 917 004a 4FF0000B 		mov	fp, #0
 918 004e A1EB0803 		sub	r3, r1, r8
 919 0052 CDF82480 		str	r8, [sp, #36]
 920 0056 0591     		str	r1, [sp, #20]
 921 0058 0693     		str	r3, [sp, #24]
 922 005a D846     		mov	r8, fp
 923              	.L114:
 924 005c 089B     		ldr	r3, [sp, #32]
 925 005e 9AF80040 		ldrb	r4, [r10]	@ zero_extendqisi2
 926 0062 03EB0802 		add	r2, r3, r8
 927 0066 B9F1010F 		cmp	r9, #1
 928 006a 1FFA82FB 		uxth	fp, r2
 929 006e 06D0     		beq	.L112
 930 0070 B9F1020F 		cmp	r9, #2
 931 0074 3DD1     		bne	.L122
 932 0076 BAF80040 		ldrh	r4, [r10]	@ unaligned
 933 007a 64BA     		rev16	r4, r4
 934 007c A4B2     		uxth	r4, r4
 935              	.L112:
 936 007e 099B     		ldr	r3, [sp, #36]
 937 0080 73B3     		cbz	r3, .L119
 938 0082 059A     		ldr	r2, [sp, #20]
 939 0084 079B     		ldr	r3, [sp, #28]
 940 0086 1344     		add	r3, r3, r2
 941 0088 CDE90238 		strd	r3, r8, [sp, #8]
 942 008c 9046     		mov	r8, r2
 943              	.L118:
 944 008e 1F4A     		ldr	r2, .L125+8
 945 0090 3B68     		ldr	r3, [r7]
 946 0092 1F4D     		ldr	r5, .L125+12
 947 0094 1068     		ldr	r0, [r2]
 948 0096 1C4A     		ldr	r2, .L125+4
 949 0098 3426     		movs	r6, #52
 950 009a 03EB430C 		add	ip, r3, r3, lsl #1
 951 009e 06FB0353 		mla	r3, r6, r3, r5
 952 00a2 0126     		movs	r6, #1
 953 00a4 02EB8C01 		add	r1, r2, ip, lsl #2
 954 00a8 06FA08FE 		lsl	lr, r6, r8
 955 00ac 1EEA040F 		tst	lr, r4
 956 00b0 14BF     		ite	ne
 957 00b2 52F82C10 		ldrne	r1, [r2, ip, lsl #2]
 958 00b6 4968     		ldreq	r1, [r1, #4]
 959 00b8 DE6D     		ldr	r6, [r3, #92]
 960 00ba 029D     		ldr	r5, [sp, #8]
 961 00bc 836A     		ldr	r3, [r0, #40]
 962 00be 0491     		str	r1, [sp, #16]
 963 00c0 9847     		blx	r3
 964 00c2 A5EB0805 		sub	r5, r5, r8
 965 00c6 ADB2     		uxth	r5, r5
ARM GAS  D:\Programs\cygwin64\tmp\ccnP8CjY.s 			page 17


 966 00c8 069B     		ldr	r3, [sp, #24]
 967 00ca 0499     		ldr	r1, [sp, #16]
 968 00cc 0BFB0050 		mla	r0, fp, r0, r5
 969 00d0 08F1FF38 		add	r8, r8, #-1
 970 00d4 9845     		cmp	r8, r3
 971 00d6 46F82010 		str	r1, [r6, r0, lsl #2]
 972 00da D8D1     		bne	.L118
 973 00dc DDF80C80 		ldr	r8, [sp, #12]
 974              	.L119:
 975 00e0 019B     		ldr	r3, [sp, #4]
 976 00e2 08F10108 		add	r8, r8, #1
 977 00e6 4345     		cmp	r3, r8
 978 00e8 CA44     		add	r10, r10, r9
 979 00ea B7D1     		bne	.L114
 980              	.L107:
 981 00ec 0BB0     		add	sp, sp, #44
 982              		@ sp needed
 983 00ee BDE8F08F 		pop	{r4, r5, r6, r7, r8, r9, r10, fp, pc}
 984              	.L122:
 985 00f2 9AF80110 		ldrb	r1, [r10, #1]	@ zero_extendqisi2
 986 00f6 9AF80220 		ldrb	r2, [r10, #2]	@ zero_extendqisi2
 987 00fa 2404     		lsls	r4, r4, #16
 988 00fc 44EA0124 		orr	r4, r4, r1, lsl #8
 989 0100 1443     		orrs	r4, r4, r2
 990 0102 BCE7     		b	.L112
 991              	.L126:
 992              		.align	2
 993              	.L125:
 994 0104 00000000 		.word	.LANCHOR2
 995 0108 00000000 		.word	.LANCHOR0
 996 010c 00000000 		.word	LcdDrv
 997 0110 00000000 		.word	LtdcHandler
 999              		.section	.text.BSP_LCD_DisplayStringAt,"ax",%progbits
 1000              		.align	1
 1001              		.p2align 2,,3
 1002              		.global	BSP_LCD_DisplayStringAt
 1003              		.syntax unified
 1004              		.thumb
 1005              		.thumb_func
 1006              		.fpu fpv4-sp-d16
 1008              	BSP_LCD_DisplayStringAt:
 1009              		@ args = 0, pretend = 0, frame = 8
 1010              		@ frame_needed = 0, uses_anonymous_args = 0
 1011 0000 2DE9F04F 		push	{r4, r5, r6, r7, r8, r9, r10, fp, lr}
 1012 0004 1546     		mov	r5, r2
 1013 0006 83B0     		sub	sp, sp, #12
 1014 0008 15F8014B 		ldrb	r4, [r5], #1	@ zero_extendqisi2
 1015 000c 1646     		mov	r6, r2
 1016 000e 0746     		mov	r7, r0
 1017 0010 8A46     		mov	r10, r1
 1018 0012 2CB1     		cbz	r4, .L128
 1019 0014 0024     		movs	r4, #0
 1020              	.L129:
 1021 0016 15F8011B 		ldrb	r1, [r5], #1	@ zero_extendqisi2
 1022 001a 0134     		adds	r4, r4, #1
 1023 001c 0029     		cmp	r1, #0
 1024 001e FAD1     		bne	.L129
ARM GAS  D:\Programs\cygwin64\tmp\ccnP8CjY.s 			page 18


 1025              	.L128:
 1026 0020 DFF8A490 		ldr	r9, .L142
 1027 0024 DFF8A4B0 		ldr	fp, .L142+4
 1028 0028 D9F80020 		ldr	r2, [r9]
 1029 002c 0193     		str	r3, [sp, #4]
 1030 002e 926A     		ldr	r2, [r2, #40]
 1031 0030 DFF89C80 		ldr	r8, .L142+8
 1032 0034 9047     		blx	r2
 1033 0036 DBF80020 		ldr	r2, [fp]
 1034 003a 019B     		ldr	r3, [sp, #4]
 1035 003c 02EB4202 		add	r2, r2, r2, lsl #1
 1036 0040 08EB8202 		add	r2, r8, r2, lsl #2
 1037 0044 012B     		cmp	r3, #1
 1038 0046 9268     		ldr	r2, [r2, #8]
 1039 0048 9288     		ldrh	r2, [r2, #4]
 1040 004a B0FBF2F0 		udiv	r0, r0, r2
 1041 004e 34D0     		beq	.L130
 1042 0050 022B     		cmp	r3, #2
 1043 0052 03D1     		bne	.L132
 1044 0054 041B     		subs	r4, r0, r4
 1045 0056 14FB0277 		smlabb	r7, r4, r2, r7
 1046 005a BFB2     		uxth	r7, r7
 1047              	.L132:
 1048 005c 013E     		subs	r6, r6, #1
 1049 005e 0024     		movs	r4, #0
 1050 0060 0EE0     		b	.L133
 1051              	.L134:
 1052 0062 3278     		ldrb	r2, [r6]	@ zero_extendqisi2
 1053 0064 FFF7FEFF 		bl	BSP_LCD_DisplayChar
 1054 0068 DBF80030 		ldr	r3, [fp]
 1055 006c 03EB4303 		add	r3, r3, r3, lsl #1
 1056 0070 08EB8303 		add	r3, r8, r3, lsl #2
 1057 0074 0134     		adds	r4, r4, #1
 1058 0076 9B68     		ldr	r3, [r3, #8]
 1059 0078 9B88     		ldrh	r3, [r3, #4]
 1060 007a 1F44     		add	r7, r7, r3
 1061 007c A4B2     		uxth	r4, r4
 1062 007e BFB2     		uxth	r7, r7
 1063              	.L133:
 1064 0080 D9F80030 		ldr	r3, [r9]
 1065 0084 16F8015F 		ldrb	r5, [r6, #1]!	@ zero_extendqisi2
 1066 0088 9B6A     		ldr	r3, [r3, #40]
 1067 008a 0035     		adds	r5, r5, #0
 1068 008c 18BF     		it	ne
 1069 008e 0125     		movne	r5, #1
 1070 0090 9847     		blx	r3
 1071 0092 DBF80030 		ldr	r3, [fp]
 1072 0096 03EB4303 		add	r3, r3, r3, lsl #1
 1073 009a 08EB8303 		add	r3, r8, r3, lsl #2
 1074 009e 5146     		mov	r1, r10
 1075 00a0 9B68     		ldr	r3, [r3, #8]
 1076 00a2 9A88     		ldrh	r2, [r3, #4]
 1077 00a4 02FB1403 		mls	r3, r2, r4, r0
 1078 00a8 9BB2     		uxth	r3, r3
 1079 00aa 9342     		cmp	r3, r2
 1080 00ac 3846     		mov	r0, r7
 1081 00ae 01D3     		bcc	.L127
ARM GAS  D:\Programs\cygwin64\tmp\ccnP8CjY.s 			page 19


 1082 00b0 002D     		cmp	r5, #0
 1083 00b2 D6D1     		bne	.L134
 1084              	.L127:
 1085 00b4 03B0     		add	sp, sp, #12
 1086              		@ sp needed
 1087 00b6 BDE8F08F 		pop	{r4, r5, r6, r7, r8, r9, r10, fp, pc}
 1088              	.L130:
 1089 00ba 041B     		subs	r4, r0, r4
 1090 00bc 02FB04F2 		mul	r2, r2, r4
 1091 00c0 07EB5207 		add	r7, r7, r2, lsr #1
 1092 00c4 BFB2     		uxth	r7, r7
 1093 00c6 C9E7     		b	.L132
 1094              	.L143:
 1095              		.align	2
 1096              	.L142:
 1097 00c8 00000000 		.word	LcdDrv
 1098 00cc 00000000 		.word	.LANCHOR2
 1099 00d0 00000000 		.word	.LANCHOR0
 1101              		.section	.text.BSP_LCD_DisplayStringAtLine,"ax",%progbits
 1102              		.align	1
 1103              		.p2align 2,,3
 1104              		.global	BSP_LCD_DisplayStringAtLine
 1105              		.syntax unified
 1106              		.thumb
 1107              		.thumb_func
 1108              		.fpu fpv4-sp-d16
 1110              	BSP_LCD_DisplayStringAtLine:
 1111              		@ args = 0, pretend = 0, frame = 0
 1112              		@ frame_needed = 0, uses_anonymous_args = 0
 1113              		@ link register save eliminated.
 1114 0000 084B     		ldr	r3, .L145
 1115 0002 094A     		ldr	r2, .L145+4
 1116 0004 1B68     		ldr	r3, [r3]
 1117 0006 03EB4303 		add	r3, r3, r3, lsl #1
 1118 000a 02EB8303 		add	r3, r2, r3, lsl #2
 1119 000e 0A46     		mov	r2, r1
 1120 0010 9B68     		ldr	r3, [r3, #8]
 1121 0012 D988     		ldrh	r1, [r3, #6]
 1122 0014 11FB00F1 		smulbb	r1, r1, r0
 1123 0018 89B2     		uxth	r1, r1
 1124 001a 0323     		movs	r3, #3
 1125 001c 0020     		movs	r0, #0
 1126 001e FFF7FEBF 		b	BSP_LCD_DisplayStringAt
 1127              	.L146:
 1128 0022 00BF     		.align	2
 1129              	.L145:
 1130 0024 00000000 		.word	.LANCHOR2
 1131 0028 00000000 		.word	.LANCHOR0
 1133              		.section	.text.BSP_LCD_DrawHLine,"ax",%progbits
 1134              		.align	1
 1135              		.p2align 2,,3
 1136              		.global	BSP_LCD_DrawHLine
 1137              		.syntax unified
 1138              		.thumb
 1139              		.thumb_func
 1140              		.fpu fpv4-sp-d16
 1142              	BSP_LCD_DrawHLine:
ARM GAS  D:\Programs\cygwin64\tmp\ccnP8CjY.s 			page 20


 1143              		@ args = 0, pretend = 0, frame = 0
 1144              		@ frame_needed = 0, uses_anonymous_args = 0
 1145 0000 2DE9F04F 		push	{r4, r5, r6, r7, r8, r9, r10, fp, lr}
 1146 0004 204D     		ldr	r5, .L153
 1147 0006 214C     		ldr	r4, .L153+4
 1148 0008 2B68     		ldr	r3, [r5]
 1149 000a 214E     		ldr	r6, .L153+8
 1150 000c 2768     		ldr	r7, [r4]
 1151 000e 214C     		ldr	r4, .L153+12
 1152 0010 BF6A     		ldr	r7, [r7, #40]
 1153 0012 4FF0340C 		mov	ip, #52
 1154 0016 0CFB0363 		mla	r3, ip, r3, r6
 1155 001a 83B0     		sub	sp, sp, #12
 1156 001c 0E46     		mov	r6, r1
 1157 001e 9046     		mov	r8, r2
 1158 0020 D3F85C90 		ldr	r9, [r3, #92]
 1159 0024 8246     		mov	r10, r0
 1160 0026 B847     		blx	r7
 1161 0028 2D68     		ldr	r5, [r5]
 1162 002a 1B4B     		ldr	r3, .L153+16
 1163 002c 1B4A     		ldr	r2, .L153+20
 1164 002e 2360     		str	r3, [r4]
 1165 0030 05EB4501 		add	r1, r5, r5, lsl #1
 1166 0034 4FF44033 		mov	r3, #196608
 1167 0038 8346     		mov	fp, r0
 1168 003a 6360     		str	r3, [r4, #4]
 1169 003c 2046     		mov	r0, r4
 1170 003e 0023     		movs	r3, #0
 1171 0040 52F82170 		ldr	r7, [r2, r1, lsl #2]
 1172 0044 C4E90233 		strd	r3, r3, [r4, #8]
 1173 0048 FFF7FEFF 		bl	HAL_DMA2D_Init
 1174 004c 10B1     		cbz	r0, .L152
 1175              	.L147:
 1176 004e 03B0     		add	sp, sp, #12
 1177              		@ sp needed
 1178 0050 BDE8F08F 		pop	{r4, r5, r6, r7, r8, r9, r10, fp, pc}
 1179              	.L152:
 1180 0054 2946     		mov	r1, r5
 1181 0056 2046     		mov	r0, r4
 1182 0058 FFF7FEFF 		bl	HAL_DMA2D_ConfigLayer
 1183 005c 0028     		cmp	r0, #0
 1184 005e F6D1     		bne	.L147
 1185 0060 0120     		movs	r0, #1
 1186 0062 0BFB06A2 		mla	r2, fp, r6, r10
 1187 0066 0090     		str	r0, [sp]
 1188 0068 09EB8202 		add	r2, r9, r2, lsl #2
 1189 006c 4346     		mov	r3, r8
 1190 006e 3946     		mov	r1, r7
 1191 0070 2046     		mov	r0, r4
 1192 0072 FFF7FEFF 		bl	HAL_DMA2D_Start
 1193 0076 0028     		cmp	r0, #0
 1194 0078 E9D1     		bne	.L147
 1195 007a 2046     		mov	r0, r4
 1196 007c 0A21     		movs	r1, #10
 1197 007e 03B0     		add	sp, sp, #12
 1198              		@ sp needed
 1199 0080 BDE8F04F 		pop	{r4, r5, r6, r7, r8, r9, r10, fp, lr}
ARM GAS  D:\Programs\cygwin64\tmp\ccnP8CjY.s 			page 21


 1200 0084 FFF7FEBF 		b	HAL_DMA2D_PollForTransfer
 1201              	.L154:
 1202              		.align	2
 1203              	.L153:
 1204 0088 00000000 		.word	.LANCHOR2
 1205 008c 00000000 		.word	LcdDrv
 1206 0090 00000000 		.word	LtdcHandler
 1207 0094 00000000 		.word	.LANCHOR3
 1208 0098 00B00240 		.word	1073917952
 1209 009c 00000000 		.word	.LANCHOR0
 1211              		.section	.text.BSP_LCD_DrawVLine,"ax",%progbits
 1212              		.align	1
 1213              		.p2align 2,,3
 1214              		.global	BSP_LCD_DrawVLine
 1215              		.syntax unified
 1216              		.thumb
 1217              		.thumb_func
 1218              		.fpu fpv4-sp-d16
 1220              	BSP_LCD_DrawVLine:
 1221              		@ args = 0, pretend = 0, frame = 0
 1222              		@ frame_needed = 0, uses_anonymous_args = 0
 1223 0000 2DE9F04F 		push	{r4, r5, r6, r7, r8, r9, r10, fp, lr}
 1224 0004 244D     		ldr	r5, .L161
 1225 0006 DFF8A4B0 		ldr	fp, .L161+20
 1226 000a 2E68     		ldr	r6, [r5]
 1227 000c DBF80030 		ldr	r3, [fp]
 1228 0010 224F     		ldr	r7, .L161+4
 1229 0012 D6F828A0 		ldr	r10, [r6, #40]
 1230 0016 224C     		ldr	r4, .L161+8
 1231 0018 3426     		movs	r6, #52
 1232 001a 06FB0373 		mla	r3, r6, r3, r7
 1233 001e 83B0     		sub	sp, sp, #12
 1234 0020 0E46     		mov	r6, r1
 1235 0022 1746     		mov	r7, r2
 1236 0024 D3F85C80 		ldr	r8, [r3, #92]
 1237 0028 8146     		mov	r9, r0
 1238 002a D047     		blx	r10
 1239 002c 2B68     		ldr	r3, [r5]
 1240 002e DBF80050 		ldr	r5, [fp]
 1241 0032 9B6A     		ldr	r3, [r3, #40]
 1242 0034 8246     		mov	r10, r0
 1243 0036 9847     		blx	r3
 1244 0038 DBF80030 		ldr	r3, [fp]
 1245 003c 1949     		ldr	r1, .L161+12
 1246 003e 03EB4303 		add	r3, r3, r3, lsl #1
 1247 0042 0138     		subs	r0, r0, #1
 1248 0044 4FF44032 		mov	r2, #196608
 1249 0048 E060     		str	r0, [r4, #12]
 1250 004a 51F823B0 		ldr	fp, [r1, r3, lsl #2]
 1251 004e 6260     		str	r2, [r4, #4]
 1252 0050 154B     		ldr	r3, .L161+16
 1253 0052 2360     		str	r3, [r4]
 1254 0054 0022     		movs	r2, #0
 1255 0056 2046     		mov	r0, r4
 1256 0058 A260     		str	r2, [r4, #8]
 1257 005a FFF7FEFF 		bl	HAL_DMA2D_Init
 1258 005e 10B1     		cbz	r0, .L160
ARM GAS  D:\Programs\cygwin64\tmp\ccnP8CjY.s 			page 22


 1259              	.L155:
 1260 0060 03B0     		add	sp, sp, #12
 1261              		@ sp needed
 1262 0062 BDE8F08F 		pop	{r4, r5, r6, r7, r8, r9, r10, fp, pc}
 1263              	.L160:
 1264 0066 2946     		mov	r1, r5
 1265 0068 2046     		mov	r0, r4
 1266 006a FFF7FEFF 		bl	HAL_DMA2D_ConfigLayer
 1267 006e 0028     		cmp	r0, #0
 1268 0070 F6D1     		bne	.L155
 1269 0072 0AFB0692 		mla	r2, r10, r6, r9
 1270 0076 08EB8202 		add	r2, r8, r2, lsl #2
 1271 007a 0097     		str	r7, [sp]
 1272 007c 5946     		mov	r1, fp
 1273 007e 0123     		movs	r3, #1
 1274 0080 2046     		mov	r0, r4
 1275 0082 FFF7FEFF 		bl	HAL_DMA2D_Start
 1276 0086 0028     		cmp	r0, #0
 1277 0088 EAD1     		bne	.L155
 1278 008a 2046     		mov	r0, r4
 1279 008c 0A21     		movs	r1, #10
 1280 008e 03B0     		add	sp, sp, #12
 1281              		@ sp needed
 1282 0090 BDE8F04F 		pop	{r4, r5, r6, r7, r8, r9, r10, fp, lr}
 1283 0094 FFF7FEBF 		b	HAL_DMA2D_PollForTransfer
 1284              	.L162:
 1285              		.align	2
 1286              	.L161:
 1287 0098 00000000 		.word	LcdDrv
 1288 009c 00000000 		.word	LtdcHandler
 1289 00a0 00000000 		.word	.LANCHOR3
 1290 00a4 00000000 		.word	.LANCHOR0
 1291 00a8 00B00240 		.word	1073917952
 1292 00ac 00000000 		.word	.LANCHOR2
 1294              		.section	.text.BSP_LCD_DrawLine,"ax",%progbits
 1295              		.align	1
 1296              		.p2align 2,,3
 1297              		.global	BSP_LCD_DrawLine
 1298              		.syntax unified
 1299              		.thumb
 1300              		.thumb_func
 1301              		.fpu fpv4-sp-d16
 1303              	BSP_LCD_DrawLine:
 1304              		@ args = 0, pretend = 0, frame = 32
 1305              		@ frame_needed = 0, uses_anonymous_args = 0
 1306 0000 2DE9F04F 		push	{r4, r5, r6, r7, r8, r9, r10, fp, lr}
 1307 0004 161A     		subs	r6, r2, r0
 1308 0006 5D1A     		subs	r5, r3, r1
 1309 0008 002E     		cmp	r6, #0
 1310 000a B8BF     		it	lt
 1311 000c 7642     		rsblt	r6, r6, #0
 1312 000e 002D     		cmp	r5, #0
 1313 0010 B8BF     		it	lt
 1314 0012 6D42     		rsblt	r5, r5, #0
 1315 0014 89B0     		sub	sp, sp, #36
 1316 0016 4FF6FF74 		movw	r4, #65535
 1317 001a 36B2     		sxth	r6, r6
ARM GAS  D:\Programs\cygwin64\tmp\ccnP8CjY.s 			page 23


 1318 001c 2DB2     		sxth	r5, r5
 1319 001e 8242     		cmp	r2, r0
 1320 0020 34BF     		ite	cc
 1321 0022 2246     		movcc	r2, r4
 1322 0024 0122     		movcs	r2, #1
 1323 0026 8B42     		cmp	r3, r1
 1324 0028 28BF     		it	cs
 1325 002a 0124     		movcs	r4, #1
 1326 002c AE42     		cmp	r6, r5
 1327 002e 0FFA80FE 		sxth	lr, r0
 1328 0032 0592     		str	r2, [sp, #20]
 1329 0034 0494     		str	r4, [sp, #16]
 1330 0036 09B2     		sxth	r1, r1
 1331 0038 5ADB     		blt	.L166
 1332 003a 0023     		movs	r3, #0
 1333 003c 06EBD674 		add	r4, r6, r6, lsr #31
 1334 0040 9046     		mov	r8, r2
 1335 0042 0593     		str	r3, [sp, #20]
 1336 0044 6410     		asrs	r4, r4, #1
 1337 0046 9946     		mov	r9, r3
 1338              	.L167:
 1339 0048 002E     		cmp	r6, #0
 1340 004a 44DB     		blt	.L163
 1341 004c ABB2     		uxth	r3, r5
 1342 004e DFF8C0A0 		ldr	r10, .L176+8
 1343 0052 DFF8C0B0 		ldr	fp, .L176+12
 1344 0056 CDF81C90 		str	r9, [sp, #28]
 1345 005a 0693     		str	r3, [sp, #24]
 1346 005c 0027     		movs	r7, #0
 1347 005e C146     		mov	r9, r8
 1348              	.L169:
 1349 0060 DAF80000 		ldr	r0, [r10]
 1350 0064 284D     		ldr	r5, .L176
 1351 0066 DBF80030 		ldr	r3, [fp]
 1352 006a 4FF0340C 		mov	ip, #52
 1353 006e 00EB4002 		add	r2, r0, r0, lsl #1
 1354 0072 0CFB0050 		mla	r0, ip, r0, r5
 1355 0076 254D     		ldr	r5, .L176+4
 1356 0078 9B6A     		ldr	r3, [r3, #40]
 1357 007a 55F82220 		ldr	r2, [r5, r2, lsl #2]
 1358 007e 0292     		str	r2, [sp, #8]
 1359 0080 C26D     		ldr	r2, [r0, #92]
 1360 0082 0192     		str	r2, [sp, #4]
 1361 0084 1FFA81F8 		uxth	r8, r1
 1362 0088 1FFA8EF5 		uxth	r5, lr
 1363 008c 9847     		blx	r3
 1364 008e 0599     		ldr	r1, [sp, #20]
 1365 0090 069B     		ldr	r3, [sp, #24]
 1366 0092 079A     		ldr	r2, [sp, #28]
 1367 0094 05EB010E 		add	lr, r5, r1
 1368 0098 0499     		ldr	r1, [sp, #16]
 1369 009a 2344     		add	r3, r3, r4
 1370 009c 4144     		add	r1, r8, r1
 1371 009e 9BB2     		uxth	r3, r3
 1372 00a0 1144     		add	r1, r1, r2
 1373 00a2 08EB020C 		add	ip, r8, r2
 1374 00a6 019A     		ldr	r2, [sp, #4]
ARM GAS  D:\Programs\cygwin64\tmp\ccnP8CjY.s 			page 24


 1375 00a8 1CB2     		sxth	r4, r3
 1376 00aa 9B1B     		subs	r3, r3, r6
 1377 00ac 00FB0850 		mla	r0, r0, r8, r5
 1378 00b0 0393     		str	r3, [sp, #12]
 1379 00b2 1346     		mov	r3, r2
 1380 00b4 CE44     		add	lr, lr, r9
 1381 00b6 029A     		ldr	r2, [sp, #8]
 1382 00b8 43F82020 		str	r2, [r3, r0, lsl #2]
 1383 00bc A642     		cmp	r6, r4
 1384 00be 4D44     		add	r5, r5, r9
 1385 00c0 07F10107 		add	r7, r7, #1
 1386 00c4 0FFA8EFE 		sxth	lr, lr
 1387 00c8 09B2     		sxth	r1, r1
 1388 00ca 07DC     		bgt	.L170
 1389 00cc 3AB2     		sxth	r2, r7
 1390 00ce B242     		cmp	r2, r6
 1391 00d0 BDF90C40 		ldrsh	r4, [sp, #12]
 1392 00d4 C4DD     		ble	.L169
 1393              	.L163:
 1394 00d6 09B0     		add	sp, sp, #36
 1395              		@ sp needed
 1396 00d8 BDE8F08F 		pop	{r4, r5, r6, r7, r8, r9, r10, fp, pc}
 1397              	.L170:
 1398 00dc 3BB2     		sxth	r3, r7
 1399 00de B342     		cmp	r3, r6
 1400 00e0 0FFA85FE 		sxth	lr, r5
 1401 00e4 0FFA8CF1 		sxth	r1, ip
 1402 00e8 BADD     		ble	.L169
 1403 00ea 09B0     		add	sp, sp, #36
 1404              		@ sp needed
 1405 00ec BDE8F08F 		pop	{r4, r5, r6, r7, r8, r9, r10, fp, pc}
 1406              	.L166:
 1407 00f0 3346     		mov	r3, r6
 1408 00f2 0022     		movs	r2, #0
 1409 00f4 A146     		mov	r9, r4
 1410 00f6 05EBD574 		add	r4, r5, r5, lsr #31
 1411 00fa 2E46     		mov	r6, r5
 1412 00fc 0492     		str	r2, [sp, #16]
 1413 00fe 44F34F04 		sbfx	r4, r4, #1, #16
 1414 0102 1D46     		mov	r5, r3
 1415 0104 9046     		mov	r8, r2
 1416 0106 9FE7     		b	.L167
 1417              	.L177:
 1418              		.align	2
 1419              	.L176:
 1420 0108 00000000 		.word	LtdcHandler
 1421 010c 00000000 		.word	.LANCHOR0
 1422 0110 00000000 		.word	.LANCHOR2
 1423 0114 00000000 		.word	LcdDrv
 1425              		.section	.text.BSP_LCD_DrawRect,"ax",%progbits
 1426              		.align	1
 1427              		.p2align 2,,3
 1428              		.global	BSP_LCD_DrawRect
 1429              		.syntax unified
 1430              		.thumb
 1431              		.thumb_func
 1432              		.fpu fpv4-sp-d16
ARM GAS  D:\Programs\cygwin64\tmp\ccnP8CjY.s 			page 25


 1434              	BSP_LCD_DrawRect:
 1435              		@ args = 0, pretend = 0, frame = 0
 1436              		@ frame_needed = 0, uses_anonymous_args = 0
 1437 0000 F8B5     		push	{r3, r4, r5, r6, r7, lr}
 1438 0002 1E46     		mov	r6, r3
 1439 0004 0D46     		mov	r5, r1
 1440 0006 0446     		mov	r4, r0
 1441 0008 1746     		mov	r7, r2
 1442 000a FFF7FEFF 		bl	BSP_LCD_DrawHLine
 1443 000e A919     		adds	r1, r5, r6
 1444 0010 3A46     		mov	r2, r7
 1445 0012 2046     		mov	r0, r4
 1446 0014 89B2     		uxth	r1, r1
 1447 0016 FFF7FEFF 		bl	BSP_LCD_DrawHLine
 1448 001a 3246     		mov	r2, r6
 1449 001c 2946     		mov	r1, r5
 1450 001e 2046     		mov	r0, r4
 1451 0020 FFF7FEFF 		bl	BSP_LCD_DrawVLine
 1452 0024 E019     		adds	r0, r4, r7
 1453 0026 3246     		mov	r2, r6
 1454 0028 2946     		mov	r1, r5
 1455 002a 80B2     		uxth	r0, r0
 1456 002c BDE8F840 		pop	{r3, r4, r5, r6, r7, lr}
 1457 0030 FFF7FEBF 		b	BSP_LCD_DrawVLine
 1459              		.section	.text.BSP_LCD_DrawCircle,"ax",%progbits
 1460              		.align	1
 1461              		.p2align 2,,3
 1462              		.global	BSP_LCD_DrawCircle
 1463              		.syntax unified
 1464              		.thumb
 1465              		.thumb_func
 1466              		.fpu fpv4-sp-d16
 1468              	BSP_LCD_DrawCircle:
 1469              		@ args = 0, pretend = 0, frame = 40
 1470              		@ frame_needed = 0, uses_anonymous_args = 0
 1471 0000 2DE9F04F 		push	{r4, r5, r6, r7, r8, r9, r10, fp, lr}
 1472 0004 5400     		lsls	r4, r2, #1
 1473 0006 8BB0     		sub	sp, sp, #44
 1474 0008 C4F10303 		rsb	r3, r4, #3
 1475 000c CDE90201 		strd	r0, r1, [sp, #8]
 1476 0010 0593     		str	r3, [sp, #20]
 1477 0012 774F     		ldr	r7, .L188
 1478 0014 774E     		ldr	r6, .L188+4
 1479 0016 0992     		str	r2, [sp, #36]
 1480 0018 93B2     		uxth	r3, r2
 1481 001a 0193     		str	r3, [sp, #4]
 1482 001c 4FF0340B 		mov	fp, #52
 1483 0020 0023     		movs	r3, #0
 1484              	.L181:
 1485 0022 9CB2     		uxth	r4, r3
 1486 0024 3868     		ldr	r0, [r7]
 1487 0026 7449     		ldr	r1, .L188+8
 1488 0028 0893     		str	r3, [sp, #32]
 1489 002a 029B     		ldr	r3, [sp, #8]
 1490 002c 3268     		ldr	r2, [r6]
 1491 002e 00EB4005 		add	r5, r0, r0, lsl #1
 1492 0032 0BFB0010 		mla	r0, fp, r0, r1
ARM GAS  D:\Programs\cygwin64\tmp\ccnP8CjY.s 			page 26


 1493 0036 1919     		adds	r1, r3, r4
 1494 0038 704B     		ldr	r3, .L188+12
 1495 003a D0F85C80 		ldr	r8, [r0, #92]
 1496 003e 53F82590 		ldr	r9, [r3, r5, lsl #2]
 1497 0042 0198     		ldr	r0, [sp, #4]
 1498 0044 039D     		ldr	r5, [sp, #12]
 1499 0046 926A     		ldr	r2, [r2, #40]
 1500 0048 1FFA81FC 		uxth	ip, r1
 1501 004c 2D1A     		subs	r5, r5, r0
 1502 004e CDF810C0 		str	ip, [sp, #16]
 1503 0052 9047     		blx	r2
 1504 0054 049B     		ldr	r3, [sp, #16]
 1505 0056 3A68     		ldr	r2, [r7]
 1506 0058 3168     		ldr	r1, [r6]
 1507 005a ADB2     		uxth	r5, r5
 1508 005c 05FB0030 		mla	r0, r5, r0, r3
 1509 0060 654B     		ldr	r3, .L188+8
 1510 0062 48F82090 		str	r9, [r8, r0, lsl #2]
 1511 0066 0298     		ldr	r0, [sp, #8]
 1512 0068 896A     		ldr	r1, [r1, #40]
 1513 006a 0BFB023C 		mla	ip, fp, r2, r3
 1514 006e A0EB040A 		sub	r10, r0, r4
 1515 0072 02EB4202 		add	r2, r2, r2, lsl #1
 1516 0076 6148     		ldr	r0, .L188+12
 1517 0078 DCF85C80 		ldr	r8, [ip, #92]
 1518 007c 50F82290 		ldr	r9, [r0, r2, lsl #2]
 1519 0080 8847     		blx	r1
 1520 0082 1FFA8AFA 		uxth	r10, r10
 1521 0086 05FB00A0 		mla	r0, r5, r0, r10
 1522 008a 3A68     		ldr	r2, [r7]
 1523 008c 5A4B     		ldr	r3, .L188+8
 1524 008e 039D     		ldr	r5, [sp, #12]
 1525 0090 3168     		ldr	r1, [r6]
 1526 0092 48F82090 		str	r9, [r8, r0, lsl #2]
 1527 0096 0BFB023C 		mla	ip, fp, r2, r3
 1528 009a A5EB0409 		sub	r9, r5, r4
 1529 009e 02EB4202 		add	r2, r2, r2, lsl #1
 1530 00a2 564D     		ldr	r5, .L188+12
 1531 00a4 886A     		ldr	r0, [r1, #40]
 1532 00a6 55F82220 		ldr	r2, [r5, r2, lsl #2]
 1533 00aa 0692     		str	r2, [sp, #24]
 1534 00ac DDE90121 		ldrd	r2, r1, [sp, #4]
 1535 00b0 DCF85C80 		ldr	r8, [ip, #92]
 1536 00b4 5518     		adds	r5, r2, r1
 1537 00b6 8047     		blx	r0
 1538 00b8 ADB2     		uxth	r5, r5
 1539 00ba 3268     		ldr	r2, [r6]
 1540 00bc 3968     		ldr	r1, [r7]
 1541 00be 4E4B     		ldr	r3, .L188+8
 1542 00c0 1FFA89F9 		uxth	r9, r9
 1543 00c4 09FB005E 		mla	lr, r9, r0, r5
 1544 00c8 906A     		ldr	r0, [r2, #40]
 1545 00ca 069A     		ldr	r2, [sp, #24]
 1546 00cc 48F82E20 		str	r2, [r8, lr, lsl #2]
 1547 00d0 0BFB0132 		mla	r2, fp, r1, r3
 1548 00d4 01EB410C 		add	ip, r1, r1, lsl #1
 1549 00d8 D26D     		ldr	r2, [r2, #92]
ARM GAS  D:\Programs\cygwin64\tmp\ccnP8CjY.s 			page 27


 1550 00da 0299     		ldr	r1, [sp, #8]
 1551 00dc 0792     		str	r2, [sp, #28]
 1552 00de 474A     		ldr	r2, .L188+12
 1553 00e0 8E46     		mov	lr, r1
 1554 00e2 0199     		ldr	r1, [sp, #4]
 1555 00e4 52F82C20 		ldr	r2, [r2, ip, lsl #2]
 1556 00e8 0692     		str	r2, [sp, #24]
 1557 00ea AEEB0108 		sub	r8, lr, r1
 1558 00ee 8047     		blx	r0
 1559 00f0 1FFA88F8 		uxth	r8, r8
 1560 00f4 DDE90632 		ldrd	r3, r2, [sp, #24]
 1561 00f8 09FB0089 		mla	r9, r9, r0, r8
 1562 00fc 3968     		ldr	r1, [r7]
 1563 00fe 3068     		ldr	r0, [r6]
 1564 0100 42F82930 		str	r3, [r2, r9, lsl #2]
 1565 0104 3C4B     		ldr	r3, .L188+8
 1566 0106 806A     		ldr	r0, [r0, #40]
 1567 0108 0BFB0132 		mla	r2, fp, r1, r3
 1568 010c 01EB4101 		add	r1, r1, r1, lsl #1
 1569 0110 D26D     		ldr	r2, [r2, #92]
 1570 0112 0792     		str	r2, [sp, #28]
 1571 0114 394A     		ldr	r2, .L188+12
 1572 0116 52F82120 		ldr	r2, [r2, r1, lsl #2]
 1573 011a 0199     		ldr	r1, [sp, #4]
 1574 011c 0692     		str	r2, [sp, #24]
 1575 011e 8C46     		mov	ip, r1
 1576 0120 0399     		ldr	r1, [sp, #12]
 1577 0122 0CEB0109 		add	r9, ip, r1
 1578 0126 8047     		blx	r0
 1579 0128 0499     		ldr	r1, [sp, #16]
 1580 012a DDE90632 		ldrd	r3, r2, [sp, #24]
 1581 012e 1FFA89F9 		uxth	r9, r9
 1582 0132 09FB001E 		mla	lr, r9, r0, r1
 1583 0136 3968     		ldr	r1, [r7]
 1584 0138 3068     		ldr	r0, [r6]
 1585 013a 42F82E30 		str	r3, [r2, lr, lsl #2]
 1586 013e 2E4B     		ldr	r3, .L188+8
 1587 0140 806A     		ldr	r0, [r0, #40]
 1588 0142 0BFB0132 		mla	r2, fp, r1, r3
 1589 0146 01EB4101 		add	r1, r1, r1, lsl #1
 1590 014a D26D     		ldr	r2, [r2, #92]
 1591 014c 0692     		str	r2, [sp, #24]
 1592 014e 2B4A     		ldr	r2, .L188+12
 1593 0150 52F82110 		ldr	r1, [r2, r1, lsl #2]
 1594 0154 0491     		str	r1, [sp, #16]
 1595 0156 8047     		blx	r0
 1596 0158 3968     		ldr	r1, [r7]
 1597 015a 274B     		ldr	r3, .L188+8
 1598 015c 3268     		ldr	r2, [r6]
 1599 015e 09FB00A0 		mla	r0, r9, r0, r10
 1600 0162 0BFB013A 		mla	r10, fp, r1, r3
 1601 0166 069B     		ldr	r3, [sp, #24]
 1602 0168 926A     		ldr	r2, [r2, #40]
 1603 016a 9C46     		mov	ip, r3
 1604 016c 049B     		ldr	r3, [sp, #16]
 1605 016e 4CF82030 		str	r3, [ip, r0, lsl #2]
 1606 0172 01EB410C 		add	ip, r1, r1, lsl #1
ARM GAS  D:\Programs\cygwin64\tmp\ccnP8CjY.s 			page 28


 1607 0176 0398     		ldr	r0, [sp, #12]
 1608 0178 2049     		ldr	r1, .L188+12
 1609 017a DAF85C90 		ldr	r9, [r10, #92]
 1610 017e 51F82CA0 		ldr	r10, [r1, ip, lsl #2]
 1611 0182 0444     		add	r4, r4, r0
 1612 0184 9047     		blx	r2
 1613 0186 A4B2     		uxth	r4, r4
 1614 0188 3A68     		ldr	r2, [r7]
 1615 018a 1B4B     		ldr	r3, .L188+8
 1616 018c 3168     		ldr	r1, [r6]
 1617 018e 04FB0050 		mla	r0, r4, r0, r5
 1618 0192 0BFB0235 		mla	r5, fp, r2, r3
 1619 0196 49F820A0 		str	r10, [r9, r0, lsl #2]
 1620 019a 02EB4202 		add	r2, r2, r2, lsl #1
 1621 019e 174B     		ldr	r3, .L188+12
 1622 01a0 896A     		ldr	r1, [r1, #40]
 1623 01a2 53F82290 		ldr	r9, [r3, r2, lsl #2]
 1624 01a6 ED6D     		ldr	r5, [r5, #92]
 1625 01a8 8847     		blx	r1
 1626 01aa 059A     		ldr	r2, [sp, #20]
 1627 01ac 089B     		ldr	r3, [sp, #32]
 1628 01ae 04FB0080 		mla	r0, r4, r0, r8
 1629 01b2 002A     		cmp	r2, #0
 1630 01b4 45F82090 		str	r9, [r5, r0, lsl #2]
 1631 01b8 0DDB     		blt	.L187
 1632 01ba 0998     		ldr	r0, [sp, #36]
 1633 01bc 0A32     		adds	r2, r2, #10
 1634 01be 191A     		subs	r1, r3, r0
 1635 01c0 0138     		subs	r0, r0, #1
 1636 01c2 0133     		adds	r3, r3, #1
 1637 01c4 02EB8102 		add	r2, r2, r1, lsl #2
 1638 01c8 9842     		cmp	r0, r3
 1639 01ca 0990     		str	r0, [sp, #36]
 1640 01cc 0592     		str	r2, [sp, #20]
 1641 01ce 0BD3     		bcc	.L180
 1642 01d0 82B2     		uxth	r2, r0
 1643 01d2 0192     		str	r2, [sp, #4]
 1644 01d4 25E7     		b	.L181
 1645              	.L187:
 1646 01d6 0632     		adds	r2, r2, #6
 1647 01d8 02EB8302 		add	r2, r2, r3, lsl #2
 1648 01dc 0592     		str	r2, [sp, #20]
 1649 01de 099A     		ldr	r2, [sp, #36]
 1650 01e0 0133     		adds	r3, r3, #1
 1651 01e2 9A42     		cmp	r2, r3
 1652 01e4 BFF41DAF 		bcs	.L181
 1653              	.L180:
 1654 01e8 0BB0     		add	sp, sp, #44
 1655              		@ sp needed
 1656 01ea BDE8F08F 		pop	{r4, r5, r6, r7, r8, r9, r10, fp, pc}
 1657              	.L189:
 1658 01ee 00BF     		.align	2
 1659              	.L188:
 1660 01f0 00000000 		.word	.LANCHOR2
 1661 01f4 00000000 		.word	LcdDrv
 1662 01f8 00000000 		.word	LtdcHandler
 1663 01fc 00000000 		.word	.LANCHOR0
ARM GAS  D:\Programs\cygwin64\tmp\ccnP8CjY.s 			page 29


 1665              		.section	.text.BSP_LCD_DrawPolygon,"ax",%progbits
 1666              		.align	1
 1667              		.p2align 2,,3
 1668              		.global	BSP_LCD_DrawPolygon
 1669              		.syntax unified
 1670              		.thumb
 1671              		.thumb_func
 1672              		.fpu fpv4-sp-d16
 1674              	BSP_LCD_DrawPolygon:
 1675              		@ args = 0, pretend = 0, frame = 0
 1676              		@ frame_needed = 0, uses_anonymous_args = 0
 1677 0000 0129     		cmp	r1, #1
 1678 0002 22D9     		bls	.L195
 1679 0004 01F18042 		add	r2, r1, #1073741824
 1680 0008 013A     		subs	r2, r2, #1
 1681 000a 70B5     		push	{r4, r5, r6, lr}
 1682 000c 00EB8203 		add	r3, r0, r2, lsl #2
 1683 0010 0646     		mov	r6, r0
 1684 0012 0446     		mov	r4, r0
 1685 0014 0D46     		mov	r5, r1
 1686 0016 30F82220 		ldrh	r2, [r0, r2, lsl #2]
 1687 001a 7188     		ldrh	r1, [r6, #2]
 1688 001c 5B88     		ldrh	r3, [r3, #2]
 1689 001e 34F8040B 		ldrh	r0, [r4], #4
 1690 0022 FFF7FEFF 		bl	BSP_LCD_DrawLine
 1691 0026 A91E     		subs	r1, r5, #2
 1692 0028 89B2     		uxth	r1, r1
 1693 002a 06F10805 		add	r5, r6, #8
 1694 002e 05EB8105 		add	r5, r5, r1, lsl #2
 1695              	.L192:
 1696 0032 6388     		ldrh	r3, [r4, #2]
 1697 0034 2288     		ldrh	r2, [r4]
 1698 0036 34F8021C 		ldrh	r1, [r4, #-2]
 1699 003a 34F8040C 		ldrh	r0, [r4, #-4]
 1700 003e 0434     		adds	r4, r4, #4
 1701 0040 FFF7FEFF 		bl	BSP_LCD_DrawLine
 1702 0044 AC42     		cmp	r4, r5
 1703 0046 F4D1     		bne	.L192
 1704 0048 70BD     		pop	{r4, r5, r6, pc}
 1705              	.L195:
 1706 004a 7047     		bx	lr
 1708              		.section	.text.BSP_LCD_DrawEllipse,"ax",%progbits
 1709              		.align	1
 1710              		.p2align 2,,3
 1711              		.global	BSP_LCD_DrawEllipse
 1712              		.syntax unified
 1713              		.thumb
 1714              		.thumb_func
 1715              		.fpu fpv4-sp-d16
 1717              	BSP_LCD_DrawEllipse:
 1718              		@ args = 0, pretend = 0, frame = 24
 1719              		@ frame_needed = 0, uses_anonymous_args = 0
 1720 0000 2DE9F04F 		push	{r4, r5, r6, r7, r8, r9, r10, fp, lr}
 1721 0004 07EE903A 		vmov	s15, r3	@ int
 1722 0008 2DED028B 		vpush.64	{d8}
 1723 000c B8EEE77A 		vcvt.f32.s32	s14, s15
 1724 0010 07EE902A 		vmov	s15, r2	@ int
ARM GAS  D:\Programs\cygwin64\tmp\ccnP8CjY.s 			page 30


 1725 0014 87B0     		sub	sp, sp, #28
 1726 0016 C2F10102 		rsb	r2, r2, #1
 1727 001a 5600     		lsls	r6, r2, #1
 1728 001c F8EEE77A 		vcvt.f32.s32	s15, s15
 1729 0020 0022     		movs	r2, #0
 1730 0022 5B42     		rsbs	r3, r3, #0
 1731 0024 80B2     		uxth	r0, r0
 1732 0026 89B2     		uxth	r1, r1
 1733 0028 0092     		str	r2, [sp]
 1734 002a 3246     		mov	r2, r6
 1735 002c 87EE278A 		vdiv.f32	s16, s14, s15
 1736 0030 1E46     		mov	r6, r3
 1737 0032 DFF84CB1 		ldr	fp, .L209+8
 1738 0036 DFF84C81 		ldr	r8, .L209+12
 1739 003a 0190     		str	r0, [sp, #4]
 1740 003c 0291     		str	r1, [sp, #8]
 1741 003e 4FF03409 		mov	r9, #52
 1742 0042 1346     		mov	r3, r2
 1743 0044 03E0     		b	.L202
 1744              	.L204:
 1745 0046 002E     		cmp	r6, #0
 1746 0048 1346     		mov	r3, r2
 1747 004a 00F38C80 		bgt	.L207
 1748              	.L202:
 1749 004e DDED007A 		vldr.32	s15, [sp]	@ int
 1750 0052 DBF80020 		ldr	r2, [fp]
 1751 0056 029C     		ldr	r4, [sp, #8]
 1752 0058 0593     		str	r3, [sp, #20]
 1753 005a B8EEE77A 		vcvt.f32.s32	s14, s15
 1754 005e B5B2     		uxth	r5, r6
 1755 0060 C7EE087A 		vdiv.f32	s15, s14, s16
 1756 0064 444B     		ldr	r3, .L209
 1757 0066 D8F80010 		ldr	r1, [r8]
 1758 006a 05EB040A 		add	r10, r5, r4
 1759 006e 02EB4200 		add	r0, r2, r2, lsl #1
 1760 0072 424C     		ldr	r4, .L209+4
 1761 0074 896A     		ldr	r1, [r1, #40]
 1762 0076 54F82000 		ldr	r0, [r4, r0, lsl #2]
 1763 007a 0390     		str	r0, [sp, #12]
 1764 007c 09FB0232 		mla	r2, r9, r2, r3
 1765 0080 0198     		ldr	r0, [sp, #4]
 1766 0082 D26D     		ldr	r2, [r2, #92]
 1767 0084 0492     		str	r2, [sp, #16]
 1768 0086 1FFA8AFA 		uxth	r10, r10
 1769 008a FCEEE77A 		vcvt.u32.f32	s15, s15
 1770 008e 17EE907A 		vmov	r7, s15	@ int
 1771 0092 BCB2     		uxth	r4, r7
 1772 0094 071B     		subs	r7, r0, r4
 1773 0096 8847     		blx	r1
 1774 0098 BFB2     		uxth	r7, r7
 1775 009a DDE90332 		ldrd	r3, r2, [sp, #12]
 1776 009e 0AFB0070 		mla	r0, r10, r0, r7
 1777 00a2 DBF80010 		ldr	r1, [fp]
 1778 00a6 42F82030 		str	r3, [r2, r0, lsl #2]
 1779 00aa 334B     		ldr	r3, .L209
 1780 00ac D8F80020 		ldr	r2, [r8]
 1781 00b0 0198     		ldr	r0, [sp, #4]
ARM GAS  D:\Programs\cygwin64\tmp\ccnP8CjY.s 			page 31


 1782 00b2 09FB013C 		mla	ip, r9, r1, r3
 1783 00b6 0444     		add	r4, r4, r0
 1784 00b8 906A     		ldr	r0, [r2, #40]
 1785 00ba DCF85C20 		ldr	r2, [ip, #92]
 1786 00be 0392     		str	r2, [sp, #12]
 1787 00c0 01EB4101 		add	r1, r1, r1, lsl #1
 1788 00c4 2D4A     		ldr	r2, .L209+4
 1789 00c6 52F82110 		ldr	r1, [r2, r1, lsl #2]
 1790 00ca 0491     		str	r1, [sp, #16]
 1791 00cc 8047     		blx	r0
 1792 00ce 0399     		ldr	r1, [sp, #12]
 1793 00d0 DBF80020 		ldr	r2, [fp]
 1794 00d4 284B     		ldr	r3, .L209
 1795 00d6 A4B2     		uxth	r4, r4
 1796 00d8 0AFB004A 		mla	r10, r10, r0, r4
 1797 00dc 8C46     		mov	ip, r1
 1798 00de 0499     		ldr	r1, [sp, #16]
 1799 00e0 D8F80000 		ldr	r0, [r8]
 1800 00e4 4CF82A10 		str	r1, [ip, r10, lsl #2]
 1801 00e8 0299     		ldr	r1, [sp, #8]
 1802 00ea 09FB023C 		mla	ip, r9, r2, r3
 1803 00ee 4D1B     		subs	r5, r1, r5
 1804 00f0 02EB4202 		add	r2, r2, r2, lsl #1
 1805 00f4 816A     		ldr	r1, [r0, #40]
 1806 00f6 2148     		ldr	r0, .L209+4
 1807 00f8 DCF85CA0 		ldr	r10, [ip, #92]
 1808 00fc 50F82220 		ldr	r2, [r0, r2, lsl #2]
 1809 0100 0392     		str	r2, [sp, #12]
 1810 0102 8847     		blx	r1
 1811 0104 ADB2     		uxth	r5, r5
 1812 0106 DBF80010 		ldr	r1, [fp]
 1813 010a 1B4B     		ldr	r3, .L209
 1814 010c D8F80020 		ldr	r2, [r8]
 1815 0110 05FB0040 		mla	r0, r5, r0, r4
 1816 0114 09FB0134 		mla	r4, r9, r1, r3
 1817 0118 039B     		ldr	r3, [sp, #12]
 1818 011a 4AF82030 		str	r3, [r10, r0, lsl #2]
 1819 011e 01EB4101 		add	r1, r1, r1, lsl #1
 1820 0122 1648     		ldr	r0, .L209+4
 1821 0124 926A     		ldr	r2, [r2, #40]
 1822 0126 50F821A0 		ldr	r10, [r0, r1, lsl #2]
 1823 012a E46D     		ldr	r4, [r4, #92]
 1824 012c 9047     		blx	r2
 1825 012e 059B     		ldr	r3, [sp, #20]
 1826 0130 0099     		ldr	r1, [sp]
 1827 0132 05FB0070 		mla	r0, r5, r0, r7
 1828 0136 9942     		cmp	r1, r3
 1829 0138 1A46     		mov	r2, r3
 1830 013a 44F820A0 		str	r10, [r4, r0, lsl #2]
 1831 013e 07DB     		blt	.L199
 1832 0140 0131     		adds	r1, r1, #1
 1833 0142 03EB4102 		add	r2, r3, r1, lsl #1
 1834 0146 F142     		cmn	r1, r6
 1835 0148 0091     		str	r1, [sp]
 1836 014a 02F10102 		add	r2, r2, #1
 1837 014e 0FD0     		beq	.L208
 1838              	.L199:
ARM GAS  D:\Programs\cygwin64\tmp\ccnP8CjY.s 			page 32


 1839 0150 9E42     		cmp	r6, r3
 1840 0152 BFF678AF 		bge	.L204
 1841              	.L200:
 1842 0156 0136     		adds	r6, r6, #1
 1843 0158 02EB4603 		add	r3, r2, r6, lsl #1
 1844 015c 002E     		cmp	r6, #0
 1845 015e 03F10103 		add	r3, r3, #1
 1846 0162 7FF774AF 		ble	.L202
 1847              	.L207:
 1848 0166 07B0     		add	sp, sp, #28
 1849              		@ sp needed
 1850 0168 BDEC028B 		vldm	sp!, {d8}
 1851 016c BDE8F08F 		pop	{r4, r5, r6, r7, r8, r9, r10, fp, pc}
 1852              	.L208:
 1853 0170 9E42     		cmp	r6, r3
 1854 0172 F0DB     		blt	.L200
 1855 0174 0023     		movs	r3, #0
 1856 0176 EBE7     		b	.L199
 1857              	.L210:
 1858              		.align	2
 1859              	.L209:
 1860 0178 00000000 		.word	LtdcHandler
 1861 017c 00000000 		.word	.LANCHOR0
 1862 0180 00000000 		.word	.LANCHOR2
 1863 0184 00000000 		.word	LcdDrv
 1865              		.section	.text.BSP_LCD_DrawBitmap,"ax",%progbits
 1866              		.align	1
 1867              		.p2align 2,,3
 1868              		.global	BSP_LCD_DrawBitmap
 1869              		.syntax unified
 1870              		.thumb
 1871              		.thumb_func
 1872              		.fpu fpv4-sp-d16
 1874              	BSP_LCD_DrawBitmap:
 1875              		@ args = 0, pretend = 0, frame = 16
 1876              		@ frame_needed = 0, uses_anonymous_args = 0
 1877 0000 2DE9F04F 		push	{r4, r5, r6, r7, r8, r9, r10, fp, lr}
 1878 0004 4F4B     		ldr	r3, .L223
 1879 0006 DFF848A1 		ldr	r10, .L223+12
 1880 000a 1C68     		ldr	r4, [r3]
 1881 000c 92F80B80 		ldrb	r8, [r2, #11]	@ zero_extendqisi2
 1882 0010 92F813E0 		ldrb	lr, [r2, #19]	@ zero_extendqisi2
 1883 0014 967A     		ldrb	r6, [r2, #10]	@ zero_extendqisi2
 1884 0016 DFF83CC1 		ldr	ip, .L223+16
 1885 001a 1546     		mov	r5, r2
 1886 001c 927C     		ldrb	r2, [r2, #18]	@ zero_extendqisi2
 1887 001e EF7D     		ldrb	r7, [r5, #23]	@ zero_extendqisi2
 1888 0020 AB7D     		ldrb	r3, [r5, #22]	@ zero_extendqisi2
 1889 0022 95F80C90 		ldrb	r9, [r5, #12]	@ zero_extendqisi2
 1890 0026 95F80DB0 		ldrb	fp, [r5, #13]	@ zero_extendqisi2
 1891 002a 03EB0723 		add	r3, r3, r7, lsl #8
 1892 002e DAF80070 		ldr	r7, [r10]
 1893 0032 87B0     		sub	sp, sp, #28
 1894 0034 06EB0826 		add	r6, r6, r8, lsl #8
 1895 0038 02EB0E22 		add	r2, r2, lr, lsl #8
 1896 003c 95F81480 		ldrb	r8, [r5, #20]	@ zero_extendqisi2
 1897 0040 95F818E0 		ldrb	lr, [r5, #24]	@ zero_extendqisi2
ARM GAS  D:\Programs\cygwin64\tmp\ccnP8CjY.s 			page 33


 1898 0044 BF6A     		ldr	r7, [r7, #40]
 1899 0046 0597     		str	r7, [sp, #20]
 1900 0048 06EB0946 		add	r6, r6, r9, lsl #16
 1901 004c 95F81590 		ldrb	r9, [r5, #21]	@ zero_extendqisi2
 1902 0050 03EB0E43 		add	r3, r3, lr, lsl #16
 1903 0054 02EB0842 		add	r2, r2, r8, lsl #16
 1904 0058 3427     		movs	r7, #52
 1905 005a 95F819E0 		ldrb	lr, [r5, #25]	@ zero_extendqisi2
 1906 005e 07FB04C4 		mla	r4, r7, r4, ip
 1907 0062 02EB0962 		add	r2, r2, r9, lsl #24
 1908 0066 95F81DC0 		ldrb	ip, [r5, #29]	@ zero_extendqisi2
 1909 006a 0492     		str	r2, [sp, #16]
 1910 006c 06EB0B66 		add	r6, r6, fp, lsl #24
 1911 0070 95F81CB0 		ldrb	fp, [r5, #28]	@ zero_extendqisi2
 1912 0074 E76D     		ldr	r7, [r4, #92]
 1913 0076 03EB0E62 		add	r2, r3, lr, lsl #24
 1914 007a 059B     		ldr	r3, [sp, #20]
 1915 007c 0392     		str	r2, [sp, #12]
 1916 007e 8046     		mov	r8, r0
 1917 0080 0C46     		mov	r4, r1
 1918 0082 0BEB0C2B 		add	fp, fp, ip, lsl #8
 1919 0086 9847     		blx	r3
 1920 0088 ABF12003 		sub	r3, fp, #32
 1921 008c 04FB0080 		mla	r0, r4, r0, r8
 1922 0090 072B     		cmp	r3, #7
 1923 0092 07EB8007 		add	r7, r7, r0, lsl #2
 1924 0096 51D9     		bls	.L219
 1925 0098 ABF11003 		sub	r3, fp, #16
 1926 009c 082B     		cmp	r3, #8
 1927 009e 34BF     		ite	cc
 1928 00a0 4FF00208 		movcc	r8, #2
 1929 00a4 4FF00108 		movcs	r8, #1
 1930              	.L212:
 1931 00a8 049B     		ldr	r3, [sp, #16]
 1932 00aa 4FEADB0C 		lsr	ip, fp, #3
 1933 00ae 03FB0CFC 		mul	ip, r3, ip
 1934 00b2 039B     		ldr	r3, [sp, #12]
 1935 00b4 5A1E     		subs	r2, r3, #1
 1936 00b6 0CFB0266 		mla	r6, ip, r2, r6
 1937 00ba 3544     		add	r5, r5, r6
 1938 00bc 002B     		cmp	r3, #0
 1939 00be 3AD0     		beq	.L211
 1940 00c0 214C     		ldr	r4, .L223+4
 1941 00c2 CCF1000B 		rsb	fp, ip, #0
 1942 00c6 2646     		mov	r6, r4
 1943 00c8 4FF00009 		mov	r9, #0
 1944 00cc 09E0     		b	.L217
 1945              	.L215:
 1946 00ce DAF80030 		ldr	r3, [r10]
 1947 00d2 9B6A     		ldr	r3, [r3, #40]
 1948 00d4 9847     		blx	r3
 1949 00d6 039B     		ldr	r3, [sp, #12]
 1950 00d8 4B45     		cmp	r3, r9
 1951 00da 5D44     		add	r5, r5, fp
 1952 00dc 07EB8007 		add	r7, r7, r0, lsl #2
 1953 00e0 29D0     		beq	.L211
 1954              	.L217:
ARM GAS  D:\Programs\cygwin64\tmp\ccnP8CjY.s 			page 34


 1955 00e2 0023     		movs	r3, #0
 1956 00e4 FF22     		movs	r2, #255
 1957 00e6 4FF48031 		mov	r1, #65536
 1958 00ea 6160     		str	r1, [r4, #4]
 1959 00ec C4F82C80 		str	r8, [r4, #44]
 1960 00f0 1649     		ldr	r1, .L223+8
 1961 00f2 2363     		str	r3, [r4, #48]
 1962 00f4 A362     		str	r3, [r4, #40]
 1963 00f6 3046     		mov	r0, r6
 1964 00f8 6263     		str	r2, [r4, #52]
 1965 00fa 2160     		str	r1, [r4]
 1966 00fc C4E90233 		strd	r3, r3, [r4, #8]
 1967 0100 FFF7FEFF 		bl	HAL_DMA2D_Init
 1968 0104 09F10109 		add	r9, r9, #1
 1969 0108 0028     		cmp	r0, #0
 1970 010a E0D1     		bne	.L215
 1971 010c 0121     		movs	r1, #1
 1972 010e 3046     		mov	r0, r6
 1973 0110 FFF7FEFF 		bl	HAL_DMA2D_ConfigLayer
 1974 0114 0028     		cmp	r0, #0
 1975 0116 DAD1     		bne	.L215
 1976 0118 0123     		movs	r3, #1
 1977 011a 0093     		str	r3, [sp]
 1978 011c 3A46     		mov	r2, r7
 1979 011e 049B     		ldr	r3, [sp, #16]
 1980 0120 2946     		mov	r1, r5
 1981 0122 3046     		mov	r0, r6
 1982 0124 FFF7FEFF 		bl	HAL_DMA2D_Start
 1983 0128 0028     		cmp	r0, #0
 1984 012a D0D1     		bne	.L215
 1985 012c 0A21     		movs	r1, #10
 1986 012e 3046     		mov	r0, r6
 1987 0130 FFF7FEFF 		bl	HAL_DMA2D_PollForTransfer
 1988 0134 CBE7     		b	.L215
 1989              	.L211:
 1990 0136 07B0     		add	sp, sp, #28
 1991              		@ sp needed
 1992 0138 BDE8F08F 		pop	{r4, r5, r6, r7, r8, r9, r10, fp, pc}
 1993              	.L219:
 1994 013c 4FF00008 		mov	r8, #0
 1995 0140 B2E7     		b	.L212
 1996              	.L224:
 1997 0142 00BF     		.align	2
 1998              	.L223:
 1999 0144 00000000 		.word	.LANCHOR2
 2000 0148 00000000 		.word	.LANCHOR3
 2001 014c 00B00240 		.word	1073917952
 2002 0150 00000000 		.word	LcdDrv
 2003 0154 00000000 		.word	LtdcHandler
 2005              		.section	.text.BSP_LCD_FillRect,"ax",%progbits
 2006              		.align	1
 2007              		.p2align 2,,3
 2008              		.global	BSP_LCD_FillRect
 2009              		.syntax unified
 2010              		.thumb
 2011              		.thumb_func
 2012              		.fpu fpv4-sp-d16
ARM GAS  D:\Programs\cygwin64\tmp\ccnP8CjY.s 			page 35


 2014              	BSP_LCD_FillRect:
 2015              		@ args = 0, pretend = 0, frame = 8
 2016              		@ frame_needed = 0, uses_anonymous_args = 0
 2017 0000 2DE9F04F 		push	{r4, r5, r6, r7, r8, r9, r10, fp, lr}
 2018 0004 DFF8A480 		ldr	r8, .L231+16
 2019 0008 244D     		ldr	r5, .L231
 2020 000a D8F80070 		ldr	r7, [r8]
 2021 000e DFF8A0C0 		ldr	ip, .L231+20
 2022 0012 2E68     		ldr	r6, [r5]
 2023 0014 D7F82890 		ldr	r9, [r7, #40]
 2024 0018 214C     		ldr	r4, .L231+4
 2025 001a 3427     		movs	r7, #52
 2026 001c 85B0     		sub	sp, sp, #20
 2027 001e 07FB06C6 		mla	r6, r7, r6, ip
 2028 0022 8A46     		mov	r10, r1
 2029 0024 1746     		mov	r7, r2
 2030 0026 0393     		str	r3, [sp, #12]
 2031 0028 8346     		mov	fp, r0
 2032 002a F66D     		ldr	r6, [r6, #92]
 2033 002c C847     		blx	r9
 2034 002e D8F80030 		ldr	r3, [r8]
 2035 0032 D5F80080 		ldr	r8, [r5]
 2036 0036 9B6A     		ldr	r3, [r3, #40]
 2037 0038 8146     		mov	r9, r0
 2038 003a 9847     		blx	r3
 2039 003c 2B68     		ldr	r3, [r5]
 2040 003e 1949     		ldr	r1, .L231+8
 2041 0040 03EB4303 		add	r3, r3, r3, lsl #1
 2042 0044 C01B     		subs	r0, r0, r7
 2043 0046 4FF44032 		mov	r2, #196608
 2044 004a E060     		str	r0, [r4, #12]
 2045 004c 51F82350 		ldr	r5, [r1, r3, lsl #2]
 2046 0050 6260     		str	r2, [r4, #4]
 2047 0052 154B     		ldr	r3, .L231+12
 2048 0054 2360     		str	r3, [r4]
 2049 0056 0022     		movs	r2, #0
 2050 0058 2046     		mov	r0, r4
 2051 005a A260     		str	r2, [r4, #8]
 2052 005c FFF7FEFF 		bl	HAL_DMA2D_Init
 2053 0060 10B1     		cbz	r0, .L230
 2054              	.L225:
 2055 0062 05B0     		add	sp, sp, #20
 2056              		@ sp needed
 2057 0064 BDE8F08F 		pop	{r4, r5, r6, r7, r8, r9, r10, fp, pc}
 2058              	.L230:
 2059 0068 4146     		mov	r1, r8
 2060 006a 2046     		mov	r0, r4
 2061 006c FFF7FEFF 		bl	HAL_DMA2D_ConfigLayer
 2062 0070 0028     		cmp	r0, #0
 2063 0072 F6D1     		bne	.L225
 2064 0074 039B     		ldr	r3, [sp, #12]
 2065 0076 0093     		str	r3, [sp]
 2066 0078 09FB0AB2 		mla	r2, r9, r10, fp
 2067 007c 06EB8202 		add	r2, r6, r2, lsl #2
 2068 0080 3B46     		mov	r3, r7
 2069 0082 2946     		mov	r1, r5
 2070 0084 2046     		mov	r0, r4
ARM GAS  D:\Programs\cygwin64\tmp\ccnP8CjY.s 			page 36


 2071 0086 FFF7FEFF 		bl	HAL_DMA2D_Start
 2072 008a 0028     		cmp	r0, #0
 2073 008c E9D1     		bne	.L225
 2074 008e 2046     		mov	r0, r4
 2075 0090 0A21     		movs	r1, #10
 2076 0092 05B0     		add	sp, sp, #20
 2077              		@ sp needed
 2078 0094 BDE8F04F 		pop	{r4, r5, r6, r7, r8, r9, r10, fp, lr}
 2079 0098 FFF7FEBF 		b	HAL_DMA2D_PollForTransfer
 2080              	.L232:
 2081              		.align	2
 2082              	.L231:
 2083 009c 00000000 		.word	.LANCHOR2
 2084 00a0 00000000 		.word	.LANCHOR3
 2085 00a4 00000000 		.word	.LANCHOR0
 2086 00a8 00B00240 		.word	1073917952
 2087 00ac 00000000 		.word	LcdDrv
 2088 00b0 00000000 		.word	LtdcHandler
 2090              		.section	.text.BSP_LCD_FillCircle,"ax",%progbits
 2091              		.align	1
 2092              		.p2align 2,,3
 2093              		.global	BSP_LCD_FillCircle
 2094              		.syntax unified
 2095              		.thumb
 2096              		.thumb_func
 2097              		.fpu fpv4-sp-d16
 2099              	BSP_LCD_FillCircle:
 2100              		@ args = 0, pretend = 0, frame = 8
 2101              		@ frame_needed = 0, uses_anonymous_args = 0
 2102 0000 2DE9F04F 		push	{r4, r5, r6, r7, r8, r9, r10, fp, lr}
 2103 0004 83B0     		sub	sp, sp, #12
 2104 0006 5600     		lsls	r6, r2, #1
 2105 0008 1546     		mov	r5, r2
 2106 000a 0192     		str	r2, [sp, #4]
 2107 000c 8146     		mov	r9, r0
 2108 000e 8846     		mov	r8, r1
 2109 0010 C6F10306 		rsb	r6, r6, #3
 2110 0014 0024     		movs	r4, #0
 2111              	.L234:
 2112 0016 B5B9     		cbnz	r5, .L248
 2113              	.L235:
 2114 0018 74BB     		cbnz	r4, .L249
 2115              	.L236:
 2116 001a 002E     		cmp	r6, #0
 2117 001c 06F10601 		add	r1, r6, #6
 2118 0020 A4EB0502 		sub	r2, r4, r5
 2119 0024 06F10A03 		add	r3, r6, #10
 2120 0028 45DB     		blt	.L250
 2121              	.L237:
 2122 002a 013D     		subs	r5, r5, #1
 2123 002c 0134     		adds	r4, r4, #1
 2124 002e A542     		cmp	r5, r4
 2125 0030 03EB8206 		add	r6, r3, r2, lsl #2
 2126 0034 EFD2     		bcs	.L234
 2127              	.L239:
 2128 0036 019A     		ldr	r2, [sp, #4]
 2129 0038 4146     		mov	r1, r8
ARM GAS  D:\Programs\cygwin64\tmp\ccnP8CjY.s 			page 37


 2130 003a 4846     		mov	r0, r9
 2131 003c 03B0     		add	sp, sp, #12
 2132              		@ sp needed
 2133 003e BDE8F04F 		pop	{r4, r5, r6, r7, r8, r9, r10, fp, lr}
 2134 0042 FFF7FEBF 		b	BSP_LCD_DrawCircle
 2135              	.L248:
 2136 0046 AFB2     		uxth	r7, r5
 2137 0048 A9EB0703 		sub	r3, r9, r7
 2138 004c 1FFA84FB 		uxth	fp, r4
 2139 0050 7F00     		lsls	r7, r7, #1
 2140 0052 1FFA83FA 		uxth	r10, r3
 2141 0056 BFB2     		uxth	r7, r7
 2142 0058 08EB0B01 		add	r1, r8, fp
 2143 005c 3A46     		mov	r2, r7
 2144 005e 5046     		mov	r0, r10
 2145 0060 89B2     		uxth	r1, r1
 2146 0062 FFF7FEFF 		bl	BSP_LCD_DrawHLine
 2147 0066 A8EB0B01 		sub	r1, r8, fp
 2148 006a 3A46     		mov	r2, r7
 2149 006c 5046     		mov	r0, r10
 2150 006e 89B2     		uxth	r1, r1
 2151 0070 FFF7FEFF 		bl	BSP_LCD_DrawHLine
 2152 0074 002C     		cmp	r4, #0
 2153 0076 D0D0     		beq	.L236
 2154              	.L249:
 2155 0078 A7B2     		uxth	r7, r4
 2156 007a A9EB0703 		sub	r3, r9, r7
 2157 007e 1FFA85FB 		uxth	fp, r5
 2158 0082 7F00     		lsls	r7, r7, #1
 2159 0084 1FFA83FA 		uxth	r10, r3
 2160 0088 BFB2     		uxth	r7, r7
 2161 008a A8EB0B01 		sub	r1, r8, fp
 2162 008e 3A46     		mov	r2, r7
 2163 0090 5046     		mov	r0, r10
 2164 0092 89B2     		uxth	r1, r1
 2165 0094 FFF7FEFF 		bl	BSP_LCD_DrawHLine
 2166 0098 0BEB0801 		add	r1, fp, r8
 2167 009c 3A46     		mov	r2, r7
 2168 009e 89B2     		uxth	r1, r1
 2169 00a0 5046     		mov	r0, r10
 2170 00a2 FFF7FEFF 		bl	BSP_LCD_DrawHLine
 2171 00a6 002E     		cmp	r6, #0
 2172 00a8 06F10601 		add	r1, r6, #6
 2173 00ac A4EB0502 		sub	r2, r4, r5
 2174 00b0 06F10A03 		add	r3, r6, #10
 2175 00b4 B9DA     		bge	.L237
 2176              	.L250:
 2177 00b6 01EB8406 		add	r6, r1, r4, lsl #2
 2178 00ba 0134     		adds	r4, r4, #1
 2179 00bc AC42     		cmp	r4, r5
 2180 00be BAD8     		bhi	.L239
 2181 00c0 002D     		cmp	r5, #0
 2182 00c2 A9D0     		beq	.L235
 2183 00c4 BFE7     		b	.L248
 2185 00c6 00BF     		.section	.text.BSP_LCD_FillTriangle,"ax",%progbits
 2186              		.align	1
 2187              		.p2align 2,,3
ARM GAS  D:\Programs\cygwin64\tmp\ccnP8CjY.s 			page 38


 2188              		.global	BSP_LCD_FillTriangle
 2189              		.syntax unified
 2190              		.thumb
 2191              		.thumb_func
 2192              		.fpu fpv4-sp-d16
 2194              	BSP_LCD_FillTriangle:
 2195              		@ args = 8, pretend = 0, frame = 16
 2196              		@ frame_needed = 0, uses_anonymous_args = 0
 2197 0000 2DE9F04F 		push	{r4, r5, r6, r7, r8, r9, r10, fp, lr}
 2198 0004 85B0     		sub	sp, sp, #20
 2199 0006 0F1A     		subs	r7, r1, r0
 2200 0008 BDF83840 		ldrh	r4, [sp, #56]
 2201 000c BDF83C50 		ldrh	r5, [sp, #60]
 2202 0010 0195     		str	r5, [sp, #4]
 2203 0012 A4EB030C 		sub	ip, r4, r3
 2204 0016 002F     		cmp	r7, #0
 2205 0018 B8BF     		it	lt
 2206 001a 7F42     		rsblt	r7, r7, #0
 2207 001c BCF1000F 		cmp	ip, #0
 2208 0020 B8BF     		it	lt
 2209 0022 CCF1000C 		rsblt	ip, ip, #0
 2210 0026 4FF6FF7B 		movw	fp, #65535
 2211 002a 3FB2     		sxth	r7, r7
 2212 002c 0FFA8CFC 		sxth	ip, ip
 2213 0030 8142     		cmp	r1, r0
 2214 0032 34BF     		ite	cc
 2215 0034 5946     		movcc	r1, fp
 2216 0036 0121     		movcs	r1, #1
 2217 0038 9C42     		cmp	r4, r3
 2218 003a 28BF     		it	cs
 2219 003c 4FF0010B 		movcs	fp, #1
 2220 0040 6745     		cmp	r7, ip
 2221 0042 06B2     		sxth	r6, r0
 2222 0044 0091     		str	r1, [sp]
 2223 0046 1BB2     		sxth	r3, r3
 2224 0048 3CDB     		blt	.L254
 2225 004a 8946     		mov	r9, r1
 2226 004c 07EBD774 		add	r4, r7, r7, lsr #31
 2227 0050 0021     		movs	r1, #0
 2228 0052 0091     		str	r1, [sp]
 2229 0054 6410     		asrs	r4, r4, #1
 2230 0056 8A46     		mov	r10, r1
 2231              	.L255:
 2232 0058 002F     		cmp	r7, #0
 2233 005a 27DB     		blt	.L251
 2234 005c 0392     		str	r2, [sp, #12]
 2235 005e 1FFA8CF2 		uxth	r2, ip
 2236 0062 0292     		str	r2, [sp, #8]
 2237 0064 4FF00008 		mov	r8, #0
 2238              	.L257:
 2239 0068 B6B2     		uxth	r6, r6
 2240 006a 9DB2     		uxth	r5, r3
 2241 006c 2946     		mov	r1, r5
 2242 006e 3046     		mov	r0, r6
 2243 0070 019B     		ldr	r3, [sp, #4]
 2244 0072 039A     		ldr	r2, [sp, #12]
 2245 0074 FFF7FEFF 		bl	BSP_LCD_DrawLine
ARM GAS  D:\Programs\cygwin64\tmp\ccnP8CjY.s 			page 39


 2246 0078 029B     		ldr	r3, [sp, #8]
 2247 007a 1C44     		add	r4, r4, r3
 2248 007c 009B     		ldr	r3, [sp]
 2249 007e A2B2     		uxth	r2, r4
 2250 0080 F018     		adds	r0, r6, r3
 2251 0082 14B2     		sxth	r4, r2
 2252 0084 05EB0B03 		add	r3, r5, fp
 2253 0088 4844     		add	r0, r0, r9
 2254 008a 5344     		add	r3, r3, r10
 2255 008c A742     		cmp	r7, r4
 2256 008e 06EB0901 		add	r1, r6, r9
 2257 0092 A2EB0702 		sub	r2, r2, r7
 2258 0096 5544     		add	r5, r5, r10
 2259 0098 08F10108 		add	r8, r8, #1
 2260 009c 06B2     		sxth	r6, r0
 2261 009e 1BB2     		sxth	r3, r3
 2262 00a0 07DC     		bgt	.L258
 2263 00a2 0FFA88F1 		sxth	r1, r8
 2264 00a6 B942     		cmp	r1, r7
 2265 00a8 14B2     		sxth	r4, r2
 2266 00aa DDDD     		ble	.L257
 2267              	.L251:
 2268 00ac 05B0     		add	sp, sp, #20
 2269              		@ sp needed
 2270 00ae BDE8F08F 		pop	{r4, r5, r6, r7, r8, r9, r10, fp, pc}
 2271              	.L258:
 2272 00b2 0FFA88F2 		sxth	r2, r8
 2273 00b6 BA42     		cmp	r2, r7
 2274 00b8 0EB2     		sxth	r6, r1
 2275 00ba 2BB2     		sxth	r3, r5
 2276 00bc D4DD     		ble	.L257
 2277 00be 05B0     		add	sp, sp, #20
 2278              		@ sp needed
 2279 00c0 BDE8F08F 		pop	{r4, r5, r6, r7, r8, r9, r10, fp, pc}
 2280              	.L254:
 2281 00c4 3946     		mov	r1, r7
 2282 00c6 0CEBDC74 		add	r4, ip, ip, lsr #31
 2283 00ca DA46     		mov	r10, fp
 2284 00cc 4FF0000B 		mov	fp, #0
 2285 00d0 6746     		mov	r7, ip
 2286 00d2 44F34F04 		sbfx	r4, r4, #1, #16
 2287 00d6 8C46     		mov	ip, r1
 2288 00d8 D946     		mov	r9, fp
 2289 00da BDE7     		b	.L255
 2291              		.section	.text.BSP_LCD_FillPolygon,"ax",%progbits
 2292              		.align	1
 2293              		.p2align 2,,3
 2294              		.global	BSP_LCD_FillPolygon
 2295              		.syntax unified
 2296              		.thumb
 2297              		.thumb_func
 2298              		.fpu fpv4-sp-d16
 2300              	BSP_LCD_FillPolygon:
 2301              		@ args = 0, pretend = 0, frame = 96
 2302              		@ frame_needed = 0, uses_anonymous_args = 0
 2303 0000 2DE9F04F 		push	{r4, r5, r6, r7, r8, r9, r10, fp, lr}
 2304 0004 B0F90030 		ldrsh	r3, [r0]
ARM GAS  D:\Programs\cygwin64\tmp\ccnP8CjY.s 			page 40


 2305 0008 B0F90220 		ldrsh	r2, [r0, #2]
 2306 000c 99B0     		sub	sp, sp, #100
 2307 000e 0129     		cmp	r1, #1
 2308 0010 1793     		str	r3, [sp, #92]
 2309 0012 1692     		str	r2, [sp, #88]
 2310 0014 9BB2     		uxth	r3, r3
 2311 0016 92B2     		uxth	r2, r2
 2312 0018 1593     		str	r3, [sp, #84]
 2313 001a 1492     		str	r2, [sp, #80]
 2314 001c CDE90F32 		strd	r3, r2, [sp, #60]
 2315 0020 40F39582 		ble	.L324
 2316 0024 9E46     		mov	lr, r3
 2317 0026 1F46     		mov	r7, r3
 2318 0028 1646     		mov	r6, r2
 2319 002a 9446     		mov	ip, r2
 2320 002c 0123     		movs	r3, #1
 2321              	.L270:
 2322 002e 30F92320 		ldrsh	r2, [r0, r3, lsl #2]
 2323 0032 00EB8304 		add	r4, r0, r3, lsl #2
 2324 0036 BA42     		cmp	r2, r7
 2325 0038 B8BF     		it	lt
 2326 003a 97B2     		uxthlt	r7, r2
 2327 003c 7245     		cmp	r2, lr
 2328 003e C8BF     		it	gt
 2329 0040 1FFA82FE 		uxthgt	lr, r2
 2330 0044 B4F90220 		ldrsh	r2, [r4, #2]
 2331 0048 5D1C     		adds	r5, r3, #1
 2332 004a 6245     		cmp	r2, ip
 2333 004c 2BB2     		sxth	r3, r5
 2334 004e B8BF     		it	lt
 2335 0050 1FFA82FC 		uxthlt	ip, r2
 2336 0054 B242     		cmp	r2, r6
 2337 0056 C8BF     		it	gt
 2338 0058 96B2     		uxthgt	r6, r2
 2339 005a 8B42     		cmp	r3, r1
 2340 005c E7DB     		blt	.L270
 2341              	.L265:
 2342 005e 0129     		cmp	r1, #1
 2343 0060 40F21382 		bls	.L264
 2344 0064 0346     		mov	r3, r0
 2345 0066 0239     		subs	r1, r1, #2
 2346 0068 7744     		add	r7, r7, lr
 2347 006a 89B2     		uxth	r1, r1
 2348 006c 0433     		adds	r3, r3, #4
 2349 006e 7A10     		asrs	r2, r7, #1
 2350 0070 03EB8103 		add	r3, r3, r1, lsl #2
 2351 0074 6644     		add	r6, r6, ip
 2352 0076 7410     		asrs	r4, r6, #1
 2353 0078 1293     		str	r3, [sp, #72]
 2354 007a 93B2     		uxth	r3, r2
 2355 007c 0193     		str	r3, [sp, #4]
 2356 007e A3B2     		uxth	r3, r4
 2357 0080 0293     		str	r3, [sp, #8]
 2358 0082 13B2     		sxth	r3, r2
 2359 0084 1193     		str	r3, [sp, #68]
 2360 0086 23B2     		sxth	r3, r4
 2361 0088 0790     		str	r0, [sp, #28]
ARM GAS  D:\Programs\cygwin64\tmp\ccnP8CjY.s 			page 41


 2362 008a 0C92     		str	r2, [sp, #48]
 2363 008c 0D94     		str	r4, [sp, #52]
 2364 008e 1393     		str	r3, [sp, #76]
 2365              	.L295:
 2366 0090 079B     		ldr	r3, [sp, #28]
 2367 0092 B3F900A0 		ldrsh	r10, [r3]
 2368 0096 9988     		ldrh	r1, [r3, #4]
 2369 0098 B3F90220 		ldrsh	r2, [r3, #2]
 2370 009c D888     		ldrh	r0, [r3, #6]
 2371 009e 0391     		str	r1, [sp, #12]
 2372 00a0 1FFA8AF5 		uxth	r5, r10
 2373 00a4 4F1B     		subs	r7, r1, r5
 2374 00a6 96B2     		uxth	r6, r2
 2375 00a8 831B     		subs	r3, r0, r6
 2376 00aa 002F     		cmp	r7, #0
 2377 00ac B8BF     		it	lt
 2378 00ae 7F42     		rsblt	r7, r7, #0
 2379 00b0 4FF6FF74 		movw	r4, #65535
 2380 00b4 002B     		cmp	r3, #0
 2381 00b6 B8BF     		it	lt
 2382 00b8 5B42     		rsblt	r3, r3, #0
 2383 00ba 8D42     		cmp	r5, r1
 2384 00bc 98BF     		it	ls
 2385 00be 0124     		movls	r4, #1
 2386 00c0 3FB2     		sxth	r7, r7
 2387 00c2 1BB2     		sxth	r3, r3
 2388 00c4 2146     		mov	r1, r4
 2389 00c6 0694     		str	r4, [sp, #24]
 2390 00c8 4FF6FF74 		movw	r4, #65535
 2391 00cc 8642     		cmp	r6, r0
 2392 00ce 98BF     		it	ls
 2393 00d0 0124     		movls	r4, #1
 2394 00d2 9F42     		cmp	r7, r3
 2395 00d4 0490     		str	r0, [sp, #16]
 2396 00d6 CDE90856 		strd	r5, r6, [sp, #32]
 2397 00da 0594     		str	r4, [sp, #20]
 2398 00dc C0F20482 		blt	.L274
 2399 00e0 8B46     		mov	fp, r1
 2400 00e2 07EBD774 		add	r4, r7, r7, lsr #31
 2401 00e6 0021     		movs	r1, #0
 2402 00e8 0691     		str	r1, [sp, #24]
 2403 00ea 6410     		asrs	r4, r4, #1
 2404 00ec 0A91     		str	r1, [sp, #40]
 2405              	.L275:
 2406 00ee 002F     		cmp	r7, #0
 2407 00f0 2DDB     		blt	.L281
 2408 00f2 9BB2     		uxth	r3, r3
 2409 00f4 0B93     		str	r3, [sp, #44]
 2410 00f6 4FF00008 		mov	r8, #0
 2411 00fa 0E95     		str	r5, [sp, #56]
 2412              	.L278:
 2413 00fc 1FFA8AFA 		uxth	r10, r10
 2414 0100 1FFA82F9 		uxth	r9, r2
 2415 0104 4946     		mov	r1, r9
 2416 0106 5046     		mov	r0, r10
 2417 0108 DDE90123 		ldrd	r2, r3, [sp, #4]
 2418 010c FFF7FEFF 		bl	BSP_LCD_DrawLine
ARM GAS  D:\Programs\cygwin64\tmp\ccnP8CjY.s 			page 42


 2419 0110 0B9B     		ldr	r3, [sp, #44]
 2420 0112 069A     		ldr	r2, [sp, #24]
 2421 0114 0A9D     		ldr	r5, [sp, #40]
 2422 0116 0AEB0201 		add	r1, r10, r2
 2423 011a 1C44     		add	r4, r4, r3
 2424 011c 059A     		ldr	r2, [sp, #20]
 2425 011e A3B2     		uxth	r3, r4
 2426 0120 4A44     		add	r2, r9, r2
 2427 0122 1CB2     		sxth	r4, r3
 2428 0124 5944     		add	r1, r1, fp
 2429 0126 2A44     		add	r2, r2, r5
 2430 0128 BC42     		cmp	r4, r7
 2431 012a 0AEB0B00 		add	r0, r10, fp
 2432 012e A3EB0703 		sub	r3, r3, r7
 2433 0132 A944     		add	r9, r9, r5
 2434 0134 08F10108 		add	r8, r8, #1
 2435 0138 0FFA81FA 		sxth	r10, r1
 2436 013c 12B2     		sxth	r2, r2
 2437 013e C0F2A781 		blt	.L279
 2438 0142 0FFA88F1 		sxth	r1, r8
 2439 0146 8F42     		cmp	r7, r1
 2440 0148 1CB2     		sxth	r4, r3
 2441 014a D7DA     		bge	.L278
 2442              	.L343:
 2443 014c 0E9D     		ldr	r5, [sp, #56]
 2444              	.L281:
 2445 014e 0C9B     		ldr	r3, [sp, #48]
 2446 0150 0199     		ldr	r1, [sp, #4]
 2447 0152 5F1B     		subs	r7, r3, r5
 2448 0154 0D9B     		ldr	r3, [sp, #52]
 2449 0156 002F     		cmp	r7, #0
 2450 0158 A3EB0603 		sub	r3, r3, r6
 2451 015c B8BF     		it	lt
 2452 015e 7F42     		rsblt	r7, r7, #0
 2453 0160 4FF6FF72 		movw	r2, #65535
 2454 0164 002B     		cmp	r3, #0
 2455 0166 B8BF     		it	lt
 2456 0168 5B42     		rsblt	r3, r3, #0
 2457 016a 8D42     		cmp	r5, r1
 2458 016c 98BF     		it	ls
 2459 016e 0122     		movls	r2, #1
 2460 0170 0592     		str	r2, [sp, #20]
 2461 0172 029A     		ldr	r2, [sp, #8]
 2462 0174 3FB2     		sxth	r7, r7
 2463 0176 1BB2     		sxth	r3, r3
 2464 0178 4FF6FF7B 		movw	fp, #65535
 2465 017c 9642     		cmp	r6, r2
 2466 017e 98BF     		it	ls
 2467 0180 4FF0010B 		movls	fp, #1
 2468 0184 9F42     		cmp	r7, r3
 2469 0186 C0F2A381 		blt	.L283
 2470 018a 0022     		movs	r2, #0
 2471 018c 07EBD774 		add	r4, r7, r7, lsr #31
 2472 0190 DDF81490 		ldr	r9, [sp, #20]
 2473 0194 0592     		str	r2, [sp, #20]
 2474 0196 44F34F04 		sbfx	r4, r4, #1, #16
 2475 019a 9246     		mov	r10, r2
ARM GAS  D:\Programs\cygwin64\tmp\ccnP8CjY.s 			page 43


 2476              	.L284:
 2477 019c 002F     		cmp	r7, #0
 2478 019e 2BDB     		blt	.L290
 2479 01a0 9BB2     		uxth	r3, r3
 2480 01a2 0693     		str	r3, [sp, #24]
 2481 01a4 4FF00008 		mov	r8, #0
 2482 01a8 06E0     		b	.L287
 2483              	.L346:
 2484 01aa 0FFA88F0 		sxth	r0, r8
 2485 01ae B842     		cmp	r0, r7
 2486 01b0 14B2     		sxth	r4, r2
 2487 01b2 21DC     		bgt	.L290
 2488              	.L289:
 2489 01b4 8DB2     		uxth	r5, r1
 2490 01b6 9EB2     		uxth	r6, r3
 2491              	.L287:
 2492 01b8 DDE90323 		ldrd	r2, r3, [sp, #12]
 2493 01bc 3146     		mov	r1, r6
 2494 01be 2846     		mov	r0, r5
 2495 01c0 FFF7FEFF 		bl	BSP_LCD_DrawLine
 2496 01c4 069B     		ldr	r3, [sp, #24]
 2497 01c6 1C44     		add	r4, r4, r3
 2498 01c8 059B     		ldr	r3, [sp, #20]
 2499 01ca A2B2     		uxth	r2, r4
 2500 01cc E918     		adds	r1, r5, r3
 2501 01ce 14B2     		sxth	r4, r2
 2502 01d0 06EB0B03 		add	r3, r6, fp
 2503 01d4 4944     		add	r1, r1, r9
 2504 01d6 5344     		add	r3, r3, r10
 2505 01d8 BC42     		cmp	r4, r7
 2506 01da 4D44     		add	r5, r5, r9
 2507 01dc 5644     		add	r6, r6, r10
 2508 01de A2EB0702 		sub	r2, r2, r7
 2509 01e2 08F10108 		add	r8, r8, #1
 2510 01e6 09B2     		sxth	r1, r1
 2511 01e8 1BB2     		sxth	r3, r3
 2512 01ea DEDA     		bge	.L346
 2513 01ec 0FFA88F2 		sxth	r2, r8
 2514 01f0 BA42     		cmp	r2, r7
 2515 01f2 29B2     		sxth	r1, r5
 2516 01f4 33B2     		sxth	r3, r6
 2517 01f6 DDDD     		ble	.L289
 2518              	.L290:
 2519 01f8 039B     		ldr	r3, [sp, #12]
 2520 01fa 0C9A     		ldr	r2, [sp, #48]
 2521 01fc 0D99     		ldr	r1, [sp, #52]
 2522 01fe 9C1A     		subs	r4, r3, r2
 2523 0200 049A     		ldr	r2, [sp, #16]
 2524 0202 002C     		cmp	r4, #0
 2525 0204 A2EB0106 		sub	r6, r2, r1
 2526 0208 0199     		ldr	r1, [sp, #4]
 2527 020a B8BF     		it	lt
 2528 020c 6442     		rsblt	r4, r4, #0
 2529 020e 4FF6FF70 		movw	r0, #65535
 2530 0212 002E     		cmp	r6, #0
 2531 0214 B8BF     		it	lt
 2532 0216 7642     		rsblt	r6, r6, #0
ARM GAS  D:\Programs\cygwin64\tmp\ccnP8CjY.s 			page 44


 2533 0218 8B42     		cmp	r3, r1
 2534 021a 28BF     		it	cs
 2535 021c 0120     		movcs	r0, #1
 2536 021e 0299     		ldr	r1, [sp, #8]
 2537 0220 0590     		str	r0, [sp, #20]
 2538 0222 24B2     		sxth	r4, r4
 2539 0224 36B2     		sxth	r6, r6
 2540 0226 4FF6FF73 		movw	r3, #65535
 2541 022a 8A42     		cmp	r2, r1
 2542 022c 28BF     		it	cs
 2543 022e 0123     		movcs	r3, #1
 2544 0230 B442     		cmp	r4, r6
 2545 0232 0693     		str	r3, [sp, #24]
 2546 0234 C0F23F81 		blt	.L292
 2547 0238 04EBD473 		add	r3, r4, r4, lsr #31
 2548 023c 0022     		movs	r2, #0
 2549 023e 43F34F03 		sbfx	r3, r3, #1, #16
 2550 0242 DDF814B0 		ldr	fp, [sp, #20]
 2551 0246 0B93     		str	r3, [sp, #44]
 2552 0248 0592     		str	r2, [sp, #20]
 2553 024a 9246     		mov	r10, r2
 2554              	.L293:
 2555 024c 002C     		cmp	r4, #0
 2556 024e 28DB     		blt	.L300
 2557 0250 B3B2     		uxth	r3, r6
 2558 0252 0A93     		str	r3, [sp, #40]
 2559 0254 0B9D     		ldr	r5, [sp, #44]
 2560 0256 139A     		ldr	r2, [sp, #76]
 2561 0258 119B     		ldr	r3, [sp, #68]
 2562 025a 0027     		movs	r7, #0
 2563              	.L297:
 2564 025c 1FFA83F8 		uxth	r8, r3
 2565 0260 1FFA82F9 		uxth	r9, r2
 2566 0264 4946     		mov	r1, r9
 2567 0266 DDE90823 		ldrd	r2, r3, [sp, #32]
 2568 026a 4046     		mov	r0, r8
 2569 026c FFF7FEFF 		bl	BSP_LCD_DrawLine
 2570 0270 0A9B     		ldr	r3, [sp, #40]
 2571 0272 069A     		ldr	r2, [sp, #24]
 2572 0274 1D44     		add	r5, r5, r3
 2573 0276 059B     		ldr	r3, [sp, #20]
 2574 0278 A9B2     		uxth	r1, r5
 2575 027a 4344     		add	r3, r8, r3
 2576 027c 4A44     		add	r2, r9, r2
 2577 027e 0DB2     		sxth	r5, r1
 2578 0280 5B44     		add	r3, r3, fp
 2579 0282 5244     		add	r2, r2, r10
 2580 0284 A542     		cmp	r5, r4
 2581 0286 A1EB0401 		sub	r1, r1, r4
 2582 028a D844     		add	r8, r8, fp
 2583 028c D144     		add	r9, r9, r10
 2584 028e 07F10107 		add	r7, r7, #1
 2585 0292 1BB2     		sxth	r3, r3
 2586 0294 12B2     		sxth	r2, r2
 2587 0296 C0F20581 		blt	.L298
 2588 029a 38B2     		sxth	r0, r7
 2589 029c 8442     		cmp	r4, r0
ARM GAS  D:\Programs\cygwin64\tmp\ccnP8CjY.s 			page 45


 2590 029e 0DB2     		sxth	r5, r1
 2591 02a0 DCDA     		bge	.L297
 2592              	.L300:
 2593 02a2 079B     		ldr	r3, [sp, #28]
 2594 02a4 129A     		ldr	r2, [sp, #72]
 2595 02a6 0433     		adds	r3, r3, #4
 2596 02a8 9342     		cmp	r3, r2
 2597 02aa 0793     		str	r3, [sp, #28]
 2598 02ac 7FF4F0AE 		bne	.L295
 2599 02b0 0399     		ldr	r1, [sp, #12]
 2600 02b2 1598     		ldr	r0, [sp, #84]
 2601 02b4 049D     		ldr	r5, [sp, #16]
 2602 02b6 1296     		str	r6, [sp, #72]
 2603 02b8 149E     		ldr	r6, [sp, #80]
 2604 02ba A1EB0008 		sub	r8, r1, r0
 2605 02be AB1B     		subs	r3, r5, r6
 2606 02c0 B8F1000F 		cmp	r8, #0
 2607 02c4 B8BF     		it	lt
 2608 02c6 C8F10008 		rsblt	r8, r8, #0
 2609 02ca 002B     		cmp	r3, #0
 2610 02cc B8BF     		it	lt
 2611 02ce 5B42     		rsblt	r3, r3, #0
 2612 02d0 4FF6FF72 		movw	r2, #65535
 2613 02d4 0FFA88F8 		sxth	r8, r8
 2614 02d8 1BB2     		sxth	r3, r3
 2615 02da 8142     		cmp	r1, r0
 2616 02dc 34BF     		ite	cc
 2617 02de 1146     		movcc	r1, r2
 2618 02e0 0121     		movcs	r1, #1
 2619 02e2 B542     		cmp	r5, r6
 2620 02e4 28BF     		it	cs
 2621 02e6 0122     		movcs	r2, #1
 2622 02e8 9845     		cmp	r8, r3
 2623 02ea 0891     		str	r1, [sp, #32]
 2624 02ec 0792     		str	r2, [sp, #28]
 2625 02ee 80F20781 		bge	.L347
 2626 02f2 03EBD375 		add	r5, r3, r3, lsr #31
 2627 02f6 0021     		movs	r1, #0
 2628 02f8 0A92     		str	r2, [sp, #40]
 2629 02fa 4246     		mov	r2, r8
 2630 02fc 0791     		str	r1, [sp, #28]
 2631 02fe 9846     		mov	r8, r3
 2632 0300 45F34F05 		sbfx	r5, r5, #1, #16
 2633 0304 1346     		mov	r3, r2
 2634 0306 0991     		str	r1, [sp, #36]
 2635              	.L304:
 2636 0308 B8F1000F 		cmp	r8, #0
 2637 030c 2CDB     		blt	.L310
 2638 030e 9BB2     		uxth	r3, r3
 2639 0310 DDE91621 		ldrd	r2, r1, [sp, #88]
 2640 0314 0E93     		str	r3, [sp, #56]
 2641 0316 4FF00009 		mov	r9, #0
 2642 031a 1694     		str	r4, [sp, #88]
 2643              	.L307:
 2644 031c 8FB2     		uxth	r7, r1
 2645 031e 96B2     		uxth	r6, r2
 2646 0320 3146     		mov	r1, r6
ARM GAS  D:\Programs\cygwin64\tmp\ccnP8CjY.s 			page 46


 2647 0322 DDE90123 		ldrd	r2, r3, [sp, #4]
 2648 0326 3846     		mov	r0, r7
 2649 0328 FFF7FEFF 		bl	BSP_LCD_DrawLine
 2650 032c 0E9B     		ldr	r3, [sp, #56]
 2651 032e 089A     		ldr	r2, [sp, #32]
 2652 0330 0998     		ldr	r0, [sp, #36]
 2653 0332 0A9C     		ldr	r4, [sp, #40]
 2654 0334 1D44     		add	r5, r5, r3
 2655 0336 B918     		adds	r1, r7, r2
 2656 0338 079A     		ldr	r2, [sp, #28]
 2657 033a ABB2     		uxth	r3, r5
 2658 033c B218     		adds	r2, r6, r2
 2659 033e 1DB2     		sxth	r5, r3
 2660 0340 0144     		add	r1, r1, r0
 2661 0342 2244     		add	r2, r2, r4
 2662 0344 4545     		cmp	r5, r8
 2663 0346 A3EB080C 		sub	ip, r3, r8
 2664 034a 3844     		add	r0, r7, r0
 2665 034c 2644     		add	r6, r6, r4
 2666 034e 09F10109 		add	r9, r9, #1
 2667 0352 09B2     		sxth	r1, r1
 2668 0354 12B2     		sxth	r2, r2
 2669 0356 C0F2DB80 		blt	.L308
 2670 035a 0FFA89F0 		sxth	r0, r9
 2671 035e 8045     		cmp	r8, r0
 2672 0360 0FFA8CF5 		sxth	r5, ip
 2673 0364 DADA     		bge	.L307
 2674              	.L344:
 2675 0366 169C     		ldr	r4, [sp, #88]
 2676              	.L310:
 2677 0368 0C9B     		ldr	r3, [sp, #48]
 2678 036a 1599     		ldr	r1, [sp, #84]
 2679 036c 1498     		ldr	r0, [sp, #80]
 2680 036e 019D     		ldr	r5, [sp, #4]
 2681 0370 5E1A     		subs	r6, r3, r1
 2682 0372 0D9B     		ldr	r3, [sp, #52]
 2683 0374 1A46     		mov	r2, r3
 2684 0376 A2EB0008 		sub	r8, r2, r0
 2685 037a 002E     		cmp	r6, #0
 2686 037c B8BF     		it	lt
 2687 037e 7642     		rsblt	r6, r6, #0
 2688 0380 4FF6FF73 		movw	r3, #65535
 2689 0384 B8F1000F 		cmp	r8, #0
 2690 0388 B8BF     		it	lt
 2691 038a C8F10008 		rsblt	r8, r8, #0
 2692 038e A942     		cmp	r1, r5
 2693 0390 8CBF     		ite	hi
 2694 0392 1946     		movhi	r1, r3
 2695 0394 0121     		movls	r1, #1
 2696 0396 0191     		str	r1, [sp, #4]
 2697 0398 0299     		ldr	r1, [sp, #8]
 2698 039a 36B2     		sxth	r6, r6
 2699 039c 0FFA88F2 		sxth	r2, r8
 2700 03a0 8842     		cmp	r0, r1
 2701 03a2 98BF     		it	ls
 2702 03a4 0123     		movls	r3, #1
 2703 03a6 9642     		cmp	r6, r2
ARM GAS  D:\Programs\cygwin64\tmp\ccnP8CjY.s 			page 47


 2704 03a8 0293     		str	r3, [sp, #8]
 2705 03aa C0F2C480 		blt	.L312
 2706 03ae 0023     		movs	r3, #0
 2707 03b0 06EBD675 		add	r5, r6, r6, lsr #31
 2708 03b4 DDF80490 		ldr	r9, [sp, #4]
 2709 03b8 0193     		str	r3, [sp, #4]
 2710 03ba 45F34F05 		sbfx	r5, r5, #1, #16
 2711 03be 9846     		mov	r8, r3
 2712              	.L313:
 2713 03c0 002E     		cmp	r6, #0
 2714 03c2 34DB     		blt	.L320
 2715 03c4 93B2     		uxth	r3, r2
 2716 03c6 CDE9074B 		strd	r4, fp, [sp, #28]
 2717 03ca CDF824A0 		str	r10, [sp, #36]
 2718 03ce 0027     		movs	r7, #0
 2719 03d0 9B46     		mov	fp, r3
 2720 03d2 DDE9144A 		ldrd	r4, r10, [sp, #80]
 2721 03d6 06E0     		b	.L317
 2722              	.L348:
 2723 03d8 38B2     		sxth	r0, r7
 2724 03da B042     		cmp	r0, r6
 2725 03dc 15B2     		sxth	r5, r2
 2726 03de 22DC     		bgt	.L345
 2727              	.L319:
 2728 03e0 1FFA81FA 		uxth	r10, r1
 2729 03e4 9CB2     		uxth	r4, r3
 2730              	.L317:
 2731 03e6 DDE90323 		ldrd	r2, r3, [sp, #12]
 2732 03ea 2146     		mov	r1, r4
 2733 03ec 5046     		mov	r0, r10
 2734 03ee FFF7FEFF 		bl	BSP_LCD_DrawLine
 2735 03f2 019B     		ldr	r3, [sp, #4]
 2736 03f4 5D44     		add	r5, r5, fp
 2737 03f6 0AEB0301 		add	r1, r10, r3
 2738 03fa 029B     		ldr	r3, [sp, #8]
 2739 03fc AAB2     		uxth	r2, r5
 2740 03fe E318     		adds	r3, r4, r3
 2741 0400 15B2     		sxth	r5, r2
 2742 0402 4944     		add	r1, r1, r9
 2743 0404 4344     		add	r3, r3, r8
 2744 0406 B542     		cmp	r5, r6
 2745 0408 CA44     		add	r10, r10, r9
 2746 040a 4444     		add	r4, r4, r8
 2747 040c A2EB0602 		sub	r2, r2, r6
 2748 0410 07F10107 		add	r7, r7, #1
 2749 0414 09B2     		sxth	r1, r1
 2750 0416 1BB2     		sxth	r3, r3
 2751 0418 DEDA     		bge	.L348
 2752 041a 3AB2     		sxth	r2, r7
 2753 041c 9642     		cmp	r6, r2
 2754 041e 0FFA8AF1 		sxth	r1, r10
 2755 0422 23B2     		sxth	r3, r4
 2756 0424 DCDA     		bge	.L319
 2757              	.L345:
 2758 0426 DDE9074B 		ldrd	r4, fp, [sp, #28]
 2759 042a DDF824A0 		ldr	r10, [sp, #36]
 2760              	.L320:
ARM GAS  D:\Programs\cygwin64\tmp\ccnP8CjY.s 			page 48


 2761 042e 002C     		cmp	r4, #0
 2762 0430 2BDB     		blt	.L264
 2763 0432 BDF84850 		ldrh	r5, [sp, #72]
 2764 0436 119E     		ldr	r6, [sp, #68]
 2765 0438 0B9F     		ldr	r7, [sp, #44]
 2766 043a DDF84C90 		ldr	r9, [sp, #76]
 2767 043e 4FF00008 		mov	r8, #0
 2768              	.L321:
 2769 0442 B6B2     		uxth	r6, r6
 2770 0444 1FFA89F9 		uxth	r9, r9
 2771 0448 4946     		mov	r1, r9
 2772 044a 3046     		mov	r0, r6
 2773 044c DDE90F23 		ldrd	r2, r3, [sp, #60]
 2774 0450 FFF7FEFF 		bl	BSP_LCD_DrawLine
 2775 0454 059A     		ldr	r2, [sp, #20]
 2776 0456 2F44     		add	r7, r7, r5
 2777 0458 B118     		adds	r1, r6, r2
 2778 045a 069A     		ldr	r2, [sp, #24]
 2779 045c BBB2     		uxth	r3, r7
 2780 045e 4A44     		add	r2, r9, r2
 2781 0460 1FB2     		sxth	r7, r3
 2782 0462 5944     		add	r1, r1, fp
 2783 0464 5244     		add	r2, r2, r10
 2784 0466 BC42     		cmp	r4, r7
 2785 0468 06EB0B0C 		add	ip, r6, fp
 2786 046c 09EB0A00 		add	r0, r9, r10
 2787 0470 A3EB0403 		sub	r3, r3, r4
 2788 0474 08F10108 		add	r8, r8, #1
 2789 0478 0EB2     		sxth	r6, r1
 2790 047a 0FFA82F9 		sxth	r9, r2
 2791 047e 4FDC     		bgt	.L322
 2792 0480 0FFA88F2 		sxth	r2, r8
 2793 0484 9442     		cmp	r4, r2
 2794 0486 1FB2     		sxth	r7, r3
 2795 0488 DBDA     		bge	.L321
 2796              	.L264:
 2797 048a 19B0     		add	sp, sp, #100
 2798              		@ sp needed
 2799 048c BDE8F08F 		pop	{r4, r5, r6, r7, r8, r9, r10, fp, pc}
 2800              	.L279:
 2801 0490 0FFA88F3 		sxth	r3, r8
 2802 0494 BB42     		cmp	r3, r7
 2803 0496 0FFA80FA 		sxth	r10, r0
 2804 049a 0FFA89F2 		sxth	r2, r9
 2805 049e 7FF72DAE 		ble	.L278
 2806 04a2 53E6     		b	.L343
 2807              	.L298:
 2808 04a4 39B2     		sxth	r1, r7
 2809 04a6 A142     		cmp	r1, r4
 2810 04a8 0FFA88F3 		sxth	r3, r8
 2811 04ac 0FFA89F2 		sxth	r2, r9
 2812 04b0 7FF7D4AE 		ble	.L297
 2813 04b4 F5E6     		b	.L300
 2814              	.L292:
 2815 04b6 06EBD672 		add	r2, r6, r6, lsr #31
 2816 04ba 0021     		movs	r1, #0
 2817 04bc 9A46     		mov	r10, r3
ARM GAS  D:\Programs\cygwin64\tmp\ccnP8CjY.s 			page 49


 2818 04be 42F34F02 		sbfx	r2, r2, #1, #16
 2819 04c2 2346     		mov	r3, r4
 2820 04c4 0691     		str	r1, [sp, #24]
 2821 04c6 3446     		mov	r4, r6
 2822 04c8 0B92     		str	r2, [sp, #44]
 2823 04ca 1E46     		mov	r6, r3
 2824 04cc 8B46     		mov	fp, r1
 2825 04ce BDE6     		b	.L293
 2826              	.L283:
 2827 04d0 3A46     		mov	r2, r7
 2828 04d2 03EBD374 		add	r4, r3, r3, lsr #31
 2829 04d6 DA46     		mov	r10, fp
 2830 04d8 4FF0000B 		mov	fp, #0
 2831 04dc 1F46     		mov	r7, r3
 2832 04de 44F34F04 		sbfx	r4, r4, #1, #16
 2833 04e2 1346     		mov	r3, r2
 2834 04e4 D946     		mov	r9, fp
 2835 04e6 59E6     		b	.L284
 2836              	.L274:
 2837 04e8 3946     		mov	r1, r7
 2838 04ea 0020     		movs	r0, #0
 2839 04ec 0A94     		str	r4, [sp, #40]
 2840 04ee 03EBD374 		add	r4, r3, r3, lsr #31
 2841 04f2 1F46     		mov	r7, r3
 2842 04f4 0590     		str	r0, [sp, #20]
 2843 04f6 44F34F04 		sbfx	r4, r4, #1, #16
 2844 04fa 0B46     		mov	r3, r1
 2845 04fc 8346     		mov	fp, r0
 2846 04fe F6E5     		b	.L275
 2847              	.L347:
 2848 0500 0022     		movs	r2, #0
 2849 0502 08EBD875 		add	r5, r8, r8, lsr #31
 2850 0506 0991     		str	r1, [sp, #36]
 2851 0508 0892     		str	r2, [sp, #32]
 2852 050a 6D10     		asrs	r5, r5, #1
 2853 050c 0A92     		str	r2, [sp, #40]
 2854 050e FBE6     		b	.L304
 2855              	.L308:
 2856 0510 0FFA89F3 		sxth	r3, r9
 2857 0514 4345     		cmp	r3, r8
 2858 0516 01B2     		sxth	r1, r0
 2859 0518 32B2     		sxth	r2, r6
 2860 051a 7FF7FFAE 		ble	.L307
 2861 051e 22E7     		b	.L344
 2862              	.L322:
 2863 0520 0FFA88F3 		sxth	r3, r8
 2864 0524 9C42     		cmp	r4, r3
 2865 0526 0FFA8CF6 		sxth	r6, ip
 2866 052a 0FFA80F9 		sxth	r9, r0
 2867 052e 88DA     		bge	.L321
 2868 0530 19B0     		add	sp, sp, #100
 2869              		@ sp needed
 2870 0532 BDE8F08F 		pop	{r4, r5, r6, r7, r8, r9, r10, fp, pc}
 2871              	.L312:
 2872 0536 02EBD275 		add	r5, r2, r2, lsr #31
 2873 053a 0021     		movs	r1, #0
 2874 053c 9846     		mov	r8, r3
ARM GAS  D:\Programs\cygwin64\tmp\ccnP8CjY.s 			page 50


 2875 053e 3346     		mov	r3, r6
 2876 0540 0291     		str	r1, [sp, #8]
 2877 0542 1646     		mov	r6, r2
 2878 0544 45F34F05 		sbfx	r5, r5, #1, #16
 2879 0548 1A46     		mov	r2, r3
 2880 054a 8946     		mov	r9, r1
 2881 054c 38E7     		b	.L313
 2882              	.L324:
 2883 054e 9446     		mov	ip, r2
 2884 0550 1F46     		mov	r7, r3
 2885 0552 1646     		mov	r6, r2
 2886 0554 9E46     		mov	lr, r3
 2887 0556 82E5     		b	.L265
 2889              		.section	.text.BSP_LCD_FillEllipse,"ax",%progbits
 2890              		.align	1
 2891              		.p2align 2,,3
 2892              		.global	BSP_LCD_FillEllipse
 2893              		.syntax unified
 2894              		.thumb
 2895              		.thumb_func
 2896              		.fpu fpv4-sp-d16
 2898              	BSP_LCD_FillEllipse:
 2899              		@ args = 0, pretend = 0, frame = 24
 2900              		@ frame_needed = 0, uses_anonymous_args = 0
 2901 0000 2DE9F04F 		push	{r4, r5, r6, r7, r8, r9, r10, fp, lr}
 2902 0004 07EE903A 		vmov	s15, r3	@ int
 2903 0008 2DED028B 		vpush.64	{d8}
 2904 000c B8EEE77A 		vcvt.f32.s32	s14, s15
 2905 0010 07EE902A 		vmov	s15, r2	@ int
 2906 0014 89B0     		sub	sp, sp, #36
 2907 0016 F8EEE77A 		vcvt.f32.s32	s15, s15
 2908 001a C2F10102 		rsb	r2, r2, #1
 2909 001e 80B2     		uxth	r0, r0
 2910 0020 89B2     		uxth	r1, r1
 2911 0022 4FF0000A 		mov	r10, #0
 2912 0026 DFF82891 		ldr	r9, .L365+16
 2913 002a DFF828B1 		ldr	fp, .L365+20
 2914 002e 0490     		str	r0, [sp, #16]
 2915 0030 87EE278A 		vdiv.f32	s16, s14, s15
 2916 0034 0391     		str	r1, [sp, #12]
 2917 0036 5F42     		rsbs	r7, r3, #0
 2918 0038 5500     		lsls	r5, r2, #1
 2919 003a D046     		mov	r8, r10
 2920 003c 0DE0     		b	.L356
 2921              	.L364:
 2922 003e 08F10108 		add	r8, r8, #1
 2923 0042 05EB4803 		add	r3, r5, r8, lsl #1
 2924 0046 18EB070F 		cmn	r8, r7
 2925 004a 03F10103 		add	r3, r3, #1
 2926 004e 72D0     		beq	.L361
 2927              	.L353:
 2928 0050 AF42     		cmp	r7, r5
 2929 0052 47DB     		blt	.L354
 2930              	.L358:
 2931 0054 002F     		cmp	r7, #0
 2932 0056 1D46     		mov	r5, r3
 2933 0058 4BDC     		bgt	.L362
ARM GAS  D:\Programs\cygwin64\tmp\ccnP8CjY.s 			page 51


 2934              	.L356:
 2935 005a 07EE908A 		vmov	s15, r8	@ int
 2936 005e B8EEE77A 		vcvt.f32.s32	s14, s15
 2937 0062 374A     		ldr	r2, .L365
 2938 0064 DBF80030 		ldr	r3, [fp]
 2939 0068 1168     		ldr	r1, [r2]
 2940 006a 364A     		ldr	r2, .L365+4
 2941 006c C7EE087A 		vdiv.f32	s15, s14, s16
 2942 0070 3420     		movs	r0, #52
 2943 0072 00FB0322 		mla	r2, r0, r3, r2
 2944 0076 8B6A     		ldr	r3, [r1, #40]
 2945 0078 D26D     		ldr	r2, [r2, #92]
 2946 007a 0592     		str	r2, [sp, #20]
 2947 007c 1FFA87FA 		uxth	r10, r7
 2948 0080 FCEEE77A 		vcvt.u32.f32	s15, s15
 2949 0084 17EE902A 		vmov	r2, s15	@ int
 2950 0088 94B2     		uxth	r4, r2
 2951 008a 049A     		ldr	r2, [sp, #16]
 2952 008c 6600     		lsls	r6, r4, #1
 2953 008e 141B     		subs	r4, r2, r4
 2954 0090 9847     		blx	r3
 2955 0092 DBF80010 		ldr	r1, [fp]
 2956 0096 0790     		str	r0, [sp, #28]
 2957 0098 0291     		str	r1, [sp, #8]
 2958 009a 01EB4100 		add	r0, r1, r1, lsl #1
 2959 009e 2A49     		ldr	r1, .L365+8
 2960 00a0 2A4B     		ldr	r3, .L365+12
 2961 00a2 51F82010 		ldr	r1, [r1, r0, lsl #2]
 2962 00a6 C9F80030 		str	r3, [r9]
 2963 00aa 4FF44032 		mov	r2, #196608
 2964 00ae 0023     		movs	r3, #0
 2965 00b0 2748     		ldr	r0, .L365+16
 2966 00b2 0691     		str	r1, [sp, #24]
 2967 00b4 C9F80420 		str	r2, [r9, #4]
 2968 00b8 C9E90233 		strd	r3, r3, [r9, #8]
 2969 00bc FFF7FEFF 		bl	HAL_DMA2D_Init
 2970 00c0 0136     		adds	r6, r6, #1
 2971 00c2 B6B2     		uxth	r6, r6
 2972 00c4 A4B2     		uxth	r4, r4
 2973 00c6 0299     		ldr	r1, [sp, #8]
 2974 00c8 C0B1     		cbz	r0, .L363
 2975              	.L351:
 2976 00ca 039B     		ldr	r3, [sp, #12]
 2977 00cc A3EB0A01 		sub	r1, r3, r10
 2978 00d0 89B2     		uxth	r1, r1
 2979 00d2 3246     		mov	r2, r6
 2980 00d4 2046     		mov	r0, r4
 2981 00d6 FFF7FEFF 		bl	BSP_LCD_DrawHLine
 2982 00da A845     		cmp	r8, r5
 2983 00dc AFDA     		bge	.L364
 2984 00de AF42     		cmp	r7, r5
 2985 00e0 2B46     		mov	r3, r5
 2986 00e2 B7DA     		bge	.L358
 2987              	.L354:
 2988 00e4 0137     		adds	r7, r7, #1
 2989 00e6 03EB4705 		add	r5, r3, r7, lsl #1
 2990 00ea 002F     		cmp	r7, #0
ARM GAS  D:\Programs\cygwin64\tmp\ccnP8CjY.s 			page 52


 2991 00ec 05F10105 		add	r5, r5, #1
 2992 00f0 B3DD     		ble	.L356
 2993              	.L362:
 2994 00f2 09B0     		add	sp, sp, #36
 2995              		@ sp needed
 2996 00f4 BDEC028B 		vldm	sp!, {d8}
 2997 00f8 BDE8F08F 		pop	{r4, r5, r6, r7, r8, r9, r10, fp, pc}
 2998              	.L363:
 2999 00fc 1448     		ldr	r0, .L365+16
 3000 00fe FFF7FEFF 		bl	HAL_DMA2D_ConfigLayer
 3001 0102 0028     		cmp	r0, #0
 3002 0104 E1D1     		bne	.L351
 3003 0106 039B     		ldr	r3, [sp, #12]
 3004 0108 DDE90501 		ldrd	r0, r1, [sp, #20]
 3005 010c 0AEB0302 		add	r2, r10, r3
 3006 0110 079B     		ldr	r3, [sp, #28]
 3007 0112 92B2     		uxth	r2, r2
 3008 0114 03FB0242 		mla	r2, r3, r2, r4
 3009 0118 0123     		movs	r3, #1
 3010 011a 00EB8202 		add	r2, r0, r2, lsl #2
 3011 011e 0093     		str	r3, [sp]
 3012 0120 0B48     		ldr	r0, .L365+16
 3013 0122 3346     		mov	r3, r6
 3014 0124 FFF7FEFF 		bl	HAL_DMA2D_Start
 3015 0128 0028     		cmp	r0, #0
 3016 012a CED1     		bne	.L351
 3017 012c 0A21     		movs	r1, #10
 3018 012e 0848     		ldr	r0, .L365+16
 3019 0130 FFF7FEFF 		bl	HAL_DMA2D_PollForTransfer
 3020 0134 C9E7     		b	.L351
 3021              	.L361:
 3022 0136 AF42     		cmp	r7, r5
 3023 0138 D4DB     		blt	.L354
 3024 013a 0025     		movs	r5, #0
 3025 013c 88E7     		b	.L353
 3026              	.L366:
 3027 013e 00BF     		.align	2
 3028              	.L365:
 3029 0140 00000000 		.word	LcdDrv
 3030 0144 00000000 		.word	LtdcHandler
 3031 0148 00000000 		.word	.LANCHOR0
 3032 014c 00B00240 		.word	1073917952
 3033 0150 00000000 		.word	.LANCHOR3
 3034 0154 00000000 		.word	.LANCHOR2
 3036              		.section	.text.BSP_LCD_DisplayOn,"ax",%progbits
 3037              		.align	1
 3038              		.p2align 2,,3
 3039              		.global	BSP_LCD_DisplayOn
 3040              		.syntax unified
 3041              		.thumb
 3042              		.thumb_func
 3043              		.fpu fpv4-sp-d16
 3045              	BSP_LCD_DisplayOn:
 3046              		@ args = 0, pretend = 0, frame = 0
 3047              		@ frame_needed = 0, uses_anonymous_args = 0
 3048              		@ link register save eliminated.
 3049 0000 024B     		ldr	r3, .L369
ARM GAS  D:\Programs\cygwin64\tmp\ccnP8CjY.s 			page 53


 3050 0002 1B68     		ldr	r3, [r3]
 3051 0004 9B68     		ldr	r3, [r3, #8]
 3052 0006 03B1     		cbz	r3, .L367
 3053 0008 1847     		bx	r3	@ indirect register sibling call
 3054              	.L367:
 3055 000a 7047     		bx	lr
 3056              	.L370:
 3057              		.align	2
 3058              	.L369:
 3059 000c 00000000 		.word	LcdDrv
 3061              		.section	.text.BSP_LCD_DisplayOff,"ax",%progbits
 3062              		.align	1
 3063              		.p2align 2,,3
 3064              		.global	BSP_LCD_DisplayOff
 3065              		.syntax unified
 3066              		.thumb
 3067              		.thumb_func
 3068              		.fpu fpv4-sp-d16
 3070              	BSP_LCD_DisplayOff:
 3071              		@ args = 0, pretend = 0, frame = 0
 3072              		@ frame_needed = 0, uses_anonymous_args = 0
 3073              		@ link register save eliminated.
 3074 0000 024B     		ldr	r3, .L373
 3075 0002 1B68     		ldr	r3, [r3]
 3076 0004 DB68     		ldr	r3, [r3, #12]
 3077 0006 03B1     		cbz	r3, .L371
 3078 0008 1847     		bx	r3	@ indirect register sibling call
 3079              	.L371:
 3080 000a 7047     		bx	lr
 3081              	.L374:
 3082              		.align	2
 3083              	.L373:
 3084 000c 00000000 		.word	LcdDrv
 3086              		.section	.text.BSP_LCD_MspInit,"ax",%progbits
 3087              		.align	1
 3088              		.p2align 2,,3
 3089              		.weak	BSP_LCD_MspInit
 3090              		.syntax unified
 3091              		.thumb
 3092              		.thumb_func
 3093              		.fpu fpv4-sp-d16
 3095              	BSP_LCD_MspInit:
 3096              		@ args = 0, pretend = 0, frame = 56
 3097              		@ frame_needed = 0, uses_anonymous_args = 0
 3098 0000 70B5     		push	{r4, r5, r6, lr}
 3099 0002 8EB0     		sub	sp, sp, #56
 3100 0004 494B     		ldr	r3, .L377
 3101 0006 4A4D     		ldr	r5, .L377+4
 3102 0008 4A48     		ldr	r0, .L377+8
 3103 000a 4B4C     		ldr	r4, .L377+12
 3104 000c 0022     		movs	r2, #0
 3105 000e 0192     		str	r2, [sp, #4]
 3106 0010 596C     		ldr	r1, [r3, #68]
 3107 0012 41F08061 		orr	r1, r1, #67108864
 3108 0016 5964     		str	r1, [r3, #68]
 3109 0018 596C     		ldr	r1, [r3, #68]
 3110 001a 01F08061 		and	r1, r1, #67108864
ARM GAS  D:\Programs\cygwin64\tmp\ccnP8CjY.s 			page 54


 3111 001e 0191     		str	r1, [sp, #4]
 3112 0020 0199     		ldr	r1, [sp, #4]
 3113 0022 0292     		str	r2, [sp, #8]
 3114 0024 196B     		ldr	r1, [r3, #48]
 3115 0026 41F40001 		orr	r1, r1, #8388608
 3116 002a 1963     		str	r1, [r3, #48]
 3117 002c 196B     		ldr	r1, [r3, #48]
 3118 002e 01F40001 		and	r1, r1, #8388608
 3119 0032 0291     		str	r1, [sp, #8]
 3120 0034 0299     		ldr	r1, [sp, #8]
 3121 0036 0392     		str	r2, [sp, #12]
 3122 0038 196B     		ldr	r1, [r3, #48]
 3123 003a 41F00101 		orr	r1, r1, #1
 3124 003e 1963     		str	r1, [r3, #48]
 3125 0040 196B     		ldr	r1, [r3, #48]
 3126 0042 01F00101 		and	r1, r1, #1
 3127 0046 0391     		str	r1, [sp, #12]
 3128 0048 0399     		ldr	r1, [sp, #12]
 3129 004a 0492     		str	r2, [sp, #16]
 3130 004c 196B     		ldr	r1, [r3, #48]
 3131 004e 41F00201 		orr	r1, r1, #2
 3132 0052 1963     		str	r1, [r3, #48]
 3133 0054 196B     		ldr	r1, [r3, #48]
 3134 0056 01F00201 		and	r1, r1, #2
 3135 005a 0491     		str	r1, [sp, #16]
 3136 005c 0499     		ldr	r1, [sp, #16]
 3137 005e 0592     		str	r2, [sp, #20]
 3138 0060 196B     		ldr	r1, [r3, #48]
 3139 0062 41F00401 		orr	r1, r1, #4
 3140 0066 1963     		str	r1, [r3, #48]
 3141 0068 196B     		ldr	r1, [r3, #48]
 3142 006a 01F00401 		and	r1, r1, #4
 3143 006e 0591     		str	r1, [sp, #20]
 3144 0070 0599     		ldr	r1, [sp, #20]
 3145 0072 0692     		str	r2, [sp, #24]
 3146 0074 196B     		ldr	r1, [r3, #48]
 3147 0076 41F00801 		orr	r1, r1, #8
 3148 007a 1963     		str	r1, [r3, #48]
 3149 007c 196B     		ldr	r1, [r3, #48]
 3150 007e 01F00801 		and	r1, r1, #8
 3151 0082 0691     		str	r1, [sp, #24]
 3152 0084 0699     		ldr	r1, [sp, #24]
 3153 0086 0792     		str	r2, [sp, #28]
 3154 0088 196B     		ldr	r1, [r3, #48]
 3155 008a 41F02001 		orr	r1, r1, #32
 3156 008e 1963     		str	r1, [r3, #48]
 3157 0090 196B     		ldr	r1, [r3, #48]
 3158 0092 01F02001 		and	r1, r1, #32
 3159 0096 0791     		str	r1, [sp, #28]
 3160 0098 0799     		ldr	r1, [sp, #28]
 3161 009a 0892     		str	r2, [sp, #32]
 3162 009c 196B     		ldr	r1, [r3, #48]
 3163 009e 41F04001 		orr	r1, r1, #64
 3164 00a2 1963     		str	r1, [r3, #48]
 3165 00a4 1B6B     		ldr	r3, [r3, #48]
 3166 00a6 0B92     		str	r2, [sp, #44]
 3167 00a8 03F04003 		and	r3, r3, #64
ARM GAS  D:\Programs\cygwin64\tmp\ccnP8CjY.s 			page 55


 3168 00ac 41F65802 		movw	r2, #6232
 3169 00b0 0893     		str	r3, [sp, #32]
 3170 00b2 09A9     		add	r1, sp, #36
 3171 00b4 0223     		movs	r3, #2
 3172 00b6 0992     		str	r2, [sp, #36]
 3173 00b8 0E22     		movs	r2, #14
 3174 00ba CDE90C32 		strd	r3, r2, [sp, #48]
 3175 00be 0A93     		str	r3, [sp, #40]
 3176 00c0 089E     		ldr	r6, [sp, #32]
 3177 00c2 FFF7FEFF 		bl	HAL_GPIO_Init
 3178 00c6 09A9     		add	r1, sp, #36
 3179 00c8 2846     		mov	r0, r5
 3180 00ca 4FF47063 		mov	r3, #3840
 3181 00ce 0993     		str	r3, [sp, #36]
 3182 00d0 FFF7FEFF 		bl	HAL_GPIO_Init
 3183 00d4 09A9     		add	r1, sp, #36
 3184 00d6 4FF49863 		mov	r3, #1216
 3185 00da 1848     		ldr	r0, .L377+16
 3186 00dc 0993     		str	r3, [sp, #36]
 3187 00de FFF7FEFF 		bl	HAL_GPIO_Init
 3188 00e2 09A9     		add	r1, sp, #36
 3189 00e4 4823     		movs	r3, #72
 3190 00e6 1648     		ldr	r0, .L377+20
 3191 00e8 0993     		str	r3, [sp, #36]
 3192 00ea FFF7FEFF 		bl	HAL_GPIO_Init
 3193 00ee 09A9     		add	r1, sp, #36
 3194 00f0 4FF48063 		mov	r3, #1024
 3195 00f4 1348     		ldr	r0, .L377+24
 3196 00f6 0993     		str	r3, [sp, #36]
 3197 00f8 FFF7FEFF 		bl	HAL_GPIO_Init
 3198 00fc 09A9     		add	r1, sp, #36
 3199 00fe 2046     		mov	r0, r4
 3200 0100 4FF40C63 		mov	r3, #2240
 3201 0104 0993     		str	r3, [sp, #36]
 3202 0106 FFF7FEFF 		bl	HAL_GPIO_Init
 3203 010a 0322     		movs	r2, #3
 3204 010c 2846     		mov	r0, r5
 3205 010e 09A9     		add	r1, sp, #36
 3206 0110 0923     		movs	r3, #9
 3207 0112 0992     		str	r2, [sp, #36]
 3208 0114 0D93     		str	r3, [sp, #52]
 3209 0116 FFF7FEFF 		bl	HAL_GPIO_Init
 3210 011a 4FF4A053 		mov	r3, #5120
 3211 011e 09A9     		add	r1, sp, #36
 3212 0120 2046     		mov	r0, r4
 3213 0122 0993     		str	r3, [sp, #36]
 3214 0124 FFF7FEFF 		bl	HAL_GPIO_Init
 3215 0128 0EB0     		add	sp, sp, #56
 3216              		@ sp needed
 3217 012a 70BD     		pop	{r4, r5, r6, pc}
 3218              	.L378:
 3219              		.align	2
 3220              	.L377:
 3221 012c 00380240 		.word	1073887232
 3222 0130 00040240 		.word	1073873920
 3223 0134 00000240 		.word	1073872896
 3224 0138 00180240 		.word	1073879040
ARM GAS  D:\Programs\cygwin64\tmp\ccnP8CjY.s 			page 56


 3225 013c 00080240 		.word	1073874944
 3226 0140 000C0240 		.word	1073875968
 3227 0144 00140240 		.word	1073878016
 3229              		.section	.text.BSP_LCD_Init,"ax",%progbits
 3230              		.align	1
 3231              		.p2align 2,,3
 3232              		.global	BSP_LCD_Init
 3233              		.syntax unified
 3234              		.thumb
 3235              		.thumb_func
 3236              		.fpu fpv4-sp-d16
 3238              	BSP_LCD_Init:
 3239              		@ args = 0, pretend = 0, frame = 0
 3240              		@ frame_needed = 0, uses_anonymous_args = 0
 3241 0000 38B5     		push	{r3, r4, r5, lr}
 3242 0002 214C     		ldr	r4, .L381
 3243 0004 214B     		ldr	r3, .L381+4
 3244 0006 224A     		ldr	r2, .L381+8
 3245 0008 2260     		str	r2, [r4]
 3246 000a C025     		movs	r5, #192
 3247 000c 1D61     		str	r5, [r3, #16]
 3248 000e 0820     		movs	r0, #8
 3249 0010 0421     		movs	r1, #4
 3250 0012 4FF40032 		mov	r2, #131072
 3251 0016 0925     		movs	r5, #9
 3252 0018 1860     		str	r0, [r3]
 3253 001a 9961     		str	r1, [r3, #24]
 3254 001c 5A62     		str	r2, [r3, #36]
 3255 001e 6561     		str	r5, [r4, #20]
 3256 0020 1846     		mov	r0, r3
 3257 0022 0121     		movs	r1, #1
 3258 0024 1D22     		movs	r2, #29
 3259 0026 0323     		movs	r3, #3
 3260 0028 40F20D15 		movw	r5, #269
 3261 002c A161     		str	r1, [r4, #24]
 3262 002e E261     		str	r2, [r4, #28]
 3263 0030 40F24311 		movw	r1, #323
 3264 0034 40F21712 		movw	r2, #279
 3265 0038 2362     		str	r3, [r4, #32]
 3266 003a 6562     		str	r5, [r4, #36]
 3267 003c 40F24713 		movw	r3, #327
 3268 0040 0025     		movs	r5, #0
 3269 0042 C4E90A12 		strd	r1, r2, [r4, #40]
 3270 0046 2363     		str	r3, [r4, #48]
 3271 0048 A586     		strh	r5, [r4, #52]	@ movhi
 3272 004a 84F83650 		strb	r5, [r4, #54]
 3273 004e FFF7FEFF 		bl	HAL_RCCEx_PeriphCLKConfig
 3274 0052 C4E90155 		strd	r5, r5, [r4, #4]
 3275 0056 C4E90355 		strd	r5, r5, [r4, #12]
 3276 005a FFF7FEFF 		bl	BSP_LCD_MspInit
 3277 005e 2046     		mov	r0, r4
 3278 0060 FFF7FEFF 		bl	HAL_LTDC_Init
 3279 0064 0B4A     		ldr	r2, .L381+12
 3280 0066 0C4B     		ldr	r3, .L381+16
 3281 0068 1360     		str	r3, [r2]
 3282 006a 1B68     		ldr	r3, [r3]
 3283 006c 9847     		blx	r3
ARM GAS  D:\Programs\cygwin64\tmp\ccnP8CjY.s 			page 57


 3284 006e FFF7FEFF 		bl	BSP_SDRAM_Init
 3285 0072 0A4B     		ldr	r3, .L381+20
 3286 0074 0A4A     		ldr	r2, .L381+24
 3287 0076 1B68     		ldr	r3, [r3]
 3288 0078 0A49     		ldr	r1, .L381+28
 3289 007a 03EB4303 		add	r3, r3, r3, lsl #1
 3290 007e 02EB8303 		add	r3, r2, r3, lsl #2
 3291 0082 2846     		mov	r0, r5
 3292 0084 9960     		str	r1, [r3, #8]
 3293 0086 38BD     		pop	{r3, r4, r5, pc}
 3294              	.L382:
 3295              		.align	2
 3296              	.L381:
 3297 0088 00000000 		.word	LtdcHandler
 3298 008c 00000000 		.word	.LANCHOR4
 3299 0090 00680140 		.word	1073833984
 3300 0094 00000000 		.word	LcdDrv
 3301 0098 00000000 		.word	ili9341_drv
 3302 009c 00000000 		.word	.LANCHOR2
 3303 00a0 00000000 		.word	.LANCHOR0
 3304 00a4 00000000 		.word	.LANCHOR1
 3306              		.section	.text.BSP_LCD_DrawPixel,"ax",%progbits
 3307              		.align	1
 3308              		.p2align 2,,3
 3309              		.global	BSP_LCD_DrawPixel
 3310              		.syntax unified
 3311              		.thumb
 3312              		.thumb_func
 3313              		.fpu fpv4-sp-d16
 3315              	BSP_LCD_DrawPixel:
 3316              		@ args = 0, pretend = 0, frame = 0
 3317              		@ frame_needed = 0, uses_anonymous_args = 0
 3318 0000 0B4B     		ldr	r3, .L385
 3319 0002 2DE9F041 		push	{r4, r5, r6, r7, r8, lr}
 3320 0006 0B4C     		ldr	r4, .L385+4
 3321 0008 1B68     		ldr	r3, [r3]
 3322 000a 0B4D     		ldr	r5, .L385+8
 3323 000c 2468     		ldr	r4, [r4]
 3324 000e 3426     		movs	r6, #52
 3325 0010 06FB0353 		mla	r3, r6, r3, r5
 3326 0014 D4F82880 		ldr	r8, [r4, #40]
 3327 0018 DD6D     		ldr	r5, [r3, #92]
 3328 001a 0746     		mov	r7, r0
 3329 001c 0C46     		mov	r4, r1
 3330 001e 1646     		mov	r6, r2
 3331 0020 C047     		blx	r8
 3332 0022 00FB0470 		mla	r0, r0, r4, r7
 3333 0026 45F82060 		str	r6, [r5, r0, lsl #2]
 3334 002a BDE8F081 		pop	{r4, r5, r6, r7, r8, pc}
 3335              	.L386:
 3336 002e 00BF     		.align	2
 3337              	.L385:
 3338 0030 00000000 		.word	.LANCHOR2
 3339 0034 00000000 		.word	LcdDrv
 3340 0038 00000000 		.word	LtdcHandler
 3342              		.comm	LcdDrv,4,4
 3343              		.comm	LtdcHandler,168,4
ARM GAS  D:\Programs\cygwin64\tmp\ccnP8CjY.s 			page 58


 3344              		.global	Font8
 3345              		.global	Font8_Table
 3346              		.global	Font12
 3347              		.global	Font12_Table
 3348              		.global	Font16
 3349              		.global	Font16_Table
 3350              		.global	Font20
 3351              		.global	Font20_Table
 3352              		.global	Font24
 3353              		.global	Font24_Table
 3354              		.section	.bss.ActiveLayer,"aw",%nobits
 3355              		.align	2
 3356              		.set	.LANCHOR2,. + 0
 3359              	ActiveLayer:
 3360 0000 00000000 		.space	4
 3361              		.section	.bss.Dma2dHandler,"aw",%nobits
 3362              		.align	2
 3363              		.set	.LANCHOR3,. + 0
 3366              	Dma2dHandler:
 3367 0000 00000000 		.space	64
 3367      00000000 
 3367      00000000 
 3367      00000000 
 3367      00000000 
 3368              		.section	.bss.DrawProp,"aw",%nobits
 3369              		.align	2
 3370              		.set	.LANCHOR0,. + 0
 3373              	DrawProp:
 3374 0000 00000000 		.space	24
 3374      00000000 
 3374      00000000 
 3374      00000000 
 3374      00000000 
 3375              		.section	.bss.PeriphClkInitStruct,"aw",%nobits
 3376              		.align	2
 3377              		.set	.LANCHOR4,. + 0
 3380              	PeriphClkInitStruct:
 3381 0000 00000000 		.space	48
 3381      00000000 
 3381      00000000 
 3381      00000000 
 3381      00000000 
 3382              		.section	.data.Font12,"aw"
 3383              		.align	2
 3386              	Font12:
 3387 0000 00000000 		.word	Font12_Table
 3388 0004 0700     		.short	7
 3389 0006 0C00     		.short	12
 3390              		.section	.data.Font16,"aw"
 3391              		.align	2
 3394              	Font16:
 3395 0000 00000000 		.word	Font16_Table
 3396 0004 0B00     		.short	11
 3397 0006 1000     		.short	16
 3398              		.section	.data.Font20,"aw"
 3399              		.align	2
 3402              	Font20:
ARM GAS  D:\Programs\cygwin64\tmp\ccnP8CjY.s 			page 59


 3403 0000 00000000 		.word	Font20_Table
 3404 0004 0E00     		.short	14
 3405 0006 1400     		.short	20
 3406              		.section	.data.Font24,"aw"
 3407              		.align	2
 3408              		.set	.LANCHOR1,. + 0
 3411              	Font24:
 3412 0000 00000000 		.word	Font24_Table
 3413 0004 1100     		.short	17
 3414 0006 1800     		.short	24
 3415              		.section	.data.Font8,"aw"
 3416              		.align	2
 3419              	Font8:
 3420 0000 00000000 		.word	Font8_Table
 3421 0004 0500     		.short	5
 3422 0006 0800     		.short	8
 3423              		.section	.rodata.Font12_Table,"a"
 3424              		.align	2
 3427              	Font12_Table:
 3428 0000 00       		.byte	0
 3429 0001 00       		.byte	0
 3430 0002 00       		.byte	0
 3431 0003 00       		.byte	0
 3432 0004 00       		.byte	0
 3433 0005 00       		.byte	0
 3434 0006 00       		.byte	0
 3435 0007 00       		.byte	0
 3436 0008 00       		.byte	0
 3437 0009 00       		.byte	0
 3438 000a 00       		.byte	0
 3439 000b 00       		.byte	0
 3440 000c 00       		.byte	0
 3441 000d 10       		.byte	16
 3442 000e 10       		.byte	16
 3443 000f 10       		.byte	16
 3444 0010 10       		.byte	16
 3445 0011 10       		.byte	16
 3446 0012 00       		.byte	0
 3447 0013 00       		.byte	0
 3448 0014 10       		.byte	16
 3449 0015 00       		.byte	0
 3450 0016 00       		.byte	0
 3451 0017 00       		.byte	0
 3452 0018 00       		.byte	0
 3453 0019 6C       		.byte	108
 3454 001a 48       		.byte	72
 3455 001b 48       		.byte	72
 3456 001c 00       		.byte	0
 3457 001d 00       		.byte	0
 3458 001e 00       		.byte	0
 3459 001f 00       		.byte	0
 3460 0020 00       		.byte	0
 3461 0021 00       		.byte	0
 3462 0022 00       		.byte	0
 3463 0023 00       		.byte	0
 3464 0024 00       		.byte	0
 3465 0025 14       		.byte	20
ARM GAS  D:\Programs\cygwin64\tmp\ccnP8CjY.s 			page 60


 3466 0026 14       		.byte	20
 3467 0027 28       		.byte	40
 3468 0028 7C       		.byte	124
 3469 0029 28       		.byte	40
 3470 002a 7C       		.byte	124
 3471 002b 28       		.byte	40
 3472 002c 50       		.byte	80
 3473 002d 50       		.byte	80
 3474 002e 00       		.byte	0
 3475 002f 00       		.byte	0
 3476 0030 00       		.byte	0
 3477 0031 10       		.byte	16
 3478 0032 38       		.byte	56
 3479 0033 40       		.byte	64
 3480 0034 40       		.byte	64
 3481 0035 38       		.byte	56
 3482 0036 48       		.byte	72
 3483 0037 70       		.byte	112
 3484 0038 10       		.byte	16
 3485 0039 10       		.byte	16
 3486 003a 00       		.byte	0
 3487 003b 00       		.byte	0
 3488 003c 00       		.byte	0
 3489 003d 20       		.byte	32
 3490 003e 50       		.byte	80
 3491 003f 20       		.byte	32
 3492 0040 0C       		.byte	12
 3493 0041 70       		.byte	112
 3494 0042 08       		.byte	8
 3495 0043 14       		.byte	20
 3496 0044 08       		.byte	8
 3497 0045 00       		.byte	0
 3498 0046 00       		.byte	0
 3499 0047 00       		.byte	0
 3500 0048 00       		.byte	0
 3501 0049 00       		.byte	0
 3502 004a 00       		.byte	0
 3503 004b 18       		.byte	24
 3504 004c 20       		.byte	32
 3505 004d 20       		.byte	32
 3506 004e 54       		.byte	84
 3507 004f 48       		.byte	72
 3508 0050 34       		.byte	52
 3509 0051 00       		.byte	0
 3510 0052 00       		.byte	0
 3511 0053 00       		.byte	0
 3512 0054 00       		.byte	0
 3513 0055 10       		.byte	16
 3514 0056 10       		.byte	16
 3515 0057 10       		.byte	16
 3516 0058 10       		.byte	16
 3517 0059 00       		.byte	0
 3518 005a 00       		.byte	0
 3519 005b 00       		.byte	0
 3520 005c 00       		.byte	0
 3521 005d 00       		.byte	0
 3522 005e 00       		.byte	0
ARM GAS  D:\Programs\cygwin64\tmp\ccnP8CjY.s 			page 61


 3523 005f 00       		.byte	0
 3524 0060 00       		.byte	0
 3525 0061 08       		.byte	8
 3526 0062 08       		.byte	8
 3527 0063 10       		.byte	16
 3528 0064 10       		.byte	16
 3529 0065 10       		.byte	16
 3530 0066 10       		.byte	16
 3531 0067 10       		.byte	16
 3532 0068 10       		.byte	16
 3533 0069 08       		.byte	8
 3534 006a 08       		.byte	8
 3535 006b 00       		.byte	0
 3536 006c 00       		.byte	0
 3537 006d 20       		.byte	32
 3538 006e 20       		.byte	32
 3539 006f 10       		.byte	16
 3540 0070 10       		.byte	16
 3541 0071 10       		.byte	16
 3542 0072 10       		.byte	16
 3543 0073 10       		.byte	16
 3544 0074 10       		.byte	16
 3545 0075 20       		.byte	32
 3546 0076 20       		.byte	32
 3547 0077 00       		.byte	0
 3548 0078 00       		.byte	0
 3549 0079 10       		.byte	16
 3550 007a 7C       		.byte	124
 3551 007b 10       		.byte	16
 3552 007c 28       		.byte	40
 3553 007d 28       		.byte	40
 3554 007e 00       		.byte	0
 3555 007f 00       		.byte	0
 3556 0080 00       		.byte	0
 3557 0081 00       		.byte	0
 3558 0082 00       		.byte	0
 3559 0083 00       		.byte	0
 3560 0084 00       		.byte	0
 3561 0085 00       		.byte	0
 3562 0086 10       		.byte	16
 3563 0087 10       		.byte	16
 3564 0088 10       		.byte	16
 3565 0089 FE       		.byte	-2
 3566 008a 10       		.byte	16
 3567 008b 10       		.byte	16
 3568 008c 10       		.byte	16
 3569 008d 00       		.byte	0
 3570 008e 00       		.byte	0
 3571 008f 00       		.byte	0
 3572 0090 00       		.byte	0
 3573 0091 00       		.byte	0
 3574 0092 00       		.byte	0
 3575 0093 00       		.byte	0
 3576 0094 00       		.byte	0
 3577 0095 00       		.byte	0
 3578 0096 00       		.byte	0
 3579 0097 18       		.byte	24
ARM GAS  D:\Programs\cygwin64\tmp\ccnP8CjY.s 			page 62


 3580 0098 10       		.byte	16
 3581 0099 30       		.byte	48
 3582 009a 20       		.byte	32
 3583 009b 00       		.byte	0
 3584 009c 00       		.byte	0
 3585 009d 00       		.byte	0
 3586 009e 00       		.byte	0
 3587 009f 00       		.byte	0
 3588 00a0 00       		.byte	0
 3589 00a1 7C       		.byte	124
 3590 00a2 00       		.byte	0
 3591 00a3 00       		.byte	0
 3592 00a4 00       		.byte	0
 3593 00a5 00       		.byte	0
 3594 00a6 00       		.byte	0
 3595 00a7 00       		.byte	0
 3596 00a8 00       		.byte	0
 3597 00a9 00       		.byte	0
 3598 00aa 00       		.byte	0
 3599 00ab 00       		.byte	0
 3600 00ac 00       		.byte	0
 3601 00ad 00       		.byte	0
 3602 00ae 00       		.byte	0
 3603 00af 30       		.byte	48
 3604 00b0 30       		.byte	48
 3605 00b1 00       		.byte	0
 3606 00b2 00       		.byte	0
 3607 00b3 00       		.byte	0
 3608 00b4 00       		.byte	0
 3609 00b5 04       		.byte	4
 3610 00b6 04       		.byte	4
 3611 00b7 08       		.byte	8
 3612 00b8 08       		.byte	8
 3613 00b9 10       		.byte	16
 3614 00ba 10       		.byte	16
 3615 00bb 20       		.byte	32
 3616 00bc 20       		.byte	32
 3617 00bd 40       		.byte	64
 3618 00be 00       		.byte	0
 3619 00bf 00       		.byte	0
 3620 00c0 00       		.byte	0
 3621 00c1 38       		.byte	56
 3622 00c2 44       		.byte	68
 3623 00c3 44       		.byte	68
 3624 00c4 44       		.byte	68
 3625 00c5 44       		.byte	68
 3626 00c6 44       		.byte	68
 3627 00c7 44       		.byte	68
 3628 00c8 38       		.byte	56
 3629 00c9 00       		.byte	0
 3630 00ca 00       		.byte	0
 3631 00cb 00       		.byte	0
 3632 00cc 00       		.byte	0
 3633 00cd 30       		.byte	48
 3634 00ce 10       		.byte	16
 3635 00cf 10       		.byte	16
 3636 00d0 10       		.byte	16
ARM GAS  D:\Programs\cygwin64\tmp\ccnP8CjY.s 			page 63


 3637 00d1 10       		.byte	16
 3638 00d2 10       		.byte	16
 3639 00d3 10       		.byte	16
 3640 00d4 7C       		.byte	124
 3641 00d5 00       		.byte	0
 3642 00d6 00       		.byte	0
 3643 00d7 00       		.byte	0
 3644 00d8 00       		.byte	0
 3645 00d9 38       		.byte	56
 3646 00da 44       		.byte	68
 3647 00db 04       		.byte	4
 3648 00dc 08       		.byte	8
 3649 00dd 10       		.byte	16
 3650 00de 20       		.byte	32
 3651 00df 44       		.byte	68
 3652 00e0 7C       		.byte	124
 3653 00e1 00       		.byte	0
 3654 00e2 00       		.byte	0
 3655 00e3 00       		.byte	0
 3656 00e4 00       		.byte	0
 3657 00e5 38       		.byte	56
 3658 00e6 44       		.byte	68
 3659 00e7 04       		.byte	4
 3660 00e8 18       		.byte	24
 3661 00e9 04       		.byte	4
 3662 00ea 04       		.byte	4
 3663 00eb 44       		.byte	68
 3664 00ec 38       		.byte	56
 3665 00ed 00       		.byte	0
 3666 00ee 00       		.byte	0
 3667 00ef 00       		.byte	0
 3668 00f0 00       		.byte	0
 3669 00f1 0C       		.byte	12
 3670 00f2 14       		.byte	20
 3671 00f3 14       		.byte	20
 3672 00f4 24       		.byte	36
 3673 00f5 44       		.byte	68
 3674 00f6 7E       		.byte	126
 3675 00f7 04       		.byte	4
 3676 00f8 0E       		.byte	14
 3677 00f9 00       		.byte	0
 3678 00fa 00       		.byte	0
 3679 00fb 00       		.byte	0
 3680 00fc 00       		.byte	0
 3681 00fd 3C       		.byte	60
 3682 00fe 20       		.byte	32
 3683 00ff 20       		.byte	32
 3684 0100 38       		.byte	56
 3685 0101 04       		.byte	4
 3686 0102 04       		.byte	4
 3687 0103 44       		.byte	68
 3688 0104 38       		.byte	56
 3689 0105 00       		.byte	0
 3690 0106 00       		.byte	0
 3691 0107 00       		.byte	0
 3692 0108 00       		.byte	0
 3693 0109 1C       		.byte	28
ARM GAS  D:\Programs\cygwin64\tmp\ccnP8CjY.s 			page 64


 3694 010a 20       		.byte	32
 3695 010b 40       		.byte	64
 3696 010c 78       		.byte	120
 3697 010d 44       		.byte	68
 3698 010e 44       		.byte	68
 3699 010f 44       		.byte	68
 3700 0110 38       		.byte	56
 3701 0111 00       		.byte	0
 3702 0112 00       		.byte	0
 3703 0113 00       		.byte	0
 3704 0114 00       		.byte	0
 3705 0115 7C       		.byte	124
 3706 0116 44       		.byte	68
 3707 0117 04       		.byte	4
 3708 0118 08       		.byte	8
 3709 0119 08       		.byte	8
 3710 011a 08       		.byte	8
 3711 011b 10       		.byte	16
 3712 011c 10       		.byte	16
 3713 011d 00       		.byte	0
 3714 011e 00       		.byte	0
 3715 011f 00       		.byte	0
 3716 0120 00       		.byte	0
 3717 0121 38       		.byte	56
 3718 0122 44       		.byte	68
 3719 0123 44       		.byte	68
 3720 0124 38       		.byte	56
 3721 0125 44       		.byte	68
 3722 0126 44       		.byte	68
 3723 0127 44       		.byte	68
 3724 0128 38       		.byte	56
 3725 0129 00       		.byte	0
 3726 012a 00       		.byte	0
 3727 012b 00       		.byte	0
 3728 012c 00       		.byte	0
 3729 012d 38       		.byte	56
 3730 012e 44       		.byte	68
 3731 012f 44       		.byte	68
 3732 0130 44       		.byte	68
 3733 0131 3C       		.byte	60
 3734 0132 04       		.byte	4
 3735 0133 08       		.byte	8
 3736 0134 70       		.byte	112
 3737 0135 00       		.byte	0
 3738 0136 00       		.byte	0
 3739 0137 00       		.byte	0
 3740 0138 00       		.byte	0
 3741 0139 00       		.byte	0
 3742 013a 00       		.byte	0
 3743 013b 30       		.byte	48
 3744 013c 30       		.byte	48
 3745 013d 00       		.byte	0
 3746 013e 00       		.byte	0
 3747 013f 30       		.byte	48
 3748 0140 30       		.byte	48
 3749 0141 00       		.byte	0
 3750 0142 00       		.byte	0
ARM GAS  D:\Programs\cygwin64\tmp\ccnP8CjY.s 			page 65


 3751 0143 00       		.byte	0
 3752 0144 00       		.byte	0
 3753 0145 00       		.byte	0
 3754 0146 00       		.byte	0
 3755 0147 18       		.byte	24
 3756 0148 18       		.byte	24
 3757 0149 00       		.byte	0
 3758 014a 00       		.byte	0
 3759 014b 18       		.byte	24
 3760 014c 30       		.byte	48
 3761 014d 20       		.byte	32
 3762 014e 00       		.byte	0
 3763 014f 00       		.byte	0
 3764 0150 00       		.byte	0
 3765 0151 00       		.byte	0
 3766 0152 0C       		.byte	12
 3767 0153 10       		.byte	16
 3768 0154 60       		.byte	96
 3769 0155 80       		.byte	-128
 3770 0156 60       		.byte	96
 3771 0157 10       		.byte	16
 3772 0158 0C       		.byte	12
 3773 0159 00       		.byte	0
 3774 015a 00       		.byte	0
 3775 015b 00       		.byte	0
 3776 015c 00       		.byte	0
 3777 015d 00       		.byte	0
 3778 015e 00       		.byte	0
 3779 015f 00       		.byte	0
 3780 0160 7C       		.byte	124
 3781 0161 00       		.byte	0
 3782 0162 7C       		.byte	124
 3783 0163 00       		.byte	0
 3784 0164 00       		.byte	0
 3785 0165 00       		.byte	0
 3786 0166 00       		.byte	0
 3787 0167 00       		.byte	0
 3788 0168 00       		.byte	0
 3789 0169 00       		.byte	0
 3790 016a C0       		.byte	-64
 3791 016b 20       		.byte	32
 3792 016c 18       		.byte	24
 3793 016d 04       		.byte	4
 3794 016e 18       		.byte	24
 3795 016f 20       		.byte	32
 3796 0170 C0       		.byte	-64
 3797 0171 00       		.byte	0
 3798 0172 00       		.byte	0
 3799 0173 00       		.byte	0
 3800 0174 00       		.byte	0
 3801 0175 00       		.byte	0
 3802 0176 18       		.byte	24
 3803 0177 24       		.byte	36
 3804 0178 04       		.byte	4
 3805 0179 08       		.byte	8
 3806 017a 10       		.byte	16
 3807 017b 00       		.byte	0
ARM GAS  D:\Programs\cygwin64\tmp\ccnP8CjY.s 			page 66


 3808 017c 30       		.byte	48
 3809 017d 00       		.byte	0
 3810 017e 00       		.byte	0
 3811 017f 00       		.byte	0
 3812 0180 38       		.byte	56
 3813 0181 44       		.byte	68
 3814 0182 44       		.byte	68
 3815 0183 4C       		.byte	76
 3816 0184 54       		.byte	84
 3817 0185 54       		.byte	84
 3818 0186 4C       		.byte	76
 3819 0187 40       		.byte	64
 3820 0188 44       		.byte	68
 3821 0189 38       		.byte	56
 3822 018a 00       		.byte	0
 3823 018b 00       		.byte	0
 3824 018c 00       		.byte	0
 3825 018d 30       		.byte	48
 3826 018e 10       		.byte	16
 3827 018f 28       		.byte	40
 3828 0190 28       		.byte	40
 3829 0191 28       		.byte	40
 3830 0192 7C       		.byte	124
 3831 0193 44       		.byte	68
 3832 0194 EE       		.byte	-18
 3833 0195 00       		.byte	0
 3834 0196 00       		.byte	0
 3835 0197 00       		.byte	0
 3836 0198 00       		.byte	0
 3837 0199 F8       		.byte	-8
 3838 019a 44       		.byte	68
 3839 019b 44       		.byte	68
 3840 019c 78       		.byte	120
 3841 019d 44       		.byte	68
 3842 019e 44       		.byte	68
 3843 019f 44       		.byte	68
 3844 01a0 F8       		.byte	-8
 3845 01a1 00       		.byte	0
 3846 01a2 00       		.byte	0
 3847 01a3 00       		.byte	0
 3848 01a4 00       		.byte	0
 3849 01a5 3C       		.byte	60
 3850 01a6 44       		.byte	68
 3851 01a7 40       		.byte	64
 3852 01a8 40       		.byte	64
 3853 01a9 40       		.byte	64
 3854 01aa 40       		.byte	64
 3855 01ab 44       		.byte	68
 3856 01ac 38       		.byte	56
 3857 01ad 00       		.byte	0
 3858 01ae 00       		.byte	0
 3859 01af 00       		.byte	0
 3860 01b0 00       		.byte	0
 3861 01b1 F0       		.byte	-16
 3862 01b2 48       		.byte	72
 3863 01b3 44       		.byte	68
 3864 01b4 44       		.byte	68
ARM GAS  D:\Programs\cygwin64\tmp\ccnP8CjY.s 			page 67


 3865 01b5 44       		.byte	68
 3866 01b6 44       		.byte	68
 3867 01b7 48       		.byte	72
 3868 01b8 F0       		.byte	-16
 3869 01b9 00       		.byte	0
 3870 01ba 00       		.byte	0
 3871 01bb 00       		.byte	0
 3872 01bc 00       		.byte	0
 3873 01bd FC       		.byte	-4
 3874 01be 44       		.byte	68
 3875 01bf 50       		.byte	80
 3876 01c0 70       		.byte	112
 3877 01c1 50       		.byte	80
 3878 01c2 40       		.byte	64
 3879 01c3 44       		.byte	68
 3880 01c4 FC       		.byte	-4
 3881 01c5 00       		.byte	0
 3882 01c6 00       		.byte	0
 3883 01c7 00       		.byte	0
 3884 01c8 00       		.byte	0
 3885 01c9 7E       		.byte	126
 3886 01ca 22       		.byte	34
 3887 01cb 28       		.byte	40
 3888 01cc 38       		.byte	56
 3889 01cd 28       		.byte	40
 3890 01ce 20       		.byte	32
 3891 01cf 20       		.byte	32
 3892 01d0 70       		.byte	112
 3893 01d1 00       		.byte	0
 3894 01d2 00       		.byte	0
 3895 01d3 00       		.byte	0
 3896 01d4 00       		.byte	0
 3897 01d5 3C       		.byte	60
 3898 01d6 44       		.byte	68
 3899 01d7 40       		.byte	64
 3900 01d8 40       		.byte	64
 3901 01d9 4E       		.byte	78
 3902 01da 44       		.byte	68
 3903 01db 44       		.byte	68
 3904 01dc 38       		.byte	56
 3905 01dd 00       		.byte	0
 3906 01de 00       		.byte	0
 3907 01df 00       		.byte	0
 3908 01e0 00       		.byte	0
 3909 01e1 EE       		.byte	-18
 3910 01e2 44       		.byte	68
 3911 01e3 44       		.byte	68
 3912 01e4 7C       		.byte	124
 3913 01e5 44       		.byte	68
 3914 01e6 44       		.byte	68
 3915 01e7 44       		.byte	68
 3916 01e8 EE       		.byte	-18
 3917 01e9 00       		.byte	0
 3918 01ea 00       		.byte	0
 3919 01eb 00       		.byte	0
 3920 01ec 00       		.byte	0
 3921 01ed 7C       		.byte	124
ARM GAS  D:\Programs\cygwin64\tmp\ccnP8CjY.s 			page 68


 3922 01ee 10       		.byte	16
 3923 01ef 10       		.byte	16
 3924 01f0 10       		.byte	16
 3925 01f1 10       		.byte	16
 3926 01f2 10       		.byte	16
 3927 01f3 10       		.byte	16
 3928 01f4 7C       		.byte	124
 3929 01f5 00       		.byte	0
 3930 01f6 00       		.byte	0
 3931 01f7 00       		.byte	0
 3932 01f8 00       		.byte	0
 3933 01f9 3C       		.byte	60
 3934 01fa 08       		.byte	8
 3935 01fb 08       		.byte	8
 3936 01fc 08       		.byte	8
 3937 01fd 48       		.byte	72
 3938 01fe 48       		.byte	72
 3939 01ff 48       		.byte	72
 3940 0200 30       		.byte	48
 3941 0201 00       		.byte	0
 3942 0202 00       		.byte	0
 3943 0203 00       		.byte	0
 3944 0204 00       		.byte	0
 3945 0205 EE       		.byte	-18
 3946 0206 44       		.byte	68
 3947 0207 48       		.byte	72
 3948 0208 50       		.byte	80
 3949 0209 70       		.byte	112
 3950 020a 48       		.byte	72
 3951 020b 44       		.byte	68
 3952 020c E6       		.byte	-26
 3953 020d 00       		.byte	0
 3954 020e 00       		.byte	0
 3955 020f 00       		.byte	0
 3956 0210 00       		.byte	0
 3957 0211 70       		.byte	112
 3958 0212 20       		.byte	32
 3959 0213 20       		.byte	32
 3960 0214 20       		.byte	32
 3961 0215 20       		.byte	32
 3962 0216 24       		.byte	36
 3963 0217 24       		.byte	36
 3964 0218 7C       		.byte	124
 3965 0219 00       		.byte	0
 3966 021a 00       		.byte	0
 3967 021b 00       		.byte	0
 3968 021c 00       		.byte	0
 3969 021d EE       		.byte	-18
 3970 021e 6C       		.byte	108
 3971 021f 6C       		.byte	108
 3972 0220 54       		.byte	84
 3973 0221 54       		.byte	84
 3974 0222 44       		.byte	68
 3975 0223 44       		.byte	68
 3976 0224 EE       		.byte	-18
 3977 0225 00       		.byte	0
 3978 0226 00       		.byte	0
ARM GAS  D:\Programs\cygwin64\tmp\ccnP8CjY.s 			page 69


 3979 0227 00       		.byte	0
 3980 0228 00       		.byte	0
 3981 0229 EE       		.byte	-18
 3982 022a 64       		.byte	100
 3983 022b 64       		.byte	100
 3984 022c 54       		.byte	84
 3985 022d 54       		.byte	84
 3986 022e 54       		.byte	84
 3987 022f 4C       		.byte	76
 3988 0230 EC       		.byte	-20
 3989 0231 00       		.byte	0
 3990 0232 00       		.byte	0
 3991 0233 00       		.byte	0
 3992 0234 00       		.byte	0
 3993 0235 38       		.byte	56
 3994 0236 44       		.byte	68
 3995 0237 44       		.byte	68
 3996 0238 44       		.byte	68
 3997 0239 44       		.byte	68
 3998 023a 44       		.byte	68
 3999 023b 44       		.byte	68
 4000 023c 38       		.byte	56
 4001 023d 00       		.byte	0
 4002 023e 00       		.byte	0
 4003 023f 00       		.byte	0
 4004 0240 00       		.byte	0
 4005 0241 78       		.byte	120
 4006 0242 24       		.byte	36
 4007 0243 24       		.byte	36
 4008 0244 24       		.byte	36
 4009 0245 38       		.byte	56
 4010 0246 20       		.byte	32
 4011 0247 20       		.byte	32
 4012 0248 70       		.byte	112
 4013 0249 00       		.byte	0
 4014 024a 00       		.byte	0
 4015 024b 00       		.byte	0
 4016 024c 00       		.byte	0
 4017 024d 38       		.byte	56
 4018 024e 44       		.byte	68
 4019 024f 44       		.byte	68
 4020 0250 44       		.byte	68
 4021 0251 44       		.byte	68
 4022 0252 44       		.byte	68
 4023 0253 44       		.byte	68
 4024 0254 38       		.byte	56
 4025 0255 1C       		.byte	28
 4026 0256 00       		.byte	0
 4027 0257 00       		.byte	0
 4028 0258 00       		.byte	0
 4029 0259 F8       		.byte	-8
 4030 025a 44       		.byte	68
 4031 025b 44       		.byte	68
 4032 025c 44       		.byte	68
 4033 025d 78       		.byte	120
 4034 025e 48       		.byte	72
 4035 025f 44       		.byte	68
ARM GAS  D:\Programs\cygwin64\tmp\ccnP8CjY.s 			page 70


 4036 0260 E2       		.byte	-30
 4037 0261 00       		.byte	0
 4038 0262 00       		.byte	0
 4039 0263 00       		.byte	0
 4040 0264 00       		.byte	0
 4041 0265 34       		.byte	52
 4042 0266 4C       		.byte	76
 4043 0267 40       		.byte	64
 4044 0268 38       		.byte	56
 4045 0269 04       		.byte	4
 4046 026a 04       		.byte	4
 4047 026b 64       		.byte	100
 4048 026c 58       		.byte	88
 4049 026d 00       		.byte	0
 4050 026e 00       		.byte	0
 4051 026f 00       		.byte	0
 4052 0270 00       		.byte	0
 4053 0271 FE       		.byte	-2
 4054 0272 92       		.byte	-110
 4055 0273 10       		.byte	16
 4056 0274 10       		.byte	16
 4057 0275 10       		.byte	16
 4058 0276 10       		.byte	16
 4059 0277 10       		.byte	16
 4060 0278 38       		.byte	56
 4061 0279 00       		.byte	0
 4062 027a 00       		.byte	0
 4063 027b 00       		.byte	0
 4064 027c 00       		.byte	0
 4065 027d EE       		.byte	-18
 4066 027e 44       		.byte	68
 4067 027f 44       		.byte	68
 4068 0280 44       		.byte	68
 4069 0281 44       		.byte	68
 4070 0282 44       		.byte	68
 4071 0283 44       		.byte	68
 4072 0284 38       		.byte	56
 4073 0285 00       		.byte	0
 4074 0286 00       		.byte	0
 4075 0287 00       		.byte	0
 4076 0288 00       		.byte	0
 4077 0289 EE       		.byte	-18
 4078 028a 44       		.byte	68
 4079 028b 44       		.byte	68
 4080 028c 28       		.byte	40
 4081 028d 28       		.byte	40
 4082 028e 28       		.byte	40
 4083 028f 10       		.byte	16
 4084 0290 10       		.byte	16
 4085 0291 00       		.byte	0
 4086 0292 00       		.byte	0
 4087 0293 00       		.byte	0
 4088 0294 00       		.byte	0
 4089 0295 EE       		.byte	-18
 4090 0296 44       		.byte	68
 4091 0297 44       		.byte	68
 4092 0298 54       		.byte	84
ARM GAS  D:\Programs\cygwin64\tmp\ccnP8CjY.s 			page 71


 4093 0299 54       		.byte	84
 4094 029a 54       		.byte	84
 4095 029b 54       		.byte	84
 4096 029c 28       		.byte	40
 4097 029d 00       		.byte	0
 4098 029e 00       		.byte	0
 4099 029f 00       		.byte	0
 4100 02a0 00       		.byte	0
 4101 02a1 C6       		.byte	-58
 4102 02a2 44       		.byte	68
 4103 02a3 28       		.byte	40
 4104 02a4 10       		.byte	16
 4105 02a5 10       		.byte	16
 4106 02a6 28       		.byte	40
 4107 02a7 44       		.byte	68
 4108 02a8 C6       		.byte	-58
 4109 02a9 00       		.byte	0
 4110 02aa 00       		.byte	0
 4111 02ab 00       		.byte	0
 4112 02ac 00       		.byte	0
 4113 02ad EE       		.byte	-18
 4114 02ae 44       		.byte	68
 4115 02af 28       		.byte	40
 4116 02b0 28       		.byte	40
 4117 02b1 10       		.byte	16
 4118 02b2 10       		.byte	16
 4119 02b3 10       		.byte	16
 4120 02b4 38       		.byte	56
 4121 02b5 00       		.byte	0
 4122 02b6 00       		.byte	0
 4123 02b7 00       		.byte	0
 4124 02b8 00       		.byte	0
 4125 02b9 7C       		.byte	124
 4126 02ba 44       		.byte	68
 4127 02bb 08       		.byte	8
 4128 02bc 10       		.byte	16
 4129 02bd 10       		.byte	16
 4130 02be 20       		.byte	32
 4131 02bf 44       		.byte	68
 4132 02c0 7C       		.byte	124
 4133 02c1 00       		.byte	0
 4134 02c2 00       		.byte	0
 4135 02c3 00       		.byte	0
 4136 02c4 00       		.byte	0
 4137 02c5 38       		.byte	56
 4138 02c6 20       		.byte	32
 4139 02c7 20       		.byte	32
 4140 02c8 20       		.byte	32
 4141 02c9 20       		.byte	32
 4142 02ca 20       		.byte	32
 4143 02cb 20       		.byte	32
 4144 02cc 20       		.byte	32
 4145 02cd 20       		.byte	32
 4146 02ce 38       		.byte	56
 4147 02cf 00       		.byte	0
 4148 02d0 00       		.byte	0
 4149 02d1 40       		.byte	64
ARM GAS  D:\Programs\cygwin64\tmp\ccnP8CjY.s 			page 72


 4150 02d2 20       		.byte	32
 4151 02d3 20       		.byte	32
 4152 02d4 20       		.byte	32
 4153 02d5 10       		.byte	16
 4154 02d6 10       		.byte	16
 4155 02d7 08       		.byte	8
 4156 02d8 08       		.byte	8
 4157 02d9 08       		.byte	8
 4158 02da 00       		.byte	0
 4159 02db 00       		.byte	0
 4160 02dc 00       		.byte	0
 4161 02dd 38       		.byte	56
 4162 02de 08       		.byte	8
 4163 02df 08       		.byte	8
 4164 02e0 08       		.byte	8
 4165 02e1 08       		.byte	8
 4166 02e2 08       		.byte	8
 4167 02e3 08       		.byte	8
 4168 02e4 08       		.byte	8
 4169 02e5 08       		.byte	8
 4170 02e6 38       		.byte	56
 4171 02e7 00       		.byte	0
 4172 02e8 00       		.byte	0
 4173 02e9 10       		.byte	16
 4174 02ea 10       		.byte	16
 4175 02eb 28       		.byte	40
 4176 02ec 44       		.byte	68
 4177 02ed 00       		.byte	0
 4178 02ee 00       		.byte	0
 4179 02ef 00       		.byte	0
 4180 02f0 00       		.byte	0
 4181 02f1 00       		.byte	0
 4182 02f2 00       		.byte	0
 4183 02f3 00       		.byte	0
 4184 02f4 00       		.byte	0
 4185 02f5 00       		.byte	0
 4186 02f6 00       		.byte	0
 4187 02f7 00       		.byte	0
 4188 02f8 00       		.byte	0
 4189 02f9 00       		.byte	0
 4190 02fa 00       		.byte	0
 4191 02fb 00       		.byte	0
 4192 02fc 00       		.byte	0
 4193 02fd 00       		.byte	0
 4194 02fe 00       		.byte	0
 4195 02ff FE       		.byte	-2
 4196 0300 00       		.byte	0
 4197 0301 10       		.byte	16
 4198 0302 08       		.byte	8
 4199 0303 00       		.byte	0
 4200 0304 00       		.byte	0
 4201 0305 00       		.byte	0
 4202 0306 00       		.byte	0
 4203 0307 00       		.byte	0
 4204 0308 00       		.byte	0
 4205 0309 00       		.byte	0
 4206 030a 00       		.byte	0
ARM GAS  D:\Programs\cygwin64\tmp\ccnP8CjY.s 			page 73


 4207 030b 00       		.byte	0
 4208 030c 00       		.byte	0
 4209 030d 00       		.byte	0
 4210 030e 00       		.byte	0
 4211 030f 38       		.byte	56
 4212 0310 44       		.byte	68
 4213 0311 3C       		.byte	60
 4214 0312 44       		.byte	68
 4215 0313 44       		.byte	68
 4216 0314 3E       		.byte	62
 4217 0315 00       		.byte	0
 4218 0316 00       		.byte	0
 4219 0317 00       		.byte	0
 4220 0318 00       		.byte	0
 4221 0319 C0       		.byte	-64
 4222 031a 40       		.byte	64
 4223 031b 58       		.byte	88
 4224 031c 64       		.byte	100
 4225 031d 44       		.byte	68
 4226 031e 44       		.byte	68
 4227 031f 44       		.byte	68
 4228 0320 F8       		.byte	-8
 4229 0321 00       		.byte	0
 4230 0322 00       		.byte	0
 4231 0323 00       		.byte	0
 4232 0324 00       		.byte	0
 4233 0325 00       		.byte	0
 4234 0326 00       		.byte	0
 4235 0327 3C       		.byte	60
 4236 0328 44       		.byte	68
 4237 0329 40       		.byte	64
 4238 032a 40       		.byte	64
 4239 032b 44       		.byte	68
 4240 032c 38       		.byte	56
 4241 032d 00       		.byte	0
 4242 032e 00       		.byte	0
 4243 032f 00       		.byte	0
 4244 0330 00       		.byte	0
 4245 0331 0C       		.byte	12
 4246 0332 04       		.byte	4
 4247 0333 34       		.byte	52
 4248 0334 4C       		.byte	76
 4249 0335 44       		.byte	68
 4250 0336 44       		.byte	68
 4251 0337 44       		.byte	68
 4252 0338 3E       		.byte	62
 4253 0339 00       		.byte	0
 4254 033a 00       		.byte	0
 4255 033b 00       		.byte	0
 4256 033c 00       		.byte	0
 4257 033d 00       		.byte	0
 4258 033e 00       		.byte	0
 4259 033f 38       		.byte	56
 4260 0340 44       		.byte	68
 4261 0341 7C       		.byte	124
 4262 0342 40       		.byte	64
 4263 0343 40       		.byte	64
ARM GAS  D:\Programs\cygwin64\tmp\ccnP8CjY.s 			page 74


 4264 0344 3C       		.byte	60
 4265 0345 00       		.byte	0
 4266 0346 00       		.byte	0
 4267 0347 00       		.byte	0
 4268 0348 00       		.byte	0
 4269 0349 1C       		.byte	28
 4270 034a 20       		.byte	32
 4271 034b 7C       		.byte	124
 4272 034c 20       		.byte	32
 4273 034d 20       		.byte	32
 4274 034e 20       		.byte	32
 4275 034f 20       		.byte	32
 4276 0350 7C       		.byte	124
 4277 0351 00       		.byte	0
 4278 0352 00       		.byte	0
 4279 0353 00       		.byte	0
 4280 0354 00       		.byte	0
 4281 0355 00       		.byte	0
 4282 0356 00       		.byte	0
 4283 0357 36       		.byte	54
 4284 0358 4C       		.byte	76
 4285 0359 44       		.byte	68
 4286 035a 44       		.byte	68
 4287 035b 44       		.byte	68
 4288 035c 3C       		.byte	60
 4289 035d 04       		.byte	4
 4290 035e 38       		.byte	56
 4291 035f 00       		.byte	0
 4292 0360 00       		.byte	0
 4293 0361 C0       		.byte	-64
 4294 0362 40       		.byte	64
 4295 0363 58       		.byte	88
 4296 0364 64       		.byte	100
 4297 0365 44       		.byte	68
 4298 0366 44       		.byte	68
 4299 0367 44       		.byte	68
 4300 0368 EE       		.byte	-18
 4301 0369 00       		.byte	0
 4302 036a 00       		.byte	0
 4303 036b 00       		.byte	0
 4304 036c 00       		.byte	0
 4305 036d 10       		.byte	16
 4306 036e 00       		.byte	0
 4307 036f 70       		.byte	112
 4308 0370 10       		.byte	16
 4309 0371 10       		.byte	16
 4310 0372 10       		.byte	16
 4311 0373 10       		.byte	16
 4312 0374 7C       		.byte	124
 4313 0375 00       		.byte	0
 4314 0376 00       		.byte	0
 4315 0377 00       		.byte	0
 4316 0378 00       		.byte	0
 4317 0379 10       		.byte	16
 4318 037a 00       		.byte	0
 4319 037b 78       		.byte	120
 4320 037c 08       		.byte	8
ARM GAS  D:\Programs\cygwin64\tmp\ccnP8CjY.s 			page 75


 4321 037d 08       		.byte	8
 4322 037e 08       		.byte	8
 4323 037f 08       		.byte	8
 4324 0380 08       		.byte	8
 4325 0381 08       		.byte	8
 4326 0382 70       		.byte	112
 4327 0383 00       		.byte	0
 4328 0384 00       		.byte	0
 4329 0385 C0       		.byte	-64
 4330 0386 40       		.byte	64
 4331 0387 5C       		.byte	92
 4332 0388 48       		.byte	72
 4333 0389 70       		.byte	112
 4334 038a 50       		.byte	80
 4335 038b 48       		.byte	72
 4336 038c DC       		.byte	-36
 4337 038d 00       		.byte	0
 4338 038e 00       		.byte	0
 4339 038f 00       		.byte	0
 4340 0390 00       		.byte	0
 4341 0391 30       		.byte	48
 4342 0392 10       		.byte	16
 4343 0393 10       		.byte	16
 4344 0394 10       		.byte	16
 4345 0395 10       		.byte	16
 4346 0396 10       		.byte	16
 4347 0397 10       		.byte	16
 4348 0398 7C       		.byte	124
 4349 0399 00       		.byte	0
 4350 039a 00       		.byte	0
 4351 039b 00       		.byte	0
 4352 039c 00       		.byte	0
 4353 039d 00       		.byte	0
 4354 039e 00       		.byte	0
 4355 039f E8       		.byte	-24
 4356 03a0 54       		.byte	84
 4357 03a1 54       		.byte	84
 4358 03a2 54       		.byte	84
 4359 03a3 54       		.byte	84
 4360 03a4 FE       		.byte	-2
 4361 03a5 00       		.byte	0
 4362 03a6 00       		.byte	0
 4363 03a7 00       		.byte	0
 4364 03a8 00       		.byte	0
 4365 03a9 00       		.byte	0
 4366 03aa 00       		.byte	0
 4367 03ab D8       		.byte	-40
 4368 03ac 64       		.byte	100
 4369 03ad 44       		.byte	68
 4370 03ae 44       		.byte	68
 4371 03af 44       		.byte	68
 4372 03b0 EE       		.byte	-18
 4373 03b1 00       		.byte	0
 4374 03b2 00       		.byte	0
 4375 03b3 00       		.byte	0
 4376 03b4 00       		.byte	0
 4377 03b5 00       		.byte	0
ARM GAS  D:\Programs\cygwin64\tmp\ccnP8CjY.s 			page 76


 4378 03b6 00       		.byte	0
 4379 03b7 38       		.byte	56
 4380 03b8 44       		.byte	68
 4381 03b9 44       		.byte	68
 4382 03ba 44       		.byte	68
 4383 03bb 44       		.byte	68
 4384 03bc 38       		.byte	56
 4385 03bd 00       		.byte	0
 4386 03be 00       		.byte	0
 4387 03bf 00       		.byte	0
 4388 03c0 00       		.byte	0
 4389 03c1 00       		.byte	0
 4390 03c2 00       		.byte	0
 4391 03c3 D8       		.byte	-40
 4392 03c4 64       		.byte	100
 4393 03c5 44       		.byte	68
 4394 03c6 44       		.byte	68
 4395 03c7 44       		.byte	68
 4396 03c8 78       		.byte	120
 4397 03c9 40       		.byte	64
 4398 03ca E0       		.byte	-32
 4399 03cb 00       		.byte	0
 4400 03cc 00       		.byte	0
 4401 03cd 00       		.byte	0
 4402 03ce 00       		.byte	0
 4403 03cf 36       		.byte	54
 4404 03d0 4C       		.byte	76
 4405 03d1 44       		.byte	68
 4406 03d2 44       		.byte	68
 4407 03d3 44       		.byte	68
 4408 03d4 3C       		.byte	60
 4409 03d5 04       		.byte	4
 4410 03d6 0E       		.byte	14
 4411 03d7 00       		.byte	0
 4412 03d8 00       		.byte	0
 4413 03d9 00       		.byte	0
 4414 03da 00       		.byte	0
 4415 03db 6C       		.byte	108
 4416 03dc 30       		.byte	48
 4417 03dd 20       		.byte	32
 4418 03de 20       		.byte	32
 4419 03df 20       		.byte	32
 4420 03e0 7C       		.byte	124
 4421 03e1 00       		.byte	0
 4422 03e2 00       		.byte	0
 4423 03e3 00       		.byte	0
 4424 03e4 00       		.byte	0
 4425 03e5 00       		.byte	0
 4426 03e6 00       		.byte	0
 4427 03e7 3C       		.byte	60
 4428 03e8 44       		.byte	68
 4429 03e9 38       		.byte	56
 4430 03ea 04       		.byte	4
 4431 03eb 44       		.byte	68
 4432 03ec 78       		.byte	120
 4433 03ed 00       		.byte	0
 4434 03ee 00       		.byte	0
ARM GAS  D:\Programs\cygwin64\tmp\ccnP8CjY.s 			page 77


 4435 03ef 00       		.byte	0
 4436 03f0 00       		.byte	0
 4437 03f1 00       		.byte	0
 4438 03f2 20       		.byte	32
 4439 03f3 7C       		.byte	124
 4440 03f4 20       		.byte	32
 4441 03f5 20       		.byte	32
 4442 03f6 20       		.byte	32
 4443 03f7 22       		.byte	34
 4444 03f8 1C       		.byte	28
 4445 03f9 00       		.byte	0
 4446 03fa 00       		.byte	0
 4447 03fb 00       		.byte	0
 4448 03fc 00       		.byte	0
 4449 03fd 00       		.byte	0
 4450 03fe 00       		.byte	0
 4451 03ff CC       		.byte	-52
 4452 0400 44       		.byte	68
 4453 0401 44       		.byte	68
 4454 0402 44       		.byte	68
 4455 0403 4C       		.byte	76
 4456 0404 36       		.byte	54
 4457 0405 00       		.byte	0
 4458 0406 00       		.byte	0
 4459 0407 00       		.byte	0
 4460 0408 00       		.byte	0
 4461 0409 00       		.byte	0
 4462 040a 00       		.byte	0
 4463 040b EE       		.byte	-18
 4464 040c 44       		.byte	68
 4465 040d 44       		.byte	68
 4466 040e 28       		.byte	40
 4467 040f 28       		.byte	40
 4468 0410 10       		.byte	16
 4469 0411 00       		.byte	0
 4470 0412 00       		.byte	0
 4471 0413 00       		.byte	0
 4472 0414 00       		.byte	0
 4473 0415 00       		.byte	0
 4474 0416 00       		.byte	0
 4475 0417 EE       		.byte	-18
 4476 0418 44       		.byte	68
 4477 0419 54       		.byte	84
 4478 041a 54       		.byte	84
 4479 041b 54       		.byte	84
 4480 041c 28       		.byte	40
 4481 041d 00       		.byte	0
 4482 041e 00       		.byte	0
 4483 041f 00       		.byte	0
 4484 0420 00       		.byte	0
 4485 0421 00       		.byte	0
 4486 0422 00       		.byte	0
 4487 0423 CC       		.byte	-52
 4488 0424 48       		.byte	72
 4489 0425 30       		.byte	48
 4490 0426 30       		.byte	48
 4491 0427 48       		.byte	72
ARM GAS  D:\Programs\cygwin64\tmp\ccnP8CjY.s 			page 78


 4492 0428 CC       		.byte	-52
 4493 0429 00       		.byte	0
 4494 042a 00       		.byte	0
 4495 042b 00       		.byte	0
 4496 042c 00       		.byte	0
 4497 042d 00       		.byte	0
 4498 042e 00       		.byte	0
 4499 042f EE       		.byte	-18
 4500 0430 44       		.byte	68
 4501 0431 24       		.byte	36
 4502 0432 28       		.byte	40
 4503 0433 18       		.byte	24
 4504 0434 10       		.byte	16
 4505 0435 10       		.byte	16
 4506 0436 78       		.byte	120
 4507 0437 00       		.byte	0
 4508 0438 00       		.byte	0
 4509 0439 00       		.byte	0
 4510 043a 00       		.byte	0
 4511 043b 7C       		.byte	124
 4512 043c 48       		.byte	72
 4513 043d 10       		.byte	16
 4514 043e 20       		.byte	32
 4515 043f 44       		.byte	68
 4516 0440 7C       		.byte	124
 4517 0441 00       		.byte	0
 4518 0442 00       		.byte	0
 4519 0443 00       		.byte	0
 4520 0444 00       		.byte	0
 4521 0445 08       		.byte	8
 4522 0446 10       		.byte	16
 4523 0447 10       		.byte	16
 4524 0448 10       		.byte	16
 4525 0449 10       		.byte	16
 4526 044a 20       		.byte	32
 4527 044b 10       		.byte	16
 4528 044c 10       		.byte	16
 4529 044d 10       		.byte	16
 4530 044e 08       		.byte	8
 4531 044f 00       		.byte	0
 4532 0450 00       		.byte	0
 4533 0451 10       		.byte	16
 4534 0452 10       		.byte	16
 4535 0453 10       		.byte	16
 4536 0454 10       		.byte	16
 4537 0455 10       		.byte	16
 4538 0456 10       		.byte	16
 4539 0457 10       		.byte	16
 4540 0458 10       		.byte	16
 4541 0459 10       		.byte	16
 4542 045a 00       		.byte	0
 4543 045b 00       		.byte	0
 4544 045c 00       		.byte	0
 4545 045d 20       		.byte	32
 4546 045e 10       		.byte	16
 4547 045f 10       		.byte	16
 4548 0460 10       		.byte	16
ARM GAS  D:\Programs\cygwin64\tmp\ccnP8CjY.s 			page 79


 4549 0461 10       		.byte	16
 4550 0462 08       		.byte	8
 4551 0463 10       		.byte	16
 4552 0464 10       		.byte	16
 4553 0465 10       		.byte	16
 4554 0466 20       		.byte	32
 4555 0467 00       		.byte	0
 4556 0468 00       		.byte	0
 4557 0469 00       		.byte	0
 4558 046a 00       		.byte	0
 4559 046b 00       		.byte	0
 4560 046c 00       		.byte	0
 4561 046d 24       		.byte	36
 4562 046e 58       		.byte	88
 4563 046f 00       		.byte	0
 4564 0470 00       		.byte	0
 4565 0471 00       		.byte	0
 4566 0472 00       		.byte	0
 4567 0473 00       		.byte	0
 4568              		.section	.rodata.Font16_Table,"a"
 4569              		.align	2
 4572              	Font16_Table:
 4573 0000 00       		.byte	0
 4574 0001 00       		.byte	0
 4575 0002 00       		.byte	0
 4576 0003 00       		.byte	0
 4577 0004 00       		.byte	0
 4578 0005 00       		.byte	0
 4579 0006 00       		.byte	0
 4580 0007 00       		.byte	0
 4581 0008 00       		.byte	0
 4582 0009 00       		.byte	0
 4583 000a 00       		.byte	0
 4584 000b 00       		.byte	0
 4585 000c 00       		.byte	0
 4586 000d 00       		.byte	0
 4587 000e 00       		.byte	0
 4588 000f 00       		.byte	0
 4589 0010 00       		.byte	0
 4590 0011 00       		.byte	0
 4591 0012 00       		.byte	0
 4592 0013 00       		.byte	0
 4593 0014 00       		.byte	0
 4594 0015 00       		.byte	0
 4595 0016 00       		.byte	0
 4596 0017 00       		.byte	0
 4597 0018 00       		.byte	0
 4598 0019 00       		.byte	0
 4599 001a 00       		.byte	0
 4600 001b 00       		.byte	0
 4601 001c 00       		.byte	0
 4602 001d 00       		.byte	0
 4603 001e 00       		.byte	0
 4604 001f 00       		.byte	0
 4605 0020 00       		.byte	0
 4606 0021 00       		.byte	0
 4607 0022 0C       		.byte	12
ARM GAS  D:\Programs\cygwin64\tmp\ccnP8CjY.s 			page 80


 4608 0023 00       		.byte	0
 4609 0024 0C       		.byte	12
 4610 0025 00       		.byte	0
 4611 0026 0C       		.byte	12
 4612 0027 00       		.byte	0
 4613 0028 0C       		.byte	12
 4614 0029 00       		.byte	0
 4615 002a 0C       		.byte	12
 4616 002b 00       		.byte	0
 4617 002c 0C       		.byte	12
 4618 002d 00       		.byte	0
 4619 002e 0C       		.byte	12
 4620 002f 00       		.byte	0
 4621 0030 0C       		.byte	12
 4622 0031 00       		.byte	0
 4623 0032 00       		.byte	0
 4624 0033 00       		.byte	0
 4625 0034 0C       		.byte	12
 4626 0035 00       		.byte	0
 4627 0036 00       		.byte	0
 4628 0037 00       		.byte	0
 4629 0038 00       		.byte	0
 4630 0039 00       		.byte	0
 4631 003a 00       		.byte	0
 4632 003b 00       		.byte	0
 4633 003c 00       		.byte	0
 4634 003d 00       		.byte	0
 4635 003e 00       		.byte	0
 4636 003f 00       		.byte	0
 4637 0040 00       		.byte	0
 4638 0041 00       		.byte	0
 4639 0042 00       		.byte	0
 4640 0043 00       		.byte	0
 4641 0044 1D       		.byte	29
 4642 0045 C0       		.byte	-64
 4643 0046 1D       		.byte	29
 4644 0047 C0       		.byte	-64
 4645 0048 08       		.byte	8
 4646 0049 80       		.byte	-128
 4647 004a 08       		.byte	8
 4648 004b 80       		.byte	-128
 4649 004c 08       		.byte	8
 4650 004d 80       		.byte	-128
 4651 004e 00       		.byte	0
 4652 004f 00       		.byte	0
 4653 0050 00       		.byte	0
 4654 0051 00       		.byte	0
 4655 0052 00       		.byte	0
 4656 0053 00       		.byte	0
 4657 0054 00       		.byte	0
 4658 0055 00       		.byte	0
 4659 0056 00       		.byte	0
 4660 0057 00       		.byte	0
 4661 0058 00       		.byte	0
 4662 0059 00       		.byte	0
 4663 005a 00       		.byte	0
 4664 005b 00       		.byte	0
ARM GAS  D:\Programs\cygwin64\tmp\ccnP8CjY.s 			page 81


 4665 005c 00       		.byte	0
 4666 005d 00       		.byte	0
 4667 005e 00       		.byte	0
 4668 005f 00       		.byte	0
 4669 0060 00       		.byte	0
 4670 0061 00       		.byte	0
 4671 0062 0D       		.byte	13
 4672 0063 80       		.byte	-128
 4673 0064 0D       		.byte	13
 4674 0065 80       		.byte	-128
 4675 0066 0D       		.byte	13
 4676 0067 80       		.byte	-128
 4677 0068 0D       		.byte	13
 4678 0069 80       		.byte	-128
 4679 006a 3F       		.byte	63
 4680 006b C0       		.byte	-64
 4681 006c 1B       		.byte	27
 4682 006d 00       		.byte	0
 4683 006e 3F       		.byte	63
 4684 006f C0       		.byte	-64
 4685 0070 1B       		.byte	27
 4686 0071 00       		.byte	0
 4687 0072 1B       		.byte	27
 4688 0073 00       		.byte	0
 4689 0074 1B       		.byte	27
 4690 0075 00       		.byte	0
 4691 0076 1B       		.byte	27
 4692 0077 00       		.byte	0
 4693 0078 00       		.byte	0
 4694 0079 00       		.byte	0
 4695 007a 00       		.byte	0
 4696 007b 00       		.byte	0
 4697 007c 00       		.byte	0
 4698 007d 00       		.byte	0
 4699 007e 00       		.byte	0
 4700 007f 00       		.byte	0
 4701 0080 04       		.byte	4
 4702 0081 00       		.byte	0
 4703 0082 1F       		.byte	31
 4704 0083 80       		.byte	-128
 4705 0084 31       		.byte	49
 4706 0085 80       		.byte	-128
 4707 0086 31       		.byte	49
 4708 0087 80       		.byte	-128
 4709 0088 38       		.byte	56
 4710 0089 00       		.byte	0
 4711 008a 1E       		.byte	30
 4712 008b 00       		.byte	0
 4713 008c 0F       		.byte	15
 4714 008d 00       		.byte	0
 4715 008e 03       		.byte	3
 4716 008f 80       		.byte	-128
 4717 0090 31       		.byte	49
 4718 0091 80       		.byte	-128
 4719 0092 31       		.byte	49
 4720 0093 80       		.byte	-128
 4721 0094 3F       		.byte	63
ARM GAS  D:\Programs\cygwin64\tmp\ccnP8CjY.s 			page 82


 4722 0095 00       		.byte	0
 4723 0096 04       		.byte	4
 4724 0097 00       		.byte	0
 4725 0098 04       		.byte	4
 4726 0099 00       		.byte	0
 4727 009a 00       		.byte	0
 4728 009b 00       		.byte	0
 4729 009c 00       		.byte	0
 4730 009d 00       		.byte	0
 4731 009e 00       		.byte	0
 4732 009f 00       		.byte	0
 4733 00a0 00       		.byte	0
 4734 00a1 00       		.byte	0
 4735 00a2 18       		.byte	24
 4736 00a3 00       		.byte	0
 4737 00a4 24       		.byte	36
 4738 00a5 00       		.byte	0
 4739 00a6 24       		.byte	36
 4740 00a7 00       		.byte	0
 4741 00a8 18       		.byte	24
 4742 00a9 C0       		.byte	-64
 4743 00aa 07       		.byte	7
 4744 00ab 80       		.byte	-128
 4745 00ac 1E       		.byte	30
 4746 00ad 00       		.byte	0
 4747 00ae 31       		.byte	49
 4748 00af 80       		.byte	-128
 4749 00b0 02       		.byte	2
 4750 00b1 40       		.byte	64
 4751 00b2 02       		.byte	2
 4752 00b3 40       		.byte	64
 4753 00b4 01       		.byte	1
 4754 00b5 80       		.byte	-128
 4755 00b6 00       		.byte	0
 4756 00b7 00       		.byte	0
 4757 00b8 00       		.byte	0
 4758 00b9 00       		.byte	0
 4759 00ba 00       		.byte	0
 4760 00bb 00       		.byte	0
 4761 00bc 00       		.byte	0
 4762 00bd 00       		.byte	0
 4763 00be 00       		.byte	0
 4764 00bf 00       		.byte	0
 4765 00c0 00       		.byte	0
 4766 00c1 00       		.byte	0
 4767 00c2 00       		.byte	0
 4768 00c3 00       		.byte	0
 4769 00c4 0F       		.byte	15
 4770 00c5 00       		.byte	0
 4771 00c6 18       		.byte	24
 4772 00c7 00       		.byte	0
 4773 00c8 18       		.byte	24
 4774 00c9 00       		.byte	0
 4775 00ca 18       		.byte	24
 4776 00cb 00       		.byte	0
 4777 00cc 0C       		.byte	12
 4778 00cd 00       		.byte	0
ARM GAS  D:\Programs\cygwin64\tmp\ccnP8CjY.s 			page 83


 4779 00ce 1D       		.byte	29
 4780 00cf 80       		.byte	-128
 4781 00d0 37       		.byte	55
 4782 00d1 00       		.byte	0
 4783 00d2 33       		.byte	51
 4784 00d3 00       		.byte	0
 4785 00d4 1D       		.byte	29
 4786 00d5 80       		.byte	-128
 4787 00d6 00       		.byte	0
 4788 00d7 00       		.byte	0
 4789 00d8 00       		.byte	0
 4790 00d9 00       		.byte	0
 4791 00da 00       		.byte	0
 4792 00db 00       		.byte	0
 4793 00dc 00       		.byte	0
 4794 00dd 00       		.byte	0
 4795 00de 00       		.byte	0
 4796 00df 00       		.byte	0
 4797 00e0 00       		.byte	0
 4798 00e1 00       		.byte	0
 4799 00e2 00       		.byte	0
 4800 00e3 00       		.byte	0
 4801 00e4 07       		.byte	7
 4802 00e5 00       		.byte	0
 4803 00e6 07       		.byte	7
 4804 00e7 00       		.byte	0
 4805 00e8 02       		.byte	2
 4806 00e9 00       		.byte	0
 4807 00ea 02       		.byte	2
 4808 00eb 00       		.byte	0
 4809 00ec 02       		.byte	2
 4810 00ed 00       		.byte	0
 4811 00ee 00       		.byte	0
 4812 00ef 00       		.byte	0
 4813 00f0 00       		.byte	0
 4814 00f1 00       		.byte	0
 4815 00f2 00       		.byte	0
 4816 00f3 00       		.byte	0
 4817 00f4 00       		.byte	0
 4818 00f5 00       		.byte	0
 4819 00f6 00       		.byte	0
 4820 00f7 00       		.byte	0
 4821 00f8 00       		.byte	0
 4822 00f9 00       		.byte	0
 4823 00fa 00       		.byte	0
 4824 00fb 00       		.byte	0
 4825 00fc 00       		.byte	0
 4826 00fd 00       		.byte	0
 4827 00fe 00       		.byte	0
 4828 00ff 00       		.byte	0
 4829 0100 00       		.byte	0
 4830 0101 00       		.byte	0
 4831 0102 03       		.byte	3
 4832 0103 00       		.byte	0
 4833 0104 03       		.byte	3
 4834 0105 00       		.byte	0
 4835 0106 06       		.byte	6
ARM GAS  D:\Programs\cygwin64\tmp\ccnP8CjY.s 			page 84


 4836 0107 00       		.byte	0
 4837 0108 0E       		.byte	14
 4838 0109 00       		.byte	0
 4839 010a 0C       		.byte	12
 4840 010b 00       		.byte	0
 4841 010c 0C       		.byte	12
 4842 010d 00       		.byte	0
 4843 010e 0C       		.byte	12
 4844 010f 00       		.byte	0
 4845 0110 0C       		.byte	12
 4846 0111 00       		.byte	0
 4847 0112 0E       		.byte	14
 4848 0113 00       		.byte	0
 4849 0114 06       		.byte	6
 4850 0115 00       		.byte	0
 4851 0116 03       		.byte	3
 4852 0117 00       		.byte	0
 4853 0118 03       		.byte	3
 4854 0119 00       		.byte	0
 4855 011a 00       		.byte	0
 4856 011b 00       		.byte	0
 4857 011c 00       		.byte	0
 4858 011d 00       		.byte	0
 4859 011e 00       		.byte	0
 4860 011f 00       		.byte	0
 4861 0120 00       		.byte	0
 4862 0121 00       		.byte	0
 4863 0122 18       		.byte	24
 4864 0123 00       		.byte	0
 4865 0124 18       		.byte	24
 4866 0125 00       		.byte	0
 4867 0126 0C       		.byte	12
 4868 0127 00       		.byte	0
 4869 0128 06       		.byte	6
 4870 0129 00       		.byte	0
 4871 012a 06       		.byte	6
 4872 012b 00       		.byte	0
 4873 012c 06       		.byte	6
 4874 012d 00       		.byte	0
 4875 012e 06       		.byte	6
 4876 012f 00       		.byte	0
 4877 0130 06       		.byte	6
 4878 0131 00       		.byte	0
 4879 0132 06       		.byte	6
 4880 0133 00       		.byte	0
 4881 0134 0C       		.byte	12
 4882 0135 00       		.byte	0
 4883 0136 1C       		.byte	28
 4884 0137 00       		.byte	0
 4885 0138 18       		.byte	24
 4886 0139 00       		.byte	0
 4887 013a 00       		.byte	0
 4888 013b 00       		.byte	0
 4889 013c 00       		.byte	0
 4890 013d 00       		.byte	0
 4891 013e 00       		.byte	0
 4892 013f 00       		.byte	0
ARM GAS  D:\Programs\cygwin64\tmp\ccnP8CjY.s 			page 85


 4893 0140 00       		.byte	0
 4894 0141 00       		.byte	0
 4895 0142 06       		.byte	6
 4896 0143 00       		.byte	0
 4897 0144 06       		.byte	6
 4898 0145 00       		.byte	0
 4899 0146 3F       		.byte	63
 4900 0147 C0       		.byte	-64
 4901 0148 3F       		.byte	63
 4902 0149 C0       		.byte	-64
 4903 014a 0F       		.byte	15
 4904 014b 00       		.byte	0
 4905 014c 1F       		.byte	31
 4906 014d 80       		.byte	-128
 4907 014e 19       		.byte	25
 4908 014f 80       		.byte	-128
 4909 0150 00       		.byte	0
 4910 0151 00       		.byte	0
 4911 0152 00       		.byte	0
 4912 0153 00       		.byte	0
 4913 0154 00       		.byte	0
 4914 0155 00       		.byte	0
 4915 0156 00       		.byte	0
 4916 0157 00       		.byte	0
 4917 0158 00       		.byte	0
 4918 0159 00       		.byte	0
 4919 015a 00       		.byte	0
 4920 015b 00       		.byte	0
 4921 015c 00       		.byte	0
 4922 015d 00       		.byte	0
 4923 015e 00       		.byte	0
 4924 015f 00       		.byte	0
 4925 0160 00       		.byte	0
 4926 0161 00       		.byte	0
 4927 0162 00       		.byte	0
 4928 0163 00       		.byte	0
 4929 0164 00       		.byte	0
 4930 0165 00       		.byte	0
 4931 0166 04       		.byte	4
 4932 0167 00       		.byte	0
 4933 0168 04       		.byte	4
 4934 0169 00       		.byte	0
 4935 016a 04       		.byte	4
 4936 016b 00       		.byte	0
 4937 016c 3F       		.byte	63
 4938 016d 80       		.byte	-128
 4939 016e 04       		.byte	4
 4940 016f 00       		.byte	0
 4941 0170 04       		.byte	4
 4942 0171 00       		.byte	0
 4943 0172 04       		.byte	4
 4944 0173 00       		.byte	0
 4945 0174 00       		.byte	0
 4946 0175 00       		.byte	0
 4947 0176 00       		.byte	0
 4948 0177 00       		.byte	0
 4949 0178 00       		.byte	0
ARM GAS  D:\Programs\cygwin64\tmp\ccnP8CjY.s 			page 86


 4950 0179 00       		.byte	0
 4951 017a 00       		.byte	0
 4952 017b 00       		.byte	0
 4953 017c 00       		.byte	0
 4954 017d 00       		.byte	0
 4955 017e 00       		.byte	0
 4956 017f 00       		.byte	0
 4957 0180 00       		.byte	0
 4958 0181 00       		.byte	0
 4959 0182 00       		.byte	0
 4960 0183 00       		.byte	0
 4961 0184 00       		.byte	0
 4962 0185 00       		.byte	0
 4963 0186 00       		.byte	0
 4964 0187 00       		.byte	0
 4965 0188 00       		.byte	0
 4966 0189 00       		.byte	0
 4967 018a 00       		.byte	0
 4968 018b 00       		.byte	0
 4969 018c 00       		.byte	0
 4970 018d 00       		.byte	0
 4971 018e 00       		.byte	0
 4972 018f 00       		.byte	0
 4973 0190 00       		.byte	0
 4974 0191 00       		.byte	0
 4975 0192 06       		.byte	6
 4976 0193 00       		.byte	0
 4977 0194 04       		.byte	4
 4978 0195 00       		.byte	0
 4979 0196 0C       		.byte	12
 4980 0197 00       		.byte	0
 4981 0198 08       		.byte	8
 4982 0199 00       		.byte	0
 4983 019a 08       		.byte	8
 4984 019b 00       		.byte	0
 4985 019c 00       		.byte	0
 4986 019d 00       		.byte	0
 4987 019e 00       		.byte	0
 4988 019f 00       		.byte	0
 4989 01a0 00       		.byte	0
 4990 01a1 00       		.byte	0
 4991 01a2 00       		.byte	0
 4992 01a3 00       		.byte	0
 4993 01a4 00       		.byte	0
 4994 01a5 00       		.byte	0
 4995 01a6 00       		.byte	0
 4996 01a7 00       		.byte	0
 4997 01a8 00       		.byte	0
 4998 01a9 00       		.byte	0
 4999 01aa 00       		.byte	0
 5000 01ab 00       		.byte	0
 5001 01ac 3F       		.byte	63
 5002 01ad 80       		.byte	-128
 5003 01ae 00       		.byte	0
 5004 01af 00       		.byte	0
 5005 01b0 00       		.byte	0
 5006 01b1 00       		.byte	0
ARM GAS  D:\Programs\cygwin64\tmp\ccnP8CjY.s 			page 87


 5007 01b2 00       		.byte	0
 5008 01b3 00       		.byte	0
 5009 01b4 00       		.byte	0
 5010 01b5 00       		.byte	0
 5011 01b6 00       		.byte	0
 5012 01b7 00       		.byte	0
 5013 01b8 00       		.byte	0
 5014 01b9 00       		.byte	0
 5015 01ba 00       		.byte	0
 5016 01bb 00       		.byte	0
 5017 01bc 00       		.byte	0
 5018 01bd 00       		.byte	0
 5019 01be 00       		.byte	0
 5020 01bf 00       		.byte	0
 5021 01c0 00       		.byte	0
 5022 01c1 00       		.byte	0
 5023 01c2 00       		.byte	0
 5024 01c3 00       		.byte	0
 5025 01c4 00       		.byte	0
 5026 01c5 00       		.byte	0
 5027 01c6 00       		.byte	0
 5028 01c7 00       		.byte	0
 5029 01c8 00       		.byte	0
 5030 01c9 00       		.byte	0
 5031 01ca 00       		.byte	0
 5032 01cb 00       		.byte	0
 5033 01cc 00       		.byte	0
 5034 01cd 00       		.byte	0
 5035 01ce 00       		.byte	0
 5036 01cf 00       		.byte	0
 5037 01d0 00       		.byte	0
 5038 01d1 00       		.byte	0
 5039 01d2 0C       		.byte	12
 5040 01d3 00       		.byte	0
 5041 01d4 0C       		.byte	12
 5042 01d5 00       		.byte	0
 5043 01d6 00       		.byte	0
 5044 01d7 00       		.byte	0
 5045 01d8 00       		.byte	0
 5046 01d9 00       		.byte	0
 5047 01da 00       		.byte	0
 5048 01db 00       		.byte	0
 5049 01dc 00       		.byte	0
 5050 01dd 00       		.byte	0
 5051 01de 00       		.byte	0
 5052 01df 00       		.byte	0
 5053 01e0 00       		.byte	0
 5054 01e1 C0       		.byte	-64
 5055 01e2 00       		.byte	0
 5056 01e3 C0       		.byte	-64
 5057 01e4 01       		.byte	1
 5058 01e5 80       		.byte	-128
 5059 01e6 01       		.byte	1
 5060 01e7 80       		.byte	-128
 5061 01e8 03       		.byte	3
 5062 01e9 00       		.byte	0
 5063 01ea 03       		.byte	3
ARM GAS  D:\Programs\cygwin64\tmp\ccnP8CjY.s 			page 88


 5064 01eb 00       		.byte	0
 5065 01ec 06       		.byte	6
 5066 01ed 00       		.byte	0
 5067 01ee 0C       		.byte	12
 5068 01ef 00       		.byte	0
 5069 01f0 0C       		.byte	12
 5070 01f1 00       		.byte	0
 5071 01f2 18       		.byte	24
 5072 01f3 00       		.byte	0
 5073 01f4 18       		.byte	24
 5074 01f5 00       		.byte	0
 5075 01f6 30       		.byte	48
 5076 01f7 00       		.byte	0
 5077 01f8 30       		.byte	48
 5078 01f9 00       		.byte	0
 5079 01fa 00       		.byte	0
 5080 01fb 00       		.byte	0
 5081 01fc 00       		.byte	0
 5082 01fd 00       		.byte	0
 5083 01fe 00       		.byte	0
 5084 01ff 00       		.byte	0
 5085 0200 00       		.byte	0
 5086 0201 00       		.byte	0
 5087 0202 0E       		.byte	14
 5088 0203 00       		.byte	0
 5089 0204 1B       		.byte	27
 5090 0205 00       		.byte	0
 5091 0206 31       		.byte	49
 5092 0207 80       		.byte	-128
 5093 0208 31       		.byte	49
 5094 0209 80       		.byte	-128
 5095 020a 31       		.byte	49
 5096 020b 80       		.byte	-128
 5097 020c 31       		.byte	49
 5098 020d 80       		.byte	-128
 5099 020e 31       		.byte	49
 5100 020f 80       		.byte	-128
 5101 0210 31       		.byte	49
 5102 0211 80       		.byte	-128
 5103 0212 1B       		.byte	27
 5104 0213 00       		.byte	0
 5105 0214 0E       		.byte	14
 5106 0215 00       		.byte	0
 5107 0216 00       		.byte	0
 5108 0217 00       		.byte	0
 5109 0218 00       		.byte	0
 5110 0219 00       		.byte	0
 5111 021a 00       		.byte	0
 5112 021b 00       		.byte	0
 5113 021c 00       		.byte	0
 5114 021d 00       		.byte	0
 5115 021e 00       		.byte	0
 5116 021f 00       		.byte	0
 5117 0220 00       		.byte	0
 5118 0221 00       		.byte	0
 5119 0222 06       		.byte	6
 5120 0223 00       		.byte	0
ARM GAS  D:\Programs\cygwin64\tmp\ccnP8CjY.s 			page 89


 5121 0224 3E       		.byte	62
 5122 0225 00       		.byte	0
 5123 0226 06       		.byte	6
 5124 0227 00       		.byte	0
 5125 0228 06       		.byte	6
 5126 0229 00       		.byte	0
 5127 022a 06       		.byte	6
 5128 022b 00       		.byte	0
 5129 022c 06       		.byte	6
 5130 022d 00       		.byte	0
 5131 022e 06       		.byte	6
 5132 022f 00       		.byte	0
 5133 0230 06       		.byte	6
 5134 0231 00       		.byte	0
 5135 0232 06       		.byte	6
 5136 0233 00       		.byte	0
 5137 0234 3F       		.byte	63
 5138 0235 C0       		.byte	-64
 5139 0236 00       		.byte	0
 5140 0237 00       		.byte	0
 5141 0238 00       		.byte	0
 5142 0239 00       		.byte	0
 5143 023a 00       		.byte	0
 5144 023b 00       		.byte	0
 5145 023c 00       		.byte	0
 5146 023d 00       		.byte	0
 5147 023e 00       		.byte	0
 5148 023f 00       		.byte	0
 5149 0240 00       		.byte	0
 5150 0241 00       		.byte	0
 5151 0242 0F       		.byte	15
 5152 0243 00       		.byte	0
 5153 0244 19       		.byte	25
 5154 0245 80       		.byte	-128
 5155 0246 31       		.byte	49
 5156 0247 80       		.byte	-128
 5157 0248 31       		.byte	49
 5158 0249 80       		.byte	-128
 5159 024a 03       		.byte	3
 5160 024b 00       		.byte	0
 5161 024c 06       		.byte	6
 5162 024d 00       		.byte	0
 5163 024e 0C       		.byte	12
 5164 024f 00       		.byte	0
 5165 0250 18       		.byte	24
 5166 0251 00       		.byte	0
 5167 0252 30       		.byte	48
 5168 0253 00       		.byte	0
 5169 0254 3F       		.byte	63
 5170 0255 80       		.byte	-128
 5171 0256 00       		.byte	0
 5172 0257 00       		.byte	0
 5173 0258 00       		.byte	0
 5174 0259 00       		.byte	0
 5175 025a 00       		.byte	0
 5176 025b 00       		.byte	0
 5177 025c 00       		.byte	0
ARM GAS  D:\Programs\cygwin64\tmp\ccnP8CjY.s 			page 90


 5178 025d 00       		.byte	0
 5179 025e 00       		.byte	0
 5180 025f 00       		.byte	0
 5181 0260 00       		.byte	0
 5182 0261 00       		.byte	0
 5183 0262 3F       		.byte	63
 5184 0263 00       		.byte	0
 5185 0264 61       		.byte	97
 5186 0265 80       		.byte	-128
 5187 0266 01       		.byte	1
 5188 0267 80       		.byte	-128
 5189 0268 03       		.byte	3
 5190 0269 00       		.byte	0
 5191 026a 1F       		.byte	31
 5192 026b 00       		.byte	0
 5193 026c 03       		.byte	3
 5194 026d 80       		.byte	-128
 5195 026e 01       		.byte	1
 5196 026f 80       		.byte	-128
 5197 0270 01       		.byte	1
 5198 0271 80       		.byte	-128
 5199 0272 61       		.byte	97
 5200 0273 80       		.byte	-128
 5201 0274 3F       		.byte	63
 5202 0275 00       		.byte	0
 5203 0276 00       		.byte	0
 5204 0277 00       		.byte	0
 5205 0278 00       		.byte	0
 5206 0279 00       		.byte	0
 5207 027a 00       		.byte	0
 5208 027b 00       		.byte	0
 5209 027c 00       		.byte	0
 5210 027d 00       		.byte	0
 5211 027e 00       		.byte	0
 5212 027f 00       		.byte	0
 5213 0280 00       		.byte	0
 5214 0281 00       		.byte	0
 5215 0282 07       		.byte	7
 5216 0283 00       		.byte	0
 5217 0284 07       		.byte	7
 5218 0285 00       		.byte	0
 5219 0286 0F       		.byte	15
 5220 0287 00       		.byte	0
 5221 0288 0B       		.byte	11
 5222 0289 00       		.byte	0
 5223 028a 1B       		.byte	27
 5224 028b 00       		.byte	0
 5225 028c 13       		.byte	19
 5226 028d 00       		.byte	0
 5227 028e 33       		.byte	51
 5228 028f 00       		.byte	0
 5229 0290 3F       		.byte	63
 5230 0291 80       		.byte	-128
 5231 0292 03       		.byte	3
 5232 0293 00       		.byte	0
 5233 0294 0F       		.byte	15
 5234 0295 80       		.byte	-128
ARM GAS  D:\Programs\cygwin64\tmp\ccnP8CjY.s 			page 91


 5235 0296 00       		.byte	0
 5236 0297 00       		.byte	0
 5237 0298 00       		.byte	0
 5238 0299 00       		.byte	0
 5239 029a 00       		.byte	0
 5240 029b 00       		.byte	0
 5241 029c 00       		.byte	0
 5242 029d 00       		.byte	0
 5243 029e 00       		.byte	0
 5244 029f 00       		.byte	0
 5245 02a0 00       		.byte	0
 5246 02a1 00       		.byte	0
 5247 02a2 1F       		.byte	31
 5248 02a3 80       		.byte	-128
 5249 02a4 18       		.byte	24
 5250 02a5 00       		.byte	0
 5251 02a6 18       		.byte	24
 5252 02a7 00       		.byte	0
 5253 02a8 18       		.byte	24
 5254 02a9 00       		.byte	0
 5255 02aa 1F       		.byte	31
 5256 02ab 00       		.byte	0
 5257 02ac 11       		.byte	17
 5258 02ad 80       		.byte	-128
 5259 02ae 01       		.byte	1
 5260 02af 80       		.byte	-128
 5261 02b0 01       		.byte	1
 5262 02b1 80       		.byte	-128
 5263 02b2 21       		.byte	33
 5264 02b3 80       		.byte	-128
 5265 02b4 1F       		.byte	31
 5266 02b5 00       		.byte	0
 5267 02b6 00       		.byte	0
 5268 02b7 00       		.byte	0
 5269 02b8 00       		.byte	0
 5270 02b9 00       		.byte	0
 5271 02ba 00       		.byte	0
 5272 02bb 00       		.byte	0
 5273 02bc 00       		.byte	0
 5274 02bd 00       		.byte	0
 5275 02be 00       		.byte	0
 5276 02bf 00       		.byte	0
 5277 02c0 00       		.byte	0
 5278 02c1 00       		.byte	0
 5279 02c2 07       		.byte	7
 5280 02c3 80       		.byte	-128
 5281 02c4 1C       		.byte	28
 5282 02c5 00       		.byte	0
 5283 02c6 18       		.byte	24
 5284 02c7 00       		.byte	0
 5285 02c8 30       		.byte	48
 5286 02c9 00       		.byte	0
 5287 02ca 37       		.byte	55
 5288 02cb 00       		.byte	0
 5289 02cc 39       		.byte	57
 5290 02cd 80       		.byte	-128
 5291 02ce 31       		.byte	49
ARM GAS  D:\Programs\cygwin64\tmp\ccnP8CjY.s 			page 92


 5292 02cf 80       		.byte	-128
 5293 02d0 31       		.byte	49
 5294 02d1 80       		.byte	-128
 5295 02d2 19       		.byte	25
 5296 02d3 80       		.byte	-128
 5297 02d4 0F       		.byte	15
 5298 02d5 00       		.byte	0
 5299 02d6 00       		.byte	0
 5300 02d7 00       		.byte	0
 5301 02d8 00       		.byte	0
 5302 02d9 00       		.byte	0
 5303 02da 00       		.byte	0
 5304 02db 00       		.byte	0
 5305 02dc 00       		.byte	0
 5306 02dd 00       		.byte	0
 5307 02de 00       		.byte	0
 5308 02df 00       		.byte	0
 5309 02e0 00       		.byte	0
 5310 02e1 00       		.byte	0
 5311 02e2 7F       		.byte	127
 5312 02e3 00       		.byte	0
 5313 02e4 43       		.byte	67
 5314 02e5 00       		.byte	0
 5315 02e6 03       		.byte	3
 5316 02e7 00       		.byte	0
 5317 02e8 06       		.byte	6
 5318 02e9 00       		.byte	0
 5319 02ea 06       		.byte	6
 5320 02eb 00       		.byte	0
 5321 02ec 06       		.byte	6
 5322 02ed 00       		.byte	0
 5323 02ee 06       		.byte	6
 5324 02ef 00       		.byte	0
 5325 02f0 0C       		.byte	12
 5326 02f1 00       		.byte	0
 5327 02f2 0C       		.byte	12
 5328 02f3 00       		.byte	0
 5329 02f4 0C       		.byte	12
 5330 02f5 00       		.byte	0
 5331 02f6 00       		.byte	0
 5332 02f7 00       		.byte	0
 5333 02f8 00       		.byte	0
 5334 02f9 00       		.byte	0
 5335 02fa 00       		.byte	0
 5336 02fb 00       		.byte	0
 5337 02fc 00       		.byte	0
 5338 02fd 00       		.byte	0
 5339 02fe 00       		.byte	0
 5340 02ff 00       		.byte	0
 5341 0300 00       		.byte	0
 5342 0301 00       		.byte	0
 5343 0302 1F       		.byte	31
 5344 0303 00       		.byte	0
 5345 0304 31       		.byte	49
 5346 0305 80       		.byte	-128
 5347 0306 31       		.byte	49
 5348 0307 80       		.byte	-128
ARM GAS  D:\Programs\cygwin64\tmp\ccnP8CjY.s 			page 93


 5349 0308 31       		.byte	49
 5350 0309 80       		.byte	-128
 5351 030a 1F       		.byte	31
 5352 030b 00       		.byte	0
 5353 030c 31       		.byte	49
 5354 030d 80       		.byte	-128
 5355 030e 31       		.byte	49
 5356 030f 80       		.byte	-128
 5357 0310 31       		.byte	49
 5358 0311 80       		.byte	-128
 5359 0312 31       		.byte	49
 5360 0313 80       		.byte	-128
 5361 0314 1F       		.byte	31
 5362 0315 00       		.byte	0
 5363 0316 00       		.byte	0
 5364 0317 00       		.byte	0
 5365 0318 00       		.byte	0
 5366 0319 00       		.byte	0
 5367 031a 00       		.byte	0
 5368 031b 00       		.byte	0
 5369 031c 00       		.byte	0
 5370 031d 00       		.byte	0
 5371 031e 00       		.byte	0
 5372 031f 00       		.byte	0
 5373 0320 00       		.byte	0
 5374 0321 00       		.byte	0
 5375 0322 1E       		.byte	30
 5376 0323 00       		.byte	0
 5377 0324 33       		.byte	51
 5378 0325 00       		.byte	0
 5379 0326 31       		.byte	49
 5380 0327 80       		.byte	-128
 5381 0328 31       		.byte	49
 5382 0329 80       		.byte	-128
 5383 032a 33       		.byte	51
 5384 032b 80       		.byte	-128
 5385 032c 1D       		.byte	29
 5386 032d 80       		.byte	-128
 5387 032e 01       		.byte	1
 5388 032f 80       		.byte	-128
 5389 0330 03       		.byte	3
 5390 0331 00       		.byte	0
 5391 0332 07       		.byte	7
 5392 0333 00       		.byte	0
 5393 0334 3C       		.byte	60
 5394 0335 00       		.byte	0
 5395 0336 00       		.byte	0
 5396 0337 00       		.byte	0
 5397 0338 00       		.byte	0
 5398 0339 00       		.byte	0
 5399 033a 00       		.byte	0
 5400 033b 00       		.byte	0
 5401 033c 00       		.byte	0
 5402 033d 00       		.byte	0
 5403 033e 00       		.byte	0
 5404 033f 00       		.byte	0
 5405 0340 00       		.byte	0
ARM GAS  D:\Programs\cygwin64\tmp\ccnP8CjY.s 			page 94


 5406 0341 00       		.byte	0
 5407 0342 00       		.byte	0
 5408 0343 00       		.byte	0
 5409 0344 00       		.byte	0
 5410 0345 00       		.byte	0
 5411 0346 00       		.byte	0
 5412 0347 00       		.byte	0
 5413 0348 0C       		.byte	12
 5414 0349 00       		.byte	0
 5415 034a 0C       		.byte	12
 5416 034b 00       		.byte	0
 5417 034c 00       		.byte	0
 5418 034d 00       		.byte	0
 5419 034e 00       		.byte	0
 5420 034f 00       		.byte	0
 5421 0350 00       		.byte	0
 5422 0351 00       		.byte	0
 5423 0352 0C       		.byte	12
 5424 0353 00       		.byte	0
 5425 0354 0C       		.byte	12
 5426 0355 00       		.byte	0
 5427 0356 00       		.byte	0
 5428 0357 00       		.byte	0
 5429 0358 00       		.byte	0
 5430 0359 00       		.byte	0
 5431 035a 00       		.byte	0
 5432 035b 00       		.byte	0
 5433 035c 00       		.byte	0
 5434 035d 00       		.byte	0
 5435 035e 00       		.byte	0
 5436 035f 00       		.byte	0
 5437 0360 00       		.byte	0
 5438 0361 00       		.byte	0
 5439 0362 00       		.byte	0
 5440 0363 00       		.byte	0
 5441 0364 00       		.byte	0
 5442 0365 00       		.byte	0
 5443 0366 00       		.byte	0
 5444 0367 00       		.byte	0
 5445 0368 03       		.byte	3
 5446 0369 00       		.byte	0
 5447 036a 03       		.byte	3
 5448 036b 00       		.byte	0
 5449 036c 00       		.byte	0
 5450 036d 00       		.byte	0
 5451 036e 00       		.byte	0
 5452 036f 00       		.byte	0
 5453 0370 00       		.byte	0
 5454 0371 00       		.byte	0
 5455 0372 06       		.byte	6
 5456 0373 00       		.byte	0
 5457 0374 04       		.byte	4
 5458 0375 00       		.byte	0
 5459 0376 08       		.byte	8
 5460 0377 00       		.byte	0
 5461 0378 08       		.byte	8
 5462 0379 00       		.byte	0
ARM GAS  D:\Programs\cygwin64\tmp\ccnP8CjY.s 			page 95


 5463 037a 00       		.byte	0
 5464 037b 00       		.byte	0
 5465 037c 00       		.byte	0
 5466 037d 00       		.byte	0
 5467 037e 00       		.byte	0
 5468 037f 00       		.byte	0
 5469 0380 00       		.byte	0
 5470 0381 00       		.byte	0
 5471 0382 00       		.byte	0
 5472 0383 00       		.byte	0
 5473 0384 00       		.byte	0
 5474 0385 C0       		.byte	-64
 5475 0386 03       		.byte	3
 5476 0387 00       		.byte	0
 5477 0388 04       		.byte	4
 5478 0389 00       		.byte	0
 5479 038a 18       		.byte	24
 5480 038b 00       		.byte	0
 5481 038c 60       		.byte	96
 5482 038d 00       		.byte	0
 5483 038e 18       		.byte	24
 5484 038f 00       		.byte	0
 5485 0390 04       		.byte	4
 5486 0391 00       		.byte	0
 5487 0392 03       		.byte	3
 5488 0393 00       		.byte	0
 5489 0394 00       		.byte	0
 5490 0395 C0       		.byte	-64
 5491 0396 00       		.byte	0
 5492 0397 00       		.byte	0
 5493 0398 00       		.byte	0
 5494 0399 00       		.byte	0
 5495 039a 00       		.byte	0
 5496 039b 00       		.byte	0
 5497 039c 00       		.byte	0
 5498 039d 00       		.byte	0
 5499 039e 00       		.byte	0
 5500 039f 00       		.byte	0
 5501 03a0 00       		.byte	0
 5502 03a1 00       		.byte	0
 5503 03a2 00       		.byte	0
 5504 03a3 00       		.byte	0
 5505 03a4 00       		.byte	0
 5506 03a5 00       		.byte	0
 5507 03a6 00       		.byte	0
 5508 03a7 00       		.byte	0
 5509 03a8 00       		.byte	0
 5510 03a9 00       		.byte	0
 5511 03aa 7F       		.byte	127
 5512 03ab C0       		.byte	-64
 5513 03ac 00       		.byte	0
 5514 03ad 00       		.byte	0
 5515 03ae 7F       		.byte	127
 5516 03af C0       		.byte	-64
 5517 03b0 00       		.byte	0
 5518 03b1 00       		.byte	0
 5519 03b2 00       		.byte	0
ARM GAS  D:\Programs\cygwin64\tmp\ccnP8CjY.s 			page 96


 5520 03b3 00       		.byte	0
 5521 03b4 00       		.byte	0
 5522 03b5 00       		.byte	0
 5523 03b6 00       		.byte	0
 5524 03b7 00       		.byte	0
 5525 03b8 00       		.byte	0
 5526 03b9 00       		.byte	0
 5527 03ba 00       		.byte	0
 5528 03bb 00       		.byte	0
 5529 03bc 00       		.byte	0
 5530 03bd 00       		.byte	0
 5531 03be 00       		.byte	0
 5532 03bf 00       		.byte	0
 5533 03c0 00       		.byte	0
 5534 03c1 00       		.byte	0
 5535 03c2 00       		.byte	0
 5536 03c3 00       		.byte	0
 5537 03c4 60       		.byte	96
 5538 03c5 00       		.byte	0
 5539 03c6 18       		.byte	24
 5540 03c7 00       		.byte	0
 5541 03c8 04       		.byte	4
 5542 03c9 00       		.byte	0
 5543 03ca 03       		.byte	3
 5544 03cb 00       		.byte	0
 5545 03cc 00       		.byte	0
 5546 03cd C0       		.byte	-64
 5547 03ce 03       		.byte	3
 5548 03cf 00       		.byte	0
 5549 03d0 04       		.byte	4
 5550 03d1 00       		.byte	0
 5551 03d2 18       		.byte	24
 5552 03d3 00       		.byte	0
 5553 03d4 60       		.byte	96
 5554 03d5 00       		.byte	0
 5555 03d6 00       		.byte	0
 5556 03d7 00       		.byte	0
 5557 03d8 00       		.byte	0
 5558 03d9 00       		.byte	0
 5559 03da 00       		.byte	0
 5560 03db 00       		.byte	0
 5561 03dc 00       		.byte	0
 5562 03dd 00       		.byte	0
 5563 03de 00       		.byte	0
 5564 03df 00       		.byte	0
 5565 03e0 00       		.byte	0
 5566 03e1 00       		.byte	0
 5567 03e2 00       		.byte	0
 5568 03e3 00       		.byte	0
 5569 03e4 1F       		.byte	31
 5570 03e5 00       		.byte	0
 5571 03e6 31       		.byte	49
 5572 03e7 80       		.byte	-128
 5573 03e8 31       		.byte	49
 5574 03e9 80       		.byte	-128
 5575 03ea 01       		.byte	1
 5576 03eb 80       		.byte	-128
ARM GAS  D:\Programs\cygwin64\tmp\ccnP8CjY.s 			page 97


 5577 03ec 07       		.byte	7
 5578 03ed 00       		.byte	0
 5579 03ee 0C       		.byte	12
 5580 03ef 00       		.byte	0
 5581 03f0 0C       		.byte	12
 5582 03f1 00       		.byte	0
 5583 03f2 00       		.byte	0
 5584 03f3 00       		.byte	0
 5585 03f4 0C       		.byte	12
 5586 03f5 00       		.byte	0
 5587 03f6 00       		.byte	0
 5588 03f7 00       		.byte	0
 5589 03f8 00       		.byte	0
 5590 03f9 00       		.byte	0
 5591 03fa 00       		.byte	0
 5592 03fb 00       		.byte	0
 5593 03fc 00       		.byte	0
 5594 03fd 00       		.byte	0
 5595 03fe 00       		.byte	0
 5596 03ff 00       		.byte	0
 5597 0400 00       		.byte	0
 5598 0401 00       		.byte	0
 5599 0402 0E       		.byte	14
 5600 0403 00       		.byte	0
 5601 0404 11       		.byte	17
 5602 0405 00       		.byte	0
 5603 0406 21       		.byte	33
 5604 0407 00       		.byte	0
 5605 0408 21       		.byte	33
 5606 0409 00       		.byte	0
 5607 040a 27       		.byte	39
 5608 040b 00       		.byte	0
 5609 040c 29       		.byte	41
 5610 040d 00       		.byte	0
 5611 040e 29       		.byte	41
 5612 040f 00       		.byte	0
 5613 0410 27       		.byte	39
 5614 0411 00       		.byte	0
 5615 0412 20       		.byte	32
 5616 0413 00       		.byte	0
 5617 0414 11       		.byte	17
 5618 0415 00       		.byte	0
 5619 0416 0E       		.byte	14
 5620 0417 00       		.byte	0
 5621 0418 00       		.byte	0
 5622 0419 00       		.byte	0
 5623 041a 00       		.byte	0
 5624 041b 00       		.byte	0
 5625 041c 00       		.byte	0
 5626 041d 00       		.byte	0
 5627 041e 00       		.byte	0
 5628 041f 00       		.byte	0
 5629 0420 00       		.byte	0
 5630 0421 00       		.byte	0
 5631 0422 00       		.byte	0
 5632 0423 00       		.byte	0
 5633 0424 3F       		.byte	63
ARM GAS  D:\Programs\cygwin64\tmp\ccnP8CjY.s 			page 98


 5634 0425 00       		.byte	0
 5635 0426 0F       		.byte	15
 5636 0427 00       		.byte	0
 5637 0428 09       		.byte	9
 5638 0429 00       		.byte	0
 5639 042a 19       		.byte	25
 5640 042b 80       		.byte	-128
 5641 042c 19       		.byte	25
 5642 042d 80       		.byte	-128
 5643 042e 1F       		.byte	31
 5644 042f 80       		.byte	-128
 5645 0430 30       		.byte	48
 5646 0431 C0       		.byte	-64
 5647 0432 30       		.byte	48
 5648 0433 C0       		.byte	-64
 5649 0434 79       		.byte	121
 5650 0435 E0       		.byte	-32
 5651 0436 00       		.byte	0
 5652 0437 00       		.byte	0
 5653 0438 00       		.byte	0
 5654 0439 00       		.byte	0
 5655 043a 00       		.byte	0
 5656 043b 00       		.byte	0
 5657 043c 00       		.byte	0
 5658 043d 00       		.byte	0
 5659 043e 00       		.byte	0
 5660 043f 00       		.byte	0
 5661 0440 00       		.byte	0
 5662 0441 00       		.byte	0
 5663 0442 00       		.byte	0
 5664 0443 00       		.byte	0
 5665 0444 7F       		.byte	127
 5666 0445 00       		.byte	0
 5667 0446 31       		.byte	49
 5668 0447 80       		.byte	-128
 5669 0448 31       		.byte	49
 5670 0449 80       		.byte	-128
 5671 044a 31       		.byte	49
 5672 044b 80       		.byte	-128
 5673 044c 3F       		.byte	63
 5674 044d 00       		.byte	0
 5675 044e 31       		.byte	49
 5676 044f 80       		.byte	-128
 5677 0450 31       		.byte	49
 5678 0451 80       		.byte	-128
 5679 0452 31       		.byte	49
 5680 0453 80       		.byte	-128
 5681 0454 7F       		.byte	127
 5682 0455 00       		.byte	0
 5683 0456 00       		.byte	0
 5684 0457 00       		.byte	0
 5685 0458 00       		.byte	0
 5686 0459 00       		.byte	0
 5687 045a 00       		.byte	0
 5688 045b 00       		.byte	0
 5689 045c 00       		.byte	0
 5690 045d 00       		.byte	0
ARM GAS  D:\Programs\cygwin64\tmp\ccnP8CjY.s 			page 99


 5691 045e 00       		.byte	0
 5692 045f 00       		.byte	0
 5693 0460 00       		.byte	0
 5694 0461 00       		.byte	0
 5695 0462 00       		.byte	0
 5696 0463 00       		.byte	0
 5697 0464 1F       		.byte	31
 5698 0465 40       		.byte	64
 5699 0466 30       		.byte	48
 5700 0467 C0       		.byte	-64
 5701 0468 60       		.byte	96
 5702 0469 40       		.byte	64
 5703 046a 60       		.byte	96
 5704 046b 00       		.byte	0
 5705 046c 60       		.byte	96
 5706 046d 00       		.byte	0
 5707 046e 60       		.byte	96
 5708 046f 00       		.byte	0
 5709 0470 60       		.byte	96
 5710 0471 40       		.byte	64
 5711 0472 30       		.byte	48
 5712 0473 80       		.byte	-128
 5713 0474 1F       		.byte	31
 5714 0475 00       		.byte	0
 5715 0476 00       		.byte	0
 5716 0477 00       		.byte	0
 5717 0478 00       		.byte	0
 5718 0479 00       		.byte	0
 5719 047a 00       		.byte	0
 5720 047b 00       		.byte	0
 5721 047c 00       		.byte	0
 5722 047d 00       		.byte	0
 5723 047e 00       		.byte	0
 5724 047f 00       		.byte	0
 5725 0480 00       		.byte	0
 5726 0481 00       		.byte	0
 5727 0482 00       		.byte	0
 5728 0483 00       		.byte	0
 5729 0484 7F       		.byte	127
 5730 0485 00       		.byte	0
 5731 0486 31       		.byte	49
 5732 0487 80       		.byte	-128
 5733 0488 30       		.byte	48
 5734 0489 C0       		.byte	-64
 5735 048a 30       		.byte	48
 5736 048b C0       		.byte	-64
 5737 048c 30       		.byte	48
 5738 048d C0       		.byte	-64
 5739 048e 30       		.byte	48
 5740 048f C0       		.byte	-64
 5741 0490 30       		.byte	48
 5742 0491 C0       		.byte	-64
 5743 0492 31       		.byte	49
 5744 0493 80       		.byte	-128
 5745 0494 7F       		.byte	127
 5746 0495 00       		.byte	0
 5747 0496 00       		.byte	0
ARM GAS  D:\Programs\cygwin64\tmp\ccnP8CjY.s 			page 100


 5748 0497 00       		.byte	0
 5749 0498 00       		.byte	0
 5750 0499 00       		.byte	0
 5751 049a 00       		.byte	0
 5752 049b 00       		.byte	0
 5753 049c 00       		.byte	0
 5754 049d 00       		.byte	0
 5755 049e 00       		.byte	0
 5756 049f 00       		.byte	0
 5757 04a0 00       		.byte	0
 5758 04a1 00       		.byte	0
 5759 04a2 00       		.byte	0
 5760 04a3 00       		.byte	0
 5761 04a4 7F       		.byte	127
 5762 04a5 80       		.byte	-128
 5763 04a6 30       		.byte	48
 5764 04a7 80       		.byte	-128
 5765 04a8 30       		.byte	48
 5766 04a9 80       		.byte	-128
 5767 04aa 32       		.byte	50
 5768 04ab 00       		.byte	0
 5769 04ac 3E       		.byte	62
 5770 04ad 00       		.byte	0
 5771 04ae 32       		.byte	50
 5772 04af 00       		.byte	0
 5773 04b0 30       		.byte	48
 5774 04b1 80       		.byte	-128
 5775 04b2 30       		.byte	48
 5776 04b3 80       		.byte	-128
 5777 04b4 7F       		.byte	127
 5778 04b5 80       		.byte	-128
 5779 04b6 00       		.byte	0
 5780 04b7 00       		.byte	0
 5781 04b8 00       		.byte	0
 5782 04b9 00       		.byte	0
 5783 04ba 00       		.byte	0
 5784 04bb 00       		.byte	0
 5785 04bc 00       		.byte	0
 5786 04bd 00       		.byte	0
 5787 04be 00       		.byte	0
 5788 04bf 00       		.byte	0
 5789 04c0 00       		.byte	0
 5790 04c1 00       		.byte	0
 5791 04c2 00       		.byte	0
 5792 04c3 00       		.byte	0
 5793 04c4 7F       		.byte	127
 5794 04c5 C0       		.byte	-64
 5795 04c6 30       		.byte	48
 5796 04c7 40       		.byte	64
 5797 04c8 30       		.byte	48
 5798 04c9 40       		.byte	64
 5799 04ca 32       		.byte	50
 5800 04cb 00       		.byte	0
 5801 04cc 3E       		.byte	62
 5802 04cd 00       		.byte	0
 5803 04ce 32       		.byte	50
 5804 04cf 00       		.byte	0
ARM GAS  D:\Programs\cygwin64\tmp\ccnP8CjY.s 			page 101


 5805 04d0 30       		.byte	48
 5806 04d1 00       		.byte	0
 5807 04d2 30       		.byte	48
 5808 04d3 00       		.byte	0
 5809 04d4 7C       		.byte	124
 5810 04d5 00       		.byte	0
 5811 04d6 00       		.byte	0
 5812 04d7 00       		.byte	0
 5813 04d8 00       		.byte	0
 5814 04d9 00       		.byte	0
 5815 04da 00       		.byte	0
 5816 04db 00       		.byte	0
 5817 04dc 00       		.byte	0
 5818 04dd 00       		.byte	0
 5819 04de 00       		.byte	0
 5820 04df 00       		.byte	0
 5821 04e0 00       		.byte	0
 5822 04e1 00       		.byte	0
 5823 04e2 00       		.byte	0
 5824 04e3 00       		.byte	0
 5825 04e4 1E       		.byte	30
 5826 04e5 80       		.byte	-128
 5827 04e6 31       		.byte	49
 5828 04e7 80       		.byte	-128
 5829 04e8 60       		.byte	96
 5830 04e9 80       		.byte	-128
 5831 04ea 60       		.byte	96
 5832 04eb 00       		.byte	0
 5833 04ec 60       		.byte	96
 5834 04ed 00       		.byte	0
 5835 04ee 67       		.byte	103
 5836 04ef C0       		.byte	-64
 5837 04f0 61       		.byte	97
 5838 04f1 80       		.byte	-128
 5839 04f2 31       		.byte	49
 5840 04f3 80       		.byte	-128
 5841 04f4 1F       		.byte	31
 5842 04f5 00       		.byte	0
 5843 04f6 00       		.byte	0
 5844 04f7 00       		.byte	0
 5845 04f8 00       		.byte	0
 5846 04f9 00       		.byte	0
 5847 04fa 00       		.byte	0
 5848 04fb 00       		.byte	0
 5849 04fc 00       		.byte	0
 5850 04fd 00       		.byte	0
 5851 04fe 00       		.byte	0
 5852 04ff 00       		.byte	0
 5853 0500 00       		.byte	0
 5854 0501 00       		.byte	0
 5855 0502 00       		.byte	0
 5856 0503 00       		.byte	0
 5857 0504 7B       		.byte	123
 5858 0505 C0       		.byte	-64
 5859 0506 31       		.byte	49
 5860 0507 80       		.byte	-128
 5861 0508 31       		.byte	49
ARM GAS  D:\Programs\cygwin64\tmp\ccnP8CjY.s 			page 102


 5862 0509 80       		.byte	-128
 5863 050a 31       		.byte	49
 5864 050b 80       		.byte	-128
 5865 050c 3F       		.byte	63
 5866 050d 80       		.byte	-128
 5867 050e 31       		.byte	49
 5868 050f 80       		.byte	-128
 5869 0510 31       		.byte	49
 5870 0511 80       		.byte	-128
 5871 0512 31       		.byte	49
 5872 0513 80       		.byte	-128
 5873 0514 7B       		.byte	123
 5874 0515 C0       		.byte	-64
 5875 0516 00       		.byte	0
 5876 0517 00       		.byte	0
 5877 0518 00       		.byte	0
 5878 0519 00       		.byte	0
 5879 051a 00       		.byte	0
 5880 051b 00       		.byte	0
 5881 051c 00       		.byte	0
 5882 051d 00       		.byte	0
 5883 051e 00       		.byte	0
 5884 051f 00       		.byte	0
 5885 0520 00       		.byte	0
 5886 0521 00       		.byte	0
 5887 0522 00       		.byte	0
 5888 0523 00       		.byte	0
 5889 0524 3F       		.byte	63
 5890 0525 C0       		.byte	-64
 5891 0526 06       		.byte	6
 5892 0527 00       		.byte	0
 5893 0528 06       		.byte	6
 5894 0529 00       		.byte	0
 5895 052a 06       		.byte	6
 5896 052b 00       		.byte	0
 5897 052c 06       		.byte	6
 5898 052d 00       		.byte	0
 5899 052e 06       		.byte	6
 5900 052f 00       		.byte	0
 5901 0530 06       		.byte	6
 5902 0531 00       		.byte	0
 5903 0532 06       		.byte	6
 5904 0533 00       		.byte	0
 5905 0534 3F       		.byte	63
 5906 0535 C0       		.byte	-64
 5907 0536 00       		.byte	0
 5908 0537 00       		.byte	0
 5909 0538 00       		.byte	0
 5910 0539 00       		.byte	0
 5911 053a 00       		.byte	0
 5912 053b 00       		.byte	0
 5913 053c 00       		.byte	0
 5914 053d 00       		.byte	0
 5915 053e 00       		.byte	0
 5916 053f 00       		.byte	0
 5917 0540 00       		.byte	0
 5918 0541 00       		.byte	0
ARM GAS  D:\Programs\cygwin64\tmp\ccnP8CjY.s 			page 103


 5919 0542 00       		.byte	0
 5920 0543 00       		.byte	0
 5921 0544 1F       		.byte	31
 5922 0545 C0       		.byte	-64
 5923 0546 03       		.byte	3
 5924 0547 00       		.byte	0
 5925 0548 03       		.byte	3
 5926 0549 00       		.byte	0
 5927 054a 03       		.byte	3
 5928 054b 00       		.byte	0
 5929 054c 03       		.byte	3
 5930 054d 00       		.byte	0
 5931 054e 63       		.byte	99
 5932 054f 00       		.byte	0
 5933 0550 63       		.byte	99
 5934 0551 00       		.byte	0
 5935 0552 63       		.byte	99
 5936 0553 00       		.byte	0
 5937 0554 3E       		.byte	62
 5938 0555 00       		.byte	0
 5939 0556 00       		.byte	0
 5940 0557 00       		.byte	0
 5941 0558 00       		.byte	0
 5942 0559 00       		.byte	0
 5943 055a 00       		.byte	0
 5944 055b 00       		.byte	0
 5945 055c 00       		.byte	0
 5946 055d 00       		.byte	0
 5947 055e 00       		.byte	0
 5948 055f 00       		.byte	0
 5949 0560 00       		.byte	0
 5950 0561 00       		.byte	0
 5951 0562 00       		.byte	0
 5952 0563 00       		.byte	0
 5953 0564 7B       		.byte	123
 5954 0565 C0       		.byte	-64
 5955 0566 31       		.byte	49
 5956 0567 80       		.byte	-128
 5957 0568 33       		.byte	51
 5958 0569 00       		.byte	0
 5959 056a 36       		.byte	54
 5960 056b 00       		.byte	0
 5961 056c 3C       		.byte	60
 5962 056d 00       		.byte	0
 5963 056e 3E       		.byte	62
 5964 056f 00       		.byte	0
 5965 0570 33       		.byte	51
 5966 0571 00       		.byte	0
 5967 0572 31       		.byte	49
 5968 0573 80       		.byte	-128
 5969 0574 79       		.byte	121
 5970 0575 C0       		.byte	-64
 5971 0576 00       		.byte	0
 5972 0577 00       		.byte	0
 5973 0578 00       		.byte	0
 5974 0579 00       		.byte	0
 5975 057a 00       		.byte	0
ARM GAS  D:\Programs\cygwin64\tmp\ccnP8CjY.s 			page 104


 5976 057b 00       		.byte	0
 5977 057c 00       		.byte	0
 5978 057d 00       		.byte	0
 5979 057e 00       		.byte	0
 5980 057f 00       		.byte	0
 5981 0580 00       		.byte	0
 5982 0581 00       		.byte	0
 5983 0582 00       		.byte	0
 5984 0583 00       		.byte	0
 5985 0584 7E       		.byte	126
 5986 0585 00       		.byte	0
 5987 0586 18       		.byte	24
 5988 0587 00       		.byte	0
 5989 0588 18       		.byte	24
 5990 0589 00       		.byte	0
 5991 058a 18       		.byte	24
 5992 058b 00       		.byte	0
 5993 058c 18       		.byte	24
 5994 058d 00       		.byte	0
 5995 058e 18       		.byte	24
 5996 058f 40       		.byte	64
 5997 0590 18       		.byte	24
 5998 0591 40       		.byte	64
 5999 0592 18       		.byte	24
 6000 0593 40       		.byte	64
 6001 0594 7F       		.byte	127
 6002 0595 C0       		.byte	-64
 6003 0596 00       		.byte	0
 6004 0597 00       		.byte	0
 6005 0598 00       		.byte	0
 6006 0599 00       		.byte	0
 6007 059a 00       		.byte	0
 6008 059b 00       		.byte	0
 6009 059c 00       		.byte	0
 6010 059d 00       		.byte	0
 6011 059e 00       		.byte	0
 6012 059f 00       		.byte	0
 6013 05a0 00       		.byte	0
 6014 05a1 00       		.byte	0
 6015 05a2 00       		.byte	0
 6016 05a3 00       		.byte	0
 6017 05a4 E0       		.byte	-32
 6018 05a5 E0       		.byte	-32
 6019 05a6 60       		.byte	96
 6020 05a7 C0       		.byte	-64
 6021 05a8 71       		.byte	113
 6022 05a9 C0       		.byte	-64
 6023 05aa 7B       		.byte	123
 6024 05ab C0       		.byte	-64
 6025 05ac 6A       		.byte	106
 6026 05ad C0       		.byte	-64
 6027 05ae 6E       		.byte	110
 6028 05af C0       		.byte	-64
 6029 05b0 64       		.byte	100
 6030 05b1 C0       		.byte	-64
 6031 05b2 60       		.byte	96
 6032 05b3 C0       		.byte	-64
ARM GAS  D:\Programs\cygwin64\tmp\ccnP8CjY.s 			page 105


 6033 05b4 FB       		.byte	-5
 6034 05b5 E0       		.byte	-32
 6035 05b6 00       		.byte	0
 6036 05b7 00       		.byte	0
 6037 05b8 00       		.byte	0
 6038 05b9 00       		.byte	0
 6039 05ba 00       		.byte	0
 6040 05bb 00       		.byte	0
 6041 05bc 00       		.byte	0
 6042 05bd 00       		.byte	0
 6043 05be 00       		.byte	0
 6044 05bf 00       		.byte	0
 6045 05c0 00       		.byte	0
 6046 05c1 00       		.byte	0
 6047 05c2 00       		.byte	0
 6048 05c3 00       		.byte	0
 6049 05c4 73       		.byte	115
 6050 05c5 C0       		.byte	-64
 6051 05c6 31       		.byte	49
 6052 05c7 80       		.byte	-128
 6053 05c8 39       		.byte	57
 6054 05c9 80       		.byte	-128
 6055 05ca 3D       		.byte	61
 6056 05cb 80       		.byte	-128
 6057 05cc 35       		.byte	53
 6058 05cd 80       		.byte	-128
 6059 05ce 37       		.byte	55
 6060 05cf 80       		.byte	-128
 6061 05d0 33       		.byte	51
 6062 05d1 80       		.byte	-128
 6063 05d2 31       		.byte	49
 6064 05d3 80       		.byte	-128
 6065 05d4 79       		.byte	121
 6066 05d5 80       		.byte	-128
 6067 05d6 00       		.byte	0
 6068 05d7 00       		.byte	0
 6069 05d8 00       		.byte	0
 6070 05d9 00       		.byte	0
 6071 05da 00       		.byte	0
 6072 05db 00       		.byte	0
 6073 05dc 00       		.byte	0
 6074 05dd 00       		.byte	0
 6075 05de 00       		.byte	0
 6076 05df 00       		.byte	0
 6077 05e0 00       		.byte	0
 6078 05e1 00       		.byte	0
 6079 05e2 00       		.byte	0
 6080 05e3 00       		.byte	0
 6081 05e4 1F       		.byte	31
 6082 05e5 00       		.byte	0
 6083 05e6 31       		.byte	49
 6084 05e7 80       		.byte	-128
 6085 05e8 60       		.byte	96
 6086 05e9 C0       		.byte	-64
 6087 05ea 60       		.byte	96
 6088 05eb C0       		.byte	-64
 6089 05ec 60       		.byte	96
ARM GAS  D:\Programs\cygwin64\tmp\ccnP8CjY.s 			page 106


 6090 05ed C0       		.byte	-64
 6091 05ee 60       		.byte	96
 6092 05ef C0       		.byte	-64
 6093 05f0 60       		.byte	96
 6094 05f1 C0       		.byte	-64
 6095 05f2 31       		.byte	49
 6096 05f3 80       		.byte	-128
 6097 05f4 1F       		.byte	31
 6098 05f5 00       		.byte	0
 6099 05f6 00       		.byte	0
 6100 05f7 00       		.byte	0
 6101 05f8 00       		.byte	0
 6102 05f9 00       		.byte	0
 6103 05fa 00       		.byte	0
 6104 05fb 00       		.byte	0
 6105 05fc 00       		.byte	0
 6106 05fd 00       		.byte	0
 6107 05fe 00       		.byte	0
 6108 05ff 00       		.byte	0
 6109 0600 00       		.byte	0
 6110 0601 00       		.byte	0
 6111 0602 00       		.byte	0
 6112 0603 00       		.byte	0
 6113 0604 7F       		.byte	127
 6114 0605 00       		.byte	0
 6115 0606 31       		.byte	49
 6116 0607 80       		.byte	-128
 6117 0608 31       		.byte	49
 6118 0609 80       		.byte	-128
 6119 060a 31       		.byte	49
 6120 060b 80       		.byte	-128
 6121 060c 31       		.byte	49
 6122 060d 80       		.byte	-128
 6123 060e 3F       		.byte	63
 6124 060f 00       		.byte	0
 6125 0610 30       		.byte	48
 6126 0611 00       		.byte	0
 6127 0612 30       		.byte	48
 6128 0613 00       		.byte	0
 6129 0614 7E       		.byte	126
 6130 0615 00       		.byte	0
 6131 0616 00       		.byte	0
 6132 0617 00       		.byte	0
 6133 0618 00       		.byte	0
 6134 0619 00       		.byte	0
 6135 061a 00       		.byte	0
 6136 061b 00       		.byte	0
 6137 061c 00       		.byte	0
 6138 061d 00       		.byte	0
 6139 061e 00       		.byte	0
 6140 061f 00       		.byte	0
 6141 0620 00       		.byte	0
 6142 0621 00       		.byte	0
 6143 0622 00       		.byte	0
 6144 0623 00       		.byte	0
 6145 0624 1F       		.byte	31
 6146 0625 00       		.byte	0
ARM GAS  D:\Programs\cygwin64\tmp\ccnP8CjY.s 			page 107


 6147 0626 31       		.byte	49
 6148 0627 80       		.byte	-128
 6149 0628 60       		.byte	96
 6150 0629 C0       		.byte	-64
 6151 062a 60       		.byte	96
 6152 062b C0       		.byte	-64
 6153 062c 60       		.byte	96
 6154 062d C0       		.byte	-64
 6155 062e 60       		.byte	96
 6156 062f C0       		.byte	-64
 6157 0630 60       		.byte	96
 6158 0631 C0       		.byte	-64
 6159 0632 31       		.byte	49
 6160 0633 80       		.byte	-128
 6161 0634 1F       		.byte	31
 6162 0635 00       		.byte	0
 6163 0636 0C       		.byte	12
 6164 0637 C0       		.byte	-64
 6165 0638 1F       		.byte	31
 6166 0639 80       		.byte	-128
 6167 063a 00       		.byte	0
 6168 063b 00       		.byte	0
 6169 063c 00       		.byte	0
 6170 063d 00       		.byte	0
 6171 063e 00       		.byte	0
 6172 063f 00       		.byte	0
 6173 0640 00       		.byte	0
 6174 0641 00       		.byte	0
 6175 0642 00       		.byte	0
 6176 0643 00       		.byte	0
 6177 0644 7F       		.byte	127
 6178 0645 00       		.byte	0
 6179 0646 31       		.byte	49
 6180 0647 80       		.byte	-128
 6181 0648 31       		.byte	49
 6182 0649 80       		.byte	-128
 6183 064a 31       		.byte	49
 6184 064b 80       		.byte	-128
 6185 064c 3E       		.byte	62
 6186 064d 00       		.byte	0
 6187 064e 33       		.byte	51
 6188 064f 00       		.byte	0
 6189 0650 31       		.byte	49
 6190 0651 80       		.byte	-128
 6191 0652 31       		.byte	49
 6192 0653 80       		.byte	-128
 6193 0654 7C       		.byte	124
 6194 0655 E0       		.byte	-32
 6195 0656 00       		.byte	0
 6196 0657 00       		.byte	0
 6197 0658 00       		.byte	0
 6198 0659 00       		.byte	0
 6199 065a 00       		.byte	0
 6200 065b 00       		.byte	0
 6201 065c 00       		.byte	0
 6202 065d 00       		.byte	0
 6203 065e 00       		.byte	0
ARM GAS  D:\Programs\cygwin64\tmp\ccnP8CjY.s 			page 108


 6204 065f 00       		.byte	0
 6205 0660 00       		.byte	0
 6206 0661 00       		.byte	0
 6207 0662 00       		.byte	0
 6208 0663 00       		.byte	0
 6209 0664 1F       		.byte	31
 6210 0665 80       		.byte	-128
 6211 0666 31       		.byte	49
 6212 0667 80       		.byte	-128
 6213 0668 31       		.byte	49
 6214 0669 80       		.byte	-128
 6215 066a 38       		.byte	56
 6216 066b 00       		.byte	0
 6217 066c 1F       		.byte	31
 6218 066d 00       		.byte	0
 6219 066e 03       		.byte	3
 6220 066f 80       		.byte	-128
 6221 0670 31       		.byte	49
 6222 0671 80       		.byte	-128
 6223 0672 31       		.byte	49
 6224 0673 80       		.byte	-128
 6225 0674 3F       		.byte	63
 6226 0675 00       		.byte	0
 6227 0676 00       		.byte	0
 6228 0677 00       		.byte	0
 6229 0678 00       		.byte	0
 6230 0679 00       		.byte	0
 6231 067a 00       		.byte	0
 6232 067b 00       		.byte	0
 6233 067c 00       		.byte	0
 6234 067d 00       		.byte	0
 6235 067e 00       		.byte	0
 6236 067f 00       		.byte	0
 6237 0680 00       		.byte	0
 6238 0681 00       		.byte	0
 6239 0682 00       		.byte	0
 6240 0683 00       		.byte	0
 6241 0684 7F       		.byte	127
 6242 0685 80       		.byte	-128
 6243 0686 4C       		.byte	76
 6244 0687 80       		.byte	-128
 6245 0688 4C       		.byte	76
 6246 0689 80       		.byte	-128
 6247 068a 4C       		.byte	76
 6248 068b 80       		.byte	-128
 6249 068c 0C       		.byte	12
 6250 068d 00       		.byte	0
 6251 068e 0C       		.byte	12
 6252 068f 00       		.byte	0
 6253 0690 0C       		.byte	12
 6254 0691 00       		.byte	0
 6255 0692 0C       		.byte	12
 6256 0693 00       		.byte	0
 6257 0694 3F       		.byte	63
 6258 0695 00       		.byte	0
 6259 0696 00       		.byte	0
 6260 0697 00       		.byte	0
ARM GAS  D:\Programs\cygwin64\tmp\ccnP8CjY.s 			page 109


 6261 0698 00       		.byte	0
 6262 0699 00       		.byte	0
 6263 069a 00       		.byte	0
 6264 069b 00       		.byte	0
 6265 069c 00       		.byte	0
 6266 069d 00       		.byte	0
 6267 069e 00       		.byte	0
 6268 069f 00       		.byte	0
 6269 06a0 00       		.byte	0
 6270 06a1 00       		.byte	0
 6271 06a2 00       		.byte	0
 6272 06a3 00       		.byte	0
 6273 06a4 7B       		.byte	123
 6274 06a5 C0       		.byte	-64
 6275 06a6 31       		.byte	49
 6276 06a7 80       		.byte	-128
 6277 06a8 31       		.byte	49
 6278 06a9 80       		.byte	-128
 6279 06aa 31       		.byte	49
 6280 06ab 80       		.byte	-128
 6281 06ac 31       		.byte	49
 6282 06ad 80       		.byte	-128
 6283 06ae 31       		.byte	49
 6284 06af 80       		.byte	-128
 6285 06b0 31       		.byte	49
 6286 06b1 80       		.byte	-128
 6287 06b2 31       		.byte	49
 6288 06b3 80       		.byte	-128
 6289 06b4 1F       		.byte	31
 6290 06b5 00       		.byte	0
 6291 06b6 00       		.byte	0
 6292 06b7 00       		.byte	0
 6293 06b8 00       		.byte	0
 6294 06b9 00       		.byte	0
 6295 06ba 00       		.byte	0
 6296 06bb 00       		.byte	0
 6297 06bc 00       		.byte	0
 6298 06bd 00       		.byte	0
 6299 06be 00       		.byte	0
 6300 06bf 00       		.byte	0
 6301 06c0 00       		.byte	0
 6302 06c1 00       		.byte	0
 6303 06c2 00       		.byte	0
 6304 06c3 00       		.byte	0
 6305 06c4 7B       		.byte	123
 6306 06c5 C0       		.byte	-64
 6307 06c6 31       		.byte	49
 6308 06c7 80       		.byte	-128
 6309 06c8 31       		.byte	49
 6310 06c9 80       		.byte	-128
 6311 06ca 1B       		.byte	27
 6312 06cb 00       		.byte	0
 6313 06cc 1B       		.byte	27
 6314 06cd 00       		.byte	0
 6315 06ce 1B       		.byte	27
 6316 06cf 00       		.byte	0
 6317 06d0 0A       		.byte	10
ARM GAS  D:\Programs\cygwin64\tmp\ccnP8CjY.s 			page 110


 6318 06d1 00       		.byte	0
 6319 06d2 0E       		.byte	14
 6320 06d3 00       		.byte	0
 6321 06d4 0E       		.byte	14
 6322 06d5 00       		.byte	0
 6323 06d6 00       		.byte	0
 6324 06d7 00       		.byte	0
 6325 06d8 00       		.byte	0
 6326 06d9 00       		.byte	0
 6327 06da 00       		.byte	0
 6328 06db 00       		.byte	0
 6329 06dc 00       		.byte	0
 6330 06dd 00       		.byte	0
 6331 06de 00       		.byte	0
 6332 06df 00       		.byte	0
 6333 06e0 00       		.byte	0
 6334 06e1 00       		.byte	0
 6335 06e2 00       		.byte	0
 6336 06e3 00       		.byte	0
 6337 06e4 FB       		.byte	-5
 6338 06e5 E0       		.byte	-32
 6339 06e6 60       		.byte	96
 6340 06e7 C0       		.byte	-64
 6341 06e8 64       		.byte	100
 6342 06e9 C0       		.byte	-64
 6343 06ea 6E       		.byte	110
 6344 06eb C0       		.byte	-64
 6345 06ec 6E       		.byte	110
 6346 06ed C0       		.byte	-64
 6347 06ee 2A       		.byte	42
 6348 06ef 80       		.byte	-128
 6349 06f0 3B       		.byte	59
 6350 06f1 80       		.byte	-128
 6351 06f2 3B       		.byte	59
 6352 06f3 80       		.byte	-128
 6353 06f4 31       		.byte	49
 6354 06f5 80       		.byte	-128
 6355 06f6 00       		.byte	0
 6356 06f7 00       		.byte	0
 6357 06f8 00       		.byte	0
 6358 06f9 00       		.byte	0
 6359 06fa 00       		.byte	0
 6360 06fb 00       		.byte	0
 6361 06fc 00       		.byte	0
 6362 06fd 00       		.byte	0
 6363 06fe 00       		.byte	0
 6364 06ff 00       		.byte	0
 6365 0700 00       		.byte	0
 6366 0701 00       		.byte	0
 6367 0702 00       		.byte	0
 6368 0703 00       		.byte	0
 6369 0704 7B       		.byte	123
 6370 0705 C0       		.byte	-64
 6371 0706 31       		.byte	49
 6372 0707 80       		.byte	-128
 6373 0708 1B       		.byte	27
 6374 0709 00       		.byte	0
ARM GAS  D:\Programs\cygwin64\tmp\ccnP8CjY.s 			page 111


 6375 070a 0E       		.byte	14
 6376 070b 00       		.byte	0
 6377 070c 0E       		.byte	14
 6378 070d 00       		.byte	0
 6379 070e 0E       		.byte	14
 6380 070f 00       		.byte	0
 6381 0710 1B       		.byte	27
 6382 0711 00       		.byte	0
 6383 0712 31       		.byte	49
 6384 0713 80       		.byte	-128
 6385 0714 7B       		.byte	123
 6386 0715 C0       		.byte	-64
 6387 0716 00       		.byte	0
 6388 0717 00       		.byte	0
 6389 0718 00       		.byte	0
 6390 0719 00       		.byte	0
 6391 071a 00       		.byte	0
 6392 071b 00       		.byte	0
 6393 071c 00       		.byte	0
 6394 071d 00       		.byte	0
 6395 071e 00       		.byte	0
 6396 071f 00       		.byte	0
 6397 0720 00       		.byte	0
 6398 0721 00       		.byte	0
 6399 0722 00       		.byte	0
 6400 0723 00       		.byte	0
 6401 0724 79       		.byte	121
 6402 0725 E0       		.byte	-32
 6403 0726 30       		.byte	48
 6404 0727 C0       		.byte	-64
 6405 0728 19       		.byte	25
 6406 0729 80       		.byte	-128
 6407 072a 0F       		.byte	15
 6408 072b 00       		.byte	0
 6409 072c 06       		.byte	6
 6410 072d 00       		.byte	0
 6411 072e 06       		.byte	6
 6412 072f 00       		.byte	0
 6413 0730 06       		.byte	6
 6414 0731 00       		.byte	0
 6415 0732 06       		.byte	6
 6416 0733 00       		.byte	0
 6417 0734 1F       		.byte	31
 6418 0735 80       		.byte	-128
 6419 0736 00       		.byte	0
 6420 0737 00       		.byte	0
 6421 0738 00       		.byte	0
 6422 0739 00       		.byte	0
 6423 073a 00       		.byte	0
 6424 073b 00       		.byte	0
 6425 073c 00       		.byte	0
 6426 073d 00       		.byte	0
 6427 073e 00       		.byte	0
 6428 073f 00       		.byte	0
 6429 0740 00       		.byte	0
 6430 0741 00       		.byte	0
 6431 0742 00       		.byte	0
ARM GAS  D:\Programs\cygwin64\tmp\ccnP8CjY.s 			page 112


 6432 0743 00       		.byte	0
 6433 0744 3F       		.byte	63
 6434 0745 80       		.byte	-128
 6435 0746 21       		.byte	33
 6436 0747 80       		.byte	-128
 6437 0748 23       		.byte	35
 6438 0749 00       		.byte	0
 6439 074a 06       		.byte	6
 6440 074b 00       		.byte	0
 6441 074c 04       		.byte	4
 6442 074d 00       		.byte	0
 6443 074e 0C       		.byte	12
 6444 074f 00       		.byte	0
 6445 0750 18       		.byte	24
 6446 0751 80       		.byte	-128
 6447 0752 30       		.byte	48
 6448 0753 80       		.byte	-128
 6449 0754 3F       		.byte	63
 6450 0755 80       		.byte	-128
 6451 0756 00       		.byte	0
 6452 0757 00       		.byte	0
 6453 0758 00       		.byte	0
 6454 0759 00       		.byte	0
 6455 075a 00       		.byte	0
 6456 075b 00       		.byte	0
 6457 075c 00       		.byte	0
 6458 075d 00       		.byte	0
 6459 075e 00       		.byte	0
 6460 075f 00       		.byte	0
 6461 0760 00       		.byte	0
 6462 0761 00       		.byte	0
 6463 0762 07       		.byte	7
 6464 0763 80       		.byte	-128
 6465 0764 06       		.byte	6
 6466 0765 00       		.byte	0
 6467 0766 06       		.byte	6
 6468 0767 00       		.byte	0
 6469 0768 06       		.byte	6
 6470 0769 00       		.byte	0
 6471 076a 06       		.byte	6
 6472 076b 00       		.byte	0
 6473 076c 06       		.byte	6
 6474 076d 00       		.byte	0
 6475 076e 06       		.byte	6
 6476 076f 00       		.byte	0
 6477 0770 06       		.byte	6
 6478 0771 00       		.byte	0
 6479 0772 06       		.byte	6
 6480 0773 00       		.byte	0
 6481 0774 06       		.byte	6
 6482 0775 00       		.byte	0
 6483 0776 06       		.byte	6
 6484 0777 00       		.byte	0
 6485 0778 07       		.byte	7
 6486 0779 80       		.byte	-128
 6487 077a 00       		.byte	0
 6488 077b 00       		.byte	0
ARM GAS  D:\Programs\cygwin64\tmp\ccnP8CjY.s 			page 113


 6489 077c 00       		.byte	0
 6490 077d 00       		.byte	0
 6491 077e 00       		.byte	0
 6492 077f 00       		.byte	0
 6493 0780 30       		.byte	48
 6494 0781 00       		.byte	0
 6495 0782 30       		.byte	48
 6496 0783 00       		.byte	0
 6497 0784 18       		.byte	24
 6498 0785 00       		.byte	0
 6499 0786 18       		.byte	24
 6500 0787 00       		.byte	0
 6501 0788 0C       		.byte	12
 6502 0789 00       		.byte	0
 6503 078a 0C       		.byte	12
 6504 078b 00       		.byte	0
 6505 078c 06       		.byte	6
 6506 078d 00       		.byte	0
 6507 078e 03       		.byte	3
 6508 078f 00       		.byte	0
 6509 0790 03       		.byte	3
 6510 0791 00       		.byte	0
 6511 0792 01       		.byte	1
 6512 0793 80       		.byte	-128
 6513 0794 01       		.byte	1
 6514 0795 80       		.byte	-128
 6515 0796 00       		.byte	0
 6516 0797 C0       		.byte	-64
 6517 0798 00       		.byte	0
 6518 0799 C0       		.byte	-64
 6519 079a 00       		.byte	0
 6520 079b 00       		.byte	0
 6521 079c 00       		.byte	0
 6522 079d 00       		.byte	0
 6523 079e 00       		.byte	0
 6524 079f 00       		.byte	0
 6525 07a0 00       		.byte	0
 6526 07a1 00       		.byte	0
 6527 07a2 1E       		.byte	30
 6528 07a3 00       		.byte	0
 6529 07a4 06       		.byte	6
 6530 07a5 00       		.byte	0
 6531 07a6 06       		.byte	6
 6532 07a7 00       		.byte	0
 6533 07a8 06       		.byte	6
 6534 07a9 00       		.byte	0
 6535 07aa 06       		.byte	6
 6536 07ab 00       		.byte	0
 6537 07ac 06       		.byte	6
 6538 07ad 00       		.byte	0
 6539 07ae 06       		.byte	6
 6540 07af 00       		.byte	0
 6541 07b0 06       		.byte	6
 6542 07b1 00       		.byte	0
 6543 07b2 06       		.byte	6
 6544 07b3 00       		.byte	0
 6545 07b4 06       		.byte	6
ARM GAS  D:\Programs\cygwin64\tmp\ccnP8CjY.s 			page 114


 6546 07b5 00       		.byte	0
 6547 07b6 06       		.byte	6
 6548 07b7 00       		.byte	0
 6549 07b8 1E       		.byte	30
 6550 07b9 00       		.byte	0
 6551 07ba 00       		.byte	0
 6552 07bb 00       		.byte	0
 6553 07bc 00       		.byte	0
 6554 07bd 00       		.byte	0
 6555 07be 00       		.byte	0
 6556 07bf 00       		.byte	0
 6557 07c0 04       		.byte	4
 6558 07c1 00       		.byte	0
 6559 07c2 0A       		.byte	10
 6560 07c3 00       		.byte	0
 6561 07c4 0A       		.byte	10
 6562 07c5 00       		.byte	0
 6563 07c6 11       		.byte	17
 6564 07c7 00       		.byte	0
 6565 07c8 20       		.byte	32
 6566 07c9 80       		.byte	-128
 6567 07ca 20       		.byte	32
 6568 07cb 80       		.byte	-128
 6569 07cc 00       		.byte	0
 6570 07cd 00       		.byte	0
 6571 07ce 00       		.byte	0
 6572 07cf 00       		.byte	0
 6573 07d0 00       		.byte	0
 6574 07d1 00       		.byte	0
 6575 07d2 00       		.byte	0
 6576 07d3 00       		.byte	0
 6577 07d4 00       		.byte	0
 6578 07d5 00       		.byte	0
 6579 07d6 00       		.byte	0
 6580 07d7 00       		.byte	0
 6581 07d8 00       		.byte	0
 6582 07d9 00       		.byte	0
 6583 07da 00       		.byte	0
 6584 07db 00       		.byte	0
 6585 07dc 00       		.byte	0
 6586 07dd 00       		.byte	0
 6587 07de 00       		.byte	0
 6588 07df 00       		.byte	0
 6589 07e0 00       		.byte	0
 6590 07e1 00       		.byte	0
 6591 07e2 00       		.byte	0
 6592 07e3 00       		.byte	0
 6593 07e4 00       		.byte	0
 6594 07e5 00       		.byte	0
 6595 07e6 00       		.byte	0
 6596 07e7 00       		.byte	0
 6597 07e8 00       		.byte	0
 6598 07e9 00       		.byte	0
 6599 07ea 00       		.byte	0
 6600 07eb 00       		.byte	0
 6601 07ec 00       		.byte	0
 6602 07ed 00       		.byte	0
ARM GAS  D:\Programs\cygwin64\tmp\ccnP8CjY.s 			page 115


 6603 07ee 00       		.byte	0
 6604 07ef 00       		.byte	0
 6605 07f0 00       		.byte	0
 6606 07f1 00       		.byte	0
 6607 07f2 00       		.byte	0
 6608 07f3 00       		.byte	0
 6609 07f4 00       		.byte	0
 6610 07f5 00       		.byte	0
 6611 07f6 00       		.byte	0
 6612 07f7 00       		.byte	0
 6613 07f8 00       		.byte	0
 6614 07f9 00       		.byte	0
 6615 07fa 00       		.byte	0
 6616 07fb 00       		.byte	0
 6617 07fc 00       		.byte	0
 6618 07fd 00       		.byte	0
 6619 07fe FF       		.byte	-1
 6620 07ff E0       		.byte	-32
 6621 0800 08       		.byte	8
 6622 0801 00       		.byte	0
 6623 0802 04       		.byte	4
 6624 0803 00       		.byte	0
 6625 0804 02       		.byte	2
 6626 0805 00       		.byte	0
 6627 0806 00       		.byte	0
 6628 0807 00       		.byte	0
 6629 0808 00       		.byte	0
 6630 0809 00       		.byte	0
 6631 080a 00       		.byte	0
 6632 080b 00       		.byte	0
 6633 080c 00       		.byte	0
 6634 080d 00       		.byte	0
 6635 080e 00       		.byte	0
 6636 080f 00       		.byte	0
 6637 0810 00       		.byte	0
 6638 0811 00       		.byte	0
 6639 0812 00       		.byte	0
 6640 0813 00       		.byte	0
 6641 0814 00       		.byte	0
 6642 0815 00       		.byte	0
 6643 0816 00       		.byte	0
 6644 0817 00       		.byte	0
 6645 0818 00       		.byte	0
 6646 0819 00       		.byte	0
 6647 081a 00       		.byte	0
 6648 081b 00       		.byte	0
 6649 081c 00       		.byte	0
 6650 081d 00       		.byte	0
 6651 081e 00       		.byte	0
 6652 081f 00       		.byte	0
 6653 0820 00       		.byte	0
 6654 0821 00       		.byte	0
 6655 0822 00       		.byte	0
 6656 0823 00       		.byte	0
 6657 0824 00       		.byte	0
 6658 0825 00       		.byte	0
 6659 0826 00       		.byte	0
ARM GAS  D:\Programs\cygwin64\tmp\ccnP8CjY.s 			page 116


 6660 0827 00       		.byte	0
 6661 0828 1F       		.byte	31
 6662 0829 00       		.byte	0
 6663 082a 01       		.byte	1
 6664 082b 80       		.byte	-128
 6665 082c 01       		.byte	1
 6666 082d 80       		.byte	-128
 6667 082e 1F       		.byte	31
 6668 082f 80       		.byte	-128
 6669 0830 31       		.byte	49
 6670 0831 80       		.byte	-128
 6671 0832 33       		.byte	51
 6672 0833 80       		.byte	-128
 6673 0834 1D       		.byte	29
 6674 0835 C0       		.byte	-64
 6675 0836 00       		.byte	0
 6676 0837 00       		.byte	0
 6677 0838 00       		.byte	0
 6678 0839 00       		.byte	0
 6679 083a 00       		.byte	0
 6680 083b 00       		.byte	0
 6681 083c 00       		.byte	0
 6682 083d 00       		.byte	0
 6683 083e 00       		.byte	0
 6684 083f 00       		.byte	0
 6685 0840 00       		.byte	0
 6686 0841 00       		.byte	0
 6687 0842 70       		.byte	112
 6688 0843 00       		.byte	0
 6689 0844 30       		.byte	48
 6690 0845 00       		.byte	0
 6691 0846 30       		.byte	48
 6692 0847 00       		.byte	0
 6693 0848 37       		.byte	55
 6694 0849 00       		.byte	0
 6695 084a 39       		.byte	57
 6696 084b 80       		.byte	-128
 6697 084c 30       		.byte	48
 6698 084d C0       		.byte	-64
 6699 084e 30       		.byte	48
 6700 084f C0       		.byte	-64
 6701 0850 30       		.byte	48
 6702 0851 C0       		.byte	-64
 6703 0852 39       		.byte	57
 6704 0853 80       		.byte	-128
 6705 0854 77       		.byte	119
 6706 0855 00       		.byte	0
 6707 0856 00       		.byte	0
 6708 0857 00       		.byte	0
 6709 0858 00       		.byte	0
 6710 0859 00       		.byte	0
 6711 085a 00       		.byte	0
 6712 085b 00       		.byte	0
 6713 085c 00       		.byte	0
 6714 085d 00       		.byte	0
 6715 085e 00       		.byte	0
 6716 085f 00       		.byte	0
ARM GAS  D:\Programs\cygwin64\tmp\ccnP8CjY.s 			page 117


 6717 0860 00       		.byte	0
 6718 0861 00       		.byte	0
 6719 0862 00       		.byte	0
 6720 0863 00       		.byte	0
 6721 0864 00       		.byte	0
 6722 0865 00       		.byte	0
 6723 0866 00       		.byte	0
 6724 0867 00       		.byte	0
 6725 0868 1E       		.byte	30
 6726 0869 80       		.byte	-128
 6727 086a 31       		.byte	49
 6728 086b 80       		.byte	-128
 6729 086c 60       		.byte	96
 6730 086d 80       		.byte	-128
 6731 086e 60       		.byte	96
 6732 086f 00       		.byte	0
 6733 0870 60       		.byte	96
 6734 0871 80       		.byte	-128
 6735 0872 31       		.byte	49
 6736 0873 80       		.byte	-128
 6737 0874 1F       		.byte	31
 6738 0875 00       		.byte	0
 6739 0876 00       		.byte	0
 6740 0877 00       		.byte	0
 6741 0878 00       		.byte	0
 6742 0879 00       		.byte	0
 6743 087a 00       		.byte	0
 6744 087b 00       		.byte	0
 6745 087c 00       		.byte	0
 6746 087d 00       		.byte	0
 6747 087e 00       		.byte	0
 6748 087f 00       		.byte	0
 6749 0880 00       		.byte	0
 6750 0881 00       		.byte	0
 6751 0882 03       		.byte	3
 6752 0883 80       		.byte	-128
 6753 0884 01       		.byte	1
 6754 0885 80       		.byte	-128
 6755 0886 01       		.byte	1
 6756 0887 80       		.byte	-128
 6757 0888 1D       		.byte	29
 6758 0889 80       		.byte	-128
 6759 088a 33       		.byte	51
 6760 088b 80       		.byte	-128
 6761 088c 61       		.byte	97
 6762 088d 80       		.byte	-128
 6763 088e 61       		.byte	97
 6764 088f 80       		.byte	-128
 6765 0890 61       		.byte	97
 6766 0891 80       		.byte	-128
 6767 0892 33       		.byte	51
 6768 0893 80       		.byte	-128
 6769 0894 1D       		.byte	29
 6770 0895 C0       		.byte	-64
 6771 0896 00       		.byte	0
 6772 0897 00       		.byte	0
 6773 0898 00       		.byte	0
ARM GAS  D:\Programs\cygwin64\tmp\ccnP8CjY.s 			page 118


 6774 0899 00       		.byte	0
 6775 089a 00       		.byte	0
 6776 089b 00       		.byte	0
 6777 089c 00       		.byte	0
 6778 089d 00       		.byte	0
 6779 089e 00       		.byte	0
 6780 089f 00       		.byte	0
 6781 08a0 00       		.byte	0
 6782 08a1 00       		.byte	0
 6783 08a2 00       		.byte	0
 6784 08a3 00       		.byte	0
 6785 08a4 00       		.byte	0
 6786 08a5 00       		.byte	0
 6787 08a6 00       		.byte	0
 6788 08a7 00       		.byte	0
 6789 08a8 1F       		.byte	31
 6790 08a9 00       		.byte	0
 6791 08aa 31       		.byte	49
 6792 08ab 80       		.byte	-128
 6793 08ac 60       		.byte	96
 6794 08ad C0       		.byte	-64
 6795 08ae 7F       		.byte	127
 6796 08af C0       		.byte	-64
 6797 08b0 60       		.byte	96
 6798 08b1 00       		.byte	0
 6799 08b2 30       		.byte	48
 6800 08b3 C0       		.byte	-64
 6801 08b4 1F       		.byte	31
 6802 08b5 80       		.byte	-128
 6803 08b6 00       		.byte	0
 6804 08b7 00       		.byte	0
 6805 08b8 00       		.byte	0
 6806 08b9 00       		.byte	0
 6807 08ba 00       		.byte	0
 6808 08bb 00       		.byte	0
 6809 08bc 00       		.byte	0
 6810 08bd 00       		.byte	0
 6811 08be 00       		.byte	0
 6812 08bf 00       		.byte	0
 6813 08c0 00       		.byte	0
 6814 08c1 00       		.byte	0
 6815 08c2 07       		.byte	7
 6816 08c3 E0       		.byte	-32
 6817 08c4 0C       		.byte	12
 6818 08c5 00       		.byte	0
 6819 08c6 0C       		.byte	12
 6820 08c7 00       		.byte	0
 6821 08c8 3F       		.byte	63
 6822 08c9 80       		.byte	-128
 6823 08ca 0C       		.byte	12
 6824 08cb 00       		.byte	0
 6825 08cc 0C       		.byte	12
 6826 08cd 00       		.byte	0
 6827 08ce 0C       		.byte	12
 6828 08cf 00       		.byte	0
 6829 08d0 0C       		.byte	12
 6830 08d1 00       		.byte	0
ARM GAS  D:\Programs\cygwin64\tmp\ccnP8CjY.s 			page 119


 6831 08d2 0C       		.byte	12
 6832 08d3 00       		.byte	0
 6833 08d4 3F       		.byte	63
 6834 08d5 80       		.byte	-128
 6835 08d6 00       		.byte	0
 6836 08d7 00       		.byte	0
 6837 08d8 00       		.byte	0
 6838 08d9 00       		.byte	0
 6839 08da 00       		.byte	0
 6840 08db 00       		.byte	0
 6841 08dc 00       		.byte	0
 6842 08dd 00       		.byte	0
 6843 08de 00       		.byte	0
 6844 08df 00       		.byte	0
 6845 08e0 00       		.byte	0
 6846 08e1 00       		.byte	0
 6847 08e2 00       		.byte	0
 6848 08e3 00       		.byte	0
 6849 08e4 00       		.byte	0
 6850 08e5 00       		.byte	0
 6851 08e6 00       		.byte	0
 6852 08e7 00       		.byte	0
 6853 08e8 1D       		.byte	29
 6854 08e9 C0       		.byte	-64
 6855 08ea 33       		.byte	51
 6856 08eb 80       		.byte	-128
 6857 08ec 61       		.byte	97
 6858 08ed 80       		.byte	-128
 6859 08ee 61       		.byte	97
 6860 08ef 80       		.byte	-128
 6861 08f0 61       		.byte	97
 6862 08f1 80       		.byte	-128
 6863 08f2 33       		.byte	51
 6864 08f3 80       		.byte	-128
 6865 08f4 1D       		.byte	29
 6866 08f5 80       		.byte	-128
 6867 08f6 01       		.byte	1
 6868 08f7 80       		.byte	-128
 6869 08f8 01       		.byte	1
 6870 08f9 80       		.byte	-128
 6871 08fa 1F       		.byte	31
 6872 08fb 00       		.byte	0
 6873 08fc 00       		.byte	0
 6874 08fd 00       		.byte	0
 6875 08fe 00       		.byte	0
 6876 08ff 00       		.byte	0
 6877 0900 00       		.byte	0
 6878 0901 00       		.byte	0
 6879 0902 70       		.byte	112
 6880 0903 00       		.byte	0
 6881 0904 30       		.byte	48
 6882 0905 00       		.byte	0
 6883 0906 30       		.byte	48
 6884 0907 00       		.byte	0
 6885 0908 37       		.byte	55
 6886 0909 00       		.byte	0
 6887 090a 39       		.byte	57
ARM GAS  D:\Programs\cygwin64\tmp\ccnP8CjY.s 			page 120


 6888 090b 80       		.byte	-128
 6889 090c 31       		.byte	49
 6890 090d 80       		.byte	-128
 6891 090e 31       		.byte	49
 6892 090f 80       		.byte	-128
 6893 0910 31       		.byte	49
 6894 0911 80       		.byte	-128
 6895 0912 31       		.byte	49
 6896 0913 80       		.byte	-128
 6897 0914 7B       		.byte	123
 6898 0915 C0       		.byte	-64
 6899 0916 00       		.byte	0
 6900 0917 00       		.byte	0
 6901 0918 00       		.byte	0
 6902 0919 00       		.byte	0
 6903 091a 00       		.byte	0
 6904 091b 00       		.byte	0
 6905 091c 00       		.byte	0
 6906 091d 00       		.byte	0
 6907 091e 00       		.byte	0
 6908 091f 00       		.byte	0
 6909 0920 00       		.byte	0
 6910 0921 00       		.byte	0
 6911 0922 06       		.byte	6
 6912 0923 00       		.byte	0
 6913 0924 06       		.byte	6
 6914 0925 00       		.byte	0
 6915 0926 00       		.byte	0
 6916 0927 00       		.byte	0
 6917 0928 1E       		.byte	30
 6918 0929 00       		.byte	0
 6919 092a 06       		.byte	6
 6920 092b 00       		.byte	0
 6921 092c 06       		.byte	6
 6922 092d 00       		.byte	0
 6923 092e 06       		.byte	6
 6924 092f 00       		.byte	0
 6925 0930 06       		.byte	6
 6926 0931 00       		.byte	0
 6927 0932 06       		.byte	6
 6928 0933 00       		.byte	0
 6929 0934 3F       		.byte	63
 6930 0935 C0       		.byte	-64
 6931 0936 00       		.byte	0
 6932 0937 00       		.byte	0
 6933 0938 00       		.byte	0
 6934 0939 00       		.byte	0
 6935 093a 00       		.byte	0
 6936 093b 00       		.byte	0
 6937 093c 00       		.byte	0
 6938 093d 00       		.byte	0
 6939 093e 00       		.byte	0
 6940 093f 00       		.byte	0
 6941 0940 00       		.byte	0
 6942 0941 00       		.byte	0
 6943 0942 06       		.byte	6
 6944 0943 00       		.byte	0
ARM GAS  D:\Programs\cygwin64\tmp\ccnP8CjY.s 			page 121


 6945 0944 06       		.byte	6
 6946 0945 00       		.byte	0
 6947 0946 00       		.byte	0
 6948 0947 00       		.byte	0
 6949 0948 3F       		.byte	63
 6950 0949 00       		.byte	0
 6951 094a 03       		.byte	3
 6952 094b 00       		.byte	0
 6953 094c 03       		.byte	3
 6954 094d 00       		.byte	0
 6955 094e 03       		.byte	3
 6956 094f 00       		.byte	0
 6957 0950 03       		.byte	3
 6958 0951 00       		.byte	0
 6959 0952 03       		.byte	3
 6960 0953 00       		.byte	0
 6961 0954 03       		.byte	3
 6962 0955 00       		.byte	0
 6963 0956 03       		.byte	3
 6964 0957 00       		.byte	0
 6965 0958 03       		.byte	3
 6966 0959 00       		.byte	0
 6967 095a 3E       		.byte	62
 6968 095b 00       		.byte	0
 6969 095c 00       		.byte	0
 6970 095d 00       		.byte	0
 6971 095e 00       		.byte	0
 6972 095f 00       		.byte	0
 6973 0960 00       		.byte	0
 6974 0961 00       		.byte	0
 6975 0962 70       		.byte	112
 6976 0963 00       		.byte	0
 6977 0964 30       		.byte	48
 6978 0965 00       		.byte	0
 6979 0966 30       		.byte	48
 6980 0967 00       		.byte	0
 6981 0968 37       		.byte	55
 6982 0969 80       		.byte	-128
 6983 096a 36       		.byte	54
 6984 096b 00       		.byte	0
 6985 096c 3C       		.byte	60
 6986 096d 00       		.byte	0
 6987 096e 3C       		.byte	60
 6988 096f 00       		.byte	0
 6989 0970 36       		.byte	54
 6990 0971 00       		.byte	0
 6991 0972 33       		.byte	51
 6992 0973 00       		.byte	0
 6993 0974 77       		.byte	119
 6994 0975 C0       		.byte	-64
 6995 0976 00       		.byte	0
 6996 0977 00       		.byte	0
 6997 0978 00       		.byte	0
 6998 0979 00       		.byte	0
 6999 097a 00       		.byte	0
 7000 097b 00       		.byte	0
 7001 097c 00       		.byte	0
ARM GAS  D:\Programs\cygwin64\tmp\ccnP8CjY.s 			page 122


 7002 097d 00       		.byte	0
 7003 097e 00       		.byte	0
 7004 097f 00       		.byte	0
 7005 0980 00       		.byte	0
 7006 0981 00       		.byte	0
 7007 0982 1E       		.byte	30
 7008 0983 00       		.byte	0
 7009 0984 06       		.byte	6
 7010 0985 00       		.byte	0
 7011 0986 06       		.byte	6
 7012 0987 00       		.byte	0
 7013 0988 06       		.byte	6
 7014 0989 00       		.byte	0
 7015 098a 06       		.byte	6
 7016 098b 00       		.byte	0
 7017 098c 06       		.byte	6
 7018 098d 00       		.byte	0
 7019 098e 06       		.byte	6
 7020 098f 00       		.byte	0
 7021 0990 06       		.byte	6
 7022 0991 00       		.byte	0
 7023 0992 06       		.byte	6
 7024 0993 00       		.byte	0
 7025 0994 3F       		.byte	63
 7026 0995 C0       		.byte	-64
 7027 0996 00       		.byte	0
 7028 0997 00       		.byte	0
 7029 0998 00       		.byte	0
 7030 0999 00       		.byte	0
 7031 099a 00       		.byte	0
 7032 099b 00       		.byte	0
 7033 099c 00       		.byte	0
 7034 099d 00       		.byte	0
 7035 099e 00       		.byte	0
 7036 099f 00       		.byte	0
 7037 09a0 00       		.byte	0
 7038 09a1 00       		.byte	0
 7039 09a2 00       		.byte	0
 7040 09a3 00       		.byte	0
 7041 09a4 00       		.byte	0
 7042 09a5 00       		.byte	0
 7043 09a6 00       		.byte	0
 7044 09a7 00       		.byte	0
 7045 09a8 7F       		.byte	127
 7046 09a9 80       		.byte	-128
 7047 09aa 36       		.byte	54
 7048 09ab C0       		.byte	-64
 7049 09ac 36       		.byte	54
 7050 09ad C0       		.byte	-64
 7051 09ae 36       		.byte	54
 7052 09af C0       		.byte	-64
 7053 09b0 36       		.byte	54
 7054 09b1 C0       		.byte	-64
 7055 09b2 36       		.byte	54
 7056 09b3 C0       		.byte	-64
 7057 09b4 76       		.byte	118
 7058 09b5 E0       		.byte	-32
ARM GAS  D:\Programs\cygwin64\tmp\ccnP8CjY.s 			page 123


 7059 09b6 00       		.byte	0
 7060 09b7 00       		.byte	0
 7061 09b8 00       		.byte	0
 7062 09b9 00       		.byte	0
 7063 09ba 00       		.byte	0
 7064 09bb 00       		.byte	0
 7065 09bc 00       		.byte	0
 7066 09bd 00       		.byte	0
 7067 09be 00       		.byte	0
 7068 09bf 00       		.byte	0
 7069 09c0 00       		.byte	0
 7070 09c1 00       		.byte	0
 7071 09c2 00       		.byte	0
 7072 09c3 00       		.byte	0
 7073 09c4 00       		.byte	0
 7074 09c5 00       		.byte	0
 7075 09c6 00       		.byte	0
 7076 09c7 00       		.byte	0
 7077 09c8 77       		.byte	119
 7078 09c9 00       		.byte	0
 7079 09ca 39       		.byte	57
 7080 09cb 80       		.byte	-128
 7081 09cc 31       		.byte	49
 7082 09cd 80       		.byte	-128
 7083 09ce 31       		.byte	49
 7084 09cf 80       		.byte	-128
 7085 09d0 31       		.byte	49
 7086 09d1 80       		.byte	-128
 7087 09d2 31       		.byte	49
 7088 09d3 80       		.byte	-128
 7089 09d4 7B       		.byte	123
 7090 09d5 C0       		.byte	-64
 7091 09d6 00       		.byte	0
 7092 09d7 00       		.byte	0
 7093 09d8 00       		.byte	0
 7094 09d9 00       		.byte	0
 7095 09da 00       		.byte	0
 7096 09db 00       		.byte	0
 7097 09dc 00       		.byte	0
 7098 09dd 00       		.byte	0
 7099 09de 00       		.byte	0
 7100 09df 00       		.byte	0
 7101 09e0 00       		.byte	0
 7102 09e1 00       		.byte	0
 7103 09e2 00       		.byte	0
 7104 09e3 00       		.byte	0
 7105 09e4 00       		.byte	0
 7106 09e5 00       		.byte	0
 7107 09e6 00       		.byte	0
 7108 09e7 00       		.byte	0
 7109 09e8 1F       		.byte	31
 7110 09e9 00       		.byte	0
 7111 09ea 31       		.byte	49
 7112 09eb 80       		.byte	-128
 7113 09ec 60       		.byte	96
 7114 09ed C0       		.byte	-64
 7115 09ee 60       		.byte	96
ARM GAS  D:\Programs\cygwin64\tmp\ccnP8CjY.s 			page 124


 7116 09ef C0       		.byte	-64
 7117 09f0 60       		.byte	96
 7118 09f1 C0       		.byte	-64
 7119 09f2 31       		.byte	49
 7120 09f3 80       		.byte	-128
 7121 09f4 1F       		.byte	31
 7122 09f5 00       		.byte	0
 7123 09f6 00       		.byte	0
 7124 09f7 00       		.byte	0
 7125 09f8 00       		.byte	0
 7126 09f9 00       		.byte	0
 7127 09fa 00       		.byte	0
 7128 09fb 00       		.byte	0
 7129 09fc 00       		.byte	0
 7130 09fd 00       		.byte	0
 7131 09fe 00       		.byte	0
 7132 09ff 00       		.byte	0
 7133 0a00 00       		.byte	0
 7134 0a01 00       		.byte	0
 7135 0a02 00       		.byte	0
 7136 0a03 00       		.byte	0
 7137 0a04 00       		.byte	0
 7138 0a05 00       		.byte	0
 7139 0a06 00       		.byte	0
 7140 0a07 00       		.byte	0
 7141 0a08 77       		.byte	119
 7142 0a09 00       		.byte	0
 7143 0a0a 39       		.byte	57
 7144 0a0b 80       		.byte	-128
 7145 0a0c 30       		.byte	48
 7146 0a0d C0       		.byte	-64
 7147 0a0e 30       		.byte	48
 7148 0a0f C0       		.byte	-64
 7149 0a10 30       		.byte	48
 7150 0a11 C0       		.byte	-64
 7151 0a12 39       		.byte	57
 7152 0a13 80       		.byte	-128
 7153 0a14 37       		.byte	55
 7154 0a15 00       		.byte	0
 7155 0a16 30       		.byte	48
 7156 0a17 00       		.byte	0
 7157 0a18 30       		.byte	48
 7158 0a19 00       		.byte	0
 7159 0a1a 7C       		.byte	124
 7160 0a1b 00       		.byte	0
 7161 0a1c 00       		.byte	0
 7162 0a1d 00       		.byte	0
 7163 0a1e 00       		.byte	0
 7164 0a1f 00       		.byte	0
 7165 0a20 00       		.byte	0
 7166 0a21 00       		.byte	0
 7167 0a22 00       		.byte	0
 7168 0a23 00       		.byte	0
 7169 0a24 00       		.byte	0
 7170 0a25 00       		.byte	0
 7171 0a26 00       		.byte	0
 7172 0a27 00       		.byte	0
ARM GAS  D:\Programs\cygwin64\tmp\ccnP8CjY.s 			page 125


 7173 0a28 1D       		.byte	29
 7174 0a29 C0       		.byte	-64
 7175 0a2a 33       		.byte	51
 7176 0a2b 80       		.byte	-128
 7177 0a2c 61       		.byte	97
 7178 0a2d 80       		.byte	-128
 7179 0a2e 61       		.byte	97
 7180 0a2f 80       		.byte	-128
 7181 0a30 61       		.byte	97
 7182 0a31 80       		.byte	-128
 7183 0a32 33       		.byte	51
 7184 0a33 80       		.byte	-128
 7185 0a34 1D       		.byte	29
 7186 0a35 80       		.byte	-128
 7187 0a36 01       		.byte	1
 7188 0a37 80       		.byte	-128
 7189 0a38 01       		.byte	1
 7190 0a39 80       		.byte	-128
 7191 0a3a 07       		.byte	7
 7192 0a3b C0       		.byte	-64
 7193 0a3c 00       		.byte	0
 7194 0a3d 00       		.byte	0
 7195 0a3e 00       		.byte	0
 7196 0a3f 00       		.byte	0
 7197 0a40 00       		.byte	0
 7198 0a41 00       		.byte	0
 7199 0a42 00       		.byte	0
 7200 0a43 00       		.byte	0
 7201 0a44 00       		.byte	0
 7202 0a45 00       		.byte	0
 7203 0a46 00       		.byte	0
 7204 0a47 00       		.byte	0
 7205 0a48 7B       		.byte	123
 7206 0a49 80       		.byte	-128
 7207 0a4a 1C       		.byte	28
 7208 0a4b C0       		.byte	-64
 7209 0a4c 18       		.byte	24
 7210 0a4d 00       		.byte	0
 7211 0a4e 18       		.byte	24
 7212 0a4f 00       		.byte	0
 7213 0a50 18       		.byte	24
 7214 0a51 00       		.byte	0
 7215 0a52 18       		.byte	24
 7216 0a53 00       		.byte	0
 7217 0a54 7F       		.byte	127
 7218 0a55 00       		.byte	0
 7219 0a56 00       		.byte	0
 7220 0a57 00       		.byte	0
 7221 0a58 00       		.byte	0
 7222 0a59 00       		.byte	0
 7223 0a5a 00       		.byte	0
 7224 0a5b 00       		.byte	0
 7225 0a5c 00       		.byte	0
 7226 0a5d 00       		.byte	0
 7227 0a5e 00       		.byte	0
 7228 0a5f 00       		.byte	0
 7229 0a60 00       		.byte	0
ARM GAS  D:\Programs\cygwin64\tmp\ccnP8CjY.s 			page 126


 7230 0a61 00       		.byte	0
 7231 0a62 00       		.byte	0
 7232 0a63 00       		.byte	0
 7233 0a64 00       		.byte	0
 7234 0a65 00       		.byte	0
 7235 0a66 00       		.byte	0
 7236 0a67 00       		.byte	0
 7237 0a68 1F       		.byte	31
 7238 0a69 80       		.byte	-128
 7239 0a6a 31       		.byte	49
 7240 0a6b 80       		.byte	-128
 7241 0a6c 3C       		.byte	60
 7242 0a6d 00       		.byte	0
 7243 0a6e 1F       		.byte	31
 7244 0a6f 00       		.byte	0
 7245 0a70 03       		.byte	3
 7246 0a71 80       		.byte	-128
 7247 0a72 31       		.byte	49
 7248 0a73 80       		.byte	-128
 7249 0a74 3F       		.byte	63
 7250 0a75 00       		.byte	0
 7251 0a76 00       		.byte	0
 7252 0a77 00       		.byte	0
 7253 0a78 00       		.byte	0
 7254 0a79 00       		.byte	0
 7255 0a7a 00       		.byte	0
 7256 0a7b 00       		.byte	0
 7257 0a7c 00       		.byte	0
 7258 0a7d 00       		.byte	0
 7259 0a7e 00       		.byte	0
 7260 0a7f 00       		.byte	0
 7261 0a80 00       		.byte	0
 7262 0a81 00       		.byte	0
 7263 0a82 18       		.byte	24
 7264 0a83 00       		.byte	0
 7265 0a84 18       		.byte	24
 7266 0a85 00       		.byte	0
 7267 0a86 18       		.byte	24
 7268 0a87 00       		.byte	0
 7269 0a88 7F       		.byte	127
 7270 0a89 00       		.byte	0
 7271 0a8a 18       		.byte	24
 7272 0a8b 00       		.byte	0
 7273 0a8c 18       		.byte	24
 7274 0a8d 00       		.byte	0
 7275 0a8e 18       		.byte	24
 7276 0a8f 00       		.byte	0
 7277 0a90 18       		.byte	24
 7278 0a91 00       		.byte	0
 7279 0a92 18       		.byte	24
 7280 0a93 80       		.byte	-128
 7281 0a94 0F       		.byte	15
 7282 0a95 00       		.byte	0
 7283 0a96 00       		.byte	0
 7284 0a97 00       		.byte	0
 7285 0a98 00       		.byte	0
 7286 0a99 00       		.byte	0
ARM GAS  D:\Programs\cygwin64\tmp\ccnP8CjY.s 			page 127


 7287 0a9a 00       		.byte	0
 7288 0a9b 00       		.byte	0
 7289 0a9c 00       		.byte	0
 7290 0a9d 00       		.byte	0
 7291 0a9e 00       		.byte	0
 7292 0a9f 00       		.byte	0
 7293 0aa0 00       		.byte	0
 7294 0aa1 00       		.byte	0
 7295 0aa2 00       		.byte	0
 7296 0aa3 00       		.byte	0
 7297 0aa4 00       		.byte	0
 7298 0aa5 00       		.byte	0
 7299 0aa6 00       		.byte	0
 7300 0aa7 00       		.byte	0
 7301 0aa8 73       		.byte	115
 7302 0aa9 80       		.byte	-128
 7303 0aaa 31       		.byte	49
 7304 0aab 80       		.byte	-128
 7305 0aac 31       		.byte	49
 7306 0aad 80       		.byte	-128
 7307 0aae 31       		.byte	49
 7308 0aaf 80       		.byte	-128
 7309 0ab0 31       		.byte	49
 7310 0ab1 80       		.byte	-128
 7311 0ab2 33       		.byte	51
 7312 0ab3 80       		.byte	-128
 7313 0ab4 1D       		.byte	29
 7314 0ab5 C0       		.byte	-64
 7315 0ab6 00       		.byte	0
 7316 0ab7 00       		.byte	0
 7317 0ab8 00       		.byte	0
 7318 0ab9 00       		.byte	0
 7319 0aba 00       		.byte	0
 7320 0abb 00       		.byte	0
 7321 0abc 00       		.byte	0
 7322 0abd 00       		.byte	0
 7323 0abe 00       		.byte	0
 7324 0abf 00       		.byte	0
 7325 0ac0 00       		.byte	0
 7326 0ac1 00       		.byte	0
 7327 0ac2 00       		.byte	0
 7328 0ac3 00       		.byte	0
 7329 0ac4 00       		.byte	0
 7330 0ac5 00       		.byte	0
 7331 0ac6 00       		.byte	0
 7332 0ac7 00       		.byte	0
 7333 0ac8 7B       		.byte	123
 7334 0ac9 C0       		.byte	-64
 7335 0aca 31       		.byte	49
 7336 0acb 80       		.byte	-128
 7337 0acc 31       		.byte	49
 7338 0acd 80       		.byte	-128
 7339 0ace 1B       		.byte	27
 7340 0acf 00       		.byte	0
 7341 0ad0 1B       		.byte	27
 7342 0ad1 00       		.byte	0
 7343 0ad2 0E       		.byte	14
ARM GAS  D:\Programs\cygwin64\tmp\ccnP8CjY.s 			page 128


 7344 0ad3 00       		.byte	0
 7345 0ad4 0E       		.byte	14
 7346 0ad5 00       		.byte	0
 7347 0ad6 00       		.byte	0
 7348 0ad7 00       		.byte	0
 7349 0ad8 00       		.byte	0
 7350 0ad9 00       		.byte	0
 7351 0ada 00       		.byte	0
 7352 0adb 00       		.byte	0
 7353 0adc 00       		.byte	0
 7354 0add 00       		.byte	0
 7355 0ade 00       		.byte	0
 7356 0adf 00       		.byte	0
 7357 0ae0 00       		.byte	0
 7358 0ae1 00       		.byte	0
 7359 0ae2 00       		.byte	0
 7360 0ae3 00       		.byte	0
 7361 0ae4 00       		.byte	0
 7362 0ae5 00       		.byte	0
 7363 0ae6 00       		.byte	0
 7364 0ae7 00       		.byte	0
 7365 0ae8 F1       		.byte	-15
 7366 0ae9 E0       		.byte	-32
 7367 0aea 60       		.byte	96
 7368 0aeb C0       		.byte	-64
 7369 0aec 64       		.byte	100
 7370 0aed C0       		.byte	-64
 7371 0aee 6E       		.byte	110
 7372 0aef C0       		.byte	-64
 7373 0af0 3B       		.byte	59
 7374 0af1 80       		.byte	-128
 7375 0af2 3B       		.byte	59
 7376 0af3 80       		.byte	-128
 7377 0af4 31       		.byte	49
 7378 0af5 80       		.byte	-128
 7379 0af6 00       		.byte	0
 7380 0af7 00       		.byte	0
 7381 0af8 00       		.byte	0
 7382 0af9 00       		.byte	0
 7383 0afa 00       		.byte	0
 7384 0afb 00       		.byte	0
 7385 0afc 00       		.byte	0
 7386 0afd 00       		.byte	0
 7387 0afe 00       		.byte	0
 7388 0aff 00       		.byte	0
 7389 0b00 00       		.byte	0
 7390 0b01 00       		.byte	0
 7391 0b02 00       		.byte	0
 7392 0b03 00       		.byte	0
 7393 0b04 00       		.byte	0
 7394 0b05 00       		.byte	0
 7395 0b06 00       		.byte	0
 7396 0b07 00       		.byte	0
 7397 0b08 7B       		.byte	123
 7398 0b09 C0       		.byte	-64
 7399 0b0a 1B       		.byte	27
 7400 0b0b 00       		.byte	0
ARM GAS  D:\Programs\cygwin64\tmp\ccnP8CjY.s 			page 129


 7401 0b0c 0E       		.byte	14
 7402 0b0d 00       		.byte	0
 7403 0b0e 0E       		.byte	14
 7404 0b0f 00       		.byte	0
 7405 0b10 0E       		.byte	14
 7406 0b11 00       		.byte	0
 7407 0b12 1B       		.byte	27
 7408 0b13 00       		.byte	0
 7409 0b14 7B       		.byte	123
 7410 0b15 C0       		.byte	-64
 7411 0b16 00       		.byte	0
 7412 0b17 00       		.byte	0
 7413 0b18 00       		.byte	0
 7414 0b19 00       		.byte	0
 7415 0b1a 00       		.byte	0
 7416 0b1b 00       		.byte	0
 7417 0b1c 00       		.byte	0
 7418 0b1d 00       		.byte	0
 7419 0b1e 00       		.byte	0
 7420 0b1f 00       		.byte	0
 7421 0b20 00       		.byte	0
 7422 0b21 00       		.byte	0
 7423 0b22 00       		.byte	0
 7424 0b23 00       		.byte	0
 7425 0b24 00       		.byte	0
 7426 0b25 00       		.byte	0
 7427 0b26 00       		.byte	0
 7428 0b27 00       		.byte	0
 7429 0b28 79       		.byte	121
 7430 0b29 E0       		.byte	-32
 7431 0b2a 30       		.byte	48
 7432 0b2b C0       		.byte	-64
 7433 0b2c 19       		.byte	25
 7434 0b2d 80       		.byte	-128
 7435 0b2e 19       		.byte	25
 7436 0b2f 80       		.byte	-128
 7437 0b30 0B       		.byte	11
 7438 0b31 00       		.byte	0
 7439 0b32 0F       		.byte	15
 7440 0b33 00       		.byte	0
 7441 0b34 06       		.byte	6
 7442 0b35 00       		.byte	0
 7443 0b36 06       		.byte	6
 7444 0b37 00       		.byte	0
 7445 0b38 0C       		.byte	12
 7446 0b39 00       		.byte	0
 7447 0b3a 3E       		.byte	62
 7448 0b3b 00       		.byte	0
 7449 0b3c 00       		.byte	0
 7450 0b3d 00       		.byte	0
 7451 0b3e 00       		.byte	0
 7452 0b3f 00       		.byte	0
 7453 0b40 00       		.byte	0
 7454 0b41 00       		.byte	0
 7455 0b42 00       		.byte	0
 7456 0b43 00       		.byte	0
 7457 0b44 00       		.byte	0
ARM GAS  D:\Programs\cygwin64\tmp\ccnP8CjY.s 			page 130


 7458 0b45 00       		.byte	0
 7459 0b46 00       		.byte	0
 7460 0b47 00       		.byte	0
 7461 0b48 3F       		.byte	63
 7462 0b49 80       		.byte	-128
 7463 0b4a 21       		.byte	33
 7464 0b4b 80       		.byte	-128
 7465 0b4c 03       		.byte	3
 7466 0b4d 00       		.byte	0
 7467 0b4e 0E       		.byte	14
 7468 0b4f 00       		.byte	0
 7469 0b50 18       		.byte	24
 7470 0b51 00       		.byte	0
 7471 0b52 30       		.byte	48
 7472 0b53 80       		.byte	-128
 7473 0b54 3F       		.byte	63
 7474 0b55 80       		.byte	-128
 7475 0b56 00       		.byte	0
 7476 0b57 00       		.byte	0
 7477 0b58 00       		.byte	0
 7478 0b59 00       		.byte	0
 7479 0b5a 00       		.byte	0
 7480 0b5b 00       		.byte	0
 7481 0b5c 00       		.byte	0
 7482 0b5d 00       		.byte	0
 7483 0b5e 00       		.byte	0
 7484 0b5f 00       		.byte	0
 7485 0b60 00       		.byte	0
 7486 0b61 00       		.byte	0
 7487 0b62 06       		.byte	6
 7488 0b63 00       		.byte	0
 7489 0b64 0C       		.byte	12
 7490 0b65 00       		.byte	0
 7491 0b66 0C       		.byte	12
 7492 0b67 00       		.byte	0
 7493 0b68 0C       		.byte	12
 7494 0b69 00       		.byte	0
 7495 0b6a 0C       		.byte	12
 7496 0b6b 00       		.byte	0
 7497 0b6c 0C       		.byte	12
 7498 0b6d 00       		.byte	0
 7499 0b6e 18       		.byte	24
 7500 0b6f 00       		.byte	0
 7501 0b70 0C       		.byte	12
 7502 0b71 00       		.byte	0
 7503 0b72 0C       		.byte	12
 7504 0b73 00       		.byte	0
 7505 0b74 0C       		.byte	12
 7506 0b75 00       		.byte	0
 7507 0b76 0C       		.byte	12
 7508 0b77 00       		.byte	0
 7509 0b78 06       		.byte	6
 7510 0b79 00       		.byte	0
 7511 0b7a 00       		.byte	0
 7512 0b7b 00       		.byte	0
 7513 0b7c 00       		.byte	0
 7514 0b7d 00       		.byte	0
ARM GAS  D:\Programs\cygwin64\tmp\ccnP8CjY.s 			page 131


 7515 0b7e 00       		.byte	0
 7516 0b7f 00       		.byte	0
 7517 0b80 00       		.byte	0
 7518 0b81 00       		.byte	0
 7519 0b82 06       		.byte	6
 7520 0b83 00       		.byte	0
 7521 0b84 06       		.byte	6
 7522 0b85 00       		.byte	0
 7523 0b86 06       		.byte	6
 7524 0b87 00       		.byte	0
 7525 0b88 06       		.byte	6
 7526 0b89 00       		.byte	0
 7527 0b8a 06       		.byte	6
 7528 0b8b 00       		.byte	0
 7529 0b8c 06       		.byte	6
 7530 0b8d 00       		.byte	0
 7531 0b8e 06       		.byte	6
 7532 0b8f 00       		.byte	0
 7533 0b90 06       		.byte	6
 7534 0b91 00       		.byte	0
 7535 0b92 06       		.byte	6
 7536 0b93 00       		.byte	0
 7537 0b94 06       		.byte	6
 7538 0b95 00       		.byte	0
 7539 0b96 06       		.byte	6
 7540 0b97 00       		.byte	0
 7541 0b98 06       		.byte	6
 7542 0b99 00       		.byte	0
 7543 0b9a 00       		.byte	0
 7544 0b9b 00       		.byte	0
 7545 0b9c 00       		.byte	0
 7546 0b9d 00       		.byte	0
 7547 0b9e 00       		.byte	0
 7548 0b9f 00       		.byte	0
 7549 0ba0 00       		.byte	0
 7550 0ba1 00       		.byte	0
 7551 0ba2 0C       		.byte	12
 7552 0ba3 00       		.byte	0
 7553 0ba4 06       		.byte	6
 7554 0ba5 00       		.byte	0
 7555 0ba6 06       		.byte	6
 7556 0ba7 00       		.byte	0
 7557 0ba8 06       		.byte	6
 7558 0ba9 00       		.byte	0
 7559 0baa 06       		.byte	6
 7560 0bab 00       		.byte	0
 7561 0bac 06       		.byte	6
 7562 0bad 00       		.byte	0
 7563 0bae 03       		.byte	3
 7564 0baf 00       		.byte	0
 7565 0bb0 06       		.byte	6
 7566 0bb1 00       		.byte	0
 7567 0bb2 06       		.byte	6
 7568 0bb3 00       		.byte	0
 7569 0bb4 06       		.byte	6
 7570 0bb5 00       		.byte	0
 7571 0bb6 06       		.byte	6
ARM GAS  D:\Programs\cygwin64\tmp\ccnP8CjY.s 			page 132


 7572 0bb7 00       		.byte	0
 7573 0bb8 0C       		.byte	12
 7574 0bb9 00       		.byte	0
 7575 0bba 00       		.byte	0
 7576 0bbb 00       		.byte	0
 7577 0bbc 00       		.byte	0
 7578 0bbd 00       		.byte	0
 7579 0bbe 00       		.byte	0
 7580 0bbf 00       		.byte	0
 7581 0bc0 00       		.byte	0
 7582 0bc1 00       		.byte	0
 7583 0bc2 00       		.byte	0
 7584 0bc3 00       		.byte	0
 7585 0bc4 00       		.byte	0
 7586 0bc5 00       		.byte	0
 7587 0bc6 00       		.byte	0
 7588 0bc7 00       		.byte	0
 7589 0bc8 00       		.byte	0
 7590 0bc9 00       		.byte	0
 7591 0bca 18       		.byte	24
 7592 0bcb 00       		.byte	0
 7593 0bcc 24       		.byte	36
 7594 0bcd 80       		.byte	-128
 7595 0bce 03       		.byte	3
 7596 0bcf 00       		.byte	0
 7597 0bd0 00       		.byte	0
 7598 0bd1 00       		.byte	0
 7599 0bd2 00       		.byte	0
 7600 0bd3 00       		.byte	0
 7601 0bd4 00       		.byte	0
 7602 0bd5 00       		.byte	0
 7603 0bd6 00       		.byte	0
 7604 0bd7 00       		.byte	0
 7605 0bd8 00       		.byte	0
 7606 0bd9 00       		.byte	0
 7607 0bda 00       		.byte	0
 7608 0bdb 00       		.byte	0
 7609 0bdc 00       		.byte	0
 7610 0bdd 00       		.byte	0
 7611 0bde 00       		.byte	0
 7612 0bdf 00       		.byte	0
 7613              		.section	.rodata.Font20_Table,"a"
 7614              		.align	2
 7617              	Font20_Table:
 7618 0000 00       		.byte	0
 7619 0001 00       		.byte	0
 7620 0002 00       		.byte	0
 7621 0003 00       		.byte	0
 7622 0004 00       		.byte	0
 7623 0005 00       		.byte	0
 7624 0006 00       		.byte	0
 7625 0007 00       		.byte	0
 7626 0008 00       		.byte	0
 7627 0009 00       		.byte	0
 7628 000a 00       		.byte	0
 7629 000b 00       		.byte	0
 7630 000c 00       		.byte	0
ARM GAS  D:\Programs\cygwin64\tmp\ccnP8CjY.s 			page 133


 7631 000d 00       		.byte	0
 7632 000e 00       		.byte	0
 7633 000f 00       		.byte	0
 7634 0010 00       		.byte	0
 7635 0011 00       		.byte	0
 7636 0012 00       		.byte	0
 7637 0013 00       		.byte	0
 7638 0014 00       		.byte	0
 7639 0015 00       		.byte	0
 7640 0016 00       		.byte	0
 7641 0017 00       		.byte	0
 7642 0018 00       		.byte	0
 7643 0019 00       		.byte	0
 7644 001a 00       		.byte	0
 7645 001b 00       		.byte	0
 7646 001c 00       		.byte	0
 7647 001d 00       		.byte	0
 7648 001e 00       		.byte	0
 7649 001f 00       		.byte	0
 7650 0020 00       		.byte	0
 7651 0021 00       		.byte	0
 7652 0022 00       		.byte	0
 7653 0023 00       		.byte	0
 7654 0024 00       		.byte	0
 7655 0025 00       		.byte	0
 7656 0026 00       		.byte	0
 7657 0027 00       		.byte	0
 7658 0028 00       		.byte	0
 7659 0029 00       		.byte	0
 7660 002a 07       		.byte	7
 7661 002b 00       		.byte	0
 7662 002c 07       		.byte	7
 7663 002d 00       		.byte	0
 7664 002e 07       		.byte	7
 7665 002f 00       		.byte	0
 7666 0030 07       		.byte	7
 7667 0031 00       		.byte	0
 7668 0032 07       		.byte	7
 7669 0033 00       		.byte	0
 7670 0034 07       		.byte	7
 7671 0035 00       		.byte	0
 7672 0036 07       		.byte	7
 7673 0037 00       		.byte	0
 7674 0038 02       		.byte	2
 7675 0039 00       		.byte	0
 7676 003a 02       		.byte	2
 7677 003b 00       		.byte	0
 7678 003c 00       		.byte	0
 7679 003d 00       		.byte	0
 7680 003e 00       		.byte	0
 7681 003f 00       		.byte	0
 7682 0040 07       		.byte	7
 7683 0041 00       		.byte	0
 7684 0042 07       		.byte	7
 7685 0043 00       		.byte	0
 7686 0044 00       		.byte	0
 7687 0045 00       		.byte	0
ARM GAS  D:\Programs\cygwin64\tmp\ccnP8CjY.s 			page 134


 7688 0046 00       		.byte	0
 7689 0047 00       		.byte	0
 7690 0048 00       		.byte	0
 7691 0049 00       		.byte	0
 7692 004a 00       		.byte	0
 7693 004b 00       		.byte	0
 7694 004c 00       		.byte	0
 7695 004d 00       		.byte	0
 7696 004e 00       		.byte	0
 7697 004f 00       		.byte	0
 7698 0050 00       		.byte	0
 7699 0051 00       		.byte	0
 7700 0052 00       		.byte	0
 7701 0053 00       		.byte	0
 7702 0054 1C       		.byte	28
 7703 0055 E0       		.byte	-32
 7704 0056 1C       		.byte	28
 7705 0057 E0       		.byte	-32
 7706 0058 1C       		.byte	28
 7707 0059 E0       		.byte	-32
 7708 005a 08       		.byte	8
 7709 005b 40       		.byte	64
 7710 005c 08       		.byte	8
 7711 005d 40       		.byte	64
 7712 005e 08       		.byte	8
 7713 005f 40       		.byte	64
 7714 0060 00       		.byte	0
 7715 0061 00       		.byte	0
 7716 0062 00       		.byte	0
 7717 0063 00       		.byte	0
 7718 0064 00       		.byte	0
 7719 0065 00       		.byte	0
 7720 0066 00       		.byte	0
 7721 0067 00       		.byte	0
 7722 0068 00       		.byte	0
 7723 0069 00       		.byte	0
 7724 006a 00       		.byte	0
 7725 006b 00       		.byte	0
 7726 006c 00       		.byte	0
 7727 006d 00       		.byte	0
 7728 006e 00       		.byte	0
 7729 006f 00       		.byte	0
 7730 0070 00       		.byte	0
 7731 0071 00       		.byte	0
 7732 0072 00       		.byte	0
 7733 0073 00       		.byte	0
 7734 0074 00       		.byte	0
 7735 0075 00       		.byte	0
 7736 0076 00       		.byte	0
 7737 0077 00       		.byte	0
 7738 0078 0C       		.byte	12
 7739 0079 C0       		.byte	-64
 7740 007a 0C       		.byte	12
 7741 007b C0       		.byte	-64
 7742 007c 0C       		.byte	12
 7743 007d C0       		.byte	-64
 7744 007e 0C       		.byte	12
ARM GAS  D:\Programs\cygwin64\tmp\ccnP8CjY.s 			page 135


 7745 007f C0       		.byte	-64
 7746 0080 0C       		.byte	12
 7747 0081 C0       		.byte	-64
 7748 0082 3F       		.byte	63
 7749 0083 F0       		.byte	-16
 7750 0084 3F       		.byte	63
 7751 0085 F0       		.byte	-16
 7752 0086 0C       		.byte	12
 7753 0087 C0       		.byte	-64
 7754 0088 0C       		.byte	12
 7755 0089 C0       		.byte	-64
 7756 008a 3F       		.byte	63
 7757 008b F0       		.byte	-16
 7758 008c 3F       		.byte	63
 7759 008d F0       		.byte	-16
 7760 008e 0C       		.byte	12
 7761 008f C0       		.byte	-64
 7762 0090 0C       		.byte	12
 7763 0091 C0       		.byte	-64
 7764 0092 0C       		.byte	12
 7765 0093 C0       		.byte	-64
 7766 0094 0C       		.byte	12
 7767 0095 C0       		.byte	-64
 7768 0096 0C       		.byte	12
 7769 0097 C0       		.byte	-64
 7770 0098 00       		.byte	0
 7771 0099 00       		.byte	0
 7772 009a 00       		.byte	0
 7773 009b 00       		.byte	0
 7774 009c 00       		.byte	0
 7775 009d 00       		.byte	0
 7776 009e 00       		.byte	0
 7777 009f 00       		.byte	0
 7778 00a0 03       		.byte	3
 7779 00a1 00       		.byte	0
 7780 00a2 03       		.byte	3
 7781 00a3 00       		.byte	0
 7782 00a4 07       		.byte	7
 7783 00a5 E0       		.byte	-32
 7784 00a6 0F       		.byte	15
 7785 00a7 E0       		.byte	-32
 7786 00a8 18       		.byte	24
 7787 00a9 60       		.byte	96
 7788 00aa 18       		.byte	24
 7789 00ab 00       		.byte	0
 7790 00ac 1F       		.byte	31
 7791 00ad 00       		.byte	0
 7792 00ae 0F       		.byte	15
 7793 00af C0       		.byte	-64
 7794 00b0 00       		.byte	0
 7795 00b1 E0       		.byte	-32
 7796 00b2 18       		.byte	24
 7797 00b3 60       		.byte	96
 7798 00b4 18       		.byte	24
 7799 00b5 60       		.byte	96
 7800 00b6 1F       		.byte	31
 7801 00b7 C0       		.byte	-64
ARM GAS  D:\Programs\cygwin64\tmp\ccnP8CjY.s 			page 136


 7802 00b8 1F       		.byte	31
 7803 00b9 80       		.byte	-128
 7804 00ba 03       		.byte	3
 7805 00bb 00       		.byte	0
 7806 00bc 03       		.byte	3
 7807 00bd 00       		.byte	0
 7808 00be 03       		.byte	3
 7809 00bf 00       		.byte	0
 7810 00c0 00       		.byte	0
 7811 00c1 00       		.byte	0
 7812 00c2 00       		.byte	0
 7813 00c3 00       		.byte	0
 7814 00c4 00       		.byte	0
 7815 00c5 00       		.byte	0
 7816 00c6 00       		.byte	0
 7817 00c7 00       		.byte	0
 7818 00c8 00       		.byte	0
 7819 00c9 00       		.byte	0
 7820 00ca 1C       		.byte	28
 7821 00cb 00       		.byte	0
 7822 00cc 22       		.byte	34
 7823 00cd 00       		.byte	0
 7824 00ce 22       		.byte	34
 7825 00cf 00       		.byte	0
 7826 00d0 22       		.byte	34
 7827 00d1 00       		.byte	0
 7828 00d2 1C       		.byte	28
 7829 00d3 60       		.byte	96
 7830 00d4 01       		.byte	1
 7831 00d5 E0       		.byte	-32
 7832 00d6 0F       		.byte	15
 7833 00d7 80       		.byte	-128
 7834 00d8 3C       		.byte	60
 7835 00d9 00       		.byte	0
 7836 00da 31       		.byte	49
 7837 00db C0       		.byte	-64
 7838 00dc 02       		.byte	2
 7839 00dd 20       		.byte	32
 7840 00de 02       		.byte	2
 7841 00df 20       		.byte	32
 7842 00e0 02       		.byte	2
 7843 00e1 20       		.byte	32
 7844 00e2 01       		.byte	1
 7845 00e3 C0       		.byte	-64
 7846 00e4 00       		.byte	0
 7847 00e5 00       		.byte	0
 7848 00e6 00       		.byte	0
 7849 00e7 00       		.byte	0
 7850 00e8 00       		.byte	0
 7851 00e9 00       		.byte	0
 7852 00ea 00       		.byte	0
 7853 00eb 00       		.byte	0
 7854 00ec 00       		.byte	0
 7855 00ed 00       		.byte	0
 7856 00ee 00       		.byte	0
 7857 00ef 00       		.byte	0
 7858 00f0 00       		.byte	0
ARM GAS  D:\Programs\cygwin64\tmp\ccnP8CjY.s 			page 137


 7859 00f1 00       		.byte	0
 7860 00f2 00       		.byte	0
 7861 00f3 00       		.byte	0
 7862 00f4 00       		.byte	0
 7863 00f5 00       		.byte	0
 7864 00f6 03       		.byte	3
 7865 00f7 E0       		.byte	-32
 7866 00f8 0F       		.byte	15
 7867 00f9 E0       		.byte	-32
 7868 00fa 0C       		.byte	12
 7869 00fb 00       		.byte	0
 7870 00fc 0C       		.byte	12
 7871 00fd 00       		.byte	0
 7872 00fe 06       		.byte	6
 7873 00ff 00       		.byte	0
 7874 0100 0F       		.byte	15
 7875 0101 30       		.byte	48
 7876 0102 1F       		.byte	31
 7877 0103 F0       		.byte	-16
 7878 0104 19       		.byte	25
 7879 0105 E0       		.byte	-32
 7880 0106 18       		.byte	24
 7881 0107 C0       		.byte	-64
 7882 0108 1F       		.byte	31
 7883 0109 F0       		.byte	-16
 7884 010a 07       		.byte	7
 7885 010b B0       		.byte	-80
 7886 010c 00       		.byte	0
 7887 010d 00       		.byte	0
 7888 010e 00       		.byte	0
 7889 010f 00       		.byte	0
 7890 0110 00       		.byte	0
 7891 0111 00       		.byte	0
 7892 0112 00       		.byte	0
 7893 0113 00       		.byte	0
 7894 0114 00       		.byte	0
 7895 0115 00       		.byte	0
 7896 0116 00       		.byte	0
 7897 0117 00       		.byte	0
 7898 0118 00       		.byte	0
 7899 0119 00       		.byte	0
 7900 011a 00       		.byte	0
 7901 011b 00       		.byte	0
 7902 011c 03       		.byte	3
 7903 011d 80       		.byte	-128
 7904 011e 03       		.byte	3
 7905 011f 80       		.byte	-128
 7906 0120 03       		.byte	3
 7907 0121 80       		.byte	-128
 7908 0122 01       		.byte	1
 7909 0123 00       		.byte	0
 7910 0124 01       		.byte	1
 7911 0125 00       		.byte	0
 7912 0126 01       		.byte	1
 7913 0127 00       		.byte	0
 7914 0128 00       		.byte	0
 7915 0129 00       		.byte	0
ARM GAS  D:\Programs\cygwin64\tmp\ccnP8CjY.s 			page 138


 7916 012a 00       		.byte	0
 7917 012b 00       		.byte	0
 7918 012c 00       		.byte	0
 7919 012d 00       		.byte	0
 7920 012e 00       		.byte	0
 7921 012f 00       		.byte	0
 7922 0130 00       		.byte	0
 7923 0131 00       		.byte	0
 7924 0132 00       		.byte	0
 7925 0133 00       		.byte	0
 7926 0134 00       		.byte	0
 7927 0135 00       		.byte	0
 7928 0136 00       		.byte	0
 7929 0137 00       		.byte	0
 7930 0138 00       		.byte	0
 7931 0139 00       		.byte	0
 7932 013a 00       		.byte	0
 7933 013b 00       		.byte	0
 7934 013c 00       		.byte	0
 7935 013d 00       		.byte	0
 7936 013e 00       		.byte	0
 7937 013f 00       		.byte	0
 7938 0140 00       		.byte	0
 7939 0141 00       		.byte	0
 7940 0142 00       		.byte	0
 7941 0143 C0       		.byte	-64
 7942 0144 00       		.byte	0
 7943 0145 C0       		.byte	-64
 7944 0146 01       		.byte	1
 7945 0147 80       		.byte	-128
 7946 0148 01       		.byte	1
 7947 0149 80       		.byte	-128
 7948 014a 01       		.byte	1
 7949 014b 80       		.byte	-128
 7950 014c 03       		.byte	3
 7951 014d 00       		.byte	0
 7952 014e 03       		.byte	3
 7953 014f 00       		.byte	0
 7954 0150 03       		.byte	3
 7955 0151 00       		.byte	0
 7956 0152 03       		.byte	3
 7957 0153 00       		.byte	0
 7958 0154 03       		.byte	3
 7959 0155 00       		.byte	0
 7960 0156 03       		.byte	3
 7961 0157 00       		.byte	0
 7962 0158 01       		.byte	1
 7963 0159 80       		.byte	-128
 7964 015a 01       		.byte	1
 7965 015b 80       		.byte	-128
 7966 015c 01       		.byte	1
 7967 015d 80       		.byte	-128
 7968 015e 00       		.byte	0
 7969 015f C0       		.byte	-64
 7970 0160 00       		.byte	0
 7971 0161 C0       		.byte	-64
 7972 0162 00       		.byte	0
ARM GAS  D:\Programs\cygwin64\tmp\ccnP8CjY.s 			page 139


 7973 0163 00       		.byte	0
 7974 0164 00       		.byte	0
 7975 0165 00       		.byte	0
 7976 0166 00       		.byte	0
 7977 0167 00       		.byte	0
 7978 0168 00       		.byte	0
 7979 0169 00       		.byte	0
 7980 016a 0C       		.byte	12
 7981 016b 00       		.byte	0
 7982 016c 0C       		.byte	12
 7983 016d 00       		.byte	0
 7984 016e 06       		.byte	6
 7985 016f 00       		.byte	0
 7986 0170 06       		.byte	6
 7987 0171 00       		.byte	0
 7988 0172 06       		.byte	6
 7989 0173 00       		.byte	0
 7990 0174 03       		.byte	3
 7991 0175 00       		.byte	0
 7992 0176 03       		.byte	3
 7993 0177 00       		.byte	0
 7994 0178 03       		.byte	3
 7995 0179 00       		.byte	0
 7996 017a 03       		.byte	3
 7997 017b 00       		.byte	0
 7998 017c 03       		.byte	3
 7999 017d 00       		.byte	0
 8000 017e 03       		.byte	3
 8001 017f 00       		.byte	0
 8002 0180 06       		.byte	6
 8003 0181 00       		.byte	0
 8004 0182 06       		.byte	6
 8005 0183 00       		.byte	0
 8006 0184 06       		.byte	6
 8007 0185 00       		.byte	0
 8008 0186 0C       		.byte	12
 8009 0187 00       		.byte	0
 8010 0188 0C       		.byte	12
 8011 0189 00       		.byte	0
 8012 018a 00       		.byte	0
 8013 018b 00       		.byte	0
 8014 018c 00       		.byte	0
 8015 018d 00       		.byte	0
 8016 018e 00       		.byte	0
 8017 018f 00       		.byte	0
 8018 0190 00       		.byte	0
 8019 0191 00       		.byte	0
 8020 0192 03       		.byte	3
 8021 0193 00       		.byte	0
 8022 0194 03       		.byte	3
 8023 0195 00       		.byte	0
 8024 0196 03       		.byte	3
 8025 0197 00       		.byte	0
 8026 0198 1B       		.byte	27
 8027 0199 60       		.byte	96
 8028 019a 1F       		.byte	31
 8029 019b E0       		.byte	-32
ARM GAS  D:\Programs\cygwin64\tmp\ccnP8CjY.s 			page 140


 8030 019c 07       		.byte	7
 8031 019d 80       		.byte	-128
 8032 019e 07       		.byte	7
 8033 019f 80       		.byte	-128
 8034 01a0 0F       		.byte	15
 8035 01a1 C0       		.byte	-64
 8036 01a2 0C       		.byte	12
 8037 01a3 C0       		.byte	-64
 8038 01a4 00       		.byte	0
 8039 01a5 00       		.byte	0
 8040 01a6 00       		.byte	0
 8041 01a7 00       		.byte	0
 8042 01a8 00       		.byte	0
 8043 01a9 00       		.byte	0
 8044 01aa 00       		.byte	0
 8045 01ab 00       		.byte	0
 8046 01ac 00       		.byte	0
 8047 01ad 00       		.byte	0
 8048 01ae 00       		.byte	0
 8049 01af 00       		.byte	0
 8050 01b0 00       		.byte	0
 8051 01b1 00       		.byte	0
 8052 01b2 00       		.byte	0
 8053 01b3 00       		.byte	0
 8054 01b4 00       		.byte	0
 8055 01b5 00       		.byte	0
 8056 01b6 00       		.byte	0
 8057 01b7 00       		.byte	0
 8058 01b8 00       		.byte	0
 8059 01b9 00       		.byte	0
 8060 01ba 00       		.byte	0
 8061 01bb 00       		.byte	0
 8062 01bc 00       		.byte	0
 8063 01bd 00       		.byte	0
 8064 01be 03       		.byte	3
 8065 01bf 00       		.byte	0
 8066 01c0 03       		.byte	3
 8067 01c1 00       		.byte	0
 8068 01c2 03       		.byte	3
 8069 01c3 00       		.byte	0
 8070 01c4 03       		.byte	3
 8071 01c5 00       		.byte	0
 8072 01c6 3F       		.byte	63
 8073 01c7 F0       		.byte	-16
 8074 01c8 3F       		.byte	63
 8075 01c9 F0       		.byte	-16
 8076 01ca 03       		.byte	3
 8077 01cb 00       		.byte	0
 8078 01cc 03       		.byte	3
 8079 01cd 00       		.byte	0
 8080 01ce 03       		.byte	3
 8081 01cf 00       		.byte	0
 8082 01d0 03       		.byte	3
 8083 01d1 00       		.byte	0
 8084 01d2 00       		.byte	0
 8085 01d3 00       		.byte	0
 8086 01d4 00       		.byte	0
ARM GAS  D:\Programs\cygwin64\tmp\ccnP8CjY.s 			page 141


 8087 01d5 00       		.byte	0
 8088 01d6 00       		.byte	0
 8089 01d7 00       		.byte	0
 8090 01d8 00       		.byte	0
 8091 01d9 00       		.byte	0
 8092 01da 00       		.byte	0
 8093 01db 00       		.byte	0
 8094 01dc 00       		.byte	0
 8095 01dd 00       		.byte	0
 8096 01de 00       		.byte	0
 8097 01df 00       		.byte	0
 8098 01e0 00       		.byte	0
 8099 01e1 00       		.byte	0
 8100 01e2 00       		.byte	0
 8101 01e3 00       		.byte	0
 8102 01e4 00       		.byte	0
 8103 01e5 00       		.byte	0
 8104 01e6 00       		.byte	0
 8105 01e7 00       		.byte	0
 8106 01e8 00       		.byte	0
 8107 01e9 00       		.byte	0
 8108 01ea 00       		.byte	0
 8109 01eb 00       		.byte	0
 8110 01ec 00       		.byte	0
 8111 01ed 00       		.byte	0
 8112 01ee 00       		.byte	0
 8113 01ef 00       		.byte	0
 8114 01f0 00       		.byte	0
 8115 01f1 00       		.byte	0
 8116 01f2 00       		.byte	0
 8117 01f3 00       		.byte	0
 8118 01f4 00       		.byte	0
 8119 01f5 00       		.byte	0
 8120 01f6 03       		.byte	3
 8121 01f7 80       		.byte	-128
 8122 01f8 03       		.byte	3
 8123 01f9 00       		.byte	0
 8124 01fa 03       		.byte	3
 8125 01fb 00       		.byte	0
 8126 01fc 06       		.byte	6
 8127 01fd 00       		.byte	0
 8128 01fe 06       		.byte	6
 8129 01ff 00       		.byte	0
 8130 0200 04       		.byte	4
 8131 0201 00       		.byte	0
 8132 0202 00       		.byte	0
 8133 0203 00       		.byte	0
 8134 0204 00       		.byte	0
 8135 0205 00       		.byte	0
 8136 0206 00       		.byte	0
 8137 0207 00       		.byte	0
 8138 0208 00       		.byte	0
 8139 0209 00       		.byte	0
 8140 020a 00       		.byte	0
 8141 020b 00       		.byte	0
 8142 020c 00       		.byte	0
 8143 020d 00       		.byte	0
ARM GAS  D:\Programs\cygwin64\tmp\ccnP8CjY.s 			page 142


 8144 020e 00       		.byte	0
 8145 020f 00       		.byte	0
 8146 0210 00       		.byte	0
 8147 0211 00       		.byte	0
 8148 0212 00       		.byte	0
 8149 0213 00       		.byte	0
 8150 0214 00       		.byte	0
 8151 0215 00       		.byte	0
 8152 0216 3F       		.byte	63
 8153 0217 E0       		.byte	-32
 8154 0218 3F       		.byte	63
 8155 0219 E0       		.byte	-32
 8156 021a 00       		.byte	0
 8157 021b 00       		.byte	0
 8158 021c 00       		.byte	0
 8159 021d 00       		.byte	0
 8160 021e 00       		.byte	0
 8161 021f 00       		.byte	0
 8162 0220 00       		.byte	0
 8163 0221 00       		.byte	0
 8164 0222 00       		.byte	0
 8165 0223 00       		.byte	0
 8166 0224 00       		.byte	0
 8167 0225 00       		.byte	0
 8168 0226 00       		.byte	0
 8169 0227 00       		.byte	0
 8170 0228 00       		.byte	0
 8171 0229 00       		.byte	0
 8172 022a 00       		.byte	0
 8173 022b 00       		.byte	0
 8174 022c 00       		.byte	0
 8175 022d 00       		.byte	0
 8176 022e 00       		.byte	0
 8177 022f 00       		.byte	0
 8178 0230 00       		.byte	0
 8179 0231 00       		.byte	0
 8180 0232 00       		.byte	0
 8181 0233 00       		.byte	0
 8182 0234 00       		.byte	0
 8183 0235 00       		.byte	0
 8184 0236 00       		.byte	0
 8185 0237 00       		.byte	0
 8186 0238 00       		.byte	0
 8187 0239 00       		.byte	0
 8188 023a 00       		.byte	0
 8189 023b 00       		.byte	0
 8190 023c 00       		.byte	0
 8191 023d 00       		.byte	0
 8192 023e 00       		.byte	0
 8193 023f 00       		.byte	0
 8194 0240 00       		.byte	0
 8195 0241 00       		.byte	0
 8196 0242 00       		.byte	0
 8197 0243 00       		.byte	0
 8198 0244 00       		.byte	0
 8199 0245 00       		.byte	0
 8200 0246 03       		.byte	3
ARM GAS  D:\Programs\cygwin64\tmp\ccnP8CjY.s 			page 143


 8201 0247 80       		.byte	-128
 8202 0248 03       		.byte	3
 8203 0249 80       		.byte	-128
 8204 024a 03       		.byte	3
 8205 024b 80       		.byte	-128
 8206 024c 00       		.byte	0
 8207 024d 00       		.byte	0
 8208 024e 00       		.byte	0
 8209 024f 00       		.byte	0
 8210 0250 00       		.byte	0
 8211 0251 00       		.byte	0
 8212 0252 00       		.byte	0
 8213 0253 00       		.byte	0
 8214 0254 00       		.byte	0
 8215 0255 00       		.byte	0
 8216 0256 00       		.byte	0
 8217 0257 00       		.byte	0
 8218 0258 00       		.byte	0
 8219 0259 60       		.byte	96
 8220 025a 00       		.byte	0
 8221 025b 60       		.byte	96
 8222 025c 00       		.byte	0
 8223 025d C0       		.byte	-64
 8224 025e 00       		.byte	0
 8225 025f C0       		.byte	-64
 8226 0260 00       		.byte	0
 8227 0261 C0       		.byte	-64
 8228 0262 01       		.byte	1
 8229 0263 80       		.byte	-128
 8230 0264 01       		.byte	1
 8231 0265 80       		.byte	-128
 8232 0266 03       		.byte	3
 8233 0267 00       		.byte	0
 8234 0268 03       		.byte	3
 8235 0269 00       		.byte	0
 8236 026a 06       		.byte	6
 8237 026b 00       		.byte	0
 8238 026c 06       		.byte	6
 8239 026d 00       		.byte	0
 8240 026e 0C       		.byte	12
 8241 026f 00       		.byte	0
 8242 0270 0C       		.byte	12
 8243 0271 00       		.byte	0
 8244 0272 0C       		.byte	12
 8245 0273 00       		.byte	0
 8246 0274 18       		.byte	24
 8247 0275 00       		.byte	0
 8248 0276 18       		.byte	24
 8249 0277 00       		.byte	0
 8250 0278 00       		.byte	0
 8251 0279 00       		.byte	0
 8252 027a 00       		.byte	0
 8253 027b 00       		.byte	0
 8254 027c 00       		.byte	0
 8255 027d 00       		.byte	0
 8256 027e 00       		.byte	0
 8257 027f 00       		.byte	0
ARM GAS  D:\Programs\cygwin64\tmp\ccnP8CjY.s 			page 144


 8258 0280 00       		.byte	0
 8259 0281 00       		.byte	0
 8260 0282 0F       		.byte	15
 8261 0283 80       		.byte	-128
 8262 0284 1F       		.byte	31
 8263 0285 C0       		.byte	-64
 8264 0286 18       		.byte	24
 8265 0287 C0       		.byte	-64
 8266 0288 30       		.byte	48
 8267 0289 60       		.byte	96
 8268 028a 30       		.byte	48
 8269 028b 60       		.byte	96
 8270 028c 30       		.byte	48
 8271 028d 60       		.byte	96
 8272 028e 30       		.byte	48
 8273 028f 60       		.byte	96
 8274 0290 30       		.byte	48
 8275 0291 60       		.byte	96
 8276 0292 30       		.byte	48
 8277 0293 60       		.byte	96
 8278 0294 30       		.byte	48
 8279 0295 60       		.byte	96
 8280 0296 18       		.byte	24
 8281 0297 C0       		.byte	-64
 8282 0298 1F       		.byte	31
 8283 0299 C0       		.byte	-64
 8284 029a 0F       		.byte	15
 8285 029b 80       		.byte	-128
 8286 029c 00       		.byte	0
 8287 029d 00       		.byte	0
 8288 029e 00       		.byte	0
 8289 029f 00       		.byte	0
 8290 02a0 00       		.byte	0
 8291 02a1 00       		.byte	0
 8292 02a2 00       		.byte	0
 8293 02a3 00       		.byte	0
 8294 02a4 00       		.byte	0
 8295 02a5 00       		.byte	0
 8296 02a6 00       		.byte	0
 8297 02a7 00       		.byte	0
 8298 02a8 00       		.byte	0
 8299 02a9 00       		.byte	0
 8300 02aa 03       		.byte	3
 8301 02ab 00       		.byte	0
 8302 02ac 1F       		.byte	31
 8303 02ad 00       		.byte	0
 8304 02ae 1F       		.byte	31
 8305 02af 00       		.byte	0
 8306 02b0 03       		.byte	3
 8307 02b1 00       		.byte	0
 8308 02b2 03       		.byte	3
 8309 02b3 00       		.byte	0
 8310 02b4 03       		.byte	3
 8311 02b5 00       		.byte	0
 8312 02b6 03       		.byte	3
 8313 02b7 00       		.byte	0
 8314 02b8 03       		.byte	3
ARM GAS  D:\Programs\cygwin64\tmp\ccnP8CjY.s 			page 145


 8315 02b9 00       		.byte	0
 8316 02ba 03       		.byte	3
 8317 02bb 00       		.byte	0
 8318 02bc 03       		.byte	3
 8319 02bd 00       		.byte	0
 8320 02be 03       		.byte	3
 8321 02bf 00       		.byte	0
 8322 02c0 1F       		.byte	31
 8323 02c1 E0       		.byte	-32
 8324 02c2 1F       		.byte	31
 8325 02c3 E0       		.byte	-32
 8326 02c4 00       		.byte	0
 8327 02c5 00       		.byte	0
 8328 02c6 00       		.byte	0
 8329 02c7 00       		.byte	0
 8330 02c8 00       		.byte	0
 8331 02c9 00       		.byte	0
 8332 02ca 00       		.byte	0
 8333 02cb 00       		.byte	0
 8334 02cc 00       		.byte	0
 8335 02cd 00       		.byte	0
 8336 02ce 00       		.byte	0
 8337 02cf 00       		.byte	0
 8338 02d0 00       		.byte	0
 8339 02d1 00       		.byte	0
 8340 02d2 0F       		.byte	15
 8341 02d3 80       		.byte	-128
 8342 02d4 1F       		.byte	31
 8343 02d5 C0       		.byte	-64
 8344 02d6 38       		.byte	56
 8345 02d7 E0       		.byte	-32
 8346 02d8 30       		.byte	48
 8347 02d9 60       		.byte	96
 8348 02da 00       		.byte	0
 8349 02db 60       		.byte	96
 8350 02dc 00       		.byte	0
 8351 02dd C0       		.byte	-64
 8352 02de 01       		.byte	1
 8353 02df 80       		.byte	-128
 8354 02e0 03       		.byte	3
 8355 02e1 00       		.byte	0
 8356 02e2 06       		.byte	6
 8357 02e3 00       		.byte	0
 8358 02e4 0C       		.byte	12
 8359 02e5 00       		.byte	0
 8360 02e6 18       		.byte	24
 8361 02e7 00       		.byte	0
 8362 02e8 3F       		.byte	63
 8363 02e9 E0       		.byte	-32
 8364 02ea 3F       		.byte	63
 8365 02eb E0       		.byte	-32
 8366 02ec 00       		.byte	0
 8367 02ed 00       		.byte	0
 8368 02ee 00       		.byte	0
 8369 02ef 00       		.byte	0
 8370 02f0 00       		.byte	0
 8371 02f1 00       		.byte	0
ARM GAS  D:\Programs\cygwin64\tmp\ccnP8CjY.s 			page 146


 8372 02f2 00       		.byte	0
 8373 02f3 00       		.byte	0
 8374 02f4 00       		.byte	0
 8375 02f5 00       		.byte	0
 8376 02f6 00       		.byte	0
 8377 02f7 00       		.byte	0
 8378 02f8 00       		.byte	0
 8379 02f9 00       		.byte	0
 8380 02fa 0F       		.byte	15
 8381 02fb 80       		.byte	-128
 8382 02fc 3F       		.byte	63
 8383 02fd C0       		.byte	-64
 8384 02fe 30       		.byte	48
 8385 02ff E0       		.byte	-32
 8386 0300 00       		.byte	0
 8387 0301 60       		.byte	96
 8388 0302 00       		.byte	0
 8389 0303 E0       		.byte	-32
 8390 0304 07       		.byte	7
 8391 0305 C0       		.byte	-64
 8392 0306 07       		.byte	7
 8393 0307 C0       		.byte	-64
 8394 0308 00       		.byte	0
 8395 0309 E0       		.byte	-32
 8396 030a 00       		.byte	0
 8397 030b 60       		.byte	96
 8398 030c 00       		.byte	0
 8399 030d 60       		.byte	96
 8400 030e 60       		.byte	96
 8401 030f E0       		.byte	-32
 8402 0310 7F       		.byte	127
 8403 0311 C0       		.byte	-64
 8404 0312 3F       		.byte	63
 8405 0313 80       		.byte	-128
 8406 0314 00       		.byte	0
 8407 0315 00       		.byte	0
 8408 0316 00       		.byte	0
 8409 0317 00       		.byte	0
 8410 0318 00       		.byte	0
 8411 0319 00       		.byte	0
 8412 031a 00       		.byte	0
 8413 031b 00       		.byte	0
 8414 031c 00       		.byte	0
 8415 031d 00       		.byte	0
 8416 031e 00       		.byte	0
 8417 031f 00       		.byte	0
 8418 0320 00       		.byte	0
 8419 0321 00       		.byte	0
 8420 0322 01       		.byte	1
 8421 0323 C0       		.byte	-64
 8422 0324 03       		.byte	3
 8423 0325 C0       		.byte	-64
 8424 0326 03       		.byte	3
 8425 0327 C0       		.byte	-64
 8426 0328 06       		.byte	6
 8427 0329 C0       		.byte	-64
 8428 032a 0C       		.byte	12
ARM GAS  D:\Programs\cygwin64\tmp\ccnP8CjY.s 			page 147


 8429 032b C0       		.byte	-64
 8430 032c 0C       		.byte	12
 8431 032d C0       		.byte	-64
 8432 032e 18       		.byte	24
 8433 032f C0       		.byte	-64
 8434 0330 30       		.byte	48
 8435 0331 C0       		.byte	-64
 8436 0332 3F       		.byte	63
 8437 0333 E0       		.byte	-32
 8438 0334 3F       		.byte	63
 8439 0335 E0       		.byte	-32
 8440 0336 00       		.byte	0
 8441 0337 C0       		.byte	-64
 8442 0338 03       		.byte	3
 8443 0339 E0       		.byte	-32
 8444 033a 03       		.byte	3
 8445 033b E0       		.byte	-32
 8446 033c 00       		.byte	0
 8447 033d 00       		.byte	0
 8448 033e 00       		.byte	0
 8449 033f 00       		.byte	0
 8450 0340 00       		.byte	0
 8451 0341 00       		.byte	0
 8452 0342 00       		.byte	0
 8453 0343 00       		.byte	0
 8454 0344 00       		.byte	0
 8455 0345 00       		.byte	0
 8456 0346 00       		.byte	0
 8457 0347 00       		.byte	0
 8458 0348 00       		.byte	0
 8459 0349 00       		.byte	0
 8460 034a 1F       		.byte	31
 8461 034b C0       		.byte	-64
 8462 034c 1F       		.byte	31
 8463 034d C0       		.byte	-64
 8464 034e 18       		.byte	24
 8465 034f 00       		.byte	0
 8466 0350 18       		.byte	24
 8467 0351 00       		.byte	0
 8468 0352 1F       		.byte	31
 8469 0353 80       		.byte	-128
 8470 0354 1F       		.byte	31
 8471 0355 C0       		.byte	-64
 8472 0356 18       		.byte	24
 8473 0357 E0       		.byte	-32
 8474 0358 00       		.byte	0
 8475 0359 60       		.byte	96
 8476 035a 00       		.byte	0
 8477 035b 60       		.byte	96
 8478 035c 00       		.byte	0
 8479 035d 60       		.byte	96
 8480 035e 30       		.byte	48
 8481 035f E0       		.byte	-32
 8482 0360 3F       		.byte	63
 8483 0361 C0       		.byte	-64
 8484 0362 1F       		.byte	31
 8485 0363 80       		.byte	-128
ARM GAS  D:\Programs\cygwin64\tmp\ccnP8CjY.s 			page 148


 8486 0364 00       		.byte	0
 8487 0365 00       		.byte	0
 8488 0366 00       		.byte	0
 8489 0367 00       		.byte	0
 8490 0368 00       		.byte	0
 8491 0369 00       		.byte	0
 8492 036a 00       		.byte	0
 8493 036b 00       		.byte	0
 8494 036c 00       		.byte	0
 8495 036d 00       		.byte	0
 8496 036e 00       		.byte	0
 8497 036f 00       		.byte	0
 8498 0370 00       		.byte	0
 8499 0371 00       		.byte	0
 8500 0372 03       		.byte	3
 8501 0373 E0       		.byte	-32
 8502 0374 0F       		.byte	15
 8503 0375 E0       		.byte	-32
 8504 0376 1E       		.byte	30
 8505 0377 00       		.byte	0
 8506 0378 18       		.byte	24
 8507 0379 00       		.byte	0
 8508 037a 38       		.byte	56
 8509 037b 00       		.byte	0
 8510 037c 37       		.byte	55
 8511 037d 80       		.byte	-128
 8512 037e 3F       		.byte	63
 8513 037f C0       		.byte	-64
 8514 0380 38       		.byte	56
 8515 0381 E0       		.byte	-32
 8516 0382 30       		.byte	48
 8517 0383 60       		.byte	96
 8518 0384 30       		.byte	48
 8519 0385 60       		.byte	96
 8520 0386 18       		.byte	24
 8521 0387 E0       		.byte	-32
 8522 0388 1F       		.byte	31
 8523 0389 C0       		.byte	-64
 8524 038a 07       		.byte	7
 8525 038b 80       		.byte	-128
 8526 038c 00       		.byte	0
 8527 038d 00       		.byte	0
 8528 038e 00       		.byte	0
 8529 038f 00       		.byte	0
 8530 0390 00       		.byte	0
 8531 0391 00       		.byte	0
 8532 0392 00       		.byte	0
 8533 0393 00       		.byte	0
 8534 0394 00       		.byte	0
 8535 0395 00       		.byte	0
 8536 0396 00       		.byte	0
 8537 0397 00       		.byte	0
 8538 0398 00       		.byte	0
 8539 0399 00       		.byte	0
 8540 039a 3F       		.byte	63
 8541 039b E0       		.byte	-32
 8542 039c 3F       		.byte	63
ARM GAS  D:\Programs\cygwin64\tmp\ccnP8CjY.s 			page 149


 8543 039d E0       		.byte	-32
 8544 039e 30       		.byte	48
 8545 039f 60       		.byte	96
 8546 03a0 00       		.byte	0
 8547 03a1 60       		.byte	96
 8548 03a2 00       		.byte	0
 8549 03a3 C0       		.byte	-64
 8550 03a4 00       		.byte	0
 8551 03a5 C0       		.byte	-64
 8552 03a6 00       		.byte	0
 8553 03a7 C0       		.byte	-64
 8554 03a8 01       		.byte	1
 8555 03a9 80       		.byte	-128
 8556 03aa 01       		.byte	1
 8557 03ab 80       		.byte	-128
 8558 03ac 01       		.byte	1
 8559 03ad 80       		.byte	-128
 8560 03ae 03       		.byte	3
 8561 03af 00       		.byte	0
 8562 03b0 03       		.byte	3
 8563 03b1 00       		.byte	0
 8564 03b2 03       		.byte	3
 8565 03b3 00       		.byte	0
 8566 03b4 00       		.byte	0
 8567 03b5 00       		.byte	0
 8568 03b6 00       		.byte	0
 8569 03b7 00       		.byte	0
 8570 03b8 00       		.byte	0
 8571 03b9 00       		.byte	0
 8572 03ba 00       		.byte	0
 8573 03bb 00       		.byte	0
 8574 03bc 00       		.byte	0
 8575 03bd 00       		.byte	0
 8576 03be 00       		.byte	0
 8577 03bf 00       		.byte	0
 8578 03c0 00       		.byte	0
 8579 03c1 00       		.byte	0
 8580 03c2 0F       		.byte	15
 8581 03c3 80       		.byte	-128
 8582 03c4 1F       		.byte	31
 8583 03c5 C0       		.byte	-64
 8584 03c6 38       		.byte	56
 8585 03c7 E0       		.byte	-32
 8586 03c8 30       		.byte	48
 8587 03c9 60       		.byte	96
 8588 03ca 38       		.byte	56
 8589 03cb E0       		.byte	-32
 8590 03cc 1F       		.byte	31
 8591 03cd C0       		.byte	-64
 8592 03ce 1F       		.byte	31
 8593 03cf C0       		.byte	-64
 8594 03d0 38       		.byte	56
 8595 03d1 E0       		.byte	-32
 8596 03d2 30       		.byte	48
 8597 03d3 60       		.byte	96
 8598 03d4 30       		.byte	48
 8599 03d5 60       		.byte	96
ARM GAS  D:\Programs\cygwin64\tmp\ccnP8CjY.s 			page 150


 8600 03d6 38       		.byte	56
 8601 03d7 E0       		.byte	-32
 8602 03d8 1F       		.byte	31
 8603 03d9 C0       		.byte	-64
 8604 03da 0F       		.byte	15
 8605 03db 80       		.byte	-128
 8606 03dc 00       		.byte	0
 8607 03dd 00       		.byte	0
 8608 03de 00       		.byte	0
 8609 03df 00       		.byte	0
 8610 03e0 00       		.byte	0
 8611 03e1 00       		.byte	0
 8612 03e2 00       		.byte	0
 8613 03e3 00       		.byte	0
 8614 03e4 00       		.byte	0
 8615 03e5 00       		.byte	0
 8616 03e6 00       		.byte	0
 8617 03e7 00       		.byte	0
 8618 03e8 00       		.byte	0
 8619 03e9 00       		.byte	0
 8620 03ea 0F       		.byte	15
 8621 03eb 00       		.byte	0
 8622 03ec 1F       		.byte	31
 8623 03ed C0       		.byte	-64
 8624 03ee 38       		.byte	56
 8625 03ef C0       		.byte	-64
 8626 03f0 30       		.byte	48
 8627 03f1 60       		.byte	96
 8628 03f2 30       		.byte	48
 8629 03f3 60       		.byte	96
 8630 03f4 38       		.byte	56
 8631 03f5 E0       		.byte	-32
 8632 03f6 1F       		.byte	31
 8633 03f7 E0       		.byte	-32
 8634 03f8 0F       		.byte	15
 8635 03f9 60       		.byte	96
 8636 03fa 00       		.byte	0
 8637 03fb E0       		.byte	-32
 8638 03fc 00       		.byte	0
 8639 03fd C0       		.byte	-64
 8640 03fe 03       		.byte	3
 8641 03ff C0       		.byte	-64
 8642 0400 3F       		.byte	63
 8643 0401 80       		.byte	-128
 8644 0402 3E       		.byte	62
 8645 0403 00       		.byte	0
 8646 0404 00       		.byte	0
 8647 0405 00       		.byte	0
 8648 0406 00       		.byte	0
 8649 0407 00       		.byte	0
 8650 0408 00       		.byte	0
 8651 0409 00       		.byte	0
 8652 040a 00       		.byte	0
 8653 040b 00       		.byte	0
 8654 040c 00       		.byte	0
 8655 040d 00       		.byte	0
 8656 040e 00       		.byte	0
ARM GAS  D:\Programs\cygwin64\tmp\ccnP8CjY.s 			page 151


 8657 040f 00       		.byte	0
 8658 0410 00       		.byte	0
 8659 0411 00       		.byte	0
 8660 0412 00       		.byte	0
 8661 0413 00       		.byte	0
 8662 0414 00       		.byte	0
 8663 0415 00       		.byte	0
 8664 0416 00       		.byte	0
 8665 0417 00       		.byte	0
 8666 0418 00       		.byte	0
 8667 0419 00       		.byte	0
 8668 041a 03       		.byte	3
 8669 041b 80       		.byte	-128
 8670 041c 03       		.byte	3
 8671 041d 80       		.byte	-128
 8672 041e 03       		.byte	3
 8673 041f 80       		.byte	-128
 8674 0420 00       		.byte	0
 8675 0421 00       		.byte	0
 8676 0422 00       		.byte	0
 8677 0423 00       		.byte	0
 8678 0424 00       		.byte	0
 8679 0425 00       		.byte	0
 8680 0426 03       		.byte	3
 8681 0427 80       		.byte	-128
 8682 0428 03       		.byte	3
 8683 0429 80       		.byte	-128
 8684 042a 03       		.byte	3
 8685 042b 80       		.byte	-128
 8686 042c 00       		.byte	0
 8687 042d 00       		.byte	0
 8688 042e 00       		.byte	0
 8689 042f 00       		.byte	0
 8690 0430 00       		.byte	0
 8691 0431 00       		.byte	0
 8692 0432 00       		.byte	0
 8693 0433 00       		.byte	0
 8694 0434 00       		.byte	0
 8695 0435 00       		.byte	0
 8696 0436 00       		.byte	0
 8697 0437 00       		.byte	0
 8698 0438 00       		.byte	0
 8699 0439 00       		.byte	0
 8700 043a 00       		.byte	0
 8701 043b 00       		.byte	0
 8702 043c 00       		.byte	0
 8703 043d 00       		.byte	0
 8704 043e 00       		.byte	0
 8705 043f 00       		.byte	0
 8706 0440 00       		.byte	0
 8707 0441 00       		.byte	0
 8708 0442 01       		.byte	1
 8709 0443 C0       		.byte	-64
 8710 0444 01       		.byte	1
 8711 0445 C0       		.byte	-64
 8712 0446 01       		.byte	1
 8713 0447 C0       		.byte	-64
ARM GAS  D:\Programs\cygwin64\tmp\ccnP8CjY.s 			page 152


 8714 0448 00       		.byte	0
 8715 0449 00       		.byte	0
 8716 044a 00       		.byte	0
 8717 044b 00       		.byte	0
 8718 044c 00       		.byte	0
 8719 044d 00       		.byte	0
 8720 044e 03       		.byte	3
 8721 044f 80       		.byte	-128
 8722 0450 03       		.byte	3
 8723 0451 00       		.byte	0
 8724 0452 06       		.byte	6
 8725 0453 00       		.byte	0
 8726 0454 06       		.byte	6
 8727 0455 00       		.byte	0
 8728 0456 04       		.byte	4
 8729 0457 00       		.byte	0
 8730 0458 00       		.byte	0
 8731 0459 00       		.byte	0
 8732 045a 00       		.byte	0
 8733 045b 00       		.byte	0
 8734 045c 00       		.byte	0
 8735 045d 00       		.byte	0
 8736 045e 00       		.byte	0
 8737 045f 00       		.byte	0
 8738 0460 00       		.byte	0
 8739 0461 00       		.byte	0
 8740 0462 00       		.byte	0
 8741 0463 00       		.byte	0
 8742 0464 00       		.byte	0
 8743 0465 00       		.byte	0
 8744 0466 00       		.byte	0
 8745 0467 30       		.byte	48
 8746 0468 00       		.byte	0
 8747 0469 F0       		.byte	-16
 8748 046a 03       		.byte	3
 8749 046b C0       		.byte	-64
 8750 046c 07       		.byte	7
 8751 046d 00       		.byte	0
 8752 046e 1C       		.byte	28
 8753 046f 00       		.byte	0
 8754 0470 78       		.byte	120
 8755 0471 00       		.byte	0
 8756 0472 1C       		.byte	28
 8757 0473 00       		.byte	0
 8758 0474 07       		.byte	7
 8759 0475 00       		.byte	0
 8760 0476 03       		.byte	3
 8761 0477 C0       		.byte	-64
 8762 0478 00       		.byte	0
 8763 0479 F0       		.byte	-16
 8764 047a 00       		.byte	0
 8765 047b 30       		.byte	48
 8766 047c 00       		.byte	0
 8767 047d 00       		.byte	0
 8768 047e 00       		.byte	0
 8769 047f 00       		.byte	0
 8770 0480 00       		.byte	0
ARM GAS  D:\Programs\cygwin64\tmp\ccnP8CjY.s 			page 153


 8771 0481 00       		.byte	0
 8772 0482 00       		.byte	0
 8773 0483 00       		.byte	0
 8774 0484 00       		.byte	0
 8775 0485 00       		.byte	0
 8776 0486 00       		.byte	0
 8777 0487 00       		.byte	0
 8778 0488 00       		.byte	0
 8779 0489 00       		.byte	0
 8780 048a 00       		.byte	0
 8781 048b 00       		.byte	0
 8782 048c 00       		.byte	0
 8783 048d 00       		.byte	0
 8784 048e 00       		.byte	0
 8785 048f 00       		.byte	0
 8786 0490 00       		.byte	0
 8787 0491 00       		.byte	0
 8788 0492 7F       		.byte	127
 8789 0493 F0       		.byte	-16
 8790 0494 7F       		.byte	127
 8791 0495 F0       		.byte	-16
 8792 0496 00       		.byte	0
 8793 0497 00       		.byte	0
 8794 0498 00       		.byte	0
 8795 0499 00       		.byte	0
 8796 049a 7F       		.byte	127
 8797 049b F0       		.byte	-16
 8798 049c 7F       		.byte	127
 8799 049d F0       		.byte	-16
 8800 049e 00       		.byte	0
 8801 049f 00       		.byte	0
 8802 04a0 00       		.byte	0
 8803 04a1 00       		.byte	0
 8804 04a2 00       		.byte	0
 8805 04a3 00       		.byte	0
 8806 04a4 00       		.byte	0
 8807 04a5 00       		.byte	0
 8808 04a6 00       		.byte	0
 8809 04a7 00       		.byte	0
 8810 04a8 00       		.byte	0
 8811 04a9 00       		.byte	0
 8812 04aa 00       		.byte	0
 8813 04ab 00       		.byte	0
 8814 04ac 00       		.byte	0
 8815 04ad 00       		.byte	0
 8816 04ae 00       		.byte	0
 8817 04af 00       		.byte	0
 8818 04b0 00       		.byte	0
 8819 04b1 00       		.byte	0
 8820 04b2 00       		.byte	0
 8821 04b3 00       		.byte	0
 8822 04b4 00       		.byte	0
 8823 04b5 00       		.byte	0
 8824 04b6 30       		.byte	48
 8825 04b7 00       		.byte	0
 8826 04b8 3C       		.byte	60
 8827 04b9 00       		.byte	0
ARM GAS  D:\Programs\cygwin64\tmp\ccnP8CjY.s 			page 154


 8828 04ba 0F       		.byte	15
 8829 04bb 00       		.byte	0
 8830 04bc 03       		.byte	3
 8831 04bd 80       		.byte	-128
 8832 04be 00       		.byte	0
 8833 04bf E0       		.byte	-32
 8834 04c0 00       		.byte	0
 8835 04c1 78       		.byte	120
 8836 04c2 00       		.byte	0
 8837 04c3 E0       		.byte	-32
 8838 04c4 03       		.byte	3
 8839 04c5 80       		.byte	-128
 8840 04c6 0F       		.byte	15
 8841 04c7 00       		.byte	0
 8842 04c8 3C       		.byte	60
 8843 04c9 00       		.byte	0
 8844 04ca 30       		.byte	48
 8845 04cb 00       		.byte	0
 8846 04cc 00       		.byte	0
 8847 04cd 00       		.byte	0
 8848 04ce 00       		.byte	0
 8849 04cf 00       		.byte	0
 8850 04d0 00       		.byte	0
 8851 04d1 00       		.byte	0
 8852 04d2 00       		.byte	0
 8853 04d3 00       		.byte	0
 8854 04d4 00       		.byte	0
 8855 04d5 00       		.byte	0
 8856 04d6 00       		.byte	0
 8857 04d7 00       		.byte	0
 8858 04d8 00       		.byte	0
 8859 04d9 00       		.byte	0
 8860 04da 00       		.byte	0
 8861 04db 00       		.byte	0
 8862 04dc 0F       		.byte	15
 8863 04dd 80       		.byte	-128
 8864 04de 1F       		.byte	31
 8865 04df C0       		.byte	-64
 8866 04e0 18       		.byte	24
 8867 04e1 60       		.byte	96
 8868 04e2 18       		.byte	24
 8869 04e3 60       		.byte	96
 8870 04e4 00       		.byte	0
 8871 04e5 60       		.byte	96
 8872 04e6 01       		.byte	1
 8873 04e7 C0       		.byte	-64
 8874 04e8 03       		.byte	3
 8875 04e9 80       		.byte	-128
 8876 04ea 03       		.byte	3
 8877 04eb 00       		.byte	0
 8878 04ec 00       		.byte	0
 8879 04ed 00       		.byte	0
 8880 04ee 00       		.byte	0
 8881 04ef 00       		.byte	0
 8882 04f0 07       		.byte	7
 8883 04f1 00       		.byte	0
 8884 04f2 07       		.byte	7
ARM GAS  D:\Programs\cygwin64\tmp\ccnP8CjY.s 			page 155


 8885 04f3 00       		.byte	0
 8886 04f4 00       		.byte	0
 8887 04f5 00       		.byte	0
 8888 04f6 00       		.byte	0
 8889 04f7 00       		.byte	0
 8890 04f8 00       		.byte	0
 8891 04f9 00       		.byte	0
 8892 04fa 00       		.byte	0
 8893 04fb 00       		.byte	0
 8894 04fc 00       		.byte	0
 8895 04fd 00       		.byte	0
 8896 04fe 00       		.byte	0
 8897 04ff 00       		.byte	0
 8898 0500 00       		.byte	0
 8899 0501 00       		.byte	0
 8900 0502 03       		.byte	3
 8901 0503 80       		.byte	-128
 8902 0504 0C       		.byte	12
 8903 0505 80       		.byte	-128
 8904 0506 08       		.byte	8
 8905 0507 40       		.byte	64
 8906 0508 10       		.byte	16
 8907 0509 40       		.byte	64
 8908 050a 10       		.byte	16
 8909 050b 40       		.byte	64
 8910 050c 11       		.byte	17
 8911 050d C0       		.byte	-64
 8912 050e 12       		.byte	18
 8913 050f 40       		.byte	64
 8914 0510 12       		.byte	18
 8915 0511 40       		.byte	64
 8916 0512 12       		.byte	18
 8917 0513 40       		.byte	64
 8918 0514 11       		.byte	17
 8919 0515 C0       		.byte	-64
 8920 0516 10       		.byte	16
 8921 0517 00       		.byte	0
 8922 0518 08       		.byte	8
 8923 0519 00       		.byte	0
 8924 051a 08       		.byte	8
 8925 051b 40       		.byte	64
 8926 051c 07       		.byte	7
 8927 051d 80       		.byte	-128
 8928 051e 00       		.byte	0
 8929 051f 00       		.byte	0
 8930 0520 00       		.byte	0
 8931 0521 00       		.byte	0
 8932 0522 00       		.byte	0
 8933 0523 00       		.byte	0
 8934 0524 00       		.byte	0
 8935 0525 00       		.byte	0
 8936 0526 00       		.byte	0
 8937 0527 00       		.byte	0
 8938 0528 00       		.byte	0
 8939 0529 00       		.byte	0
 8940 052a 00       		.byte	0
 8941 052b 00       		.byte	0
ARM GAS  D:\Programs\cygwin64\tmp\ccnP8CjY.s 			page 156


 8942 052c 1F       		.byte	31
 8943 052d 80       		.byte	-128
 8944 052e 1F       		.byte	31
 8945 052f 80       		.byte	-128
 8946 0530 03       		.byte	3
 8947 0531 80       		.byte	-128
 8948 0532 06       		.byte	6
 8949 0533 C0       		.byte	-64
 8950 0534 06       		.byte	6
 8951 0535 C0       		.byte	-64
 8952 0536 0C       		.byte	12
 8953 0537 C0       		.byte	-64
 8954 0538 0C       		.byte	12
 8955 0539 60       		.byte	96
 8956 053a 1F       		.byte	31
 8957 053b E0       		.byte	-32
 8958 053c 1F       		.byte	31
 8959 053d E0       		.byte	-32
 8960 053e 30       		.byte	48
 8961 053f 30       		.byte	48
 8962 0540 78       		.byte	120
 8963 0541 78       		.byte	120
 8964 0542 78       		.byte	120
 8965 0543 78       		.byte	120
 8966 0544 00       		.byte	0
 8967 0545 00       		.byte	0
 8968 0546 00       		.byte	0
 8969 0547 00       		.byte	0
 8970 0548 00       		.byte	0
 8971 0549 00       		.byte	0
 8972 054a 00       		.byte	0
 8973 054b 00       		.byte	0
 8974 054c 00       		.byte	0
 8975 054d 00       		.byte	0
 8976 054e 00       		.byte	0
 8977 054f 00       		.byte	0
 8978 0550 00       		.byte	0
 8979 0551 00       		.byte	0
 8980 0552 00       		.byte	0
 8981 0553 00       		.byte	0
 8982 0554 3F       		.byte	63
 8983 0555 80       		.byte	-128
 8984 0556 3F       		.byte	63
 8985 0557 C0       		.byte	-64
 8986 0558 18       		.byte	24
 8987 0559 60       		.byte	96
 8988 055a 18       		.byte	24
 8989 055b 60       		.byte	96
 8990 055c 18       		.byte	24
 8991 055d E0       		.byte	-32
 8992 055e 1F       		.byte	31
 8993 055f C0       		.byte	-64
 8994 0560 1F       		.byte	31
 8995 0561 E0       		.byte	-32
 8996 0562 18       		.byte	24
 8997 0563 70       		.byte	112
 8998 0564 18       		.byte	24
ARM GAS  D:\Programs\cygwin64\tmp\ccnP8CjY.s 			page 157


 8999 0565 30       		.byte	48
 9000 0566 18       		.byte	24
 9001 0567 30       		.byte	48
 9002 0568 3F       		.byte	63
 9003 0569 F0       		.byte	-16
 9004 056a 3F       		.byte	63
 9005 056b E0       		.byte	-32
 9006 056c 00       		.byte	0
 9007 056d 00       		.byte	0
 9008 056e 00       		.byte	0
 9009 056f 00       		.byte	0
 9010 0570 00       		.byte	0
 9011 0571 00       		.byte	0
 9012 0572 00       		.byte	0
 9013 0573 00       		.byte	0
 9014 0574 00       		.byte	0
 9015 0575 00       		.byte	0
 9016 0576 00       		.byte	0
 9017 0577 00       		.byte	0
 9018 0578 00       		.byte	0
 9019 0579 00       		.byte	0
 9020 057a 00       		.byte	0
 9021 057b 00       		.byte	0
 9022 057c 07       		.byte	7
 9023 057d B0       		.byte	-80
 9024 057e 0F       		.byte	15
 9025 057f F0       		.byte	-16
 9026 0580 1C       		.byte	28
 9027 0581 70       		.byte	112
 9028 0582 38       		.byte	56
 9029 0583 30       		.byte	48
 9030 0584 30       		.byte	48
 9031 0585 00       		.byte	0
 9032 0586 30       		.byte	48
 9033 0587 00       		.byte	0
 9034 0588 30       		.byte	48
 9035 0589 00       		.byte	0
 9036 058a 30       		.byte	48
 9037 058b 00       		.byte	0
 9038 058c 38       		.byte	56
 9039 058d 30       		.byte	48
 9040 058e 1C       		.byte	28
 9041 058f 70       		.byte	112
 9042 0590 0F       		.byte	15
 9043 0591 E0       		.byte	-32
 9044 0592 07       		.byte	7
 9045 0593 C0       		.byte	-64
 9046 0594 00       		.byte	0
 9047 0595 00       		.byte	0
 9048 0596 00       		.byte	0
 9049 0597 00       		.byte	0
 9050 0598 00       		.byte	0
 9051 0599 00       		.byte	0
 9052 059a 00       		.byte	0
 9053 059b 00       		.byte	0
 9054 059c 00       		.byte	0
 9055 059d 00       		.byte	0
ARM GAS  D:\Programs\cygwin64\tmp\ccnP8CjY.s 			page 158


 9056 059e 00       		.byte	0
 9057 059f 00       		.byte	0
 9058 05a0 00       		.byte	0
 9059 05a1 00       		.byte	0
 9060 05a2 00       		.byte	0
 9061 05a3 00       		.byte	0
 9062 05a4 7F       		.byte	127
 9063 05a5 80       		.byte	-128
 9064 05a6 7F       		.byte	127
 9065 05a7 C0       		.byte	-64
 9066 05a8 30       		.byte	48
 9067 05a9 E0       		.byte	-32
 9068 05aa 30       		.byte	48
 9069 05ab 70       		.byte	112
 9070 05ac 30       		.byte	48
 9071 05ad 30       		.byte	48
 9072 05ae 30       		.byte	48
 9073 05af 30       		.byte	48
 9074 05b0 30       		.byte	48
 9075 05b1 30       		.byte	48
 9076 05b2 30       		.byte	48
 9077 05b3 30       		.byte	48
 9078 05b4 30       		.byte	48
 9079 05b5 70       		.byte	112
 9080 05b6 30       		.byte	48
 9081 05b7 E0       		.byte	-32
 9082 05b8 7F       		.byte	127
 9083 05b9 C0       		.byte	-64
 9084 05ba 7F       		.byte	127
 9085 05bb 80       		.byte	-128
 9086 05bc 00       		.byte	0
 9087 05bd 00       		.byte	0
 9088 05be 00       		.byte	0
 9089 05bf 00       		.byte	0
 9090 05c0 00       		.byte	0
 9091 05c1 00       		.byte	0
 9092 05c2 00       		.byte	0
 9093 05c3 00       		.byte	0
 9094 05c4 00       		.byte	0
 9095 05c5 00       		.byte	0
 9096 05c6 00       		.byte	0
 9097 05c7 00       		.byte	0
 9098 05c8 00       		.byte	0
 9099 05c9 00       		.byte	0
 9100 05ca 00       		.byte	0
 9101 05cb 00       		.byte	0
 9102 05cc 3F       		.byte	63
 9103 05cd F0       		.byte	-16
 9104 05ce 3F       		.byte	63
 9105 05cf F0       		.byte	-16
 9106 05d0 18       		.byte	24
 9107 05d1 30       		.byte	48
 9108 05d2 18       		.byte	24
 9109 05d3 30       		.byte	48
 9110 05d4 19       		.byte	25
 9111 05d5 80       		.byte	-128
 9112 05d6 1F       		.byte	31
ARM GAS  D:\Programs\cygwin64\tmp\ccnP8CjY.s 			page 159


 9113 05d7 80       		.byte	-128
 9114 05d8 1F       		.byte	31
 9115 05d9 80       		.byte	-128
 9116 05da 19       		.byte	25
 9117 05db 80       		.byte	-128
 9118 05dc 18       		.byte	24
 9119 05dd 30       		.byte	48
 9120 05de 18       		.byte	24
 9121 05df 30       		.byte	48
 9122 05e0 3F       		.byte	63
 9123 05e1 F0       		.byte	-16
 9124 05e2 3F       		.byte	63
 9125 05e3 F0       		.byte	-16
 9126 05e4 00       		.byte	0
 9127 05e5 00       		.byte	0
 9128 05e6 00       		.byte	0
 9129 05e7 00       		.byte	0
 9130 05e8 00       		.byte	0
 9131 05e9 00       		.byte	0
 9132 05ea 00       		.byte	0
 9133 05eb 00       		.byte	0
 9134 05ec 00       		.byte	0
 9135 05ed 00       		.byte	0
 9136 05ee 00       		.byte	0
 9137 05ef 00       		.byte	0
 9138 05f0 00       		.byte	0
 9139 05f1 00       		.byte	0
 9140 05f2 00       		.byte	0
 9141 05f3 00       		.byte	0
 9142 05f4 3F       		.byte	63
 9143 05f5 F0       		.byte	-16
 9144 05f6 3F       		.byte	63
 9145 05f7 F0       		.byte	-16
 9146 05f8 18       		.byte	24
 9147 05f9 30       		.byte	48
 9148 05fa 18       		.byte	24
 9149 05fb 30       		.byte	48
 9150 05fc 19       		.byte	25
 9151 05fd 80       		.byte	-128
 9152 05fe 1F       		.byte	31
 9153 05ff 80       		.byte	-128
 9154 0600 1F       		.byte	31
 9155 0601 80       		.byte	-128
 9156 0602 19       		.byte	25
 9157 0603 80       		.byte	-128
 9158 0604 18       		.byte	24
 9159 0605 00       		.byte	0
 9160 0606 18       		.byte	24
 9161 0607 00       		.byte	0
 9162 0608 3F       		.byte	63
 9163 0609 00       		.byte	0
 9164 060a 3F       		.byte	63
 9165 060b 00       		.byte	0
 9166 060c 00       		.byte	0
 9167 060d 00       		.byte	0
 9168 060e 00       		.byte	0
 9169 060f 00       		.byte	0
ARM GAS  D:\Programs\cygwin64\tmp\ccnP8CjY.s 			page 160


 9170 0610 00       		.byte	0
 9171 0611 00       		.byte	0
 9172 0612 00       		.byte	0
 9173 0613 00       		.byte	0
 9174 0614 00       		.byte	0
 9175 0615 00       		.byte	0
 9176 0616 00       		.byte	0
 9177 0617 00       		.byte	0
 9178 0618 00       		.byte	0
 9179 0619 00       		.byte	0
 9180 061a 00       		.byte	0
 9181 061b 00       		.byte	0
 9182 061c 07       		.byte	7
 9183 061d B0       		.byte	-80
 9184 061e 1F       		.byte	31
 9185 061f F0       		.byte	-16
 9186 0620 18       		.byte	24
 9187 0621 70       		.byte	112
 9188 0622 30       		.byte	48
 9189 0623 30       		.byte	48
 9190 0624 30       		.byte	48
 9191 0625 00       		.byte	0
 9192 0626 30       		.byte	48
 9193 0627 00       		.byte	0
 9194 0628 31       		.byte	49
 9195 0629 F8       		.byte	-8
 9196 062a 31       		.byte	49
 9197 062b F8       		.byte	-8
 9198 062c 30       		.byte	48
 9199 062d 30       		.byte	48
 9200 062e 18       		.byte	24
 9201 062f 30       		.byte	48
 9202 0630 1F       		.byte	31
 9203 0631 F0       		.byte	-16
 9204 0632 07       		.byte	7
 9205 0633 C0       		.byte	-64
 9206 0634 00       		.byte	0
 9207 0635 00       		.byte	0
 9208 0636 00       		.byte	0
 9209 0637 00       		.byte	0
 9210 0638 00       		.byte	0
 9211 0639 00       		.byte	0
 9212 063a 00       		.byte	0
 9213 063b 00       		.byte	0
 9214 063c 00       		.byte	0
 9215 063d 00       		.byte	0
 9216 063e 00       		.byte	0
 9217 063f 00       		.byte	0
 9218 0640 00       		.byte	0
 9219 0641 00       		.byte	0
 9220 0642 00       		.byte	0
 9221 0643 00       		.byte	0
 9222 0644 3C       		.byte	60
 9223 0645 F0       		.byte	-16
 9224 0646 3C       		.byte	60
 9225 0647 F0       		.byte	-16
 9226 0648 18       		.byte	24
ARM GAS  D:\Programs\cygwin64\tmp\ccnP8CjY.s 			page 161


 9227 0649 60       		.byte	96
 9228 064a 18       		.byte	24
 9229 064b 60       		.byte	96
 9230 064c 18       		.byte	24
 9231 064d 60       		.byte	96
 9232 064e 1F       		.byte	31
 9233 064f E0       		.byte	-32
 9234 0650 1F       		.byte	31
 9235 0651 E0       		.byte	-32
 9236 0652 18       		.byte	24
 9237 0653 60       		.byte	96
 9238 0654 18       		.byte	24
 9239 0655 60       		.byte	96
 9240 0656 18       		.byte	24
 9241 0657 60       		.byte	96
 9242 0658 3C       		.byte	60
 9243 0659 F0       		.byte	-16
 9244 065a 3C       		.byte	60
 9245 065b F0       		.byte	-16
 9246 065c 00       		.byte	0
 9247 065d 00       		.byte	0
 9248 065e 00       		.byte	0
 9249 065f 00       		.byte	0
 9250 0660 00       		.byte	0
 9251 0661 00       		.byte	0
 9252 0662 00       		.byte	0
 9253 0663 00       		.byte	0
 9254 0664 00       		.byte	0
 9255 0665 00       		.byte	0
 9256 0666 00       		.byte	0
 9257 0667 00       		.byte	0
 9258 0668 00       		.byte	0
 9259 0669 00       		.byte	0
 9260 066a 00       		.byte	0
 9261 066b 00       		.byte	0
 9262 066c 1F       		.byte	31
 9263 066d E0       		.byte	-32
 9264 066e 1F       		.byte	31
 9265 066f E0       		.byte	-32
 9266 0670 03       		.byte	3
 9267 0671 00       		.byte	0
 9268 0672 03       		.byte	3
 9269 0673 00       		.byte	0
 9270 0674 03       		.byte	3
 9271 0675 00       		.byte	0
 9272 0676 03       		.byte	3
 9273 0677 00       		.byte	0
 9274 0678 03       		.byte	3
 9275 0679 00       		.byte	0
 9276 067a 03       		.byte	3
 9277 067b 00       		.byte	0
 9278 067c 03       		.byte	3
 9279 067d 00       		.byte	0
 9280 067e 03       		.byte	3
 9281 067f 00       		.byte	0
 9282 0680 1F       		.byte	31
 9283 0681 E0       		.byte	-32
ARM GAS  D:\Programs\cygwin64\tmp\ccnP8CjY.s 			page 162


 9284 0682 1F       		.byte	31
 9285 0683 E0       		.byte	-32
 9286 0684 00       		.byte	0
 9287 0685 00       		.byte	0
 9288 0686 00       		.byte	0
 9289 0687 00       		.byte	0
 9290 0688 00       		.byte	0
 9291 0689 00       		.byte	0
 9292 068a 00       		.byte	0
 9293 068b 00       		.byte	0
 9294 068c 00       		.byte	0
 9295 068d 00       		.byte	0
 9296 068e 00       		.byte	0
 9297 068f 00       		.byte	0
 9298 0690 00       		.byte	0
 9299 0691 00       		.byte	0
 9300 0692 00       		.byte	0
 9301 0693 00       		.byte	0
 9302 0694 03       		.byte	3
 9303 0695 F8       		.byte	-8
 9304 0696 03       		.byte	3
 9305 0697 F8       		.byte	-8
 9306 0698 00       		.byte	0
 9307 0699 60       		.byte	96
 9308 069a 00       		.byte	0
 9309 069b 60       		.byte	96
 9310 069c 00       		.byte	0
 9311 069d 60       		.byte	96
 9312 069e 00       		.byte	0
 9313 069f 60       		.byte	96
 9314 06a0 30       		.byte	48
 9315 06a1 60       		.byte	96
 9316 06a2 30       		.byte	48
 9317 06a3 60       		.byte	96
 9318 06a4 30       		.byte	48
 9319 06a5 60       		.byte	96
 9320 06a6 30       		.byte	48
 9321 06a7 E0       		.byte	-32
 9322 06a8 3F       		.byte	63
 9323 06a9 C0       		.byte	-64
 9324 06aa 0F       		.byte	15
 9325 06ab 80       		.byte	-128
 9326 06ac 00       		.byte	0
 9327 06ad 00       		.byte	0
 9328 06ae 00       		.byte	0
 9329 06af 00       		.byte	0
 9330 06b0 00       		.byte	0
 9331 06b1 00       		.byte	0
 9332 06b2 00       		.byte	0
 9333 06b3 00       		.byte	0
 9334 06b4 00       		.byte	0
 9335 06b5 00       		.byte	0
 9336 06b6 00       		.byte	0
 9337 06b7 00       		.byte	0
 9338 06b8 00       		.byte	0
 9339 06b9 00       		.byte	0
 9340 06ba 00       		.byte	0
ARM GAS  D:\Programs\cygwin64\tmp\ccnP8CjY.s 			page 163


 9341 06bb 00       		.byte	0
 9342 06bc 3E       		.byte	62
 9343 06bd F8       		.byte	-8
 9344 06be 3E       		.byte	62
 9345 06bf F8       		.byte	-8
 9346 06c0 18       		.byte	24
 9347 06c1 E0       		.byte	-32
 9348 06c2 19       		.byte	25
 9349 06c3 80       		.byte	-128
 9350 06c4 1B       		.byte	27
 9351 06c5 00       		.byte	0
 9352 06c6 1F       		.byte	31
 9353 06c7 00       		.byte	0
 9354 06c8 1D       		.byte	29
 9355 06c9 80       		.byte	-128
 9356 06ca 18       		.byte	24
 9357 06cb C0       		.byte	-64
 9358 06cc 18       		.byte	24
 9359 06cd C0       		.byte	-64
 9360 06ce 18       		.byte	24
 9361 06cf 60       		.byte	96
 9362 06d0 3E       		.byte	62
 9363 06d1 78       		.byte	120
 9364 06d2 3E       		.byte	62
 9365 06d3 38       		.byte	56
 9366 06d4 00       		.byte	0
 9367 06d5 00       		.byte	0
 9368 06d6 00       		.byte	0
 9369 06d7 00       		.byte	0
 9370 06d8 00       		.byte	0
 9371 06d9 00       		.byte	0
 9372 06da 00       		.byte	0
 9373 06db 00       		.byte	0
 9374 06dc 00       		.byte	0
 9375 06dd 00       		.byte	0
 9376 06de 00       		.byte	0
 9377 06df 00       		.byte	0
 9378 06e0 00       		.byte	0
 9379 06e1 00       		.byte	0
 9380 06e2 00       		.byte	0
 9381 06e3 00       		.byte	0
 9382 06e4 3F       		.byte	63
 9383 06e5 00       		.byte	0
 9384 06e6 3F       		.byte	63
 9385 06e7 00       		.byte	0
 9386 06e8 0C       		.byte	12
 9387 06e9 00       		.byte	0
 9388 06ea 0C       		.byte	12
 9389 06eb 00       		.byte	0
 9390 06ec 0C       		.byte	12
 9391 06ed 00       		.byte	0
 9392 06ee 0C       		.byte	12
 9393 06ef 00       		.byte	0
 9394 06f0 0C       		.byte	12
 9395 06f1 00       		.byte	0
 9396 06f2 0C       		.byte	12
 9397 06f3 30       		.byte	48
ARM GAS  D:\Programs\cygwin64\tmp\ccnP8CjY.s 			page 164


 9398 06f4 0C       		.byte	12
 9399 06f5 30       		.byte	48
 9400 06f6 0C       		.byte	12
 9401 06f7 30       		.byte	48
 9402 06f8 3F       		.byte	63
 9403 06f9 F0       		.byte	-16
 9404 06fa 3F       		.byte	63
 9405 06fb F0       		.byte	-16
 9406 06fc 00       		.byte	0
 9407 06fd 00       		.byte	0
 9408 06fe 00       		.byte	0
 9409 06ff 00       		.byte	0
 9410 0700 00       		.byte	0
 9411 0701 00       		.byte	0
 9412 0702 00       		.byte	0
 9413 0703 00       		.byte	0
 9414 0704 00       		.byte	0
 9415 0705 00       		.byte	0
 9416 0706 00       		.byte	0
 9417 0707 00       		.byte	0
 9418 0708 00       		.byte	0
 9419 0709 00       		.byte	0
 9420 070a 00       		.byte	0
 9421 070b 00       		.byte	0
 9422 070c 78       		.byte	120
 9423 070d 78       		.byte	120
 9424 070e 78       		.byte	120
 9425 070f 78       		.byte	120
 9426 0710 38       		.byte	56
 9427 0711 70       		.byte	112
 9428 0712 3C       		.byte	60
 9429 0713 F0       		.byte	-16
 9430 0714 34       		.byte	52
 9431 0715 B0       		.byte	-80
 9432 0716 37       		.byte	55
 9433 0717 B0       		.byte	-80
 9434 0718 37       		.byte	55
 9435 0719 B0       		.byte	-80
 9436 071a 33       		.byte	51
 9437 071b 30       		.byte	48
 9438 071c 33       		.byte	51
 9439 071d 30       		.byte	48
 9440 071e 30       		.byte	48
 9441 071f 30       		.byte	48
 9442 0720 7C       		.byte	124
 9443 0721 F8       		.byte	-8
 9444 0722 7C       		.byte	124
 9445 0723 F8       		.byte	-8
 9446 0724 00       		.byte	0
 9447 0725 00       		.byte	0
 9448 0726 00       		.byte	0
 9449 0727 00       		.byte	0
 9450 0728 00       		.byte	0
 9451 0729 00       		.byte	0
 9452 072a 00       		.byte	0
 9453 072b 00       		.byte	0
 9454 072c 00       		.byte	0
ARM GAS  D:\Programs\cygwin64\tmp\ccnP8CjY.s 			page 165


 9455 072d 00       		.byte	0
 9456 072e 00       		.byte	0
 9457 072f 00       		.byte	0
 9458 0730 00       		.byte	0
 9459 0731 00       		.byte	0
 9460 0732 00       		.byte	0
 9461 0733 00       		.byte	0
 9462 0734 39       		.byte	57
 9463 0735 F0       		.byte	-16
 9464 0736 3D       		.byte	61
 9465 0737 F0       		.byte	-16
 9466 0738 1C       		.byte	28
 9467 0739 60       		.byte	96
 9468 073a 1E       		.byte	30
 9469 073b 60       		.byte	96
 9470 073c 1E       		.byte	30
 9471 073d 60       		.byte	96
 9472 073e 1B       		.byte	27
 9473 073f 60       		.byte	96
 9474 0740 1B       		.byte	27
 9475 0741 60       		.byte	96
 9476 0742 19       		.byte	25
 9477 0743 E0       		.byte	-32
 9478 0744 19       		.byte	25
 9479 0745 E0       		.byte	-32
 9480 0746 18       		.byte	24
 9481 0747 E0       		.byte	-32
 9482 0748 3E       		.byte	62
 9483 0749 E0       		.byte	-32
 9484 074a 3E       		.byte	62
 9485 074b 60       		.byte	96
 9486 074c 00       		.byte	0
 9487 074d 00       		.byte	0
 9488 074e 00       		.byte	0
 9489 074f 00       		.byte	0
 9490 0750 00       		.byte	0
 9491 0751 00       		.byte	0
 9492 0752 00       		.byte	0
 9493 0753 00       		.byte	0
 9494 0754 00       		.byte	0
 9495 0755 00       		.byte	0
 9496 0756 00       		.byte	0
 9497 0757 00       		.byte	0
 9498 0758 00       		.byte	0
 9499 0759 00       		.byte	0
 9500 075a 00       		.byte	0
 9501 075b 00       		.byte	0
 9502 075c 07       		.byte	7
 9503 075d 80       		.byte	-128
 9504 075e 0F       		.byte	15
 9505 075f C0       		.byte	-64
 9506 0760 1C       		.byte	28
 9507 0761 E0       		.byte	-32
 9508 0762 38       		.byte	56
 9509 0763 70       		.byte	112
 9510 0764 30       		.byte	48
 9511 0765 30       		.byte	48
ARM GAS  D:\Programs\cygwin64\tmp\ccnP8CjY.s 			page 166


 9512 0766 30       		.byte	48
 9513 0767 30       		.byte	48
 9514 0768 30       		.byte	48
 9515 0769 30       		.byte	48
 9516 076a 30       		.byte	48
 9517 076b 30       		.byte	48
 9518 076c 38       		.byte	56
 9519 076d 70       		.byte	112
 9520 076e 1C       		.byte	28
 9521 076f E0       		.byte	-32
 9522 0770 0F       		.byte	15
 9523 0771 C0       		.byte	-64
 9524 0772 07       		.byte	7
 9525 0773 80       		.byte	-128
 9526 0774 00       		.byte	0
 9527 0775 00       		.byte	0
 9528 0776 00       		.byte	0
 9529 0777 00       		.byte	0
 9530 0778 00       		.byte	0
 9531 0779 00       		.byte	0
 9532 077a 00       		.byte	0
 9533 077b 00       		.byte	0
 9534 077c 00       		.byte	0
 9535 077d 00       		.byte	0
 9536 077e 00       		.byte	0
 9537 077f 00       		.byte	0
 9538 0780 00       		.byte	0
 9539 0781 00       		.byte	0
 9540 0782 00       		.byte	0
 9541 0783 00       		.byte	0
 9542 0784 3F       		.byte	63
 9543 0785 C0       		.byte	-64
 9544 0786 3F       		.byte	63
 9545 0787 E0       		.byte	-32
 9546 0788 18       		.byte	24
 9547 0789 70       		.byte	112
 9548 078a 18       		.byte	24
 9549 078b 30       		.byte	48
 9550 078c 18       		.byte	24
 9551 078d 30       		.byte	48
 9552 078e 18       		.byte	24
 9553 078f 70       		.byte	112
 9554 0790 1F       		.byte	31
 9555 0791 E0       		.byte	-32
 9556 0792 1F       		.byte	31
 9557 0793 C0       		.byte	-64
 9558 0794 18       		.byte	24
 9559 0795 00       		.byte	0
 9560 0796 18       		.byte	24
 9561 0797 00       		.byte	0
 9562 0798 3F       		.byte	63
 9563 0799 00       		.byte	0
 9564 079a 3F       		.byte	63
 9565 079b 00       		.byte	0
 9566 079c 00       		.byte	0
 9567 079d 00       		.byte	0
 9568 079e 00       		.byte	0
ARM GAS  D:\Programs\cygwin64\tmp\ccnP8CjY.s 			page 167


 9569 079f 00       		.byte	0
 9570 07a0 00       		.byte	0
 9571 07a1 00       		.byte	0
 9572 07a2 00       		.byte	0
 9573 07a3 00       		.byte	0
 9574 07a4 00       		.byte	0
 9575 07a5 00       		.byte	0
 9576 07a6 00       		.byte	0
 9577 07a7 00       		.byte	0
 9578 07a8 00       		.byte	0
 9579 07a9 00       		.byte	0
 9580 07aa 00       		.byte	0
 9581 07ab 00       		.byte	0
 9582 07ac 07       		.byte	7
 9583 07ad 80       		.byte	-128
 9584 07ae 0F       		.byte	15
 9585 07af C0       		.byte	-64
 9586 07b0 1C       		.byte	28
 9587 07b1 E0       		.byte	-32
 9588 07b2 38       		.byte	56
 9589 07b3 70       		.byte	112
 9590 07b4 30       		.byte	48
 9591 07b5 30       		.byte	48
 9592 07b6 30       		.byte	48
 9593 07b7 30       		.byte	48
 9594 07b8 30       		.byte	48
 9595 07b9 30       		.byte	48
 9596 07ba 30       		.byte	48
 9597 07bb 30       		.byte	48
 9598 07bc 38       		.byte	56
 9599 07bd 70       		.byte	112
 9600 07be 1C       		.byte	28
 9601 07bf E0       		.byte	-32
 9602 07c0 0F       		.byte	15
 9603 07c1 C0       		.byte	-64
 9604 07c2 07       		.byte	7
 9605 07c3 80       		.byte	-128
 9606 07c4 07       		.byte	7
 9607 07c5 B0       		.byte	-80
 9608 07c6 0F       		.byte	15
 9609 07c7 F0       		.byte	-16
 9610 07c8 0C       		.byte	12
 9611 07c9 E0       		.byte	-32
 9612 07ca 00       		.byte	0
 9613 07cb 00       		.byte	0
 9614 07cc 00       		.byte	0
 9615 07cd 00       		.byte	0
 9616 07ce 00       		.byte	0
 9617 07cf 00       		.byte	0
 9618 07d0 00       		.byte	0
 9619 07d1 00       		.byte	0
 9620 07d2 00       		.byte	0
 9621 07d3 00       		.byte	0
 9622 07d4 3F       		.byte	63
 9623 07d5 C0       		.byte	-64
 9624 07d6 3F       		.byte	63
 9625 07d7 E0       		.byte	-32
ARM GAS  D:\Programs\cygwin64\tmp\ccnP8CjY.s 			page 168


 9626 07d8 18       		.byte	24
 9627 07d9 70       		.byte	112
 9628 07da 18       		.byte	24
 9629 07db 30       		.byte	48
 9630 07dc 18       		.byte	24
 9631 07dd 70       		.byte	112
 9632 07de 1F       		.byte	31
 9633 07df E0       		.byte	-32
 9634 07e0 1F       		.byte	31
 9635 07e1 C0       		.byte	-64
 9636 07e2 18       		.byte	24
 9637 07e3 E0       		.byte	-32
 9638 07e4 18       		.byte	24
 9639 07e5 60       		.byte	96
 9640 07e6 18       		.byte	24
 9641 07e7 70       		.byte	112
 9642 07e8 3E       		.byte	62
 9643 07e9 38       		.byte	56
 9644 07ea 3E       		.byte	62
 9645 07eb 18       		.byte	24
 9646 07ec 00       		.byte	0
 9647 07ed 00       		.byte	0
 9648 07ee 00       		.byte	0
 9649 07ef 00       		.byte	0
 9650 07f0 00       		.byte	0
 9651 07f1 00       		.byte	0
 9652 07f2 00       		.byte	0
 9653 07f3 00       		.byte	0
 9654 07f4 00       		.byte	0
 9655 07f5 00       		.byte	0
 9656 07f6 00       		.byte	0
 9657 07f7 00       		.byte	0
 9658 07f8 00       		.byte	0
 9659 07f9 00       		.byte	0
 9660 07fa 00       		.byte	0
 9661 07fb 00       		.byte	0
 9662 07fc 0F       		.byte	15
 9663 07fd B0       		.byte	-80
 9664 07fe 1F       		.byte	31
 9665 07ff F0       		.byte	-16
 9666 0800 38       		.byte	56
 9667 0801 70       		.byte	112
 9668 0802 30       		.byte	48
 9669 0803 30       		.byte	48
 9670 0804 38       		.byte	56
 9671 0805 00       		.byte	0
 9672 0806 1F       		.byte	31
 9673 0807 80       		.byte	-128
 9674 0808 07       		.byte	7
 9675 0809 E0       		.byte	-32
 9676 080a 00       		.byte	0
 9677 080b 70       		.byte	112
 9678 080c 30       		.byte	48
 9679 080d 30       		.byte	48
 9680 080e 38       		.byte	56
 9681 080f 70       		.byte	112
 9682 0810 3F       		.byte	63
ARM GAS  D:\Programs\cygwin64\tmp\ccnP8CjY.s 			page 169


 9683 0811 E0       		.byte	-32
 9684 0812 37       		.byte	55
 9685 0813 C0       		.byte	-64
 9686 0814 00       		.byte	0
 9687 0815 00       		.byte	0
 9688 0816 00       		.byte	0
 9689 0817 00       		.byte	0
 9690 0818 00       		.byte	0
 9691 0819 00       		.byte	0
 9692 081a 00       		.byte	0
 9693 081b 00       		.byte	0
 9694 081c 00       		.byte	0
 9695 081d 00       		.byte	0
 9696 081e 00       		.byte	0
 9697 081f 00       		.byte	0
 9698 0820 00       		.byte	0
 9699 0821 00       		.byte	0
 9700 0822 00       		.byte	0
 9701 0823 00       		.byte	0
 9702 0824 3F       		.byte	63
 9703 0825 F0       		.byte	-16
 9704 0826 3F       		.byte	63
 9705 0827 F0       		.byte	-16
 9706 0828 33       		.byte	51
 9707 0829 30       		.byte	48
 9708 082a 33       		.byte	51
 9709 082b 30       		.byte	48
 9710 082c 33       		.byte	51
 9711 082d 30       		.byte	48
 9712 082e 03       		.byte	3
 9713 082f 00       		.byte	0
 9714 0830 03       		.byte	3
 9715 0831 00       		.byte	0
 9716 0832 03       		.byte	3
 9717 0833 00       		.byte	0
 9718 0834 03       		.byte	3
 9719 0835 00       		.byte	0
 9720 0836 03       		.byte	3
 9721 0837 00       		.byte	0
 9722 0838 0F       		.byte	15
 9723 0839 C0       		.byte	-64
 9724 083a 0F       		.byte	15
 9725 083b C0       		.byte	-64
 9726 083c 00       		.byte	0
 9727 083d 00       		.byte	0
 9728 083e 00       		.byte	0
 9729 083f 00       		.byte	0
 9730 0840 00       		.byte	0
 9731 0841 00       		.byte	0
 9732 0842 00       		.byte	0
 9733 0843 00       		.byte	0
 9734 0844 00       		.byte	0
 9735 0845 00       		.byte	0
 9736 0846 00       		.byte	0
 9737 0847 00       		.byte	0
 9738 0848 00       		.byte	0
 9739 0849 00       		.byte	0
ARM GAS  D:\Programs\cygwin64\tmp\ccnP8CjY.s 			page 170


 9740 084a 00       		.byte	0
 9741 084b 00       		.byte	0
 9742 084c 3C       		.byte	60
 9743 084d F0       		.byte	-16
 9744 084e 3C       		.byte	60
 9745 084f F0       		.byte	-16
 9746 0850 18       		.byte	24
 9747 0851 60       		.byte	96
 9748 0852 18       		.byte	24
 9749 0853 60       		.byte	96
 9750 0854 18       		.byte	24
 9751 0855 60       		.byte	96
 9752 0856 18       		.byte	24
 9753 0857 60       		.byte	96
 9754 0858 18       		.byte	24
 9755 0859 60       		.byte	96
 9756 085a 18       		.byte	24
 9757 085b 60       		.byte	96
 9758 085c 18       		.byte	24
 9759 085d 60       		.byte	96
 9760 085e 1C       		.byte	28
 9761 085f E0       		.byte	-32
 9762 0860 0F       		.byte	15
 9763 0861 C0       		.byte	-64
 9764 0862 07       		.byte	7
 9765 0863 80       		.byte	-128
 9766 0864 00       		.byte	0
 9767 0865 00       		.byte	0
 9768 0866 00       		.byte	0
 9769 0867 00       		.byte	0
 9770 0868 00       		.byte	0
 9771 0869 00       		.byte	0
 9772 086a 00       		.byte	0
 9773 086b 00       		.byte	0
 9774 086c 00       		.byte	0
 9775 086d 00       		.byte	0
 9776 086e 00       		.byte	0
 9777 086f 00       		.byte	0
 9778 0870 00       		.byte	0
 9779 0871 00       		.byte	0
 9780 0872 00       		.byte	0
 9781 0873 00       		.byte	0
 9782 0874 78       		.byte	120
 9783 0875 F0       		.byte	-16
 9784 0876 78       		.byte	120
 9785 0877 F0       		.byte	-16
 9786 0878 30       		.byte	48
 9787 0879 60       		.byte	96
 9788 087a 30       		.byte	48
 9789 087b 60       		.byte	96
 9790 087c 18       		.byte	24
 9791 087d C0       		.byte	-64
 9792 087e 18       		.byte	24
 9793 087f C0       		.byte	-64
 9794 0880 0D       		.byte	13
 9795 0881 80       		.byte	-128
 9796 0882 0D       		.byte	13
ARM GAS  D:\Programs\cygwin64\tmp\ccnP8CjY.s 			page 171


 9797 0883 80       		.byte	-128
 9798 0884 0D       		.byte	13
 9799 0885 80       		.byte	-128
 9800 0886 07       		.byte	7
 9801 0887 00       		.byte	0
 9802 0888 07       		.byte	7
 9803 0889 00       		.byte	0
 9804 088a 07       		.byte	7
 9805 088b 00       		.byte	0
 9806 088c 00       		.byte	0
 9807 088d 00       		.byte	0
 9808 088e 00       		.byte	0
 9809 088f 00       		.byte	0
 9810 0890 00       		.byte	0
 9811 0891 00       		.byte	0
 9812 0892 00       		.byte	0
 9813 0893 00       		.byte	0
 9814 0894 00       		.byte	0
 9815 0895 00       		.byte	0
 9816 0896 00       		.byte	0
 9817 0897 00       		.byte	0
 9818 0898 00       		.byte	0
 9819 0899 00       		.byte	0
 9820 089a 00       		.byte	0
 9821 089b 00       		.byte	0
 9822 089c 7C       		.byte	124
 9823 089d 7C       		.byte	124
 9824 089e 7C       		.byte	124
 9825 089f 7C       		.byte	124
 9826 08a0 30       		.byte	48
 9827 08a1 18       		.byte	24
 9828 08a2 33       		.byte	51
 9829 08a3 98       		.byte	-104
 9830 08a4 33       		.byte	51
 9831 08a5 98       		.byte	-104
 9832 08a6 33       		.byte	51
 9833 08a7 98       		.byte	-104
 9834 08a8 36       		.byte	54
 9835 08a9 D8       		.byte	-40
 9836 08aa 16       		.byte	22
 9837 08ab D0       		.byte	-48
 9838 08ac 1C       		.byte	28
 9839 08ad 70       		.byte	112
 9840 08ae 1C       		.byte	28
 9841 08af 70       		.byte	112
 9842 08b0 1C       		.byte	28
 9843 08b1 70       		.byte	112
 9844 08b2 18       		.byte	24
 9845 08b3 30       		.byte	48
 9846 08b4 00       		.byte	0
 9847 08b5 00       		.byte	0
 9848 08b6 00       		.byte	0
 9849 08b7 00       		.byte	0
 9850 08b8 00       		.byte	0
 9851 08b9 00       		.byte	0
 9852 08ba 00       		.byte	0
 9853 08bb 00       		.byte	0
ARM GAS  D:\Programs\cygwin64\tmp\ccnP8CjY.s 			page 172


 9854 08bc 00       		.byte	0
 9855 08bd 00       		.byte	0
 9856 08be 00       		.byte	0
 9857 08bf 00       		.byte	0
 9858 08c0 00       		.byte	0
 9859 08c1 00       		.byte	0
 9860 08c2 00       		.byte	0
 9861 08c3 00       		.byte	0
 9862 08c4 78       		.byte	120
 9863 08c5 F0       		.byte	-16
 9864 08c6 78       		.byte	120
 9865 08c7 F0       		.byte	-16
 9866 08c8 30       		.byte	48
 9867 08c9 60       		.byte	96
 9868 08ca 18       		.byte	24
 9869 08cb C0       		.byte	-64
 9870 08cc 0D       		.byte	13
 9871 08cd 80       		.byte	-128
 9872 08ce 07       		.byte	7
 9873 08cf 00       		.byte	0
 9874 08d0 07       		.byte	7
 9875 08d1 00       		.byte	0
 9876 08d2 0D       		.byte	13
 9877 08d3 80       		.byte	-128
 9878 08d4 18       		.byte	24
 9879 08d5 C0       		.byte	-64
 9880 08d6 30       		.byte	48
 9881 08d7 60       		.byte	96
 9882 08d8 78       		.byte	120
 9883 08d9 F0       		.byte	-16
 9884 08da 78       		.byte	120
 9885 08db F0       		.byte	-16
 9886 08dc 00       		.byte	0
 9887 08dd 00       		.byte	0
 9888 08de 00       		.byte	0
 9889 08df 00       		.byte	0
 9890 08e0 00       		.byte	0
 9891 08e1 00       		.byte	0
 9892 08e2 00       		.byte	0
 9893 08e3 00       		.byte	0
 9894 08e4 00       		.byte	0
 9895 08e5 00       		.byte	0
 9896 08e6 00       		.byte	0
 9897 08e7 00       		.byte	0
 9898 08e8 00       		.byte	0
 9899 08e9 00       		.byte	0
 9900 08ea 00       		.byte	0
 9901 08eb 00       		.byte	0
 9902 08ec 3C       		.byte	60
 9903 08ed F0       		.byte	-16
 9904 08ee 3C       		.byte	60
 9905 08ef F0       		.byte	-16
 9906 08f0 18       		.byte	24
 9907 08f1 60       		.byte	96
 9908 08f2 0C       		.byte	12
 9909 08f3 C0       		.byte	-64
 9910 08f4 07       		.byte	7
ARM GAS  D:\Programs\cygwin64\tmp\ccnP8CjY.s 			page 173


 9911 08f5 80       		.byte	-128
 9912 08f6 07       		.byte	7
 9913 08f7 80       		.byte	-128
 9914 08f8 03       		.byte	3
 9915 08f9 00       		.byte	0
 9916 08fa 03       		.byte	3
 9917 08fb 00       		.byte	0
 9918 08fc 03       		.byte	3
 9919 08fd 00       		.byte	0
 9920 08fe 03       		.byte	3
 9921 08ff 00       		.byte	0
 9922 0900 0F       		.byte	15
 9923 0901 C0       		.byte	-64
 9924 0902 0F       		.byte	15
 9925 0903 C0       		.byte	-64
 9926 0904 00       		.byte	0
 9927 0905 00       		.byte	0
 9928 0906 00       		.byte	0
 9929 0907 00       		.byte	0
 9930 0908 00       		.byte	0
 9931 0909 00       		.byte	0
 9932 090a 00       		.byte	0
 9933 090b 00       		.byte	0
 9934 090c 00       		.byte	0
 9935 090d 00       		.byte	0
 9936 090e 00       		.byte	0
 9937 090f 00       		.byte	0
 9938 0910 00       		.byte	0
 9939 0911 00       		.byte	0
 9940 0912 00       		.byte	0
 9941 0913 00       		.byte	0
 9942 0914 1F       		.byte	31
 9943 0915 E0       		.byte	-32
 9944 0916 1F       		.byte	31
 9945 0917 E0       		.byte	-32
 9946 0918 18       		.byte	24
 9947 0919 60       		.byte	96
 9948 091a 18       		.byte	24
 9949 091b C0       		.byte	-64
 9950 091c 01       		.byte	1
 9951 091d 80       		.byte	-128
 9952 091e 03       		.byte	3
 9953 091f 00       		.byte	0
 9954 0920 03       		.byte	3
 9955 0921 00       		.byte	0
 9956 0922 06       		.byte	6
 9957 0923 00       		.byte	0
 9958 0924 0C       		.byte	12
 9959 0925 60       		.byte	96
 9960 0926 18       		.byte	24
 9961 0927 60       		.byte	96
 9962 0928 1F       		.byte	31
 9963 0929 E0       		.byte	-32
 9964 092a 1F       		.byte	31
 9965 092b E0       		.byte	-32
 9966 092c 00       		.byte	0
 9967 092d 00       		.byte	0
ARM GAS  D:\Programs\cygwin64\tmp\ccnP8CjY.s 			page 174


 9968 092e 00       		.byte	0
 9969 092f 00       		.byte	0
 9970 0930 00       		.byte	0
 9971 0931 00       		.byte	0
 9972 0932 00       		.byte	0
 9973 0933 00       		.byte	0
 9974 0934 00       		.byte	0
 9975 0935 00       		.byte	0
 9976 0936 00       		.byte	0
 9977 0937 00       		.byte	0
 9978 0938 00       		.byte	0
 9979 0939 00       		.byte	0
 9980 093a 03       		.byte	3
 9981 093b C0       		.byte	-64
 9982 093c 03       		.byte	3
 9983 093d C0       		.byte	-64
 9984 093e 03       		.byte	3
 9985 093f 00       		.byte	0
 9986 0940 03       		.byte	3
 9987 0941 00       		.byte	0
 9988 0942 03       		.byte	3
 9989 0943 00       		.byte	0
 9990 0944 03       		.byte	3
 9991 0945 00       		.byte	0
 9992 0946 03       		.byte	3
 9993 0947 00       		.byte	0
 9994 0948 03       		.byte	3
 9995 0949 00       		.byte	0
 9996 094a 03       		.byte	3
 9997 094b 00       		.byte	0
 9998 094c 03       		.byte	3
 9999 094d 00       		.byte	0
 10000 094e 03       		.byte	3
 10001 094f 00       		.byte	0
 10002 0950 03       		.byte	3
 10003 0951 00       		.byte	0
 10004 0952 03       		.byte	3
 10005 0953 00       		.byte	0
 10006 0954 03       		.byte	3
 10007 0955 00       		.byte	0
 10008 0956 03       		.byte	3
 10009 0957 C0       		.byte	-64
 10010 0958 03       		.byte	3
 10011 0959 C0       		.byte	-64
 10012 095a 00       		.byte	0
 10013 095b 00       		.byte	0
 10014 095c 00       		.byte	0
 10015 095d 00       		.byte	0
 10016 095e 00       		.byte	0
 10017 095f 00       		.byte	0
 10018 0960 18       		.byte	24
 10019 0961 00       		.byte	0
 10020 0962 18       		.byte	24
 10021 0963 00       		.byte	0
 10022 0964 0C       		.byte	12
 10023 0965 00       		.byte	0
 10024 0966 0C       		.byte	12
ARM GAS  D:\Programs\cygwin64\tmp\ccnP8CjY.s 			page 175


 10025 0967 00       		.byte	0
 10026 0968 0C       		.byte	12
 10027 0969 00       		.byte	0
 10028 096a 06       		.byte	6
 10029 096b 00       		.byte	0
 10030 096c 06       		.byte	6
 10031 096d 00       		.byte	0
 10032 096e 03       		.byte	3
 10033 096f 00       		.byte	0
 10034 0970 03       		.byte	3
 10035 0971 00       		.byte	0
 10036 0972 01       		.byte	1
 10037 0973 80       		.byte	-128
 10038 0974 01       		.byte	1
 10039 0975 80       		.byte	-128
 10040 0976 00       		.byte	0
 10041 0977 C0       		.byte	-64
 10042 0978 00       		.byte	0
 10043 0979 C0       		.byte	-64
 10044 097a 00       		.byte	0
 10045 097b C0       		.byte	-64
 10046 097c 00       		.byte	0
 10047 097d 60       		.byte	96
 10048 097e 00       		.byte	0
 10049 097f 60       		.byte	96
 10050 0980 00       		.byte	0
 10051 0981 00       		.byte	0
 10052 0982 00       		.byte	0
 10053 0983 00       		.byte	0
 10054 0984 00       		.byte	0
 10055 0985 00       		.byte	0
 10056 0986 00       		.byte	0
 10057 0987 00       		.byte	0
 10058 0988 00       		.byte	0
 10059 0989 00       		.byte	0
 10060 098a 0F       		.byte	15
 10061 098b 00       		.byte	0
 10062 098c 0F       		.byte	15
 10063 098d 00       		.byte	0
 10064 098e 03       		.byte	3
 10065 098f 00       		.byte	0
 10066 0990 03       		.byte	3
 10067 0991 00       		.byte	0
 10068 0992 03       		.byte	3
 10069 0993 00       		.byte	0
 10070 0994 03       		.byte	3
 10071 0995 00       		.byte	0
 10072 0996 03       		.byte	3
 10073 0997 00       		.byte	0
 10074 0998 03       		.byte	3
 10075 0999 00       		.byte	0
 10076 099a 03       		.byte	3
 10077 099b 00       		.byte	0
 10078 099c 03       		.byte	3
 10079 099d 00       		.byte	0
 10080 099e 03       		.byte	3
 10081 099f 00       		.byte	0
ARM GAS  D:\Programs\cygwin64\tmp\ccnP8CjY.s 			page 176


 10082 09a0 03       		.byte	3
 10083 09a1 00       		.byte	0
 10084 09a2 03       		.byte	3
 10085 09a3 00       		.byte	0
 10086 09a4 03       		.byte	3
 10087 09a5 00       		.byte	0
 10088 09a6 0F       		.byte	15
 10089 09a7 00       		.byte	0
 10090 09a8 0F       		.byte	15
 10091 09a9 00       		.byte	0
 10092 09aa 00       		.byte	0
 10093 09ab 00       		.byte	0
 10094 09ac 00       		.byte	0
 10095 09ad 00       		.byte	0
 10096 09ae 00       		.byte	0
 10097 09af 00       		.byte	0
 10098 09b0 00       		.byte	0
 10099 09b1 00       		.byte	0
 10100 09b2 02       		.byte	2
 10101 09b3 00       		.byte	0
 10102 09b4 07       		.byte	7
 10103 09b5 00       		.byte	0
 10104 09b6 0D       		.byte	13
 10105 09b7 80       		.byte	-128
 10106 09b8 18       		.byte	24
 10107 09b9 C0       		.byte	-64
 10108 09ba 30       		.byte	48
 10109 09bb 60       		.byte	96
 10110 09bc 20       		.byte	32
 10111 09bd 20       		.byte	32
 10112 09be 00       		.byte	0
 10113 09bf 00       		.byte	0
 10114 09c0 00       		.byte	0
 10115 09c1 00       		.byte	0
 10116 09c2 00       		.byte	0
 10117 09c3 00       		.byte	0
 10118 09c4 00       		.byte	0
 10119 09c5 00       		.byte	0
 10120 09c6 00       		.byte	0
 10121 09c7 00       		.byte	0
 10122 09c8 00       		.byte	0
 10123 09c9 00       		.byte	0
 10124 09ca 00       		.byte	0
 10125 09cb 00       		.byte	0
 10126 09cc 00       		.byte	0
 10127 09cd 00       		.byte	0
 10128 09ce 00       		.byte	0
 10129 09cf 00       		.byte	0
 10130 09d0 00       		.byte	0
 10131 09d1 00       		.byte	0
 10132 09d2 00       		.byte	0
 10133 09d3 00       		.byte	0
 10134 09d4 00       		.byte	0
 10135 09d5 00       		.byte	0
 10136 09d6 00       		.byte	0
 10137 09d7 00       		.byte	0
 10138 09d8 00       		.byte	0
ARM GAS  D:\Programs\cygwin64\tmp\ccnP8CjY.s 			page 177


 10139 09d9 00       		.byte	0
 10140 09da 00       		.byte	0
 10141 09db 00       		.byte	0
 10142 09dc 00       		.byte	0
 10143 09dd 00       		.byte	0
 10144 09de 00       		.byte	0
 10145 09df 00       		.byte	0
 10146 09e0 00       		.byte	0
 10147 09e1 00       		.byte	0
 10148 09e2 00       		.byte	0
 10149 09e3 00       		.byte	0
 10150 09e4 00       		.byte	0
 10151 09e5 00       		.byte	0
 10152 09e6 00       		.byte	0
 10153 09e7 00       		.byte	0
 10154 09e8 00       		.byte	0
 10155 09e9 00       		.byte	0
 10156 09ea 00       		.byte	0
 10157 09eb 00       		.byte	0
 10158 09ec 00       		.byte	0
 10159 09ed 00       		.byte	0
 10160 09ee 00       		.byte	0
 10161 09ef 00       		.byte	0
 10162 09f0 00       		.byte	0
 10163 09f1 00       		.byte	0
 10164 09f2 00       		.byte	0
 10165 09f3 00       		.byte	0
 10166 09f4 00       		.byte	0
 10167 09f5 00       		.byte	0
 10168 09f6 00       		.byte	0
 10169 09f7 00       		.byte	0
 10170 09f8 00       		.byte	0
 10171 09f9 00       		.byte	0
 10172 09fa 00       		.byte	0
 10173 09fb 00       		.byte	0
 10174 09fc FF       		.byte	-1
 10175 09fd FC       		.byte	-4
 10176 09fe FF       		.byte	-1
 10177 09ff FC       		.byte	-4
 10178 0a00 00       		.byte	0
 10179 0a01 00       		.byte	0
 10180 0a02 04       		.byte	4
 10181 0a03 00       		.byte	0
 10182 0a04 03       		.byte	3
 10183 0a05 00       		.byte	0
 10184 0a06 00       		.byte	0
 10185 0a07 80       		.byte	-128
 10186 0a08 00       		.byte	0
 10187 0a09 00       		.byte	0
 10188 0a0a 00       		.byte	0
 10189 0a0b 00       		.byte	0
 10190 0a0c 00       		.byte	0
 10191 0a0d 00       		.byte	0
 10192 0a0e 00       		.byte	0
 10193 0a0f 00       		.byte	0
 10194 0a10 00       		.byte	0
 10195 0a11 00       		.byte	0
ARM GAS  D:\Programs\cygwin64\tmp\ccnP8CjY.s 			page 178


 10196 0a12 00       		.byte	0
 10197 0a13 00       		.byte	0
 10198 0a14 00       		.byte	0
 10199 0a15 00       		.byte	0
 10200 0a16 00       		.byte	0
 10201 0a17 00       		.byte	0
 10202 0a18 00       		.byte	0
 10203 0a19 00       		.byte	0
 10204 0a1a 00       		.byte	0
 10205 0a1b 00       		.byte	0
 10206 0a1c 00       		.byte	0
 10207 0a1d 00       		.byte	0
 10208 0a1e 00       		.byte	0
 10209 0a1f 00       		.byte	0
 10210 0a20 00       		.byte	0
 10211 0a21 00       		.byte	0
 10212 0a22 00       		.byte	0
 10213 0a23 00       		.byte	0
 10214 0a24 00       		.byte	0
 10215 0a25 00       		.byte	0
 10216 0a26 00       		.byte	0
 10217 0a27 00       		.byte	0
 10218 0a28 00       		.byte	0
 10219 0a29 00       		.byte	0
 10220 0a2a 00       		.byte	0
 10221 0a2b 00       		.byte	0
 10222 0a2c 00       		.byte	0
 10223 0a2d 00       		.byte	0
 10224 0a2e 00       		.byte	0
 10225 0a2f 00       		.byte	0
 10226 0a30 00       		.byte	0
 10227 0a31 00       		.byte	0
 10228 0a32 0F       		.byte	15
 10229 0a33 C0       		.byte	-64
 10230 0a34 1F       		.byte	31
 10231 0a35 E0       		.byte	-32
 10232 0a36 00       		.byte	0
 10233 0a37 60       		.byte	96
 10234 0a38 0F       		.byte	15
 10235 0a39 E0       		.byte	-32
 10236 0a3a 1F       		.byte	31
 10237 0a3b E0       		.byte	-32
 10238 0a3c 38       		.byte	56
 10239 0a3d 60       		.byte	96
 10240 0a3e 30       		.byte	48
 10241 0a3f E0       		.byte	-32
 10242 0a40 3F       		.byte	63
 10243 0a41 F0       		.byte	-16
 10244 0a42 1F       		.byte	31
 10245 0a43 70       		.byte	112
 10246 0a44 00       		.byte	0
 10247 0a45 00       		.byte	0
 10248 0a46 00       		.byte	0
 10249 0a47 00       		.byte	0
 10250 0a48 00       		.byte	0
 10251 0a49 00       		.byte	0
 10252 0a4a 00       		.byte	0
ARM GAS  D:\Programs\cygwin64\tmp\ccnP8CjY.s 			page 179


 10253 0a4b 00       		.byte	0
 10254 0a4c 00       		.byte	0
 10255 0a4d 00       		.byte	0
 10256 0a4e 00       		.byte	0
 10257 0a4f 00       		.byte	0
 10258 0a50 00       		.byte	0
 10259 0a51 00       		.byte	0
 10260 0a52 70       		.byte	112
 10261 0a53 00       		.byte	0
 10262 0a54 70       		.byte	112
 10263 0a55 00       		.byte	0
 10264 0a56 30       		.byte	48
 10265 0a57 00       		.byte	0
 10266 0a58 30       		.byte	48
 10267 0a59 00       		.byte	0
 10268 0a5a 37       		.byte	55
 10269 0a5b 80       		.byte	-128
 10270 0a5c 3F       		.byte	63
 10271 0a5d E0       		.byte	-32
 10272 0a5e 38       		.byte	56
 10273 0a5f 60       		.byte	96
 10274 0a60 30       		.byte	48
 10275 0a61 30       		.byte	48
 10276 0a62 30       		.byte	48
 10277 0a63 30       		.byte	48
 10278 0a64 30       		.byte	48
 10279 0a65 30       		.byte	48
 10280 0a66 38       		.byte	56
 10281 0a67 60       		.byte	96
 10282 0a68 7F       		.byte	127
 10283 0a69 E0       		.byte	-32
 10284 0a6a 77       		.byte	119
 10285 0a6b 80       		.byte	-128
 10286 0a6c 00       		.byte	0
 10287 0a6d 00       		.byte	0
 10288 0a6e 00       		.byte	0
 10289 0a6f 00       		.byte	0
 10290 0a70 00       		.byte	0
 10291 0a71 00       		.byte	0
 10292 0a72 00       		.byte	0
 10293 0a73 00       		.byte	0
 10294 0a74 00       		.byte	0
 10295 0a75 00       		.byte	0
 10296 0a76 00       		.byte	0
 10297 0a77 00       		.byte	0
 10298 0a78 00       		.byte	0
 10299 0a79 00       		.byte	0
 10300 0a7a 00       		.byte	0
 10301 0a7b 00       		.byte	0
 10302 0a7c 00       		.byte	0
 10303 0a7d 00       		.byte	0
 10304 0a7e 00       		.byte	0
 10305 0a7f 00       		.byte	0
 10306 0a80 00       		.byte	0
 10307 0a81 00       		.byte	0
 10308 0a82 07       		.byte	7
 10309 0a83 B0       		.byte	-80
ARM GAS  D:\Programs\cygwin64\tmp\ccnP8CjY.s 			page 180


 10310 0a84 1F       		.byte	31
 10311 0a85 F0       		.byte	-16
 10312 0a86 18       		.byte	24
 10313 0a87 30       		.byte	48
 10314 0a88 30       		.byte	48
 10315 0a89 30       		.byte	48
 10316 0a8a 30       		.byte	48
 10317 0a8b 00       		.byte	0
 10318 0a8c 30       		.byte	48
 10319 0a8d 00       		.byte	0
 10320 0a8e 38       		.byte	56
 10321 0a8f 30       		.byte	48
 10322 0a90 1F       		.byte	31
 10323 0a91 F0       		.byte	-16
 10324 0a92 0F       		.byte	15
 10325 0a93 C0       		.byte	-64
 10326 0a94 00       		.byte	0
 10327 0a95 00       		.byte	0
 10328 0a96 00       		.byte	0
 10329 0a97 00       		.byte	0
 10330 0a98 00       		.byte	0
 10331 0a99 00       		.byte	0
 10332 0a9a 00       		.byte	0
 10333 0a9b 00       		.byte	0
 10334 0a9c 00       		.byte	0
 10335 0a9d 00       		.byte	0
 10336 0a9e 00       		.byte	0
 10337 0a9f 00       		.byte	0
 10338 0aa0 00       		.byte	0
 10339 0aa1 00       		.byte	0
 10340 0aa2 00       		.byte	0
 10341 0aa3 70       		.byte	112
 10342 0aa4 00       		.byte	0
 10343 0aa5 70       		.byte	112
 10344 0aa6 00       		.byte	0
 10345 0aa7 30       		.byte	48
 10346 0aa8 00       		.byte	0
 10347 0aa9 30       		.byte	48
 10348 0aaa 07       		.byte	7
 10349 0aab B0       		.byte	-80
 10350 0aac 1F       		.byte	31
 10351 0aad F0       		.byte	-16
 10352 0aae 18       		.byte	24
 10353 0aaf 70       		.byte	112
 10354 0ab0 30       		.byte	48
 10355 0ab1 30       		.byte	48
 10356 0ab2 30       		.byte	48
 10357 0ab3 30       		.byte	48
 10358 0ab4 30       		.byte	48
 10359 0ab5 30       		.byte	48
 10360 0ab6 38       		.byte	56
 10361 0ab7 70       		.byte	112
 10362 0ab8 1F       		.byte	31
 10363 0ab9 F8       		.byte	-8
 10364 0aba 07       		.byte	7
 10365 0abb B8       		.byte	-72
 10366 0abc 00       		.byte	0
ARM GAS  D:\Programs\cygwin64\tmp\ccnP8CjY.s 			page 181


 10367 0abd 00       		.byte	0
 10368 0abe 00       		.byte	0
 10369 0abf 00       		.byte	0
 10370 0ac0 00       		.byte	0
 10371 0ac1 00       		.byte	0
 10372 0ac2 00       		.byte	0
 10373 0ac3 00       		.byte	0
 10374 0ac4 00       		.byte	0
 10375 0ac5 00       		.byte	0
 10376 0ac6 00       		.byte	0
 10377 0ac7 00       		.byte	0
 10378 0ac8 00       		.byte	0
 10379 0ac9 00       		.byte	0
 10380 0aca 00       		.byte	0
 10381 0acb 00       		.byte	0
 10382 0acc 00       		.byte	0
 10383 0acd 00       		.byte	0
 10384 0ace 00       		.byte	0
 10385 0acf 00       		.byte	0
 10386 0ad0 00       		.byte	0
 10387 0ad1 00       		.byte	0
 10388 0ad2 07       		.byte	7
 10389 0ad3 80       		.byte	-128
 10390 0ad4 1F       		.byte	31
 10391 0ad5 E0       		.byte	-32
 10392 0ad6 18       		.byte	24
 10393 0ad7 60       		.byte	96
 10394 0ad8 3F       		.byte	63
 10395 0ad9 F0       		.byte	-16
 10396 0ada 3F       		.byte	63
 10397 0adb F0       		.byte	-16
 10398 0adc 30       		.byte	48
 10399 0add 00       		.byte	0
 10400 0ade 18       		.byte	24
 10401 0adf 30       		.byte	48
 10402 0ae0 1F       		.byte	31
 10403 0ae1 F0       		.byte	-16
 10404 0ae2 07       		.byte	7
 10405 0ae3 C0       		.byte	-64
 10406 0ae4 00       		.byte	0
 10407 0ae5 00       		.byte	0
 10408 0ae6 00       		.byte	0
 10409 0ae7 00       		.byte	0
 10410 0ae8 00       		.byte	0
 10411 0ae9 00       		.byte	0
 10412 0aea 00       		.byte	0
 10413 0aeb 00       		.byte	0
 10414 0aec 00       		.byte	0
 10415 0aed 00       		.byte	0
 10416 0aee 00       		.byte	0
 10417 0aef 00       		.byte	0
 10418 0af0 00       		.byte	0
 10419 0af1 00       		.byte	0
 10420 0af2 03       		.byte	3
 10421 0af3 F0       		.byte	-16
 10422 0af4 07       		.byte	7
 10423 0af5 F0       		.byte	-16
ARM GAS  D:\Programs\cygwin64\tmp\ccnP8CjY.s 			page 182


 10424 0af6 06       		.byte	6
 10425 0af7 00       		.byte	0
 10426 0af8 06       		.byte	6
 10427 0af9 00       		.byte	0
 10428 0afa 1F       		.byte	31
 10429 0afb E0       		.byte	-32
 10430 0afc 1F       		.byte	31
 10431 0afd E0       		.byte	-32
 10432 0afe 06       		.byte	6
 10433 0aff 00       		.byte	0
 10434 0b00 06       		.byte	6
 10435 0b01 00       		.byte	0
 10436 0b02 06       		.byte	6
 10437 0b03 00       		.byte	0
 10438 0b04 06       		.byte	6
 10439 0b05 00       		.byte	0
 10440 0b06 06       		.byte	6
 10441 0b07 00       		.byte	0
 10442 0b08 1F       		.byte	31
 10443 0b09 E0       		.byte	-32
 10444 0b0a 1F       		.byte	31
 10445 0b0b E0       		.byte	-32
 10446 0b0c 00       		.byte	0
 10447 0b0d 00       		.byte	0
 10448 0b0e 00       		.byte	0
 10449 0b0f 00       		.byte	0
 10450 0b10 00       		.byte	0
 10451 0b11 00       		.byte	0
 10452 0b12 00       		.byte	0
 10453 0b13 00       		.byte	0
 10454 0b14 00       		.byte	0
 10455 0b15 00       		.byte	0
 10456 0b16 00       		.byte	0
 10457 0b17 00       		.byte	0
 10458 0b18 00       		.byte	0
 10459 0b19 00       		.byte	0
 10460 0b1a 00       		.byte	0
 10461 0b1b 00       		.byte	0
 10462 0b1c 00       		.byte	0
 10463 0b1d 00       		.byte	0
 10464 0b1e 00       		.byte	0
 10465 0b1f 00       		.byte	0
 10466 0b20 00       		.byte	0
 10467 0b21 00       		.byte	0
 10468 0b22 07       		.byte	7
 10469 0b23 B8       		.byte	-72
 10470 0b24 1F       		.byte	31
 10471 0b25 F8       		.byte	-8
 10472 0b26 18       		.byte	24
 10473 0b27 70       		.byte	112
 10474 0b28 30       		.byte	48
 10475 0b29 30       		.byte	48
 10476 0b2a 30       		.byte	48
 10477 0b2b 30       		.byte	48
 10478 0b2c 30       		.byte	48
 10479 0b2d 30       		.byte	48
 10480 0b2e 18       		.byte	24
ARM GAS  D:\Programs\cygwin64\tmp\ccnP8CjY.s 			page 183


 10481 0b2f 70       		.byte	112
 10482 0b30 1F       		.byte	31
 10483 0b31 F0       		.byte	-16
 10484 0b32 07       		.byte	7
 10485 0b33 B0       		.byte	-80
 10486 0b34 00       		.byte	0
 10487 0b35 30       		.byte	48
 10488 0b36 00       		.byte	0
 10489 0b37 70       		.byte	112
 10490 0b38 0F       		.byte	15
 10491 0b39 E0       		.byte	-32
 10492 0b3a 0F       		.byte	15
 10493 0b3b C0       		.byte	-64
 10494 0b3c 00       		.byte	0
 10495 0b3d 00       		.byte	0
 10496 0b3e 00       		.byte	0
 10497 0b3f 00       		.byte	0
 10498 0b40 00       		.byte	0
 10499 0b41 00       		.byte	0
 10500 0b42 38       		.byte	56
 10501 0b43 00       		.byte	0
 10502 0b44 38       		.byte	56
 10503 0b45 00       		.byte	0
 10504 0b46 18       		.byte	24
 10505 0b47 00       		.byte	0
 10506 0b48 18       		.byte	24
 10507 0b49 00       		.byte	0
 10508 0b4a 1B       		.byte	27
 10509 0b4b C0       		.byte	-64
 10510 0b4c 1F       		.byte	31
 10511 0b4d E0       		.byte	-32
 10512 0b4e 1C       		.byte	28
 10513 0b4f 60       		.byte	96
 10514 0b50 18       		.byte	24
 10515 0b51 60       		.byte	96
 10516 0b52 18       		.byte	24
 10517 0b53 60       		.byte	96
 10518 0b54 18       		.byte	24
 10519 0b55 60       		.byte	96
 10520 0b56 18       		.byte	24
 10521 0b57 60       		.byte	96
 10522 0b58 3C       		.byte	60
 10523 0b59 F0       		.byte	-16
 10524 0b5a 3C       		.byte	60
 10525 0b5b F0       		.byte	-16
 10526 0b5c 00       		.byte	0
 10527 0b5d 00       		.byte	0
 10528 0b5e 00       		.byte	0
 10529 0b5f 00       		.byte	0
 10530 0b60 00       		.byte	0
 10531 0b61 00       		.byte	0
 10532 0b62 00       		.byte	0
 10533 0b63 00       		.byte	0
 10534 0b64 00       		.byte	0
 10535 0b65 00       		.byte	0
 10536 0b66 00       		.byte	0
 10537 0b67 00       		.byte	0
ARM GAS  D:\Programs\cygwin64\tmp\ccnP8CjY.s 			page 184


 10538 0b68 00       		.byte	0
 10539 0b69 00       		.byte	0
 10540 0b6a 03       		.byte	3
 10541 0b6b 00       		.byte	0
 10542 0b6c 03       		.byte	3
 10543 0b6d 00       		.byte	0
 10544 0b6e 00       		.byte	0
 10545 0b6f 00       		.byte	0
 10546 0b70 00       		.byte	0
 10547 0b71 00       		.byte	0
 10548 0b72 1F       		.byte	31
 10549 0b73 00       		.byte	0
 10550 0b74 1F       		.byte	31
 10551 0b75 00       		.byte	0
 10552 0b76 03       		.byte	3
 10553 0b77 00       		.byte	0
 10554 0b78 03       		.byte	3
 10555 0b79 00       		.byte	0
 10556 0b7a 03       		.byte	3
 10557 0b7b 00       		.byte	0
 10558 0b7c 03       		.byte	3
 10559 0b7d 00       		.byte	0
 10560 0b7e 03       		.byte	3
 10561 0b7f 00       		.byte	0
 10562 0b80 1F       		.byte	31
 10563 0b81 E0       		.byte	-32
 10564 0b82 1F       		.byte	31
 10565 0b83 E0       		.byte	-32
 10566 0b84 00       		.byte	0
 10567 0b85 00       		.byte	0
 10568 0b86 00       		.byte	0
 10569 0b87 00       		.byte	0
 10570 0b88 00       		.byte	0
 10571 0b89 00       		.byte	0
 10572 0b8a 00       		.byte	0
 10573 0b8b 00       		.byte	0
 10574 0b8c 00       		.byte	0
 10575 0b8d 00       		.byte	0
 10576 0b8e 00       		.byte	0
 10577 0b8f 00       		.byte	0
 10578 0b90 00       		.byte	0
 10579 0b91 00       		.byte	0
 10580 0b92 03       		.byte	3
 10581 0b93 00       		.byte	0
 10582 0b94 03       		.byte	3
 10583 0b95 00       		.byte	0
 10584 0b96 00       		.byte	0
 10585 0b97 00       		.byte	0
 10586 0b98 00       		.byte	0
 10587 0b99 00       		.byte	0
 10588 0b9a 1F       		.byte	31
 10589 0b9b C0       		.byte	-64
 10590 0b9c 1F       		.byte	31
 10591 0b9d C0       		.byte	-64
 10592 0b9e 00       		.byte	0
 10593 0b9f C0       		.byte	-64
 10594 0ba0 00       		.byte	0
ARM GAS  D:\Programs\cygwin64\tmp\ccnP8CjY.s 			page 185


 10595 0ba1 C0       		.byte	-64
 10596 0ba2 00       		.byte	0
 10597 0ba3 C0       		.byte	-64
 10598 0ba4 00       		.byte	0
 10599 0ba5 C0       		.byte	-64
 10600 0ba6 00       		.byte	0
 10601 0ba7 C0       		.byte	-64
 10602 0ba8 00       		.byte	0
 10603 0ba9 C0       		.byte	-64
 10604 0baa 00       		.byte	0
 10605 0bab C0       		.byte	-64
 10606 0bac 00       		.byte	0
 10607 0bad C0       		.byte	-64
 10608 0bae 01       		.byte	1
 10609 0baf C0       		.byte	-64
 10610 0bb0 3F       		.byte	63
 10611 0bb1 80       		.byte	-128
 10612 0bb2 3F       		.byte	63
 10613 0bb3 00       		.byte	0
 10614 0bb4 00       		.byte	0
 10615 0bb5 00       		.byte	0
 10616 0bb6 00       		.byte	0
 10617 0bb7 00       		.byte	0
 10618 0bb8 00       		.byte	0
 10619 0bb9 00       		.byte	0
 10620 0bba 38       		.byte	56
 10621 0bbb 00       		.byte	0
 10622 0bbc 38       		.byte	56
 10623 0bbd 00       		.byte	0
 10624 0bbe 18       		.byte	24
 10625 0bbf 00       		.byte	0
 10626 0bc0 18       		.byte	24
 10627 0bc1 00       		.byte	0
 10628 0bc2 1B       		.byte	27
 10629 0bc3 E0       		.byte	-32
 10630 0bc4 1B       		.byte	27
 10631 0bc5 E0       		.byte	-32
 10632 0bc6 1B       		.byte	27
 10633 0bc7 00       		.byte	0
 10634 0bc8 1E       		.byte	30
 10635 0bc9 00       		.byte	0
 10636 0bca 1E       		.byte	30
 10637 0bcb 00       		.byte	0
 10638 0bcc 1B       		.byte	27
 10639 0bcd 00       		.byte	0
 10640 0bce 19       		.byte	25
 10641 0bcf 80       		.byte	-128
 10642 0bd0 39       		.byte	57
 10643 0bd1 F0       		.byte	-16
 10644 0bd2 39       		.byte	57
 10645 0bd3 F0       		.byte	-16
 10646 0bd4 00       		.byte	0
 10647 0bd5 00       		.byte	0
 10648 0bd6 00       		.byte	0
 10649 0bd7 00       		.byte	0
 10650 0bd8 00       		.byte	0
 10651 0bd9 00       		.byte	0
ARM GAS  D:\Programs\cygwin64\tmp\ccnP8CjY.s 			page 186


 10652 0bda 00       		.byte	0
 10653 0bdb 00       		.byte	0
 10654 0bdc 00       		.byte	0
 10655 0bdd 00       		.byte	0
 10656 0bde 00       		.byte	0
 10657 0bdf 00       		.byte	0
 10658 0be0 00       		.byte	0
 10659 0be1 00       		.byte	0
 10660 0be2 1F       		.byte	31
 10661 0be3 00       		.byte	0
 10662 0be4 1F       		.byte	31
 10663 0be5 00       		.byte	0
 10664 0be6 03       		.byte	3
 10665 0be7 00       		.byte	0
 10666 0be8 03       		.byte	3
 10667 0be9 00       		.byte	0
 10668 0bea 03       		.byte	3
 10669 0beb 00       		.byte	0
 10670 0bec 03       		.byte	3
 10671 0bed 00       		.byte	0
 10672 0bee 03       		.byte	3
 10673 0bef 00       		.byte	0
 10674 0bf0 03       		.byte	3
 10675 0bf1 00       		.byte	0
 10676 0bf2 03       		.byte	3
 10677 0bf3 00       		.byte	0
 10678 0bf4 03       		.byte	3
 10679 0bf5 00       		.byte	0
 10680 0bf6 03       		.byte	3
 10681 0bf7 00       		.byte	0
 10682 0bf8 1F       		.byte	31
 10683 0bf9 E0       		.byte	-32
 10684 0bfa 1F       		.byte	31
 10685 0bfb E0       		.byte	-32
 10686 0bfc 00       		.byte	0
 10687 0bfd 00       		.byte	0
 10688 0bfe 00       		.byte	0
 10689 0bff 00       		.byte	0
 10690 0c00 00       		.byte	0
 10691 0c01 00       		.byte	0
 10692 0c02 00       		.byte	0
 10693 0c03 00       		.byte	0
 10694 0c04 00       		.byte	0
 10695 0c05 00       		.byte	0
 10696 0c06 00       		.byte	0
 10697 0c07 00       		.byte	0
 10698 0c08 00       		.byte	0
 10699 0c09 00       		.byte	0
 10700 0c0a 00       		.byte	0
 10701 0c0b 00       		.byte	0
 10702 0c0c 00       		.byte	0
 10703 0c0d 00       		.byte	0
 10704 0c0e 00       		.byte	0
 10705 0c0f 00       		.byte	0
 10706 0c10 00       		.byte	0
 10707 0c11 00       		.byte	0
 10708 0c12 7E       		.byte	126
ARM GAS  D:\Programs\cygwin64\tmp\ccnP8CjY.s 			page 187


 10709 0c13 E0       		.byte	-32
 10710 0c14 7F       		.byte	127
 10711 0c15 F0       		.byte	-16
 10712 0c16 33       		.byte	51
 10713 0c17 30       		.byte	48
 10714 0c18 33       		.byte	51
 10715 0c19 30       		.byte	48
 10716 0c1a 33       		.byte	51
 10717 0c1b 30       		.byte	48
 10718 0c1c 33       		.byte	51
 10719 0c1d 30       		.byte	48
 10720 0c1e 33       		.byte	51
 10721 0c1f 30       		.byte	48
 10722 0c20 7B       		.byte	123
 10723 0c21 B8       		.byte	-72
 10724 0c22 7B       		.byte	123
 10725 0c23 B8       		.byte	-72
 10726 0c24 00       		.byte	0
 10727 0c25 00       		.byte	0
 10728 0c26 00       		.byte	0
 10729 0c27 00       		.byte	0
 10730 0c28 00       		.byte	0
 10731 0c29 00       		.byte	0
 10732 0c2a 00       		.byte	0
 10733 0c2b 00       		.byte	0
 10734 0c2c 00       		.byte	0
 10735 0c2d 00       		.byte	0
 10736 0c2e 00       		.byte	0
 10737 0c2f 00       		.byte	0
 10738 0c30 00       		.byte	0
 10739 0c31 00       		.byte	0
 10740 0c32 00       		.byte	0
 10741 0c33 00       		.byte	0
 10742 0c34 00       		.byte	0
 10743 0c35 00       		.byte	0
 10744 0c36 00       		.byte	0
 10745 0c37 00       		.byte	0
 10746 0c38 00       		.byte	0
 10747 0c39 00       		.byte	0
 10748 0c3a 3B       		.byte	59
 10749 0c3b C0       		.byte	-64
 10750 0c3c 3F       		.byte	63
 10751 0c3d E0       		.byte	-32
 10752 0c3e 1C       		.byte	28
 10753 0c3f 60       		.byte	96
 10754 0c40 18       		.byte	24
 10755 0c41 60       		.byte	96
 10756 0c42 18       		.byte	24
 10757 0c43 60       		.byte	96
 10758 0c44 18       		.byte	24
 10759 0c45 60       		.byte	96
 10760 0c46 18       		.byte	24
 10761 0c47 60       		.byte	96
 10762 0c48 3C       		.byte	60
 10763 0c49 F0       		.byte	-16
 10764 0c4a 3C       		.byte	60
 10765 0c4b F0       		.byte	-16
ARM GAS  D:\Programs\cygwin64\tmp\ccnP8CjY.s 			page 188


 10766 0c4c 00       		.byte	0
 10767 0c4d 00       		.byte	0
 10768 0c4e 00       		.byte	0
 10769 0c4f 00       		.byte	0
 10770 0c50 00       		.byte	0
 10771 0c51 00       		.byte	0
 10772 0c52 00       		.byte	0
 10773 0c53 00       		.byte	0
 10774 0c54 00       		.byte	0
 10775 0c55 00       		.byte	0
 10776 0c56 00       		.byte	0
 10777 0c57 00       		.byte	0
 10778 0c58 00       		.byte	0
 10779 0c59 00       		.byte	0
 10780 0c5a 00       		.byte	0
 10781 0c5b 00       		.byte	0
 10782 0c5c 00       		.byte	0
 10783 0c5d 00       		.byte	0
 10784 0c5e 00       		.byte	0
 10785 0c5f 00       		.byte	0
 10786 0c60 00       		.byte	0
 10787 0c61 00       		.byte	0
 10788 0c62 07       		.byte	7
 10789 0c63 80       		.byte	-128
 10790 0c64 1F       		.byte	31
 10791 0c65 E0       		.byte	-32
 10792 0c66 18       		.byte	24
 10793 0c67 60       		.byte	96
 10794 0c68 30       		.byte	48
 10795 0c69 30       		.byte	48
 10796 0c6a 30       		.byte	48
 10797 0c6b 30       		.byte	48
 10798 0c6c 30       		.byte	48
 10799 0c6d 30       		.byte	48
 10800 0c6e 18       		.byte	24
 10801 0c6f 60       		.byte	96
 10802 0c70 1F       		.byte	31
 10803 0c71 E0       		.byte	-32
 10804 0c72 07       		.byte	7
 10805 0c73 80       		.byte	-128
 10806 0c74 00       		.byte	0
 10807 0c75 00       		.byte	0
 10808 0c76 00       		.byte	0
 10809 0c77 00       		.byte	0
 10810 0c78 00       		.byte	0
 10811 0c79 00       		.byte	0
 10812 0c7a 00       		.byte	0
 10813 0c7b 00       		.byte	0
 10814 0c7c 00       		.byte	0
 10815 0c7d 00       		.byte	0
 10816 0c7e 00       		.byte	0
 10817 0c7f 00       		.byte	0
 10818 0c80 00       		.byte	0
 10819 0c81 00       		.byte	0
 10820 0c82 00       		.byte	0
 10821 0c83 00       		.byte	0
 10822 0c84 00       		.byte	0
ARM GAS  D:\Programs\cygwin64\tmp\ccnP8CjY.s 			page 189


 10823 0c85 00       		.byte	0
 10824 0c86 00       		.byte	0
 10825 0c87 00       		.byte	0
 10826 0c88 00       		.byte	0
 10827 0c89 00       		.byte	0
 10828 0c8a 77       		.byte	119
 10829 0c8b 80       		.byte	-128
 10830 0c8c 7F       		.byte	127
 10831 0c8d E0       		.byte	-32
 10832 0c8e 38       		.byte	56
 10833 0c8f 60       		.byte	96
 10834 0c90 30       		.byte	48
 10835 0c91 30       		.byte	48
 10836 0c92 30       		.byte	48
 10837 0c93 30       		.byte	48
 10838 0c94 30       		.byte	48
 10839 0c95 30       		.byte	48
 10840 0c96 38       		.byte	56
 10841 0c97 60       		.byte	96
 10842 0c98 3F       		.byte	63
 10843 0c99 E0       		.byte	-32
 10844 0c9a 37       		.byte	55
 10845 0c9b 80       		.byte	-128
 10846 0c9c 30       		.byte	48
 10847 0c9d 00       		.byte	0
 10848 0c9e 30       		.byte	48
 10849 0c9f 00       		.byte	0
 10850 0ca0 7C       		.byte	124
 10851 0ca1 00       		.byte	0
 10852 0ca2 7C       		.byte	124
 10853 0ca3 00       		.byte	0
 10854 0ca4 00       		.byte	0
 10855 0ca5 00       		.byte	0
 10856 0ca6 00       		.byte	0
 10857 0ca7 00       		.byte	0
 10858 0ca8 00       		.byte	0
 10859 0ca9 00       		.byte	0
 10860 0caa 00       		.byte	0
 10861 0cab 00       		.byte	0
 10862 0cac 00       		.byte	0
 10863 0cad 00       		.byte	0
 10864 0cae 00       		.byte	0
 10865 0caf 00       		.byte	0
 10866 0cb0 00       		.byte	0
 10867 0cb1 00       		.byte	0
 10868 0cb2 07       		.byte	7
 10869 0cb3 B8       		.byte	-72
 10870 0cb4 1F       		.byte	31
 10871 0cb5 F8       		.byte	-8
 10872 0cb6 18       		.byte	24
 10873 0cb7 70       		.byte	112
 10874 0cb8 30       		.byte	48
 10875 0cb9 30       		.byte	48
 10876 0cba 30       		.byte	48
 10877 0cbb 30       		.byte	48
 10878 0cbc 30       		.byte	48
 10879 0cbd 30       		.byte	48
ARM GAS  D:\Programs\cygwin64\tmp\ccnP8CjY.s 			page 190


 10880 0cbe 18       		.byte	24
 10881 0cbf 70       		.byte	112
 10882 0cc0 1F       		.byte	31
 10883 0cc1 F0       		.byte	-16
 10884 0cc2 07       		.byte	7
 10885 0cc3 B0       		.byte	-80
 10886 0cc4 00       		.byte	0
 10887 0cc5 30       		.byte	48
 10888 0cc6 00       		.byte	0
 10889 0cc7 30       		.byte	48
 10890 0cc8 00       		.byte	0
 10891 0cc9 F8       		.byte	-8
 10892 0cca 00       		.byte	0
 10893 0ccb F8       		.byte	-8
 10894 0ccc 00       		.byte	0
 10895 0ccd 00       		.byte	0
 10896 0cce 00       		.byte	0
 10897 0ccf 00       		.byte	0
 10898 0cd0 00       		.byte	0
 10899 0cd1 00       		.byte	0
 10900 0cd2 00       		.byte	0
 10901 0cd3 00       		.byte	0
 10902 0cd4 00       		.byte	0
 10903 0cd5 00       		.byte	0
 10904 0cd6 00       		.byte	0
 10905 0cd7 00       		.byte	0
 10906 0cd8 00       		.byte	0
 10907 0cd9 00       		.byte	0
 10908 0cda 3C       		.byte	60
 10909 0cdb E0       		.byte	-32
 10910 0cdc 3D       		.byte	61
 10911 0cdd F0       		.byte	-16
 10912 0cde 0F       		.byte	15
 10913 0cdf 30       		.byte	48
 10914 0ce0 0E       		.byte	14
 10915 0ce1 00       		.byte	0
 10916 0ce2 0C       		.byte	12
 10917 0ce3 00       		.byte	0
 10918 0ce4 0C       		.byte	12
 10919 0ce5 00       		.byte	0
 10920 0ce6 0C       		.byte	12
 10921 0ce7 00       		.byte	0
 10922 0ce8 3F       		.byte	63
 10923 0ce9 C0       		.byte	-64
 10924 0cea 3F       		.byte	63
 10925 0ceb C0       		.byte	-64
 10926 0cec 00       		.byte	0
 10927 0ced 00       		.byte	0
 10928 0cee 00       		.byte	0
 10929 0cef 00       		.byte	0
 10930 0cf0 00       		.byte	0
 10931 0cf1 00       		.byte	0
 10932 0cf2 00       		.byte	0
 10933 0cf3 00       		.byte	0
 10934 0cf4 00       		.byte	0
 10935 0cf5 00       		.byte	0
 10936 0cf6 00       		.byte	0
ARM GAS  D:\Programs\cygwin64\tmp\ccnP8CjY.s 			page 191


 10937 0cf7 00       		.byte	0
 10938 0cf8 00       		.byte	0
 10939 0cf9 00       		.byte	0
 10940 0cfa 00       		.byte	0
 10941 0cfb 00       		.byte	0
 10942 0cfc 00       		.byte	0
 10943 0cfd 00       		.byte	0
 10944 0cfe 00       		.byte	0
 10945 0cff 00       		.byte	0
 10946 0d00 00       		.byte	0
 10947 0d01 00       		.byte	0
 10948 0d02 07       		.byte	7
 10949 0d03 E0       		.byte	-32
 10950 0d04 1F       		.byte	31
 10951 0d05 E0       		.byte	-32
 10952 0d06 18       		.byte	24
 10953 0d07 60       		.byte	96
 10954 0d08 1E       		.byte	30
 10955 0d09 00       		.byte	0
 10956 0d0a 0F       		.byte	15
 10957 0d0b C0       		.byte	-64
 10958 0d0c 01       		.byte	1
 10959 0d0d E0       		.byte	-32
 10960 0d0e 18       		.byte	24
 10961 0d0f 60       		.byte	96
 10962 0d10 1F       		.byte	31
 10963 0d11 E0       		.byte	-32
 10964 0d12 1F       		.byte	31
 10965 0d13 80       		.byte	-128
 10966 0d14 00       		.byte	0
 10967 0d15 00       		.byte	0
 10968 0d16 00       		.byte	0
 10969 0d17 00       		.byte	0
 10970 0d18 00       		.byte	0
 10971 0d19 00       		.byte	0
 10972 0d1a 00       		.byte	0
 10973 0d1b 00       		.byte	0
 10974 0d1c 00       		.byte	0
 10975 0d1d 00       		.byte	0
 10976 0d1e 00       		.byte	0
 10977 0d1f 00       		.byte	0
 10978 0d20 00       		.byte	0
 10979 0d21 00       		.byte	0
 10980 0d22 00       		.byte	0
 10981 0d23 00       		.byte	0
 10982 0d24 0C       		.byte	12
 10983 0d25 00       		.byte	0
 10984 0d26 0C       		.byte	12
 10985 0d27 00       		.byte	0
 10986 0d28 0C       		.byte	12
 10987 0d29 00       		.byte	0
 10988 0d2a 3F       		.byte	63
 10989 0d2b E0       		.byte	-32
 10990 0d2c 3F       		.byte	63
 10991 0d2d E0       		.byte	-32
 10992 0d2e 0C       		.byte	12
 10993 0d2f 00       		.byte	0
ARM GAS  D:\Programs\cygwin64\tmp\ccnP8CjY.s 			page 192


 10994 0d30 0C       		.byte	12
 10995 0d31 00       		.byte	0
 10996 0d32 0C       		.byte	12
 10997 0d33 00       		.byte	0
 10998 0d34 0C       		.byte	12
 10999 0d35 00       		.byte	0
 11000 0d36 0C       		.byte	12
 11001 0d37 30       		.byte	48
 11002 0d38 0F       		.byte	15
 11003 0d39 F0       		.byte	-16
 11004 0d3a 07       		.byte	7
 11005 0d3b C0       		.byte	-64
 11006 0d3c 00       		.byte	0
 11007 0d3d 00       		.byte	0
 11008 0d3e 00       		.byte	0
 11009 0d3f 00       		.byte	0
 11010 0d40 00       		.byte	0
 11011 0d41 00       		.byte	0
 11012 0d42 00       		.byte	0
 11013 0d43 00       		.byte	0
 11014 0d44 00       		.byte	0
 11015 0d45 00       		.byte	0
 11016 0d46 00       		.byte	0
 11017 0d47 00       		.byte	0
 11018 0d48 00       		.byte	0
 11019 0d49 00       		.byte	0
 11020 0d4a 00       		.byte	0
 11021 0d4b 00       		.byte	0
 11022 0d4c 00       		.byte	0
 11023 0d4d 00       		.byte	0
 11024 0d4e 00       		.byte	0
 11025 0d4f 00       		.byte	0
 11026 0d50 00       		.byte	0
 11027 0d51 00       		.byte	0
 11028 0d52 38       		.byte	56
 11029 0d53 E0       		.byte	-32
 11030 0d54 38       		.byte	56
 11031 0d55 E0       		.byte	-32
 11032 0d56 18       		.byte	24
 11033 0d57 60       		.byte	96
 11034 0d58 18       		.byte	24
 11035 0d59 60       		.byte	96
 11036 0d5a 18       		.byte	24
 11037 0d5b 60       		.byte	96
 11038 0d5c 18       		.byte	24
 11039 0d5d 60       		.byte	96
 11040 0d5e 18       		.byte	24
 11041 0d5f E0       		.byte	-32
 11042 0d60 1F       		.byte	31
 11043 0d61 F0       		.byte	-16
 11044 0d62 0F       		.byte	15
 11045 0d63 70       		.byte	112
 11046 0d64 00       		.byte	0
 11047 0d65 00       		.byte	0
 11048 0d66 00       		.byte	0
 11049 0d67 00       		.byte	0
 11050 0d68 00       		.byte	0
ARM GAS  D:\Programs\cygwin64\tmp\ccnP8CjY.s 			page 193


 11051 0d69 00       		.byte	0
 11052 0d6a 00       		.byte	0
 11053 0d6b 00       		.byte	0
 11054 0d6c 00       		.byte	0
 11055 0d6d 00       		.byte	0
 11056 0d6e 00       		.byte	0
 11057 0d6f 00       		.byte	0
 11058 0d70 00       		.byte	0
 11059 0d71 00       		.byte	0
 11060 0d72 00       		.byte	0
 11061 0d73 00       		.byte	0
 11062 0d74 00       		.byte	0
 11063 0d75 00       		.byte	0
 11064 0d76 00       		.byte	0
 11065 0d77 00       		.byte	0
 11066 0d78 00       		.byte	0
 11067 0d79 00       		.byte	0
 11068 0d7a 78       		.byte	120
 11069 0d7b F0       		.byte	-16
 11070 0d7c 78       		.byte	120
 11071 0d7d F0       		.byte	-16
 11072 0d7e 30       		.byte	48
 11073 0d7f 60       		.byte	96
 11074 0d80 18       		.byte	24
 11075 0d81 C0       		.byte	-64
 11076 0d82 18       		.byte	24
 11077 0d83 C0       		.byte	-64
 11078 0d84 0D       		.byte	13
 11079 0d85 80       		.byte	-128
 11080 0d86 0D       		.byte	13
 11081 0d87 80       		.byte	-128
 11082 0d88 07       		.byte	7
 11083 0d89 00       		.byte	0
 11084 0d8a 07       		.byte	7
 11085 0d8b 00       		.byte	0
 11086 0d8c 00       		.byte	0
 11087 0d8d 00       		.byte	0
 11088 0d8e 00       		.byte	0
 11089 0d8f 00       		.byte	0
 11090 0d90 00       		.byte	0
 11091 0d91 00       		.byte	0
 11092 0d92 00       		.byte	0
 11093 0d93 00       		.byte	0
 11094 0d94 00       		.byte	0
 11095 0d95 00       		.byte	0
 11096 0d96 00       		.byte	0
 11097 0d97 00       		.byte	0
 11098 0d98 00       		.byte	0
 11099 0d99 00       		.byte	0
 11100 0d9a 00       		.byte	0
 11101 0d9b 00       		.byte	0
 11102 0d9c 00       		.byte	0
 11103 0d9d 00       		.byte	0
 11104 0d9e 00       		.byte	0
 11105 0d9f 00       		.byte	0
 11106 0da0 00       		.byte	0
 11107 0da1 00       		.byte	0
ARM GAS  D:\Programs\cygwin64\tmp\ccnP8CjY.s 			page 194


 11108 0da2 78       		.byte	120
 11109 0da3 F0       		.byte	-16
 11110 0da4 78       		.byte	120
 11111 0da5 F0       		.byte	-16
 11112 0da6 32       		.byte	50
 11113 0da7 60       		.byte	96
 11114 0da8 32       		.byte	50
 11115 0da9 60       		.byte	96
 11116 0daa 37       		.byte	55
 11117 0dab E0       		.byte	-32
 11118 0dac 1D       		.byte	29
 11119 0dad C0       		.byte	-64
 11120 0dae 1D       		.byte	29
 11121 0daf C0       		.byte	-64
 11122 0db0 18       		.byte	24
 11123 0db1 C0       		.byte	-64
 11124 0db2 18       		.byte	24
 11125 0db3 C0       		.byte	-64
 11126 0db4 00       		.byte	0
 11127 0db5 00       		.byte	0
 11128 0db6 00       		.byte	0
 11129 0db7 00       		.byte	0
 11130 0db8 00       		.byte	0
 11131 0db9 00       		.byte	0
 11132 0dba 00       		.byte	0
 11133 0dbb 00       		.byte	0
 11134 0dbc 00       		.byte	0
 11135 0dbd 00       		.byte	0
 11136 0dbe 00       		.byte	0
 11137 0dbf 00       		.byte	0
 11138 0dc0 00       		.byte	0
 11139 0dc1 00       		.byte	0
 11140 0dc2 00       		.byte	0
 11141 0dc3 00       		.byte	0
 11142 0dc4 00       		.byte	0
 11143 0dc5 00       		.byte	0
 11144 0dc6 00       		.byte	0
 11145 0dc7 00       		.byte	0
 11146 0dc8 00       		.byte	0
 11147 0dc9 00       		.byte	0
 11148 0dca 3C       		.byte	60
 11149 0dcb F0       		.byte	-16
 11150 0dcc 3C       		.byte	60
 11151 0dcd F0       		.byte	-16
 11152 0dce 0C       		.byte	12
 11153 0dcf C0       		.byte	-64
 11154 0dd0 07       		.byte	7
 11155 0dd1 80       		.byte	-128
 11156 0dd2 03       		.byte	3
 11157 0dd3 00       		.byte	0
 11158 0dd4 07       		.byte	7
 11159 0dd5 80       		.byte	-128
 11160 0dd6 0C       		.byte	12
 11161 0dd7 C0       		.byte	-64
 11162 0dd8 3C       		.byte	60
 11163 0dd9 F0       		.byte	-16
 11164 0dda 3C       		.byte	60
ARM GAS  D:\Programs\cygwin64\tmp\ccnP8CjY.s 			page 195


 11165 0ddb F0       		.byte	-16
 11166 0ddc 00       		.byte	0
 11167 0ddd 00       		.byte	0
 11168 0dde 00       		.byte	0
 11169 0ddf 00       		.byte	0
 11170 0de0 00       		.byte	0
 11171 0de1 00       		.byte	0
 11172 0de2 00       		.byte	0
 11173 0de3 00       		.byte	0
 11174 0de4 00       		.byte	0
 11175 0de5 00       		.byte	0
 11176 0de6 00       		.byte	0
 11177 0de7 00       		.byte	0
 11178 0de8 00       		.byte	0
 11179 0de9 00       		.byte	0
 11180 0dea 00       		.byte	0
 11181 0deb 00       		.byte	0
 11182 0dec 00       		.byte	0
 11183 0ded 00       		.byte	0
 11184 0dee 00       		.byte	0
 11185 0def 00       		.byte	0
 11186 0df0 00       		.byte	0
 11187 0df1 00       		.byte	0
 11188 0df2 78       		.byte	120
 11189 0df3 F0       		.byte	-16
 11190 0df4 78       		.byte	120
 11191 0df5 F0       		.byte	-16
 11192 0df6 30       		.byte	48
 11193 0df7 60       		.byte	96
 11194 0df8 18       		.byte	24
 11195 0df9 C0       		.byte	-64
 11196 0dfa 18       		.byte	24
 11197 0dfb C0       		.byte	-64
 11198 0dfc 0D       		.byte	13
 11199 0dfd 80       		.byte	-128
 11200 0dfe 0F       		.byte	15
 11201 0dff 80       		.byte	-128
 11202 0e00 07       		.byte	7
 11203 0e01 00       		.byte	0
 11204 0e02 06       		.byte	6
 11205 0e03 00       		.byte	0
 11206 0e04 06       		.byte	6
 11207 0e05 00       		.byte	0
 11208 0e06 0C       		.byte	12
 11209 0e07 00       		.byte	0
 11210 0e08 7F       		.byte	127
 11211 0e09 00       		.byte	0
 11212 0e0a 7F       		.byte	127
 11213 0e0b 00       		.byte	0
 11214 0e0c 00       		.byte	0
 11215 0e0d 00       		.byte	0
 11216 0e0e 00       		.byte	0
 11217 0e0f 00       		.byte	0
 11218 0e10 00       		.byte	0
 11219 0e11 00       		.byte	0
 11220 0e12 00       		.byte	0
 11221 0e13 00       		.byte	0
ARM GAS  D:\Programs\cygwin64\tmp\ccnP8CjY.s 			page 196


 11222 0e14 00       		.byte	0
 11223 0e15 00       		.byte	0
 11224 0e16 00       		.byte	0
 11225 0e17 00       		.byte	0
 11226 0e18 00       		.byte	0
 11227 0e19 00       		.byte	0
 11228 0e1a 1F       		.byte	31
 11229 0e1b E0       		.byte	-32
 11230 0e1c 1F       		.byte	31
 11231 0e1d E0       		.byte	-32
 11232 0e1e 18       		.byte	24
 11233 0e1f C0       		.byte	-64
 11234 0e20 01       		.byte	1
 11235 0e21 80       		.byte	-128
 11236 0e22 03       		.byte	3
 11237 0e23 00       		.byte	0
 11238 0e24 06       		.byte	6
 11239 0e25 00       		.byte	0
 11240 0e26 0C       		.byte	12
 11241 0e27 60       		.byte	96
 11242 0e28 1F       		.byte	31
 11243 0e29 E0       		.byte	-32
 11244 0e2a 1F       		.byte	31
 11245 0e2b E0       		.byte	-32
 11246 0e2c 00       		.byte	0
 11247 0e2d 00       		.byte	0
 11248 0e2e 00       		.byte	0
 11249 0e2f 00       		.byte	0
 11250 0e30 00       		.byte	0
 11251 0e31 00       		.byte	0
 11252 0e32 00       		.byte	0
 11253 0e33 00       		.byte	0
 11254 0e34 00       		.byte	0
 11255 0e35 00       		.byte	0
 11256 0e36 00       		.byte	0
 11257 0e37 00       		.byte	0
 11258 0e38 00       		.byte	0
 11259 0e39 00       		.byte	0
 11260 0e3a 01       		.byte	1
 11261 0e3b C0       		.byte	-64
 11262 0e3c 03       		.byte	3
 11263 0e3d C0       		.byte	-64
 11264 0e3e 03       		.byte	3
 11265 0e3f 00       		.byte	0
 11266 0e40 03       		.byte	3
 11267 0e41 00       		.byte	0
 11268 0e42 03       		.byte	3
 11269 0e43 00       		.byte	0
 11270 0e44 03       		.byte	3
 11271 0e45 00       		.byte	0
 11272 0e46 03       		.byte	3
 11273 0e47 00       		.byte	0
 11274 0e48 07       		.byte	7
 11275 0e49 00       		.byte	0
 11276 0e4a 0E       		.byte	14
 11277 0e4b 00       		.byte	0
 11278 0e4c 07       		.byte	7
ARM GAS  D:\Programs\cygwin64\tmp\ccnP8CjY.s 			page 197


 11279 0e4d 00       		.byte	0
 11280 0e4e 03       		.byte	3
 11281 0e4f 00       		.byte	0
 11282 0e50 03       		.byte	3
 11283 0e51 00       		.byte	0
 11284 0e52 03       		.byte	3
 11285 0e53 00       		.byte	0
 11286 0e54 03       		.byte	3
 11287 0e55 00       		.byte	0
 11288 0e56 03       		.byte	3
 11289 0e57 C0       		.byte	-64
 11290 0e58 01       		.byte	1
 11291 0e59 C0       		.byte	-64
 11292 0e5a 00       		.byte	0
 11293 0e5b 00       		.byte	0
 11294 0e5c 00       		.byte	0
 11295 0e5d 00       		.byte	0
 11296 0e5e 00       		.byte	0
 11297 0e5f 00       		.byte	0
 11298 0e60 00       		.byte	0
 11299 0e61 00       		.byte	0
 11300 0e62 03       		.byte	3
 11301 0e63 00       		.byte	0
 11302 0e64 03       		.byte	3
 11303 0e65 00       		.byte	0
 11304 0e66 03       		.byte	3
 11305 0e67 00       		.byte	0
 11306 0e68 03       		.byte	3
 11307 0e69 00       		.byte	0
 11308 0e6a 03       		.byte	3
 11309 0e6b 00       		.byte	0
 11310 0e6c 03       		.byte	3
 11311 0e6d 00       		.byte	0
 11312 0e6e 03       		.byte	3
 11313 0e6f 00       		.byte	0
 11314 0e70 03       		.byte	3
 11315 0e71 00       		.byte	0
 11316 0e72 03       		.byte	3
 11317 0e73 00       		.byte	0
 11318 0e74 03       		.byte	3
 11319 0e75 00       		.byte	0
 11320 0e76 03       		.byte	3
 11321 0e77 00       		.byte	0
 11322 0e78 03       		.byte	3
 11323 0e79 00       		.byte	0
 11324 0e7a 03       		.byte	3
 11325 0e7b 00       		.byte	0
 11326 0e7c 03       		.byte	3
 11327 0e7d 00       		.byte	0
 11328 0e7e 03       		.byte	3
 11329 0e7f 00       		.byte	0
 11330 0e80 03       		.byte	3
 11331 0e81 00       		.byte	0
 11332 0e82 00       		.byte	0
 11333 0e83 00       		.byte	0
 11334 0e84 00       		.byte	0
 11335 0e85 00       		.byte	0
ARM GAS  D:\Programs\cygwin64\tmp\ccnP8CjY.s 			page 198


 11336 0e86 00       		.byte	0
 11337 0e87 00       		.byte	0
 11338 0e88 00       		.byte	0
 11339 0e89 00       		.byte	0
 11340 0e8a 1C       		.byte	28
 11341 0e8b 00       		.byte	0
 11342 0e8c 1E       		.byte	30
 11343 0e8d 00       		.byte	0
 11344 0e8e 06       		.byte	6
 11345 0e8f 00       		.byte	0
 11346 0e90 06       		.byte	6
 11347 0e91 00       		.byte	0
 11348 0e92 06       		.byte	6
 11349 0e93 00       		.byte	0
 11350 0e94 06       		.byte	6
 11351 0e95 00       		.byte	0
 11352 0e96 06       		.byte	6
 11353 0e97 00       		.byte	0
 11354 0e98 07       		.byte	7
 11355 0e99 00       		.byte	0
 11356 0e9a 03       		.byte	3
 11357 0e9b 80       		.byte	-128
 11358 0e9c 07       		.byte	7
 11359 0e9d 00       		.byte	0
 11360 0e9e 06       		.byte	6
 11361 0e9f 00       		.byte	0
 11362 0ea0 06       		.byte	6
 11363 0ea1 00       		.byte	0
 11364 0ea2 06       		.byte	6
 11365 0ea3 00       		.byte	0
 11366 0ea4 06       		.byte	6
 11367 0ea5 00       		.byte	0
 11368 0ea6 1E       		.byte	30
 11369 0ea7 00       		.byte	0
 11370 0ea8 1C       		.byte	28
 11371 0ea9 00       		.byte	0
 11372 0eaa 00       		.byte	0
 11373 0eab 00       		.byte	0
 11374 0eac 00       		.byte	0
 11375 0ead 00       		.byte	0
 11376 0eae 00       		.byte	0
 11377 0eaf 00       		.byte	0
 11378 0eb0 00       		.byte	0
 11379 0eb1 00       		.byte	0
 11380 0eb2 00       		.byte	0
 11381 0eb3 00       		.byte	0
 11382 0eb4 00       		.byte	0
 11383 0eb5 00       		.byte	0
 11384 0eb6 00       		.byte	0
 11385 0eb7 00       		.byte	0
 11386 0eb8 00       		.byte	0
 11387 0eb9 00       		.byte	0
 11388 0eba 00       		.byte	0
 11389 0ebb 00       		.byte	0
 11390 0ebc 0E       		.byte	14
 11391 0ebd 00       		.byte	0
 11392 0ebe 3F       		.byte	63
ARM GAS  D:\Programs\cygwin64\tmp\ccnP8CjY.s 			page 199


 11393 0ebf 30       		.byte	48
 11394 0ec0 33       		.byte	51
 11395 0ec1 F0       		.byte	-16
 11396 0ec2 01       		.byte	1
 11397 0ec3 E0       		.byte	-32
 11398 0ec4 00       		.byte	0
 11399 0ec5 00       		.byte	0
 11400 0ec6 00       		.byte	0
 11401 0ec7 00       		.byte	0
 11402 0ec8 00       		.byte	0
 11403 0ec9 00       		.byte	0
 11404 0eca 00       		.byte	0
 11405 0ecb 00       		.byte	0
 11406 0ecc 00       		.byte	0
 11407 0ecd 00       		.byte	0
 11408 0ece 00       		.byte	0
 11409 0ecf 00       		.byte	0
 11410 0ed0 00       		.byte	0
 11411 0ed1 00       		.byte	0
 11412 0ed2 00       		.byte	0
 11413 0ed3 00       		.byte	0
 11414 0ed4 00       		.byte	0
 11415 0ed5 00       		.byte	0
 11416 0ed6 00       		.byte	0
 11417 0ed7 00       		.byte	0
 11418              		.section	.rodata.Font24_Table,"a"
 11419              		.align	2
 11422              	Font24_Table:
 11423 0000 00       		.byte	0
 11424 0001 00       		.byte	0
 11425 0002 00       		.byte	0
 11426 0003 00       		.byte	0
 11427 0004 00       		.byte	0
 11428 0005 00       		.byte	0
 11429 0006 00       		.byte	0
 11430 0007 00       		.byte	0
 11431 0008 00       		.byte	0
 11432 0009 00       		.byte	0
 11433 000a 00       		.byte	0
 11434 000b 00       		.byte	0
 11435 000c 00       		.byte	0
 11436 000d 00       		.byte	0
 11437 000e 00       		.byte	0
 11438 000f 00       		.byte	0
 11439 0010 00       		.byte	0
 11440 0011 00       		.byte	0
 11441 0012 00       		.byte	0
 11442 0013 00       		.byte	0
 11443 0014 00       		.byte	0
 11444 0015 00       		.byte	0
 11445 0016 00       		.byte	0
 11446 0017 00       		.byte	0
 11447 0018 00       		.byte	0
 11448 0019 00       		.byte	0
 11449 001a 00       		.byte	0
 11450 001b 00       		.byte	0
 11451 001c 00       		.byte	0
ARM GAS  D:\Programs\cygwin64\tmp\ccnP8CjY.s 			page 200


 11452 001d 00       		.byte	0
 11453 001e 00       		.byte	0
 11454 001f 00       		.byte	0
 11455 0020 00       		.byte	0
 11456 0021 00       		.byte	0
 11457 0022 00       		.byte	0
 11458 0023 00       		.byte	0
 11459 0024 00       		.byte	0
 11460 0025 00       		.byte	0
 11461 0026 00       		.byte	0
 11462 0027 00       		.byte	0
 11463 0028 00       		.byte	0
 11464 0029 00       		.byte	0
 11465 002a 00       		.byte	0
 11466 002b 00       		.byte	0
 11467 002c 00       		.byte	0
 11468 002d 00       		.byte	0
 11469 002e 00       		.byte	0
 11470 002f 00       		.byte	0
 11471 0030 00       		.byte	0
 11472 0031 00       		.byte	0
 11473 0032 00       		.byte	0
 11474 0033 00       		.byte	0
 11475 0034 00       		.byte	0
 11476 0035 00       		.byte	0
 11477 0036 00       		.byte	0
 11478 0037 00       		.byte	0
 11479 0038 00       		.byte	0
 11480 0039 00       		.byte	0
 11481 003a 00       		.byte	0
 11482 003b 00       		.byte	0
 11483 003c 00       		.byte	0
 11484 003d 00       		.byte	0
 11485 003e 00       		.byte	0
 11486 003f 00       		.byte	0
 11487 0040 00       		.byte	0
 11488 0041 00       		.byte	0
 11489 0042 00       		.byte	0
 11490 0043 00       		.byte	0
 11491 0044 00       		.byte	0
 11492 0045 00       		.byte	0
 11493 0046 00       		.byte	0
 11494 0047 00       		.byte	0
 11495 0048 00       		.byte	0
 11496 0049 00       		.byte	0
 11497 004a 00       		.byte	0
 11498 004b 00       		.byte	0
 11499 004c 00       		.byte	0
 11500 004d 00       		.byte	0
 11501 004e 03       		.byte	3
 11502 004f 80       		.byte	-128
 11503 0050 00       		.byte	0
 11504 0051 03       		.byte	3
 11505 0052 80       		.byte	-128
 11506 0053 00       		.byte	0
 11507 0054 03       		.byte	3
 11508 0055 80       		.byte	-128
ARM GAS  D:\Programs\cygwin64\tmp\ccnP8CjY.s 			page 201


 11509 0056 00       		.byte	0
 11510 0057 03       		.byte	3
 11511 0058 80       		.byte	-128
 11512 0059 00       		.byte	0
 11513 005a 03       		.byte	3
 11514 005b 80       		.byte	-128
 11515 005c 00       		.byte	0
 11516 005d 03       		.byte	3
 11517 005e 80       		.byte	-128
 11518 005f 00       		.byte	0
 11519 0060 03       		.byte	3
 11520 0061 80       		.byte	-128
 11521 0062 00       		.byte	0
 11522 0063 03       		.byte	3
 11523 0064 80       		.byte	-128
 11524 0065 00       		.byte	0
 11525 0066 03       		.byte	3
 11526 0067 80       		.byte	-128
 11527 0068 00       		.byte	0
 11528 0069 01       		.byte	1
 11529 006a 00       		.byte	0
 11530 006b 00       		.byte	0
 11531 006c 01       		.byte	1
 11532 006d 00       		.byte	0
 11533 006e 00       		.byte	0
 11534 006f 00       		.byte	0
 11535 0070 00       		.byte	0
 11536 0071 00       		.byte	0
 11537 0072 00       		.byte	0
 11538 0073 00       		.byte	0
 11539 0074 00       		.byte	0
 11540 0075 03       		.byte	3
 11541 0076 80       		.byte	-128
 11542 0077 00       		.byte	0
 11543 0078 03       		.byte	3
 11544 0079 80       		.byte	-128
 11545 007a 00       		.byte	0
 11546 007b 00       		.byte	0
 11547 007c 00       		.byte	0
 11548 007d 00       		.byte	0
 11549 007e 00       		.byte	0
 11550 007f 00       		.byte	0
 11551 0080 00       		.byte	0
 11552 0081 00       		.byte	0
 11553 0082 00       		.byte	0
 11554 0083 00       		.byte	0
 11555 0084 00       		.byte	0
 11556 0085 00       		.byte	0
 11557 0086 00       		.byte	0
 11558 0087 00       		.byte	0
 11559 0088 00       		.byte	0
 11560 0089 00       		.byte	0
 11561 008a 00       		.byte	0
 11562 008b 00       		.byte	0
 11563 008c 00       		.byte	0
 11564 008d 00       		.byte	0
 11565 008e 00       		.byte	0
ARM GAS  D:\Programs\cygwin64\tmp\ccnP8CjY.s 			page 202


 11566 008f 00       		.byte	0
 11567 0090 00       		.byte	0
 11568 0091 00       		.byte	0
 11569 0092 00       		.byte	0
 11570 0093 00       		.byte	0
 11571 0094 00       		.byte	0
 11572 0095 00       		.byte	0
 11573 0096 00       		.byte	0
 11574 0097 00       		.byte	0
 11575 0098 00       		.byte	0
 11576 0099 0E       		.byte	14
 11577 009a 70       		.byte	112
 11578 009b 00       		.byte	0
 11579 009c 0E       		.byte	14
 11580 009d 70       		.byte	112
 11581 009e 00       		.byte	0
 11582 009f 0E       		.byte	14
 11583 00a0 70       		.byte	112
 11584 00a1 00       		.byte	0
 11585 00a2 04       		.byte	4
 11586 00a3 20       		.byte	32
 11587 00a4 00       		.byte	0
 11588 00a5 04       		.byte	4
 11589 00a6 20       		.byte	32
 11590 00a7 00       		.byte	0
 11591 00a8 04       		.byte	4
 11592 00a9 20       		.byte	32
 11593 00aa 00       		.byte	0
 11594 00ab 04       		.byte	4
 11595 00ac 20       		.byte	32
 11596 00ad 00       		.byte	0
 11597 00ae 00       		.byte	0
 11598 00af 00       		.byte	0
 11599 00b0 00       		.byte	0
 11600 00b1 00       		.byte	0
 11601 00b2 00       		.byte	0
 11602 00b3 00       		.byte	0
 11603 00b4 00       		.byte	0
 11604 00b5 00       		.byte	0
 11605 00b6 00       		.byte	0
 11606 00b7 00       		.byte	0
 11607 00b8 00       		.byte	0
 11608 00b9 00       		.byte	0
 11609 00ba 00       		.byte	0
 11610 00bb 00       		.byte	0
 11611 00bc 00       		.byte	0
 11612 00bd 00       		.byte	0
 11613 00be 00       		.byte	0
 11614 00bf 00       		.byte	0
 11615 00c0 00       		.byte	0
 11616 00c1 00       		.byte	0
 11617 00c2 00       		.byte	0
 11618 00c3 00       		.byte	0
 11619 00c4 00       		.byte	0
 11620 00c5 00       		.byte	0
 11621 00c6 00       		.byte	0
 11622 00c7 00       		.byte	0
ARM GAS  D:\Programs\cygwin64\tmp\ccnP8CjY.s 			page 203


 11623 00c8 00       		.byte	0
 11624 00c9 00       		.byte	0
 11625 00ca 00       		.byte	0
 11626 00cb 00       		.byte	0
 11627 00cc 00       		.byte	0
 11628 00cd 00       		.byte	0
 11629 00ce 00       		.byte	0
 11630 00cf 00       		.byte	0
 11631 00d0 00       		.byte	0
 11632 00d1 00       		.byte	0
 11633 00d2 00       		.byte	0
 11634 00d3 00       		.byte	0
 11635 00d4 00       		.byte	0
 11636 00d5 00       		.byte	0
 11637 00d6 00       		.byte	0
 11638 00d7 00       		.byte	0
 11639 00d8 00       		.byte	0
 11640 00d9 00       		.byte	0
 11641 00da 00       		.byte	0
 11642 00db 00       		.byte	0
 11643 00dc 00       		.byte	0
 11644 00dd 00       		.byte	0
 11645 00de 06       		.byte	6
 11646 00df 60       		.byte	96
 11647 00e0 00       		.byte	0
 11648 00e1 06       		.byte	6
 11649 00e2 60       		.byte	96
 11650 00e3 00       		.byte	0
 11651 00e4 06       		.byte	6
 11652 00e5 60       		.byte	96
 11653 00e6 00       		.byte	0
 11654 00e7 06       		.byte	6
 11655 00e8 60       		.byte	96
 11656 00e9 00       		.byte	0
 11657 00ea 06       		.byte	6
 11658 00eb 60       		.byte	96
 11659 00ec 00       		.byte	0
 11660 00ed 3F       		.byte	63
 11661 00ee F8       		.byte	-8
 11662 00ef 00       		.byte	0
 11663 00f0 3F       		.byte	63
 11664 00f1 F8       		.byte	-8
 11665 00f2 00       		.byte	0
 11666 00f3 06       		.byte	6
 11667 00f4 60       		.byte	96
 11668 00f5 00       		.byte	0
 11669 00f6 0C       		.byte	12
 11670 00f7 C0       		.byte	-64
 11671 00f8 00       		.byte	0
 11672 00f9 3F       		.byte	63
 11673 00fa F8       		.byte	-8
 11674 00fb 00       		.byte	0
 11675 00fc 3F       		.byte	63
 11676 00fd F8       		.byte	-8
 11677 00fe 00       		.byte	0
 11678 00ff 0C       		.byte	12
 11679 0100 C0       		.byte	-64
ARM GAS  D:\Programs\cygwin64\tmp\ccnP8CjY.s 			page 204


 11680 0101 00       		.byte	0
 11681 0102 0C       		.byte	12
 11682 0103 C0       		.byte	-64
 11683 0104 00       		.byte	0
 11684 0105 0C       		.byte	12
 11685 0106 C0       		.byte	-64
 11686 0107 00       		.byte	0
 11687 0108 0C       		.byte	12
 11688 0109 C0       		.byte	-64
 11689 010a 00       		.byte	0
 11690 010b 0C       		.byte	12
 11691 010c C0       		.byte	-64
 11692 010d 00       		.byte	0
 11693 010e 00       		.byte	0
 11694 010f 00       		.byte	0
 11695 0110 00       		.byte	0
 11696 0111 00       		.byte	0
 11697 0112 00       		.byte	0
 11698 0113 00       		.byte	0
 11699 0114 00       		.byte	0
 11700 0115 00       		.byte	0
 11701 0116 00       		.byte	0
 11702 0117 00       		.byte	0
 11703 0118 00       		.byte	0
 11704 0119 00       		.byte	0
 11705 011a 00       		.byte	0
 11706 011b 00       		.byte	0
 11707 011c 00       		.byte	0
 11708 011d 00       		.byte	0
 11709 011e 00       		.byte	0
 11710 011f 00       		.byte	0
 11711 0120 00       		.byte	0
 11712 0121 00       		.byte	0
 11713 0122 00       		.byte	0
 11714 0123 01       		.byte	1
 11715 0124 80       		.byte	-128
 11716 0125 00       		.byte	0
 11717 0126 01       		.byte	1
 11718 0127 80       		.byte	-128
 11719 0128 00       		.byte	0
 11720 0129 07       		.byte	7
 11721 012a B0       		.byte	-80
 11722 012b 00       		.byte	0
 11723 012c 0F       		.byte	15
 11724 012d F0       		.byte	-16
 11725 012e 00       		.byte	0
 11726 012f 18       		.byte	24
 11727 0130 70       		.byte	112
 11728 0131 00       		.byte	0
 11729 0132 18       		.byte	24
 11730 0133 70       		.byte	112
 11731 0134 00       		.byte	0
 11732 0135 1C       		.byte	28
 11733 0136 00       		.byte	0
 11734 0137 00       		.byte	0
 11735 0138 0F       		.byte	15
 11736 0139 80       		.byte	-128
ARM GAS  D:\Programs\cygwin64\tmp\ccnP8CjY.s 			page 205


 11737 013a 00       		.byte	0
 11738 013b 07       		.byte	7
 11739 013c E0       		.byte	-32
 11740 013d 00       		.byte	0
 11741 013e 00       		.byte	0
 11742 013f F0       		.byte	-16
 11743 0140 00       		.byte	0
 11744 0141 18       		.byte	24
 11745 0142 30       		.byte	48
 11746 0143 00       		.byte	0
 11747 0144 1C       		.byte	28
 11748 0145 30       		.byte	48
 11749 0146 00       		.byte	0
 11750 0147 1C       		.byte	28
 11751 0148 70       		.byte	112
 11752 0149 00       		.byte	0
 11753 014a 1F       		.byte	31
 11754 014b E0       		.byte	-32
 11755 014c 00       		.byte	0
 11756 014d 1B       		.byte	27
 11757 014e C0       		.byte	-64
 11758 014f 00       		.byte	0
 11759 0150 01       		.byte	1
 11760 0151 80       		.byte	-128
 11761 0152 00       		.byte	0
 11762 0153 01       		.byte	1
 11763 0154 80       		.byte	-128
 11764 0155 00       		.byte	0
 11765 0156 01       		.byte	1
 11766 0157 80       		.byte	-128
 11767 0158 00       		.byte	0
 11768 0159 01       		.byte	1
 11769 015a 80       		.byte	-128
 11770 015b 00       		.byte	0
 11771 015c 00       		.byte	0
 11772 015d 00       		.byte	0
 11773 015e 00       		.byte	0
 11774 015f 00       		.byte	0
 11775 0160 00       		.byte	0
 11776 0161 00       		.byte	0
 11777 0162 00       		.byte	0
 11778 0163 00       		.byte	0
 11779 0164 00       		.byte	0
 11780 0165 00       		.byte	0
 11781 0166 00       		.byte	0
 11782 0167 00       		.byte	0
 11783 0168 00       		.byte	0
 11784 0169 00       		.byte	0
 11785 016a 00       		.byte	0
 11786 016b 00       		.byte	0
 11787 016c 00       		.byte	0
 11788 016d 00       		.byte	0
 11789 016e 07       		.byte	7
 11790 016f 80       		.byte	-128
 11791 0170 00       		.byte	0
 11792 0171 0F       		.byte	15
 11793 0172 C0       		.byte	-64
ARM GAS  D:\Programs\cygwin64\tmp\ccnP8CjY.s 			page 206


 11794 0173 00       		.byte	0
 11795 0174 1C       		.byte	28
 11796 0175 E0       		.byte	-32
 11797 0176 00       		.byte	0
 11798 0177 18       		.byte	24
 11799 0178 60       		.byte	96
 11800 0179 00       		.byte	0
 11801 017a 18       		.byte	24
 11802 017b 60       		.byte	96
 11803 017c 00       		.byte	0
 11804 017d 1C       		.byte	28
 11805 017e E0       		.byte	-32
 11806 017f 00       		.byte	0
 11807 0180 0F       		.byte	15
 11808 0181 F8       		.byte	-8
 11809 0182 00       		.byte	0
 11810 0183 07       		.byte	7
 11811 0184 E0       		.byte	-32
 11812 0185 00       		.byte	0
 11813 0186 1F       		.byte	31
 11814 0187 F0       		.byte	-16
 11815 0188 00       		.byte	0
 11816 0189 07       		.byte	7
 11817 018a 38       		.byte	56
 11818 018b 00       		.byte	0
 11819 018c 06       		.byte	6
 11820 018d 18       		.byte	24
 11821 018e 00       		.byte	0
 11822 018f 06       		.byte	6
 11823 0190 18       		.byte	24
 11824 0191 00       		.byte	0
 11825 0192 07       		.byte	7
 11826 0193 38       		.byte	56
 11827 0194 00       		.byte	0
 11828 0195 03       		.byte	3
 11829 0196 F0       		.byte	-16
 11830 0197 00       		.byte	0
 11831 0198 01       		.byte	1
 11832 0199 E0       		.byte	-32
 11833 019a 00       		.byte	0
 11834 019b 00       		.byte	0
 11835 019c 00       		.byte	0
 11836 019d 00       		.byte	0
 11837 019e 00       		.byte	0
 11838 019f 00       		.byte	0
 11839 01a0 00       		.byte	0
 11840 01a1 00       		.byte	0
 11841 01a2 00       		.byte	0
 11842 01a3 00       		.byte	0
 11843 01a4 00       		.byte	0
 11844 01a5 00       		.byte	0
 11845 01a6 00       		.byte	0
 11846 01a7 00       		.byte	0
 11847 01a8 00       		.byte	0
 11848 01a9 00       		.byte	0
 11849 01aa 00       		.byte	0
 11850 01ab 00       		.byte	0
ARM GAS  D:\Programs\cygwin64\tmp\ccnP8CjY.s 			page 207


 11851 01ac 00       		.byte	0
 11852 01ad 00       		.byte	0
 11853 01ae 00       		.byte	0
 11854 01af 00       		.byte	0
 11855 01b0 00       		.byte	0
 11856 01b1 00       		.byte	0
 11857 01b2 00       		.byte	0
 11858 01b3 00       		.byte	0
 11859 01b4 00       		.byte	0
 11860 01b5 00       		.byte	0
 11861 01b6 00       		.byte	0
 11862 01b7 00       		.byte	0
 11863 01b8 00       		.byte	0
 11864 01b9 00       		.byte	0
 11865 01ba 00       		.byte	0
 11866 01bb 00       		.byte	0
 11867 01bc 03       		.byte	3
 11868 01bd F0       		.byte	-16
 11869 01be 00       		.byte	0
 11870 01bf 07       		.byte	7
 11871 01c0 F0       		.byte	-16
 11872 01c1 00       		.byte	0
 11873 01c2 0C       		.byte	12
 11874 01c3 60       		.byte	96
 11875 01c4 00       		.byte	0
 11876 01c5 0C       		.byte	12
 11877 01c6 00       		.byte	0
 11878 01c7 00       		.byte	0
 11879 01c8 0C       		.byte	12
 11880 01c9 00       		.byte	0
 11881 01ca 00       		.byte	0
 11882 01cb 06       		.byte	6
 11883 01cc 00       		.byte	0
 11884 01cd 00       		.byte	0
 11885 01ce 07       		.byte	7
 11886 01cf 00       		.byte	0
 11887 01d0 00       		.byte	0
 11888 01d1 0F       		.byte	15
 11889 01d2 9C       		.byte	-100
 11890 01d3 00       		.byte	0
 11891 01d4 1D       		.byte	29
 11892 01d5 FC       		.byte	-4
 11893 01d6 00       		.byte	0
 11894 01d7 18       		.byte	24
 11895 01d8 F0       		.byte	-16
 11896 01d9 00       		.byte	0
 11897 01da 18       		.byte	24
 11898 01db 70       		.byte	112
 11899 01dc 00       		.byte	0
 11900 01dd 0F       		.byte	15
 11901 01de FC       		.byte	-4
 11902 01df 00       		.byte	0
 11903 01e0 07       		.byte	7
 11904 01e1 DC       		.byte	-36
 11905 01e2 00       		.byte	0
 11906 01e3 00       		.byte	0
 11907 01e4 00       		.byte	0
ARM GAS  D:\Programs\cygwin64\tmp\ccnP8CjY.s 			page 208


 11908 01e5 00       		.byte	0
 11909 01e6 00       		.byte	0
 11910 01e7 00       		.byte	0
 11911 01e8 00       		.byte	0
 11912 01e9 00       		.byte	0
 11913 01ea 00       		.byte	0
 11914 01eb 00       		.byte	0
 11915 01ec 00       		.byte	0
 11916 01ed 00       		.byte	0
 11917 01ee 00       		.byte	0
 11918 01ef 00       		.byte	0
 11919 01f0 00       		.byte	0
 11920 01f1 00       		.byte	0
 11921 01f2 00       		.byte	0
 11922 01f3 00       		.byte	0
 11923 01f4 00       		.byte	0
 11924 01f5 00       		.byte	0
 11925 01f6 00       		.byte	0
 11926 01f7 00       		.byte	0
 11927 01f8 00       		.byte	0
 11928 01f9 00       		.byte	0
 11929 01fa 00       		.byte	0
 11930 01fb 00       		.byte	0
 11931 01fc 00       		.byte	0
 11932 01fd 00       		.byte	0
 11933 01fe 00       		.byte	0
 11934 01ff 00       		.byte	0
 11935 0200 00       		.byte	0
 11936 0201 03       		.byte	3
 11937 0202 80       		.byte	-128
 11938 0203 00       		.byte	0
 11939 0204 03       		.byte	3
 11940 0205 80       		.byte	-128
 11941 0206 00       		.byte	0
 11942 0207 03       		.byte	3
 11943 0208 80       		.byte	-128
 11944 0209 00       		.byte	0
 11945 020a 01       		.byte	1
 11946 020b 00       		.byte	0
 11947 020c 00       		.byte	0
 11948 020d 01       		.byte	1
 11949 020e 00       		.byte	0
 11950 020f 00       		.byte	0
 11951 0210 01       		.byte	1
 11952 0211 00       		.byte	0
 11953 0212 00       		.byte	0
 11954 0213 01       		.byte	1
 11955 0214 00       		.byte	0
 11956 0215 00       		.byte	0
 11957 0216 00       		.byte	0
 11958 0217 00       		.byte	0
 11959 0218 00       		.byte	0
 11960 0219 00       		.byte	0
 11961 021a 00       		.byte	0
 11962 021b 00       		.byte	0
 11963 021c 00       		.byte	0
 11964 021d 00       		.byte	0
ARM GAS  D:\Programs\cygwin64\tmp\ccnP8CjY.s 			page 209


 11965 021e 00       		.byte	0
 11966 021f 00       		.byte	0
 11967 0220 00       		.byte	0
 11968 0221 00       		.byte	0
 11969 0222 00       		.byte	0
 11970 0223 00       		.byte	0
 11971 0224 00       		.byte	0
 11972 0225 00       		.byte	0
 11973 0226 00       		.byte	0
 11974 0227 00       		.byte	0
 11975 0228 00       		.byte	0
 11976 0229 00       		.byte	0
 11977 022a 00       		.byte	0
 11978 022b 00       		.byte	0
 11979 022c 00       		.byte	0
 11980 022d 00       		.byte	0
 11981 022e 00       		.byte	0
 11982 022f 00       		.byte	0
 11983 0230 00       		.byte	0
 11984 0231 00       		.byte	0
 11985 0232 00       		.byte	0
 11986 0233 00       		.byte	0
 11987 0234 00       		.byte	0
 11988 0235 00       		.byte	0
 11989 0236 00       		.byte	0
 11990 0237 00       		.byte	0
 11991 0238 00       		.byte	0
 11992 0239 00       		.byte	0
 11993 023a 00       		.byte	0
 11994 023b 00       		.byte	0
 11995 023c 00       		.byte	0
 11996 023d 00       		.byte	0
 11997 023e 00       		.byte	0
 11998 023f 00       		.byte	0
 11999 0240 00       		.byte	0
 12000 0241 00       		.byte	0
 12001 0242 00       		.byte	0
 12002 0243 00       		.byte	0
 12003 0244 00       		.byte	0
 12004 0245 00       		.byte	0
 12005 0246 00       		.byte	0
 12006 0247 18       		.byte	24
 12007 0248 00       		.byte	0
 12008 0249 00       		.byte	0
 12009 024a 38       		.byte	56
 12010 024b 00       		.byte	0
 12011 024c 00       		.byte	0
 12012 024d 70       		.byte	112
 12013 024e 00       		.byte	0
 12014 024f 00       		.byte	0
 12015 0250 F0       		.byte	-16
 12016 0251 00       		.byte	0
 12017 0252 00       		.byte	0
 12018 0253 E0       		.byte	-32
 12019 0254 00       		.byte	0
 12020 0255 00       		.byte	0
 12021 0256 E0       		.byte	-32
ARM GAS  D:\Programs\cygwin64\tmp\ccnP8CjY.s 			page 210


 12022 0257 00       		.byte	0
 12023 0258 01       		.byte	1
 12024 0259 C0       		.byte	-64
 12025 025a 00       		.byte	0
 12026 025b 01       		.byte	1
 12027 025c C0       		.byte	-64
 12028 025d 00       		.byte	0
 12029 025e 01       		.byte	1
 12030 025f C0       		.byte	-64
 12031 0260 00       		.byte	0
 12032 0261 01       		.byte	1
 12033 0262 C0       		.byte	-64
 12034 0263 00       		.byte	0
 12035 0264 01       		.byte	1
 12036 0265 C0       		.byte	-64
 12037 0266 00       		.byte	0
 12038 0267 01       		.byte	1
 12039 0268 C0       		.byte	-64
 12040 0269 00       		.byte	0
 12041 026a 00       		.byte	0
 12042 026b E0       		.byte	-32
 12043 026c 00       		.byte	0
 12044 026d 00       		.byte	0
 12045 026e E0       		.byte	-32
 12046 026f 00       		.byte	0
 12047 0270 00       		.byte	0
 12048 0271 70       		.byte	112
 12049 0272 00       		.byte	0
 12050 0273 00       		.byte	0
 12051 0274 70       		.byte	112
 12052 0275 00       		.byte	0
 12053 0276 00       		.byte	0
 12054 0277 38       		.byte	56
 12055 0278 00       		.byte	0
 12056 0279 00       		.byte	0
 12057 027a 18       		.byte	24
 12058 027b 00       		.byte	0
 12059 027c 00       		.byte	0
 12060 027d 00       		.byte	0
 12061 027e 00       		.byte	0
 12062 027f 00       		.byte	0
 12063 0280 00       		.byte	0
 12064 0281 00       		.byte	0
 12065 0282 00       		.byte	0
 12066 0283 00       		.byte	0
 12067 0284 00       		.byte	0
 12068 0285 00       		.byte	0
 12069 0286 00       		.byte	0
 12070 0287 00       		.byte	0
 12071 0288 00       		.byte	0
 12072 0289 00       		.byte	0
 12073 028a 00       		.byte	0
 12074 028b 00       		.byte	0
 12075 028c 00       		.byte	0
 12076 028d 00       		.byte	0
 12077 028e 18       		.byte	24
 12078 028f 00       		.byte	0
ARM GAS  D:\Programs\cygwin64\tmp\ccnP8CjY.s 			page 211


 12079 0290 00       		.byte	0
 12080 0291 1C       		.byte	28
 12081 0292 00       		.byte	0
 12082 0293 00       		.byte	0
 12083 0294 0E       		.byte	14
 12084 0295 00       		.byte	0
 12085 0296 00       		.byte	0
 12086 0297 0E       		.byte	14
 12087 0298 00       		.byte	0
 12088 0299 00       		.byte	0
 12089 029a 07       		.byte	7
 12090 029b 00       		.byte	0
 12091 029c 00       		.byte	0
 12092 029d 07       		.byte	7
 12093 029e 00       		.byte	0
 12094 029f 00       		.byte	0
 12095 02a0 03       		.byte	3
 12096 02a1 80       		.byte	-128
 12097 02a2 00       		.byte	0
 12098 02a3 03       		.byte	3
 12099 02a4 80       		.byte	-128
 12100 02a5 00       		.byte	0
 12101 02a6 03       		.byte	3
 12102 02a7 80       		.byte	-128
 12103 02a8 00       		.byte	0
 12104 02a9 03       		.byte	3
 12105 02aa 80       		.byte	-128
 12106 02ab 00       		.byte	0
 12107 02ac 03       		.byte	3
 12108 02ad 80       		.byte	-128
 12109 02ae 00       		.byte	0
 12110 02af 03       		.byte	3
 12111 02b0 80       		.byte	-128
 12112 02b1 00       		.byte	0
 12113 02b2 07       		.byte	7
 12114 02b3 00       		.byte	0
 12115 02b4 00       		.byte	0
 12116 02b5 07       		.byte	7
 12117 02b6 00       		.byte	0
 12118 02b7 00       		.byte	0
 12119 02b8 0F       		.byte	15
 12120 02b9 00       		.byte	0
 12121 02ba 00       		.byte	0
 12122 02bb 0E       		.byte	14
 12123 02bc 00       		.byte	0
 12124 02bd 00       		.byte	0
 12125 02be 1C       		.byte	28
 12126 02bf 00       		.byte	0
 12127 02c0 00       		.byte	0
 12128 02c1 18       		.byte	24
 12129 02c2 00       		.byte	0
 12130 02c3 00       		.byte	0
 12131 02c4 00       		.byte	0
 12132 02c5 00       		.byte	0
 12133 02c6 00       		.byte	0
 12134 02c7 00       		.byte	0
 12135 02c8 00       		.byte	0
ARM GAS  D:\Programs\cygwin64\tmp\ccnP8CjY.s 			page 212


 12136 02c9 00       		.byte	0
 12137 02ca 00       		.byte	0
 12138 02cb 00       		.byte	0
 12139 02cc 00       		.byte	0
 12140 02cd 00       		.byte	0
 12141 02ce 00       		.byte	0
 12142 02cf 00       		.byte	0
 12143 02d0 00       		.byte	0
 12144 02d1 00       		.byte	0
 12145 02d2 00       		.byte	0
 12146 02d3 00       		.byte	0
 12147 02d4 00       		.byte	0
 12148 02d5 00       		.byte	0
 12149 02d6 01       		.byte	1
 12150 02d7 80       		.byte	-128
 12151 02d8 00       		.byte	0
 12152 02d9 01       		.byte	1
 12153 02da 80       		.byte	-128
 12154 02db 00       		.byte	0
 12155 02dc 01       		.byte	1
 12156 02dd 80       		.byte	-128
 12157 02de 00       		.byte	0
 12158 02df 1D       		.byte	29
 12159 02e0 B8       		.byte	-72
 12160 02e1 00       		.byte	0
 12161 02e2 1F       		.byte	31
 12162 02e3 F8       		.byte	-8
 12163 02e4 00       		.byte	0
 12164 02e5 07       		.byte	7
 12165 02e6 E0       		.byte	-32
 12166 02e7 00       		.byte	0
 12167 02e8 03       		.byte	3
 12168 02e9 C0       		.byte	-64
 12169 02ea 00       		.byte	0
 12170 02eb 03       		.byte	3
 12171 02ec C0       		.byte	-64
 12172 02ed 00       		.byte	0
 12173 02ee 06       		.byte	6
 12174 02ef 60       		.byte	96
 12175 02f0 00       		.byte	0
 12176 02f1 06       		.byte	6
 12177 02f2 60       		.byte	96
 12178 02f3 00       		.byte	0
 12179 02f4 00       		.byte	0
 12180 02f5 00       		.byte	0
 12181 02f6 00       		.byte	0
 12182 02f7 00       		.byte	0
 12183 02f8 00       		.byte	0
 12184 02f9 00       		.byte	0
 12185 02fa 00       		.byte	0
 12186 02fb 00       		.byte	0
 12187 02fc 00       		.byte	0
 12188 02fd 00       		.byte	0
 12189 02fe 00       		.byte	0
 12190 02ff 00       		.byte	0
 12191 0300 00       		.byte	0
 12192 0301 00       		.byte	0
ARM GAS  D:\Programs\cygwin64\tmp\ccnP8CjY.s 			page 213


 12193 0302 00       		.byte	0
 12194 0303 00       		.byte	0
 12195 0304 00       		.byte	0
 12196 0305 00       		.byte	0
 12197 0306 00       		.byte	0
 12198 0307 00       		.byte	0
 12199 0308 00       		.byte	0
 12200 0309 00       		.byte	0
 12201 030a 00       		.byte	0
 12202 030b 00       		.byte	0
 12203 030c 00       		.byte	0
 12204 030d 00       		.byte	0
 12205 030e 00       		.byte	0
 12206 030f 00       		.byte	0
 12207 0310 00       		.byte	0
 12208 0311 00       		.byte	0
 12209 0312 00       		.byte	0
 12210 0313 00       		.byte	0
 12211 0314 00       		.byte	0
 12212 0315 00       		.byte	0
 12213 0316 00       		.byte	0
 12214 0317 00       		.byte	0
 12215 0318 00       		.byte	0
 12216 0319 00       		.byte	0
 12217 031a 00       		.byte	0
 12218 031b 00       		.byte	0
 12219 031c 00       		.byte	0
 12220 031d 00       		.byte	0
 12221 031e 00       		.byte	0
 12222 031f 00       		.byte	0
 12223 0320 00       		.byte	0
 12224 0321 00       		.byte	0
 12225 0322 00       		.byte	0
 12226 0323 00       		.byte	0
 12227 0324 01       		.byte	1
 12228 0325 80       		.byte	-128
 12229 0326 00       		.byte	0
 12230 0327 01       		.byte	1
 12231 0328 80       		.byte	-128
 12232 0329 00       		.byte	0
 12233 032a 01       		.byte	1
 12234 032b 80       		.byte	-128
 12235 032c 00       		.byte	0
 12236 032d 01       		.byte	1
 12237 032e 80       		.byte	-128
 12238 032f 00       		.byte	0
 12239 0330 01       		.byte	1
 12240 0331 80       		.byte	-128
 12241 0332 00       		.byte	0
 12242 0333 3F       		.byte	63
 12243 0334 FC       		.byte	-4
 12244 0335 00       		.byte	0
 12245 0336 3F       		.byte	63
 12246 0337 FC       		.byte	-4
 12247 0338 00       		.byte	0
 12248 0339 01       		.byte	1
 12249 033a 80       		.byte	-128
ARM GAS  D:\Programs\cygwin64\tmp\ccnP8CjY.s 			page 214


 12250 033b 00       		.byte	0
 12251 033c 01       		.byte	1
 12252 033d 80       		.byte	-128
 12253 033e 00       		.byte	0
 12254 033f 01       		.byte	1
 12255 0340 80       		.byte	-128
 12256 0341 00       		.byte	0
 12257 0342 01       		.byte	1
 12258 0343 80       		.byte	-128
 12259 0344 00       		.byte	0
 12260 0345 01       		.byte	1
 12261 0346 80       		.byte	-128
 12262 0347 00       		.byte	0
 12263 0348 00       		.byte	0
 12264 0349 00       		.byte	0
 12265 034a 00       		.byte	0
 12266 034b 00       		.byte	0
 12267 034c 00       		.byte	0
 12268 034d 00       		.byte	0
 12269 034e 00       		.byte	0
 12270 034f 00       		.byte	0
 12271 0350 00       		.byte	0
 12272 0351 00       		.byte	0
 12273 0352 00       		.byte	0
 12274 0353 00       		.byte	0
 12275 0354 00       		.byte	0
 12276 0355 00       		.byte	0
 12277 0356 00       		.byte	0
 12278 0357 00       		.byte	0
 12279 0358 00       		.byte	0
 12280 0359 00       		.byte	0
 12281 035a 00       		.byte	0
 12282 035b 00       		.byte	0
 12283 035c 00       		.byte	0
 12284 035d 00       		.byte	0
 12285 035e 00       		.byte	0
 12286 035f 00       		.byte	0
 12287 0360 00       		.byte	0
 12288 0361 00       		.byte	0
 12289 0362 00       		.byte	0
 12290 0363 00       		.byte	0
 12291 0364 00       		.byte	0
 12292 0365 00       		.byte	0
 12293 0366 00       		.byte	0
 12294 0367 00       		.byte	0
 12295 0368 00       		.byte	0
 12296 0369 00       		.byte	0
 12297 036a 00       		.byte	0
 12298 036b 00       		.byte	0
 12299 036c 00       		.byte	0
 12300 036d 00       		.byte	0
 12301 036e 00       		.byte	0
 12302 036f 00       		.byte	0
 12303 0370 00       		.byte	0
 12304 0371 00       		.byte	0
 12305 0372 00       		.byte	0
 12306 0373 00       		.byte	0
ARM GAS  D:\Programs\cygwin64\tmp\ccnP8CjY.s 			page 215


 12307 0374 00       		.byte	0
 12308 0375 00       		.byte	0
 12309 0376 00       		.byte	0
 12310 0377 00       		.byte	0
 12311 0378 00       		.byte	0
 12312 0379 00       		.byte	0
 12313 037a 00       		.byte	0
 12314 037b 00       		.byte	0
 12315 037c 00       		.byte	0
 12316 037d 00       		.byte	0
 12317 037e 00       		.byte	0
 12318 037f 00       		.byte	0
 12319 0380 00       		.byte	0
 12320 0381 00       		.byte	0
 12321 0382 00       		.byte	0
 12322 0383 00       		.byte	0
 12323 0384 00       		.byte	0
 12324 0385 00       		.byte	0
 12325 0386 00       		.byte	0
 12326 0387 00       		.byte	0
 12327 0388 00       		.byte	0
 12328 0389 00       		.byte	0
 12329 038a 00       		.byte	0
 12330 038b E0       		.byte	-32
 12331 038c 00       		.byte	0
 12332 038d 00       		.byte	0
 12333 038e C0       		.byte	-64
 12334 038f 00       		.byte	0
 12335 0390 01       		.byte	1
 12336 0391 C0       		.byte	-64
 12337 0392 00       		.byte	0
 12338 0393 01       		.byte	1
 12339 0394 80       		.byte	-128
 12340 0395 00       		.byte	0
 12341 0396 01       		.byte	1
 12342 0397 80       		.byte	-128
 12343 0398 00       		.byte	0
 12344 0399 03       		.byte	3
 12345 039a 00       		.byte	0
 12346 039b 00       		.byte	0
 12347 039c 03       		.byte	3
 12348 039d 00       		.byte	0
 12349 039e 00       		.byte	0
 12350 039f 00       		.byte	0
 12351 03a0 00       		.byte	0
 12352 03a1 00       		.byte	0
 12353 03a2 00       		.byte	0
 12354 03a3 00       		.byte	0
 12355 03a4 00       		.byte	0
 12356 03a5 00       		.byte	0
 12357 03a6 00       		.byte	0
 12358 03a7 00       		.byte	0
 12359 03a8 00       		.byte	0
 12360 03a9 00       		.byte	0
 12361 03aa 00       		.byte	0
 12362 03ab 00       		.byte	0
 12363 03ac 00       		.byte	0
ARM GAS  D:\Programs\cygwin64\tmp\ccnP8CjY.s 			page 216


 12364 03ad 00       		.byte	0
 12365 03ae 00       		.byte	0
 12366 03af 00       		.byte	0
 12367 03b0 00       		.byte	0
 12368 03b1 00       		.byte	0
 12369 03b2 00       		.byte	0
 12370 03b3 00       		.byte	0
 12371 03b4 00       		.byte	0
 12372 03b5 00       		.byte	0
 12373 03b6 00       		.byte	0
 12374 03b7 00       		.byte	0
 12375 03b8 00       		.byte	0
 12376 03b9 00       		.byte	0
 12377 03ba 00       		.byte	0
 12378 03bb 00       		.byte	0
 12379 03bc 00       		.byte	0
 12380 03bd 00       		.byte	0
 12381 03be 00       		.byte	0
 12382 03bf 00       		.byte	0
 12383 03c0 00       		.byte	0
 12384 03c1 00       		.byte	0
 12385 03c2 00       		.byte	0
 12386 03c3 1F       		.byte	31
 12387 03c4 F8       		.byte	-8
 12388 03c5 00       		.byte	0
 12389 03c6 1F       		.byte	31
 12390 03c7 F8       		.byte	-8
 12391 03c8 00       		.byte	0
 12392 03c9 00       		.byte	0
 12393 03ca 00       		.byte	0
 12394 03cb 00       		.byte	0
 12395 03cc 00       		.byte	0
 12396 03cd 00       		.byte	0
 12397 03ce 00       		.byte	0
 12398 03cf 00       		.byte	0
 12399 03d0 00       		.byte	0
 12400 03d1 00       		.byte	0
 12401 03d2 00       		.byte	0
 12402 03d3 00       		.byte	0
 12403 03d4 00       		.byte	0
 12404 03d5 00       		.byte	0
 12405 03d6 00       		.byte	0
 12406 03d7 00       		.byte	0
 12407 03d8 00       		.byte	0
 12408 03d9 00       		.byte	0
 12409 03da 00       		.byte	0
 12410 03db 00       		.byte	0
 12411 03dc 00       		.byte	0
 12412 03dd 00       		.byte	0
 12413 03de 00       		.byte	0
 12414 03df 00       		.byte	0
 12415 03e0 00       		.byte	0
 12416 03e1 00       		.byte	0
 12417 03e2 00       		.byte	0
 12418 03e3 00       		.byte	0
 12419 03e4 00       		.byte	0
 12420 03e5 00       		.byte	0
ARM GAS  D:\Programs\cygwin64\tmp\ccnP8CjY.s 			page 217


 12421 03e6 00       		.byte	0
 12422 03e7 00       		.byte	0
 12423 03e8 00       		.byte	0
 12424 03e9 00       		.byte	0
 12425 03ea 00       		.byte	0
 12426 03eb 00       		.byte	0
 12427 03ec 00       		.byte	0
 12428 03ed 00       		.byte	0
 12429 03ee 00       		.byte	0
 12430 03ef 00       		.byte	0
 12431 03f0 00       		.byte	0
 12432 03f1 00       		.byte	0
 12433 03f2 00       		.byte	0
 12434 03f3 00       		.byte	0
 12435 03f4 00       		.byte	0
 12436 03f5 00       		.byte	0
 12437 03f6 00       		.byte	0
 12438 03f7 00       		.byte	0
 12439 03f8 00       		.byte	0
 12440 03f9 00       		.byte	0
 12441 03fa 00       		.byte	0
 12442 03fb 00       		.byte	0
 12443 03fc 00       		.byte	0
 12444 03fd 00       		.byte	0
 12445 03fe 00       		.byte	0
 12446 03ff 00       		.byte	0
 12447 0400 00       		.byte	0
 12448 0401 00       		.byte	0
 12449 0402 00       		.byte	0
 12450 0403 00       		.byte	0
 12451 0404 00       		.byte	0
 12452 0405 00       		.byte	0
 12453 0406 00       		.byte	0
 12454 0407 00       		.byte	0
 12455 0408 00       		.byte	0
 12456 0409 00       		.byte	0
 12457 040a 00       		.byte	0
 12458 040b 00       		.byte	0
 12459 040c 00       		.byte	0
 12460 040d 00       		.byte	0
 12461 040e 00       		.byte	0
 12462 040f 00       		.byte	0
 12463 0410 00       		.byte	0
 12464 0411 00       		.byte	0
 12465 0412 00       		.byte	0
 12466 0413 00       		.byte	0
 12467 0414 00       		.byte	0
 12468 0415 00       		.byte	0
 12469 0416 00       		.byte	0
 12470 0417 00       		.byte	0
 12471 0418 00       		.byte	0
 12472 0419 00       		.byte	0
 12473 041a 03       		.byte	3
 12474 041b C0       		.byte	-64
 12475 041c 00       		.byte	0
 12476 041d 03       		.byte	3
 12477 041e C0       		.byte	-64
ARM GAS  D:\Programs\cygwin64\tmp\ccnP8CjY.s 			page 218


 12478 041f 00       		.byte	0
 12479 0420 03       		.byte	3
 12480 0421 C0       		.byte	-64
 12481 0422 00       		.byte	0
 12482 0423 00       		.byte	0
 12483 0424 00       		.byte	0
 12484 0425 00       		.byte	0
 12485 0426 00       		.byte	0
 12486 0427 00       		.byte	0
 12487 0428 00       		.byte	0
 12488 0429 00       		.byte	0
 12489 042a 00       		.byte	0
 12490 042b 00       		.byte	0
 12491 042c 00       		.byte	0
 12492 042d 00       		.byte	0
 12493 042e 00       		.byte	0
 12494 042f 00       		.byte	0
 12495 0430 00       		.byte	0
 12496 0431 00       		.byte	0
 12497 0432 00       		.byte	0
 12498 0433 00       		.byte	0
 12499 0434 00       		.byte	0
 12500 0435 00       		.byte	0
 12501 0436 00       		.byte	0
 12502 0437 00       		.byte	0
 12503 0438 00       		.byte	0
 12504 0439 18       		.byte	24
 12505 043a 00       		.byte	0
 12506 043b 00       		.byte	0
 12507 043c 18       		.byte	24
 12508 043d 00       		.byte	0
 12509 043e 00       		.byte	0
 12510 043f 38       		.byte	56
 12511 0440 00       		.byte	0
 12512 0441 00       		.byte	0
 12513 0442 30       		.byte	48
 12514 0443 00       		.byte	0
 12515 0444 00       		.byte	0
 12516 0445 70       		.byte	112
 12517 0446 00       		.byte	0
 12518 0447 00       		.byte	0
 12519 0448 60       		.byte	96
 12520 0449 00       		.byte	0
 12521 044a 00       		.byte	0
 12522 044b 60       		.byte	96
 12523 044c 00       		.byte	0
 12524 044d 00       		.byte	0
 12525 044e C0       		.byte	-64
 12526 044f 00       		.byte	0
 12527 0450 00       		.byte	0
 12528 0451 C0       		.byte	-64
 12529 0452 00       		.byte	0
 12530 0453 01       		.byte	1
 12531 0454 80       		.byte	-128
 12532 0455 00       		.byte	0
 12533 0456 01       		.byte	1
 12534 0457 80       		.byte	-128
ARM GAS  D:\Programs\cygwin64\tmp\ccnP8CjY.s 			page 219


 12535 0458 00       		.byte	0
 12536 0459 03       		.byte	3
 12537 045a 00       		.byte	0
 12538 045b 00       		.byte	0
 12539 045c 03       		.byte	3
 12540 045d 00       		.byte	0
 12541 045e 00       		.byte	0
 12542 045f 06       		.byte	6
 12543 0460 00       		.byte	0
 12544 0461 00       		.byte	0
 12545 0462 06       		.byte	6
 12546 0463 00       		.byte	0
 12547 0464 00       		.byte	0
 12548 0465 0E       		.byte	14
 12549 0466 00       		.byte	0
 12550 0467 00       		.byte	0
 12551 0468 0C       		.byte	12
 12552 0469 00       		.byte	0
 12553 046a 00       		.byte	0
 12554 046b 1C       		.byte	28
 12555 046c 00       		.byte	0
 12556 046d 00       		.byte	0
 12557 046e 18       		.byte	24
 12558 046f 00       		.byte	0
 12559 0470 00       		.byte	0
 12560 0471 18       		.byte	24
 12561 0472 00       		.byte	0
 12562 0473 00       		.byte	0
 12563 0474 00       		.byte	0
 12564 0475 00       		.byte	0
 12565 0476 00       		.byte	0
 12566 0477 00       		.byte	0
 12567 0478 00       		.byte	0
 12568 0479 00       		.byte	0
 12569 047a 00       		.byte	0
 12570 047b 00       		.byte	0
 12571 047c 00       		.byte	0
 12572 047d 00       		.byte	0
 12573 047e 00       		.byte	0
 12574 047f 00       		.byte	0
 12575 0480 00       		.byte	0
 12576 0481 00       		.byte	0
 12577 0482 00       		.byte	0
 12578 0483 00       		.byte	0
 12579 0484 00       		.byte	0
 12580 0485 00       		.byte	0
 12581 0486 03       		.byte	3
 12582 0487 C0       		.byte	-64
 12583 0488 00       		.byte	0
 12584 0489 07       		.byte	7
 12585 048a E0       		.byte	-32
 12586 048b 00       		.byte	0
 12587 048c 0C       		.byte	12
 12588 048d 30       		.byte	48
 12589 048e 00       		.byte	0
 12590 048f 0C       		.byte	12
 12591 0490 30       		.byte	48
ARM GAS  D:\Programs\cygwin64\tmp\ccnP8CjY.s 			page 220


 12592 0491 00       		.byte	0
 12593 0492 18       		.byte	24
 12594 0493 18       		.byte	24
 12595 0494 00       		.byte	0
 12596 0495 18       		.byte	24
 12597 0496 18       		.byte	24
 12598 0497 00       		.byte	0
 12599 0498 18       		.byte	24
 12600 0499 18       		.byte	24
 12601 049a 00       		.byte	0
 12602 049b 18       		.byte	24
 12603 049c 18       		.byte	24
 12604 049d 00       		.byte	0
 12605 049e 18       		.byte	24
 12606 049f 18       		.byte	24
 12607 04a0 00       		.byte	0
 12608 04a1 18       		.byte	24
 12609 04a2 18       		.byte	24
 12610 04a3 00       		.byte	0
 12611 04a4 18       		.byte	24
 12612 04a5 18       		.byte	24
 12613 04a6 00       		.byte	0
 12614 04a7 0C       		.byte	12
 12615 04a8 30       		.byte	48
 12616 04a9 00       		.byte	0
 12617 04aa 0C       		.byte	12
 12618 04ab 30       		.byte	48
 12619 04ac 00       		.byte	0
 12620 04ad 07       		.byte	7
 12621 04ae E0       		.byte	-32
 12622 04af 00       		.byte	0
 12623 04b0 03       		.byte	3
 12624 04b1 C0       		.byte	-64
 12625 04b2 00       		.byte	0
 12626 04b3 00       		.byte	0
 12627 04b4 00       		.byte	0
 12628 04b5 00       		.byte	0
 12629 04b6 00       		.byte	0
 12630 04b7 00       		.byte	0
 12631 04b8 00       		.byte	0
 12632 04b9 00       		.byte	0
 12633 04ba 00       		.byte	0
 12634 04bb 00       		.byte	0
 12635 04bc 00       		.byte	0
 12636 04bd 00       		.byte	0
 12637 04be 00       		.byte	0
 12638 04bf 00       		.byte	0
 12639 04c0 00       		.byte	0
 12640 04c1 00       		.byte	0
 12641 04c2 00       		.byte	0
 12642 04c3 00       		.byte	0
 12643 04c4 00       		.byte	0
 12644 04c5 00       		.byte	0
 12645 04c6 00       		.byte	0
 12646 04c7 00       		.byte	0
 12647 04c8 00       		.byte	0
 12648 04c9 00       		.byte	0
ARM GAS  D:\Programs\cygwin64\tmp\ccnP8CjY.s 			page 221


 12649 04ca 00       		.byte	0
 12650 04cb 00       		.byte	0
 12651 04cc 00       		.byte	0
 12652 04cd 00       		.byte	0
 12653 04ce 00       		.byte	0
 12654 04cf 80       		.byte	-128
 12655 04d0 00       		.byte	0
 12656 04d1 07       		.byte	7
 12657 04d2 80       		.byte	-128
 12658 04d3 00       		.byte	0
 12659 04d4 1F       		.byte	31
 12660 04d5 80       		.byte	-128
 12661 04d6 00       		.byte	0
 12662 04d7 1D       		.byte	29
 12663 04d8 80       		.byte	-128
 12664 04d9 00       		.byte	0
 12665 04da 01       		.byte	1
 12666 04db 80       		.byte	-128
 12667 04dc 00       		.byte	0
 12668 04dd 01       		.byte	1
 12669 04de 80       		.byte	-128
 12670 04df 00       		.byte	0
 12671 04e0 01       		.byte	1
 12672 04e1 80       		.byte	-128
 12673 04e2 00       		.byte	0
 12674 04e3 01       		.byte	1
 12675 04e4 80       		.byte	-128
 12676 04e5 00       		.byte	0
 12677 04e6 01       		.byte	1
 12678 04e7 80       		.byte	-128
 12679 04e8 00       		.byte	0
 12680 04e9 01       		.byte	1
 12681 04ea 80       		.byte	-128
 12682 04eb 00       		.byte	0
 12683 04ec 01       		.byte	1
 12684 04ed 80       		.byte	-128
 12685 04ee 00       		.byte	0
 12686 04ef 01       		.byte	1
 12687 04f0 80       		.byte	-128
 12688 04f1 00       		.byte	0
 12689 04f2 01       		.byte	1
 12690 04f3 80       		.byte	-128
 12691 04f4 00       		.byte	0
 12692 04f5 1F       		.byte	31
 12693 04f6 F8       		.byte	-8
 12694 04f7 00       		.byte	0
 12695 04f8 1F       		.byte	31
 12696 04f9 F8       		.byte	-8
 12697 04fa 00       		.byte	0
 12698 04fb 00       		.byte	0
 12699 04fc 00       		.byte	0
 12700 04fd 00       		.byte	0
 12701 04fe 00       		.byte	0
 12702 04ff 00       		.byte	0
 12703 0500 00       		.byte	0
 12704 0501 00       		.byte	0
 12705 0502 00       		.byte	0
ARM GAS  D:\Programs\cygwin64\tmp\ccnP8CjY.s 			page 222


 12706 0503 00       		.byte	0
 12707 0504 00       		.byte	0
 12708 0505 00       		.byte	0
 12709 0506 00       		.byte	0
 12710 0507 00       		.byte	0
 12711 0508 00       		.byte	0
 12712 0509 00       		.byte	0
 12713 050a 00       		.byte	0
 12714 050b 00       		.byte	0
 12715 050c 00       		.byte	0
 12716 050d 00       		.byte	0
 12717 050e 00       		.byte	0
 12718 050f 00       		.byte	0
 12719 0510 00       		.byte	0
 12720 0511 00       		.byte	0
 12721 0512 00       		.byte	0
 12722 0513 00       		.byte	0
 12723 0514 00       		.byte	0
 12724 0515 00       		.byte	0
 12725 0516 07       		.byte	7
 12726 0517 C0       		.byte	-64
 12727 0518 00       		.byte	0
 12728 0519 1F       		.byte	31
 12729 051a F0       		.byte	-16
 12730 051b 00       		.byte	0
 12731 051c 38       		.byte	56
 12732 051d 30       		.byte	48
 12733 051e 00       		.byte	0
 12734 051f 30       		.byte	48
 12735 0520 18       		.byte	24
 12736 0521 00       		.byte	0
 12737 0522 30       		.byte	48
 12738 0523 18       		.byte	24
 12739 0524 00       		.byte	0
 12740 0525 00       		.byte	0
 12741 0526 18       		.byte	24
 12742 0527 00       		.byte	0
 12743 0528 00       		.byte	0
 12744 0529 30       		.byte	48
 12745 052a 00       		.byte	0
 12746 052b 00       		.byte	0
 12747 052c 60       		.byte	96
 12748 052d 00       		.byte	0
 12749 052e 01       		.byte	1
 12750 052f C0       		.byte	-64
 12751 0530 00       		.byte	0
 12752 0531 03       		.byte	3
 12753 0532 80       		.byte	-128
 12754 0533 00       		.byte	0
 12755 0534 06       		.byte	6
 12756 0535 00       		.byte	0
 12757 0536 00       		.byte	0
 12758 0537 0C       		.byte	12
 12759 0538 00       		.byte	0
 12760 0539 00       		.byte	0
 12761 053a 18       		.byte	24
 12762 053b 00       		.byte	0
ARM GAS  D:\Programs\cygwin64\tmp\ccnP8CjY.s 			page 223


 12763 053c 00       		.byte	0
 12764 053d 3F       		.byte	63
 12765 053e F8       		.byte	-8
 12766 053f 00       		.byte	0
 12767 0540 3F       		.byte	63
 12768 0541 F8       		.byte	-8
 12769 0542 00       		.byte	0
 12770 0543 00       		.byte	0
 12771 0544 00       		.byte	0
 12772 0545 00       		.byte	0
 12773 0546 00       		.byte	0
 12774 0547 00       		.byte	0
 12775 0548 00       		.byte	0
 12776 0549 00       		.byte	0
 12777 054a 00       		.byte	0
 12778 054b 00       		.byte	0
 12779 054c 00       		.byte	0
 12780 054d 00       		.byte	0
 12781 054e 00       		.byte	0
 12782 054f 00       		.byte	0
 12783 0550 00       		.byte	0
 12784 0551 00       		.byte	0
 12785 0552 00       		.byte	0
 12786 0553 00       		.byte	0
 12787 0554 00       		.byte	0
 12788 0555 00       		.byte	0
 12789 0556 00       		.byte	0
 12790 0557 00       		.byte	0
 12791 0558 00       		.byte	0
 12792 0559 00       		.byte	0
 12793 055a 00       		.byte	0
 12794 055b 00       		.byte	0
 12795 055c 00       		.byte	0
 12796 055d 00       		.byte	0
 12797 055e 03       		.byte	3
 12798 055f C0       		.byte	-64
 12799 0560 00       		.byte	0
 12800 0561 0F       		.byte	15
 12801 0562 E0       		.byte	-32
 12802 0563 00       		.byte	0
 12803 0564 0C       		.byte	12
 12804 0565 70       		.byte	112
 12805 0566 00       		.byte	0
 12806 0567 00       		.byte	0
 12807 0568 30       		.byte	48
 12808 0569 00       		.byte	0
 12809 056a 00       		.byte	0
 12810 056b 30       		.byte	48
 12811 056c 00       		.byte	0
 12812 056d 00       		.byte	0
 12813 056e 60       		.byte	96
 12814 056f 00       		.byte	0
 12815 0570 03       		.byte	3
 12816 0571 C0       		.byte	-64
 12817 0572 00       		.byte	0
 12818 0573 03       		.byte	3
 12819 0574 E0       		.byte	-32
ARM GAS  D:\Programs\cygwin64\tmp\ccnP8CjY.s 			page 224


 12820 0575 00       		.byte	0
 12821 0576 00       		.byte	0
 12822 0577 70       		.byte	112
 12823 0578 00       		.byte	0
 12824 0579 00       		.byte	0
 12825 057a 18       		.byte	24
 12826 057b 00       		.byte	0
 12827 057c 00       		.byte	0
 12828 057d 18       		.byte	24
 12829 057e 00       		.byte	0
 12830 057f 00       		.byte	0
 12831 0580 18       		.byte	24
 12832 0581 00       		.byte	0
 12833 0582 18       		.byte	24
 12834 0583 38       		.byte	56
 12835 0584 00       		.byte	0
 12836 0585 1F       		.byte	31
 12837 0586 F0       		.byte	-16
 12838 0587 00       		.byte	0
 12839 0588 0F       		.byte	15
 12840 0589 C0       		.byte	-64
 12841 058a 00       		.byte	0
 12842 058b 00       		.byte	0
 12843 058c 00       		.byte	0
 12844 058d 00       		.byte	0
 12845 058e 00       		.byte	0
 12846 058f 00       		.byte	0
 12847 0590 00       		.byte	0
 12848 0591 00       		.byte	0
 12849 0592 00       		.byte	0
 12850 0593 00       		.byte	0
 12851 0594 00       		.byte	0
 12852 0595 00       		.byte	0
 12853 0596 00       		.byte	0
 12854 0597 00       		.byte	0
 12855 0598 00       		.byte	0
 12856 0599 00       		.byte	0
 12857 059a 00       		.byte	0
 12858 059b 00       		.byte	0
 12859 059c 00       		.byte	0
 12860 059d 00       		.byte	0
 12861 059e 00       		.byte	0
 12862 059f 00       		.byte	0
 12863 05a0 00       		.byte	0
 12864 05a1 00       		.byte	0
 12865 05a2 00       		.byte	0
 12866 05a3 00       		.byte	0
 12867 05a4 00       		.byte	0
 12868 05a5 00       		.byte	0
 12869 05a6 00       		.byte	0
 12870 05a7 E0       		.byte	-32
 12871 05a8 00       		.byte	0
 12872 05a9 01       		.byte	1
 12873 05aa E0       		.byte	-32
 12874 05ab 00       		.byte	0
 12875 05ac 01       		.byte	1
 12876 05ad E0       		.byte	-32
ARM GAS  D:\Programs\cygwin64\tmp\ccnP8CjY.s 			page 225


 12877 05ae 00       		.byte	0
 12878 05af 03       		.byte	3
 12879 05b0 60       		.byte	96
 12880 05b1 00       		.byte	0
 12881 05b2 06       		.byte	6
 12882 05b3 60       		.byte	96
 12883 05b4 00       		.byte	0
 12884 05b5 06       		.byte	6
 12885 05b6 60       		.byte	96
 12886 05b7 00       		.byte	0
 12887 05b8 0C       		.byte	12
 12888 05b9 60       		.byte	96
 12889 05ba 00       		.byte	0
 12890 05bb 0C       		.byte	12
 12891 05bc 60       		.byte	96
 12892 05bd 00       		.byte	0
 12893 05be 18       		.byte	24
 12894 05bf 60       		.byte	96
 12895 05c0 00       		.byte	0
 12896 05c1 30       		.byte	48
 12897 05c2 60       		.byte	96
 12898 05c3 00       		.byte	0
 12899 05c4 3F       		.byte	63
 12900 05c5 F8       		.byte	-8
 12901 05c6 00       		.byte	0
 12902 05c7 3F       		.byte	63
 12903 05c8 F8       		.byte	-8
 12904 05c9 00       		.byte	0
 12905 05ca 00       		.byte	0
 12906 05cb 60       		.byte	96
 12907 05cc 00       		.byte	0
 12908 05cd 03       		.byte	3
 12909 05ce F8       		.byte	-8
 12910 05cf 00       		.byte	0
 12911 05d0 03       		.byte	3
 12912 05d1 F8       		.byte	-8
 12913 05d2 00       		.byte	0
 12914 05d3 00       		.byte	0
 12915 05d4 00       		.byte	0
 12916 05d5 00       		.byte	0
 12917 05d6 00       		.byte	0
 12918 05d7 00       		.byte	0
 12919 05d8 00       		.byte	0
 12920 05d9 00       		.byte	0
 12921 05da 00       		.byte	0
 12922 05db 00       		.byte	0
 12923 05dc 00       		.byte	0
 12924 05dd 00       		.byte	0
 12925 05de 00       		.byte	0
 12926 05df 00       		.byte	0
 12927 05e0 00       		.byte	0
 12928 05e1 00       		.byte	0
 12929 05e2 00       		.byte	0
 12930 05e3 00       		.byte	0
 12931 05e4 00       		.byte	0
 12932 05e5 00       		.byte	0
 12933 05e6 00       		.byte	0
ARM GAS  D:\Programs\cygwin64\tmp\ccnP8CjY.s 			page 226


 12934 05e7 00       		.byte	0
 12935 05e8 00       		.byte	0
 12936 05e9 00       		.byte	0
 12937 05ea 00       		.byte	0
 12938 05eb 00       		.byte	0
 12939 05ec 00       		.byte	0
 12940 05ed 00       		.byte	0
 12941 05ee 1F       		.byte	31
 12942 05ef F0       		.byte	-16
 12943 05f0 00       		.byte	0
 12944 05f1 1F       		.byte	31
 12945 05f2 F0       		.byte	-16
 12946 05f3 00       		.byte	0
 12947 05f4 18       		.byte	24
 12948 05f5 00       		.byte	0
 12949 05f6 00       		.byte	0
 12950 05f7 18       		.byte	24
 12951 05f8 00       		.byte	0
 12952 05f9 00       		.byte	0
 12953 05fa 18       		.byte	24
 12954 05fb 00       		.byte	0
 12955 05fc 00       		.byte	0
 12956 05fd 1B       		.byte	27
 12957 05fe C0       		.byte	-64
 12958 05ff 00       		.byte	0
 12959 0600 1F       		.byte	31
 12960 0601 F0       		.byte	-16
 12961 0602 00       		.byte	0
 12962 0603 1C       		.byte	28
 12963 0604 30       		.byte	48
 12964 0605 00       		.byte	0
 12965 0606 00       		.byte	0
 12966 0607 18       		.byte	24
 12967 0608 00       		.byte	0
 12968 0609 00       		.byte	0
 12969 060a 18       		.byte	24
 12970 060b 00       		.byte	0
 12971 060c 00       		.byte	0
 12972 060d 18       		.byte	24
 12973 060e 00       		.byte	0
 12974 060f 00       		.byte	0
 12975 0610 18       		.byte	24
 12976 0611 00       		.byte	0
 12977 0612 30       		.byte	48
 12978 0613 30       		.byte	48
 12979 0614 00       		.byte	0
 12980 0615 3F       		.byte	63
 12981 0616 F0       		.byte	-16
 12982 0617 00       		.byte	0
 12983 0618 0F       		.byte	15
 12984 0619 C0       		.byte	-64
 12985 061a 00       		.byte	0
 12986 061b 00       		.byte	0
 12987 061c 00       		.byte	0
 12988 061d 00       		.byte	0
 12989 061e 00       		.byte	0
 12990 061f 00       		.byte	0
ARM GAS  D:\Programs\cygwin64\tmp\ccnP8CjY.s 			page 227


 12991 0620 00       		.byte	0
 12992 0621 00       		.byte	0
 12993 0622 00       		.byte	0
 12994 0623 00       		.byte	0
 12995 0624 00       		.byte	0
 12996 0625 00       		.byte	0
 12997 0626 00       		.byte	0
 12998 0627 00       		.byte	0
 12999 0628 00       		.byte	0
 13000 0629 00       		.byte	0
 13001 062a 00       		.byte	0
 13002 062b 00       		.byte	0
 13003 062c 00       		.byte	0
 13004 062d 00       		.byte	0
 13005 062e 00       		.byte	0
 13006 062f 00       		.byte	0
 13007 0630 00       		.byte	0
 13008 0631 00       		.byte	0
 13009 0632 00       		.byte	0
 13010 0633 00       		.byte	0
 13011 0634 00       		.byte	0
 13012 0635 00       		.byte	0
 13013 0636 00       		.byte	0
 13014 0637 F8       		.byte	-8
 13015 0638 00       		.byte	0
 13016 0639 03       		.byte	3
 13017 063a F8       		.byte	-8
 13018 063b 00       		.byte	0
 13019 063c 07       		.byte	7
 13020 063d 00       		.byte	0
 13021 063e 00       		.byte	0
 13022 063f 0E       		.byte	14
 13023 0640 00       		.byte	0
 13024 0641 00       		.byte	0
 13025 0642 0C       		.byte	12
 13026 0643 00       		.byte	0
 13027 0644 00       		.byte	0
 13028 0645 18       		.byte	24
 13029 0646 00       		.byte	0
 13030 0647 00       		.byte	0
 13031 0648 1B       		.byte	27
 13032 0649 C0       		.byte	-64
 13033 064a 00       		.byte	0
 13034 064b 1F       		.byte	31
 13035 064c F0       		.byte	-16
 13036 064d 00       		.byte	0
 13037 064e 1C       		.byte	28
 13038 064f 30       		.byte	48
 13039 0650 00       		.byte	0
 13040 0651 18       		.byte	24
 13041 0652 18       		.byte	24
 13042 0653 00       		.byte	0
 13043 0654 18       		.byte	24
 13044 0655 18       		.byte	24
 13045 0656 00       		.byte	0
 13046 0657 18       		.byte	24
 13047 0658 18       		.byte	24
ARM GAS  D:\Programs\cygwin64\tmp\ccnP8CjY.s 			page 228


 13048 0659 00       		.byte	0
 13049 065a 0C       		.byte	12
 13050 065b 38       		.byte	56
 13051 065c 00       		.byte	0
 13052 065d 0F       		.byte	15
 13053 065e F0       		.byte	-16
 13054 065f 00       		.byte	0
 13055 0660 03       		.byte	3
 13056 0661 E0       		.byte	-32
 13057 0662 00       		.byte	0
 13058 0663 00       		.byte	0
 13059 0664 00       		.byte	0
 13060 0665 00       		.byte	0
 13061 0666 00       		.byte	0
 13062 0667 00       		.byte	0
 13063 0668 00       		.byte	0
 13064 0669 00       		.byte	0
 13065 066a 00       		.byte	0
 13066 066b 00       		.byte	0
 13067 066c 00       		.byte	0
 13068 066d 00       		.byte	0
 13069 066e 00       		.byte	0
 13070 066f 00       		.byte	0
 13071 0670 00       		.byte	0
 13072 0671 00       		.byte	0
 13073 0672 00       		.byte	0
 13074 0673 00       		.byte	0
 13075 0674 00       		.byte	0
 13076 0675 00       		.byte	0
 13077 0676 00       		.byte	0
 13078 0677 00       		.byte	0
 13079 0678 00       		.byte	0
 13080 0679 00       		.byte	0
 13081 067a 00       		.byte	0
 13082 067b 00       		.byte	0
 13083 067c 00       		.byte	0
 13084 067d 00       		.byte	0
 13085 067e 1F       		.byte	31
 13086 067f F8       		.byte	-8
 13087 0680 00       		.byte	0
 13088 0681 1F       		.byte	31
 13089 0682 F8       		.byte	-8
 13090 0683 00       		.byte	0
 13091 0684 18       		.byte	24
 13092 0685 18       		.byte	24
 13093 0686 00       		.byte	0
 13094 0687 18       		.byte	24
 13095 0688 38       		.byte	56
 13096 0689 00       		.byte	0
 13097 068a 00       		.byte	0
 13098 068b 30       		.byte	48
 13099 068c 00       		.byte	0
 13100 068d 00       		.byte	0
 13101 068e 30       		.byte	48
 13102 068f 00       		.byte	0
 13103 0690 00       		.byte	0
 13104 0691 70       		.byte	112
ARM GAS  D:\Programs\cygwin64\tmp\ccnP8CjY.s 			page 229


 13105 0692 00       		.byte	0
 13106 0693 00       		.byte	0
 13107 0694 60       		.byte	96
 13108 0695 00       		.byte	0
 13109 0696 00       		.byte	0
 13110 0697 60       		.byte	96
 13111 0698 00       		.byte	0
 13112 0699 00       		.byte	0
 13113 069a E0       		.byte	-32
 13114 069b 00       		.byte	0
 13115 069c 00       		.byte	0
 13116 069d C0       		.byte	-64
 13117 069e 00       		.byte	0
 13118 069f 00       		.byte	0
 13119 06a0 C0       		.byte	-64
 13120 06a1 00       		.byte	0
 13121 06a2 01       		.byte	1
 13122 06a3 C0       		.byte	-64
 13123 06a4 00       		.byte	0
 13124 06a5 01       		.byte	1
 13125 06a6 80       		.byte	-128
 13126 06a7 00       		.byte	0
 13127 06a8 01       		.byte	1
 13128 06a9 80       		.byte	-128
 13129 06aa 00       		.byte	0
 13130 06ab 00       		.byte	0
 13131 06ac 00       		.byte	0
 13132 06ad 00       		.byte	0
 13133 06ae 00       		.byte	0
 13134 06af 00       		.byte	0
 13135 06b0 00       		.byte	0
 13136 06b1 00       		.byte	0
 13137 06b2 00       		.byte	0
 13138 06b3 00       		.byte	0
 13139 06b4 00       		.byte	0
 13140 06b5 00       		.byte	0
 13141 06b6 00       		.byte	0
 13142 06b7 00       		.byte	0
 13143 06b8 00       		.byte	0
 13144 06b9 00       		.byte	0
 13145 06ba 00       		.byte	0
 13146 06bb 00       		.byte	0
 13147 06bc 00       		.byte	0
 13148 06bd 00       		.byte	0
 13149 06be 00       		.byte	0
 13150 06bf 00       		.byte	0
 13151 06c0 00       		.byte	0
 13152 06c1 00       		.byte	0
 13153 06c2 00       		.byte	0
 13154 06c3 00       		.byte	0
 13155 06c4 00       		.byte	0
 13156 06c5 00       		.byte	0
 13157 06c6 07       		.byte	7
 13158 06c7 E0       		.byte	-32
 13159 06c8 00       		.byte	0
 13160 06c9 0F       		.byte	15
 13161 06ca F0       		.byte	-16
ARM GAS  D:\Programs\cygwin64\tmp\ccnP8CjY.s 			page 230


 13162 06cb 00       		.byte	0
 13163 06cc 1C       		.byte	28
 13164 06cd 38       		.byte	56
 13165 06ce 00       		.byte	0
 13166 06cf 18       		.byte	24
 13167 06d0 18       		.byte	24
 13168 06d1 00       		.byte	0
 13169 06d2 18       		.byte	24
 13170 06d3 18       		.byte	24
 13171 06d4 00       		.byte	0
 13172 06d5 0C       		.byte	12
 13173 06d6 30       		.byte	48
 13174 06d7 00       		.byte	0
 13175 06d8 07       		.byte	7
 13176 06d9 E0       		.byte	-32
 13177 06da 00       		.byte	0
 13178 06db 07       		.byte	7
 13179 06dc E0       		.byte	-32
 13180 06dd 00       		.byte	0
 13181 06de 0C       		.byte	12
 13182 06df 30       		.byte	48
 13183 06e0 00       		.byte	0
 13184 06e1 18       		.byte	24
 13185 06e2 18       		.byte	24
 13186 06e3 00       		.byte	0
 13187 06e4 18       		.byte	24
 13188 06e5 18       		.byte	24
 13189 06e6 00       		.byte	0
 13190 06e7 18       		.byte	24
 13191 06e8 18       		.byte	24
 13192 06e9 00       		.byte	0
 13193 06ea 1C       		.byte	28
 13194 06eb 38       		.byte	56
 13195 06ec 00       		.byte	0
 13196 06ed 0F       		.byte	15
 13197 06ee F0       		.byte	-16
 13198 06ef 00       		.byte	0
 13199 06f0 07       		.byte	7
 13200 06f1 E0       		.byte	-32
 13201 06f2 00       		.byte	0
 13202 06f3 00       		.byte	0
 13203 06f4 00       		.byte	0
 13204 06f5 00       		.byte	0
 13205 06f6 00       		.byte	0
 13206 06f7 00       		.byte	0
 13207 06f8 00       		.byte	0
 13208 06f9 00       		.byte	0
 13209 06fa 00       		.byte	0
 13210 06fb 00       		.byte	0
 13211 06fc 00       		.byte	0
 13212 06fd 00       		.byte	0
 13213 06fe 00       		.byte	0
 13214 06ff 00       		.byte	0
 13215 0700 00       		.byte	0
 13216 0701 00       		.byte	0
 13217 0702 00       		.byte	0
 13218 0703 00       		.byte	0
ARM GAS  D:\Programs\cygwin64\tmp\ccnP8CjY.s 			page 231


 13219 0704 00       		.byte	0
 13220 0705 00       		.byte	0
 13221 0706 00       		.byte	0
 13222 0707 00       		.byte	0
 13223 0708 00       		.byte	0
 13224 0709 00       		.byte	0
 13225 070a 00       		.byte	0
 13226 070b 00       		.byte	0
 13227 070c 00       		.byte	0
 13228 070d 00       		.byte	0
 13229 070e 07       		.byte	7
 13230 070f C0       		.byte	-64
 13231 0710 00       		.byte	0
 13232 0711 0F       		.byte	15
 13233 0712 F0       		.byte	-16
 13234 0713 00       		.byte	0
 13235 0714 1C       		.byte	28
 13236 0715 30       		.byte	48
 13237 0716 00       		.byte	0
 13238 0717 18       		.byte	24
 13239 0718 18       		.byte	24
 13240 0719 00       		.byte	0
 13241 071a 18       		.byte	24
 13242 071b 18       		.byte	24
 13243 071c 00       		.byte	0
 13244 071d 18       		.byte	24
 13245 071e 18       		.byte	24
 13246 071f 00       		.byte	0
 13247 0720 0C       		.byte	12
 13248 0721 38       		.byte	56
 13249 0722 00       		.byte	0
 13250 0723 0F       		.byte	15
 13251 0724 F8       		.byte	-8
 13252 0725 00       		.byte	0
 13253 0726 03       		.byte	3
 13254 0727 D8       		.byte	-40
 13255 0728 00       		.byte	0
 13256 0729 00       		.byte	0
 13257 072a 18       		.byte	24
 13258 072b 00       		.byte	0
 13259 072c 00       		.byte	0
 13260 072d 30       		.byte	48
 13261 072e 00       		.byte	0
 13262 072f 00       		.byte	0
 13263 0730 70       		.byte	112
 13264 0731 00       		.byte	0
 13265 0732 00       		.byte	0
 13266 0733 E0       		.byte	-32
 13267 0734 00       		.byte	0
 13268 0735 1F       		.byte	31
 13269 0736 C0       		.byte	-64
 13270 0737 00       		.byte	0
 13271 0738 1F       		.byte	31
 13272 0739 00       		.byte	0
 13273 073a 00       		.byte	0
 13274 073b 00       		.byte	0
 13275 073c 00       		.byte	0
ARM GAS  D:\Programs\cygwin64\tmp\ccnP8CjY.s 			page 232


 13276 073d 00       		.byte	0
 13277 073e 00       		.byte	0
 13278 073f 00       		.byte	0
 13279 0740 00       		.byte	0
 13280 0741 00       		.byte	0
 13281 0742 00       		.byte	0
 13282 0743 00       		.byte	0
 13283 0744 00       		.byte	0
 13284 0745 00       		.byte	0
 13285 0746 00       		.byte	0
 13286 0747 00       		.byte	0
 13287 0748 00       		.byte	0
 13288 0749 00       		.byte	0
 13289 074a 00       		.byte	0
 13290 074b 00       		.byte	0
 13291 074c 00       		.byte	0
 13292 074d 00       		.byte	0
 13293 074e 00       		.byte	0
 13294 074f 00       		.byte	0
 13295 0750 00       		.byte	0
 13296 0751 00       		.byte	0
 13297 0752 00       		.byte	0
 13298 0753 00       		.byte	0
 13299 0754 00       		.byte	0
 13300 0755 00       		.byte	0
 13301 0756 00       		.byte	0
 13302 0757 00       		.byte	0
 13303 0758 00       		.byte	0
 13304 0759 00       		.byte	0
 13305 075a 00       		.byte	0
 13306 075b 00       		.byte	0
 13307 075c 00       		.byte	0
 13308 075d 00       		.byte	0
 13309 075e 00       		.byte	0
 13310 075f 00       		.byte	0
 13311 0760 00       		.byte	0
 13312 0761 00       		.byte	0
 13313 0762 03       		.byte	3
 13314 0763 C0       		.byte	-64
 13315 0764 00       		.byte	0
 13316 0765 03       		.byte	3
 13317 0766 C0       		.byte	-64
 13318 0767 00       		.byte	0
 13319 0768 03       		.byte	3
 13320 0769 C0       		.byte	-64
 13321 076a 00       		.byte	0
 13322 076b 00       		.byte	0
 13323 076c 00       		.byte	0
 13324 076d 00       		.byte	0
 13325 076e 00       		.byte	0
 13326 076f 00       		.byte	0
 13327 0770 00       		.byte	0
 13328 0771 00       		.byte	0
 13329 0772 00       		.byte	0
 13330 0773 00       		.byte	0
 13331 0774 00       		.byte	0
 13332 0775 00       		.byte	0
ARM GAS  D:\Programs\cygwin64\tmp\ccnP8CjY.s 			page 233


 13333 0776 00       		.byte	0
 13334 0777 00       		.byte	0
 13335 0778 00       		.byte	0
 13336 0779 00       		.byte	0
 13337 077a 03       		.byte	3
 13338 077b C0       		.byte	-64
 13339 077c 00       		.byte	0
 13340 077d 03       		.byte	3
 13341 077e C0       		.byte	-64
 13342 077f 00       		.byte	0
 13343 0780 03       		.byte	3
 13344 0781 C0       		.byte	-64
 13345 0782 00       		.byte	0
 13346 0783 00       		.byte	0
 13347 0784 00       		.byte	0
 13348 0785 00       		.byte	0
 13349 0786 00       		.byte	0
 13350 0787 00       		.byte	0
 13351 0788 00       		.byte	0
 13352 0789 00       		.byte	0
 13353 078a 00       		.byte	0
 13354 078b 00       		.byte	0
 13355 078c 00       		.byte	0
 13356 078d 00       		.byte	0
 13357 078e 00       		.byte	0
 13358 078f 00       		.byte	0
 13359 0790 00       		.byte	0
 13360 0791 00       		.byte	0
 13361 0792 00       		.byte	0
 13362 0793 00       		.byte	0
 13363 0794 00       		.byte	0
 13364 0795 00       		.byte	0
 13365 0796 00       		.byte	0
 13366 0797 00       		.byte	0
 13367 0798 00       		.byte	0
 13368 0799 00       		.byte	0
 13369 079a 00       		.byte	0
 13370 079b 00       		.byte	0
 13371 079c 00       		.byte	0
 13372 079d 00       		.byte	0
 13373 079e 00       		.byte	0
 13374 079f 00       		.byte	0
 13375 07a0 00       		.byte	0
 13376 07a1 00       		.byte	0
 13377 07a2 00       		.byte	0
 13378 07a3 00       		.byte	0
 13379 07a4 00       		.byte	0
 13380 07a5 00       		.byte	0
 13381 07a6 00       		.byte	0
 13382 07a7 00       		.byte	0
 13383 07a8 00       		.byte	0
 13384 07a9 00       		.byte	0
 13385 07aa 00       		.byte	0
 13386 07ab F0       		.byte	-16
 13387 07ac 00       		.byte	0
 13388 07ad 00       		.byte	0
 13389 07ae F0       		.byte	-16
ARM GAS  D:\Programs\cygwin64\tmp\ccnP8CjY.s 			page 234


 13390 07af 00       		.byte	0
 13391 07b0 00       		.byte	0
 13392 07b1 F0       		.byte	-16
 13393 07b2 00       		.byte	0
 13394 07b3 00       		.byte	0
 13395 07b4 00       		.byte	0
 13396 07b5 00       		.byte	0
 13397 07b6 00       		.byte	0
 13398 07b7 00       		.byte	0
 13399 07b8 00       		.byte	0
 13400 07b9 00       		.byte	0
 13401 07ba 00       		.byte	0
 13402 07bb 00       		.byte	0
 13403 07bc 00       		.byte	0
 13404 07bd 00       		.byte	0
 13405 07be 00       		.byte	0
 13406 07bf 00       		.byte	0
 13407 07c0 E0       		.byte	-32
 13408 07c1 00       		.byte	0
 13409 07c2 01       		.byte	1
 13410 07c3 C0       		.byte	-64
 13411 07c4 00       		.byte	0
 13412 07c5 01       		.byte	1
 13413 07c6 80       		.byte	-128
 13414 07c7 00       		.byte	0
 13415 07c8 01       		.byte	1
 13416 07c9 80       		.byte	-128
 13417 07ca 00       		.byte	0
 13418 07cb 03       		.byte	3
 13419 07cc 00       		.byte	0
 13420 07cd 00       		.byte	0
 13421 07ce 02       		.byte	2
 13422 07cf 00       		.byte	0
 13423 07d0 00       		.byte	0
 13424 07d1 00       		.byte	0
 13425 07d2 00       		.byte	0
 13426 07d3 00       		.byte	0
 13427 07d4 00       		.byte	0
 13428 07d5 00       		.byte	0
 13429 07d6 00       		.byte	0
 13430 07d7 00       		.byte	0
 13431 07d8 00       		.byte	0
 13432 07d9 00       		.byte	0
 13433 07da 00       		.byte	0
 13434 07db 00       		.byte	0
 13435 07dc 00       		.byte	0
 13436 07dd 00       		.byte	0
 13437 07de 00       		.byte	0
 13438 07df 00       		.byte	0
 13439 07e0 00       		.byte	0
 13440 07e1 00       		.byte	0
 13441 07e2 00       		.byte	0
 13442 07e3 00       		.byte	0
 13443 07e4 00       		.byte	0
 13444 07e5 00       		.byte	0
 13445 07e6 00       		.byte	0
 13446 07e7 00       		.byte	0
ARM GAS  D:\Programs\cygwin64\tmp\ccnP8CjY.s 			page 235


 13447 07e8 00       		.byte	0
 13448 07e9 00       		.byte	0
 13449 07ea 00       		.byte	0
 13450 07eb 00       		.byte	0
 13451 07ec 00       		.byte	0
 13452 07ed 1C       		.byte	28
 13453 07ee 00       		.byte	0
 13454 07ef 00       		.byte	0
 13455 07f0 3C       		.byte	60
 13456 07f1 00       		.byte	0
 13457 07f2 00       		.byte	0
 13458 07f3 F0       		.byte	-16
 13459 07f4 00       		.byte	0
 13460 07f5 03       		.byte	3
 13461 07f6 C0       		.byte	-64
 13462 07f7 00       		.byte	0
 13463 07f8 0F       		.byte	15
 13464 07f9 00       		.byte	0
 13465 07fa 00       		.byte	0
 13466 07fb 3C       		.byte	60
 13467 07fc 00       		.byte	0
 13468 07fd 00       		.byte	0
 13469 07fe F0       		.byte	-16
 13470 07ff 00       		.byte	0
 13471 0800 00       		.byte	0
 13472 0801 3C       		.byte	60
 13473 0802 00       		.byte	0
 13474 0803 00       		.byte	0
 13475 0804 0F       		.byte	15
 13476 0805 00       		.byte	0
 13477 0806 00       		.byte	0
 13478 0807 03       		.byte	3
 13479 0808 C0       		.byte	-64
 13480 0809 00       		.byte	0
 13481 080a 00       		.byte	0
 13482 080b F0       		.byte	-16
 13483 080c 00       		.byte	0
 13484 080d 00       		.byte	0
 13485 080e 3C       		.byte	60
 13486 080f 00       		.byte	0
 13487 0810 00       		.byte	0
 13488 0811 1C       		.byte	28
 13489 0812 00       		.byte	0
 13490 0813 00       		.byte	0
 13491 0814 00       		.byte	0
 13492 0815 00       		.byte	0
 13493 0816 00       		.byte	0
 13494 0817 00       		.byte	0
 13495 0818 00       		.byte	0
 13496 0819 00       		.byte	0
 13497 081a 00       		.byte	0
 13498 081b 00       		.byte	0
 13499 081c 00       		.byte	0
 13500 081d 00       		.byte	0
 13501 081e 00       		.byte	0
 13502 081f 00       		.byte	0
 13503 0820 00       		.byte	0
ARM GAS  D:\Programs\cygwin64\tmp\ccnP8CjY.s 			page 236


 13504 0821 00       		.byte	0
 13505 0822 00       		.byte	0
 13506 0823 00       		.byte	0
 13507 0824 00       		.byte	0
 13508 0825 00       		.byte	0
 13509 0826 00       		.byte	0
 13510 0827 00       		.byte	0
 13511 0828 00       		.byte	0
 13512 0829 00       		.byte	0
 13513 082a 00       		.byte	0
 13514 082b 00       		.byte	0
 13515 082c 00       		.byte	0
 13516 082d 00       		.byte	0
 13517 082e 00       		.byte	0
 13518 082f 00       		.byte	0
 13519 0830 00       		.byte	0
 13520 0831 00       		.byte	0
 13521 0832 00       		.byte	0
 13522 0833 00       		.byte	0
 13523 0834 00       		.byte	0
 13524 0835 00       		.byte	0
 13525 0836 00       		.byte	0
 13526 0837 00       		.byte	0
 13527 0838 00       		.byte	0
 13528 0839 00       		.byte	0
 13529 083a 00       		.byte	0
 13530 083b 00       		.byte	0
 13531 083c 00       		.byte	0
 13532 083d 7F       		.byte	127
 13533 083e FC       		.byte	-4
 13534 083f 00       		.byte	0
 13535 0840 7F       		.byte	127
 13536 0841 FC       		.byte	-4
 13537 0842 00       		.byte	0
 13538 0843 00       		.byte	0
 13539 0844 00       		.byte	0
 13540 0845 00       		.byte	0
 13541 0846 00       		.byte	0
 13542 0847 00       		.byte	0
 13543 0848 00       		.byte	0
 13544 0849 7F       		.byte	127
 13545 084a FC       		.byte	-4
 13546 084b 00       		.byte	0
 13547 084c 7F       		.byte	127
 13548 084d FC       		.byte	-4
 13549 084e 00       		.byte	0
 13550 084f 00       		.byte	0
 13551 0850 00       		.byte	0
 13552 0851 00       		.byte	0
 13553 0852 00       		.byte	0
 13554 0853 00       		.byte	0
 13555 0854 00       		.byte	0
 13556 0855 00       		.byte	0
 13557 0856 00       		.byte	0
 13558 0857 00       		.byte	0
 13559 0858 00       		.byte	0
 13560 0859 00       		.byte	0
ARM GAS  D:\Programs\cygwin64\tmp\ccnP8CjY.s 			page 237


 13561 085a 00       		.byte	0
 13562 085b 00       		.byte	0
 13563 085c 00       		.byte	0
 13564 085d 00       		.byte	0
 13565 085e 00       		.byte	0
 13566 085f 00       		.byte	0
 13567 0860 00       		.byte	0
 13568 0861 00       		.byte	0
 13569 0862 00       		.byte	0
 13570 0863 00       		.byte	0
 13571 0864 00       		.byte	0
 13572 0865 00       		.byte	0
 13573 0866 00       		.byte	0
 13574 0867 00       		.byte	0
 13575 0868 00       		.byte	0
 13576 0869 00       		.byte	0
 13577 086a 00       		.byte	0
 13578 086b 00       		.byte	0
 13579 086c 00       		.byte	0
 13580 086d 00       		.byte	0
 13581 086e 00       		.byte	0
 13582 086f 00       		.byte	0
 13583 0870 00       		.byte	0
 13584 0871 00       		.byte	0
 13585 0872 00       		.byte	0
 13586 0873 00       		.byte	0
 13587 0874 00       		.byte	0
 13588 0875 00       		.byte	0
 13589 0876 00       		.byte	0
 13590 0877 00       		.byte	0
 13591 0878 00       		.byte	0
 13592 0879 00       		.byte	0
 13593 087a 00       		.byte	0
 13594 087b 00       		.byte	0
 13595 087c 70       		.byte	112
 13596 087d 00       		.byte	0
 13597 087e 00       		.byte	0
 13598 087f 78       		.byte	120
 13599 0880 00       		.byte	0
 13600 0881 00       		.byte	0
 13601 0882 1E       		.byte	30
 13602 0883 00       		.byte	0
 13603 0884 00       		.byte	0
 13604 0885 07       		.byte	7
 13605 0886 80       		.byte	-128
 13606 0887 00       		.byte	0
 13607 0888 01       		.byte	1
 13608 0889 E0       		.byte	-32
 13609 088a 00       		.byte	0
 13610 088b 00       		.byte	0
 13611 088c 78       		.byte	120
 13612 088d 00       		.byte	0
 13613 088e 00       		.byte	0
 13614 088f 1E       		.byte	30
 13615 0890 00       		.byte	0
 13616 0891 00       		.byte	0
 13617 0892 78       		.byte	120
ARM GAS  D:\Programs\cygwin64\tmp\ccnP8CjY.s 			page 238


 13618 0893 00       		.byte	0
 13619 0894 01       		.byte	1
 13620 0895 E0       		.byte	-32
 13621 0896 00       		.byte	0
 13622 0897 07       		.byte	7
 13623 0898 80       		.byte	-128
 13624 0899 00       		.byte	0
 13625 089a 1E       		.byte	30
 13626 089b 00       		.byte	0
 13627 089c 00       		.byte	0
 13628 089d 78       		.byte	120
 13629 089e 00       		.byte	0
 13630 089f 00       		.byte	0
 13631 08a0 70       		.byte	112
 13632 08a1 00       		.byte	0
 13633 08a2 00       		.byte	0
 13634 08a3 00       		.byte	0
 13635 08a4 00       		.byte	0
 13636 08a5 00       		.byte	0
 13637 08a6 00       		.byte	0
 13638 08a7 00       		.byte	0
 13639 08a8 00       		.byte	0
 13640 08a9 00       		.byte	0
 13641 08aa 00       		.byte	0
 13642 08ab 00       		.byte	0
 13643 08ac 00       		.byte	0
 13644 08ad 00       		.byte	0
 13645 08ae 00       		.byte	0
 13646 08af 00       		.byte	0
 13647 08b0 00       		.byte	0
 13648 08b1 00       		.byte	0
 13649 08b2 00       		.byte	0
 13650 08b3 00       		.byte	0
 13651 08b4 00       		.byte	0
 13652 08b5 00       		.byte	0
 13653 08b6 00       		.byte	0
 13654 08b7 00       		.byte	0
 13655 08b8 00       		.byte	0
 13656 08b9 00       		.byte	0
 13657 08ba 00       		.byte	0
 13658 08bb 00       		.byte	0
 13659 08bc 00       		.byte	0
 13660 08bd 00       		.byte	0
 13661 08be 00       		.byte	0
 13662 08bf 00       		.byte	0
 13663 08c0 00       		.byte	0
 13664 08c1 07       		.byte	7
 13665 08c2 C0       		.byte	-64
 13666 08c3 00       		.byte	0
 13667 08c4 0F       		.byte	15
 13668 08c5 E0       		.byte	-32
 13669 08c6 00       		.byte	0
 13670 08c7 18       		.byte	24
 13671 08c8 70       		.byte	112
 13672 08c9 00       		.byte	0
 13673 08ca 18       		.byte	24
 13674 08cb 30       		.byte	48
ARM GAS  D:\Programs\cygwin64\tmp\ccnP8CjY.s 			page 239


 13675 08cc 00       		.byte	0
 13676 08cd 18       		.byte	24
 13677 08ce 30       		.byte	48
 13678 08cf 00       		.byte	0
 13679 08d0 00       		.byte	0
 13680 08d1 70       		.byte	112
 13681 08d2 00       		.byte	0
 13682 08d3 00       		.byte	0
 13683 08d4 E0       		.byte	-32
 13684 08d5 00       		.byte	0
 13685 08d6 03       		.byte	3
 13686 08d7 C0       		.byte	-64
 13687 08d8 00       		.byte	0
 13688 08d9 03       		.byte	3
 13689 08da 80       		.byte	-128
 13690 08db 00       		.byte	0
 13691 08dc 03       		.byte	3
 13692 08dd 00       		.byte	0
 13693 08de 00       		.byte	0
 13694 08df 00       		.byte	0
 13695 08e0 00       		.byte	0
 13696 08e1 00       		.byte	0
 13697 08e2 00       		.byte	0
 13698 08e3 00       		.byte	0
 13699 08e4 00       		.byte	0
 13700 08e5 07       		.byte	7
 13701 08e6 00       		.byte	0
 13702 08e7 00       		.byte	0
 13703 08e8 07       		.byte	7
 13704 08e9 00       		.byte	0
 13705 08ea 00       		.byte	0
 13706 08eb 00       		.byte	0
 13707 08ec 00       		.byte	0
 13708 08ed 00       		.byte	0
 13709 08ee 00       		.byte	0
 13710 08ef 00       		.byte	0
 13711 08f0 00       		.byte	0
 13712 08f1 00       		.byte	0
 13713 08f2 00       		.byte	0
 13714 08f3 00       		.byte	0
 13715 08f4 00       		.byte	0
 13716 08f5 00       		.byte	0
 13717 08f6 00       		.byte	0
 13718 08f7 00       		.byte	0
 13719 08f8 00       		.byte	0
 13720 08f9 00       		.byte	0
 13721 08fa 00       		.byte	0
 13722 08fb 00       		.byte	0
 13723 08fc 00       		.byte	0
 13724 08fd 00       		.byte	0
 13725 08fe 00       		.byte	0
 13726 08ff 00       		.byte	0
 13727 0900 00       		.byte	0
 13728 0901 00       		.byte	0
 13729 0902 00       		.byte	0
 13730 0903 00       		.byte	0
 13731 0904 00       		.byte	0
ARM GAS  D:\Programs\cygwin64\tmp\ccnP8CjY.s 			page 240


 13732 0905 00       		.byte	0
 13733 0906 03       		.byte	3
 13734 0907 E0       		.byte	-32
 13735 0908 00       		.byte	0
 13736 0909 07       		.byte	7
 13737 090a F0       		.byte	-16
 13738 090b 00       		.byte	0
 13739 090c 0E       		.byte	14
 13740 090d 38       		.byte	56
 13741 090e 00       		.byte	0
 13742 090f 0C       		.byte	12
 13743 0910 18       		.byte	24
 13744 0911 00       		.byte	0
 13745 0912 18       		.byte	24
 13746 0913 78       		.byte	120
 13747 0914 00       		.byte	0
 13748 0915 18       		.byte	24
 13749 0916 F8       		.byte	-8
 13750 0917 00       		.byte	0
 13751 0918 19       		.byte	25
 13752 0919 D8       		.byte	-40
 13753 091a 00       		.byte	0
 13754 091b 19       		.byte	25
 13755 091c 98       		.byte	-104
 13756 091d 00       		.byte	0
 13757 091e 19       		.byte	25
 13758 091f 98       		.byte	-104
 13759 0920 00       		.byte	0
 13760 0921 19       		.byte	25
 13761 0922 98       		.byte	-104
 13762 0923 00       		.byte	0
 13763 0924 18       		.byte	24
 13764 0925 F8       		.byte	-8
 13765 0926 00       		.byte	0
 13766 0927 18       		.byte	24
 13767 0928 78       		.byte	120
 13768 0929 00       		.byte	0
 13769 092a 18       		.byte	24
 13770 092b 00       		.byte	0
 13771 092c 00       		.byte	0
 13772 092d 0C       		.byte	12
 13773 092e 00       		.byte	0
 13774 092f 00       		.byte	0
 13775 0930 0E       		.byte	14
 13776 0931 18       		.byte	24
 13777 0932 00       		.byte	0
 13778 0933 07       		.byte	7
 13779 0934 F8       		.byte	-8
 13780 0935 00       		.byte	0
 13781 0936 03       		.byte	3
 13782 0937 E0       		.byte	-32
 13783 0938 00       		.byte	0
 13784 0939 00       		.byte	0
 13785 093a 00       		.byte	0
 13786 093b 00       		.byte	0
 13787 093c 00       		.byte	0
 13788 093d 00       		.byte	0
ARM GAS  D:\Programs\cygwin64\tmp\ccnP8CjY.s 			page 241


 13789 093e 00       		.byte	0
 13790 093f 00       		.byte	0
 13791 0940 00       		.byte	0
 13792 0941 00       		.byte	0
 13793 0942 00       		.byte	0
 13794 0943 00       		.byte	0
 13795 0944 00       		.byte	0
 13796 0945 00       		.byte	0
 13797 0946 00       		.byte	0
 13798 0947 00       		.byte	0
 13799 0948 00       		.byte	0
 13800 0949 00       		.byte	0
 13801 094a 00       		.byte	0
 13802 094b 00       		.byte	0
 13803 094c 00       		.byte	0
 13804 094d 00       		.byte	0
 13805 094e 00       		.byte	0
 13806 094f 00       		.byte	0
 13807 0950 00       		.byte	0
 13808 0951 1F       		.byte	31
 13809 0952 80       		.byte	-128
 13810 0953 00       		.byte	0
 13811 0954 1F       		.byte	31
 13812 0955 C0       		.byte	-64
 13813 0956 00       		.byte	0
 13814 0957 01       		.byte	1
 13815 0958 C0       		.byte	-64
 13816 0959 00       		.byte	0
 13817 095a 03       		.byte	3
 13818 095b 60       		.byte	96
 13819 095c 00       		.byte	0
 13820 095d 03       		.byte	3
 13821 095e 60       		.byte	96
 13822 095f 00       		.byte	0
 13823 0960 06       		.byte	6
 13824 0961 30       		.byte	48
 13825 0962 00       		.byte	0
 13826 0963 06       		.byte	6
 13827 0964 30       		.byte	48
 13828 0965 00       		.byte	0
 13829 0966 0C       		.byte	12
 13830 0967 30       		.byte	48
 13831 0968 00       		.byte	0
 13832 0969 0F       		.byte	15
 13833 096a F8       		.byte	-8
 13834 096b 00       		.byte	0
 13835 096c 1F       		.byte	31
 13836 096d F8       		.byte	-8
 13837 096e 00       		.byte	0
 13838 096f 18       		.byte	24
 13839 0970 0C       		.byte	12
 13840 0971 00       		.byte	0
 13841 0972 30       		.byte	48
 13842 0973 0C       		.byte	12
 13843 0974 00       		.byte	0
 13844 0975 FC       		.byte	-4
 13845 0976 7F       		.byte	127
ARM GAS  D:\Programs\cygwin64\tmp\ccnP8CjY.s 			page 242


 13846 0977 00       		.byte	0
 13847 0978 FC       		.byte	-4
 13848 0979 7F       		.byte	127
 13849 097a 00       		.byte	0
 13850 097b 00       		.byte	0
 13851 097c 00       		.byte	0
 13852 097d 00       		.byte	0
 13853 097e 00       		.byte	0
 13854 097f 00       		.byte	0
 13855 0980 00       		.byte	0
 13856 0981 00       		.byte	0
 13857 0982 00       		.byte	0
 13858 0983 00       		.byte	0
 13859 0984 00       		.byte	0
 13860 0985 00       		.byte	0
 13861 0986 00       		.byte	0
 13862 0987 00       		.byte	0
 13863 0988 00       		.byte	0
 13864 0989 00       		.byte	0
 13865 098a 00       		.byte	0
 13866 098b 00       		.byte	0
 13867 098c 00       		.byte	0
 13868 098d 00       		.byte	0
 13869 098e 00       		.byte	0
 13870 098f 00       		.byte	0
 13871 0990 00       		.byte	0
 13872 0991 00       		.byte	0
 13873 0992 00       		.byte	0
 13874 0993 00       		.byte	0
 13875 0994 00       		.byte	0
 13876 0995 00       		.byte	0
 13877 0996 00       		.byte	0
 13878 0997 00       		.byte	0
 13879 0998 00       		.byte	0
 13880 0999 7F       		.byte	127
 13881 099a E0       		.byte	-32
 13882 099b 00       		.byte	0
 13883 099c 7F       		.byte	127
 13884 099d F0       		.byte	-16
 13885 099e 00       		.byte	0
 13886 099f 18       		.byte	24
 13887 09a0 38       		.byte	56
 13888 09a1 00       		.byte	0
 13889 09a2 18       		.byte	24
 13890 09a3 18       		.byte	24
 13891 09a4 00       		.byte	0
 13892 09a5 18       		.byte	24
 13893 09a6 18       		.byte	24
 13894 09a7 00       		.byte	0
 13895 09a8 18       		.byte	24
 13896 09a9 38       		.byte	56
 13897 09aa 00       		.byte	0
 13898 09ab 1F       		.byte	31
 13899 09ac F0       		.byte	-16
 13900 09ad 00       		.byte	0
 13901 09ae 1F       		.byte	31
 13902 09af F8       		.byte	-8
ARM GAS  D:\Programs\cygwin64\tmp\ccnP8CjY.s 			page 243


 13903 09b0 00       		.byte	0
 13904 09b1 18       		.byte	24
 13905 09b2 1C       		.byte	28
 13906 09b3 00       		.byte	0
 13907 09b4 18       		.byte	24
 13908 09b5 0C       		.byte	12
 13909 09b6 00       		.byte	0
 13910 09b7 18       		.byte	24
 13911 09b8 0C       		.byte	12
 13912 09b9 00       		.byte	0
 13913 09ba 18       		.byte	24
 13914 09bb 0C       		.byte	12
 13915 09bc 00       		.byte	0
 13916 09bd 7F       		.byte	127
 13917 09be F8       		.byte	-8
 13918 09bf 00       		.byte	0
 13919 09c0 7F       		.byte	127
 13920 09c1 F0       		.byte	-16
 13921 09c2 00       		.byte	0
 13922 09c3 00       		.byte	0
 13923 09c4 00       		.byte	0
 13924 09c5 00       		.byte	0
 13925 09c6 00       		.byte	0
 13926 09c7 00       		.byte	0
 13927 09c8 00       		.byte	0
 13928 09c9 00       		.byte	0
 13929 09ca 00       		.byte	0
 13930 09cb 00       		.byte	0
 13931 09cc 00       		.byte	0
 13932 09cd 00       		.byte	0
 13933 09ce 00       		.byte	0
 13934 09cf 00       		.byte	0
 13935 09d0 00       		.byte	0
 13936 09d1 00       		.byte	0
 13937 09d2 00       		.byte	0
 13938 09d3 00       		.byte	0
 13939 09d4 00       		.byte	0
 13940 09d5 00       		.byte	0
 13941 09d6 00       		.byte	0
 13942 09d7 00       		.byte	0
 13943 09d8 00       		.byte	0
 13944 09d9 00       		.byte	0
 13945 09da 00       		.byte	0
 13946 09db 00       		.byte	0
 13947 09dc 00       		.byte	0
 13948 09dd 00       		.byte	0
 13949 09de 00       		.byte	0
 13950 09df 00       		.byte	0
 13951 09e0 00       		.byte	0
 13952 09e1 03       		.byte	3
 13953 09e2 EC       		.byte	-20
 13954 09e3 00       		.byte	0
 13955 09e4 0F       		.byte	15
 13956 09e5 FC       		.byte	-4
 13957 09e6 00       		.byte	0
 13958 09e7 1C       		.byte	28
 13959 09e8 1C       		.byte	28
ARM GAS  D:\Programs\cygwin64\tmp\ccnP8CjY.s 			page 244


 13960 09e9 00       		.byte	0
 13961 09ea 18       		.byte	24
 13962 09eb 0C       		.byte	12
 13963 09ec 00       		.byte	0
 13964 09ed 30       		.byte	48
 13965 09ee 0C       		.byte	12
 13966 09ef 00       		.byte	0
 13967 09f0 30       		.byte	48
 13968 09f1 00       		.byte	0
 13969 09f2 00       		.byte	0
 13970 09f3 30       		.byte	48
 13971 09f4 00       		.byte	0
 13972 09f5 00       		.byte	0
 13973 09f6 30       		.byte	48
 13974 09f7 00       		.byte	0
 13975 09f8 00       		.byte	0
 13976 09f9 30       		.byte	48
 13977 09fa 00       		.byte	0
 13978 09fb 00       		.byte	0
 13979 09fc 30       		.byte	48
 13980 09fd 00       		.byte	0
 13981 09fe 00       		.byte	0
 13982 09ff 18       		.byte	24
 13983 0a00 0C       		.byte	12
 13984 0a01 00       		.byte	0
 13985 0a02 1C       		.byte	28
 13986 0a03 1C       		.byte	28
 13987 0a04 00       		.byte	0
 13988 0a05 0F       		.byte	15
 13989 0a06 F8       		.byte	-8
 13990 0a07 00       		.byte	0
 13991 0a08 03       		.byte	3
 13992 0a09 F0       		.byte	-16
 13993 0a0a 00       		.byte	0
 13994 0a0b 00       		.byte	0
 13995 0a0c 00       		.byte	0
 13996 0a0d 00       		.byte	0
 13997 0a0e 00       		.byte	0
 13998 0a0f 00       		.byte	0
 13999 0a10 00       		.byte	0
 14000 0a11 00       		.byte	0
 14001 0a12 00       		.byte	0
 14002 0a13 00       		.byte	0
 14003 0a14 00       		.byte	0
 14004 0a15 00       		.byte	0
 14005 0a16 00       		.byte	0
 14006 0a17 00       		.byte	0
 14007 0a18 00       		.byte	0
 14008 0a19 00       		.byte	0
 14009 0a1a 00       		.byte	0
 14010 0a1b 00       		.byte	0
 14011 0a1c 00       		.byte	0
 14012 0a1d 00       		.byte	0
 14013 0a1e 00       		.byte	0
 14014 0a1f 00       		.byte	0
 14015 0a20 00       		.byte	0
 14016 0a21 00       		.byte	0
ARM GAS  D:\Programs\cygwin64\tmp\ccnP8CjY.s 			page 245


 14017 0a22 00       		.byte	0
 14018 0a23 00       		.byte	0
 14019 0a24 00       		.byte	0
 14020 0a25 00       		.byte	0
 14021 0a26 00       		.byte	0
 14022 0a27 00       		.byte	0
 14023 0a28 00       		.byte	0
 14024 0a29 7F       		.byte	127
 14025 0a2a C0       		.byte	-64
 14026 0a2b 00       		.byte	0
 14027 0a2c 7F       		.byte	127
 14028 0a2d F0       		.byte	-16
 14029 0a2e 00       		.byte	0
 14030 0a2f 18       		.byte	24
 14031 0a30 38       		.byte	56
 14032 0a31 00       		.byte	0
 14033 0a32 18       		.byte	24
 14034 0a33 18       		.byte	24
 14035 0a34 00       		.byte	0
 14036 0a35 18       		.byte	24
 14037 0a36 0C       		.byte	12
 14038 0a37 00       		.byte	0
 14039 0a38 18       		.byte	24
 14040 0a39 0C       		.byte	12
 14041 0a3a 00       		.byte	0
 14042 0a3b 18       		.byte	24
 14043 0a3c 0C       		.byte	12
 14044 0a3d 00       		.byte	0
 14045 0a3e 18       		.byte	24
 14046 0a3f 0C       		.byte	12
 14047 0a40 00       		.byte	0
 14048 0a41 18       		.byte	24
 14049 0a42 0C       		.byte	12
 14050 0a43 00       		.byte	0
 14051 0a44 18       		.byte	24
 14052 0a45 0C       		.byte	12
 14053 0a46 00       		.byte	0
 14054 0a47 18       		.byte	24
 14055 0a48 18       		.byte	24
 14056 0a49 00       		.byte	0
 14057 0a4a 18       		.byte	24
 14058 0a4b 38       		.byte	56
 14059 0a4c 00       		.byte	0
 14060 0a4d 7F       		.byte	127
 14061 0a4e F0       		.byte	-16
 14062 0a4f 00       		.byte	0
 14063 0a50 7F       		.byte	127
 14064 0a51 E0       		.byte	-32
 14065 0a52 00       		.byte	0
 14066 0a53 00       		.byte	0
 14067 0a54 00       		.byte	0
 14068 0a55 00       		.byte	0
 14069 0a56 00       		.byte	0
 14070 0a57 00       		.byte	0
 14071 0a58 00       		.byte	0
 14072 0a59 00       		.byte	0
 14073 0a5a 00       		.byte	0
ARM GAS  D:\Programs\cygwin64\tmp\ccnP8CjY.s 			page 246


 14074 0a5b 00       		.byte	0
 14075 0a5c 00       		.byte	0
 14076 0a5d 00       		.byte	0
 14077 0a5e 00       		.byte	0
 14078 0a5f 00       		.byte	0
 14079 0a60 00       		.byte	0
 14080 0a61 00       		.byte	0
 14081 0a62 00       		.byte	0
 14082 0a63 00       		.byte	0
 14083 0a64 00       		.byte	0
 14084 0a65 00       		.byte	0
 14085 0a66 00       		.byte	0
 14086 0a67 00       		.byte	0
 14087 0a68 00       		.byte	0
 14088 0a69 00       		.byte	0
 14089 0a6a 00       		.byte	0
 14090 0a6b 00       		.byte	0
 14091 0a6c 00       		.byte	0
 14092 0a6d 00       		.byte	0
 14093 0a6e 00       		.byte	0
 14094 0a6f 00       		.byte	0
 14095 0a70 00       		.byte	0
 14096 0a71 7F       		.byte	127
 14097 0a72 F8       		.byte	-8
 14098 0a73 00       		.byte	0
 14099 0a74 7F       		.byte	127
 14100 0a75 F8       		.byte	-8
 14101 0a76 00       		.byte	0
 14102 0a77 18       		.byte	24
 14103 0a78 18       		.byte	24
 14104 0a79 00       		.byte	0
 14105 0a7a 18       		.byte	24
 14106 0a7b 18       		.byte	24
 14107 0a7c 00       		.byte	0
 14108 0a7d 19       		.byte	25
 14109 0a7e 98       		.byte	-104
 14110 0a7f 00       		.byte	0
 14111 0a80 19       		.byte	25
 14112 0a81 80       		.byte	-128
 14113 0a82 00       		.byte	0
 14114 0a83 1F       		.byte	31
 14115 0a84 80       		.byte	-128
 14116 0a85 00       		.byte	0
 14117 0a86 1F       		.byte	31
 14118 0a87 80       		.byte	-128
 14119 0a88 00       		.byte	0
 14120 0a89 19       		.byte	25
 14121 0a8a 80       		.byte	-128
 14122 0a8b 00       		.byte	0
 14123 0a8c 19       		.byte	25
 14124 0a8d 98       		.byte	-104
 14125 0a8e 00       		.byte	0
 14126 0a8f 18       		.byte	24
 14127 0a90 18       		.byte	24
 14128 0a91 00       		.byte	0
 14129 0a92 18       		.byte	24
 14130 0a93 18       		.byte	24
ARM GAS  D:\Programs\cygwin64\tmp\ccnP8CjY.s 			page 247


 14131 0a94 00       		.byte	0
 14132 0a95 7F       		.byte	127
 14133 0a96 F8       		.byte	-8
 14134 0a97 00       		.byte	0
 14135 0a98 7F       		.byte	127
 14136 0a99 F8       		.byte	-8
 14137 0a9a 00       		.byte	0
 14138 0a9b 00       		.byte	0
 14139 0a9c 00       		.byte	0
 14140 0a9d 00       		.byte	0
 14141 0a9e 00       		.byte	0
 14142 0a9f 00       		.byte	0
 14143 0aa0 00       		.byte	0
 14144 0aa1 00       		.byte	0
 14145 0aa2 00       		.byte	0
 14146 0aa3 00       		.byte	0
 14147 0aa4 00       		.byte	0
 14148 0aa5 00       		.byte	0
 14149 0aa6 00       		.byte	0
 14150 0aa7 00       		.byte	0
 14151 0aa8 00       		.byte	0
 14152 0aa9 00       		.byte	0
 14153 0aaa 00       		.byte	0
 14154 0aab 00       		.byte	0
 14155 0aac 00       		.byte	0
 14156 0aad 00       		.byte	0
 14157 0aae 00       		.byte	0
 14158 0aaf 00       		.byte	0
 14159 0ab0 00       		.byte	0
 14160 0ab1 00       		.byte	0
 14161 0ab2 00       		.byte	0
 14162 0ab3 00       		.byte	0
 14163 0ab4 00       		.byte	0
 14164 0ab5 00       		.byte	0
 14165 0ab6 00       		.byte	0
 14166 0ab7 00       		.byte	0
 14167 0ab8 00       		.byte	0
 14168 0ab9 3F       		.byte	63
 14169 0aba FC       		.byte	-4
 14170 0abb 00       		.byte	0
 14171 0abc 3F       		.byte	63
 14172 0abd FC       		.byte	-4
 14173 0abe 00       		.byte	0
 14174 0abf 0C       		.byte	12
 14175 0ac0 0C       		.byte	12
 14176 0ac1 00       		.byte	0
 14177 0ac2 0C       		.byte	12
 14178 0ac3 0C       		.byte	12
 14179 0ac4 00       		.byte	0
 14180 0ac5 0C       		.byte	12
 14181 0ac6 CC       		.byte	-52
 14182 0ac7 00       		.byte	0
 14183 0ac8 0C       		.byte	12
 14184 0ac9 C0       		.byte	-64
 14185 0aca 00       		.byte	0
 14186 0acb 0F       		.byte	15
 14187 0acc C0       		.byte	-64
ARM GAS  D:\Programs\cygwin64\tmp\ccnP8CjY.s 			page 248


 14188 0acd 00       		.byte	0
 14189 0ace 0F       		.byte	15
 14190 0acf C0       		.byte	-64
 14191 0ad0 00       		.byte	0
 14192 0ad1 0C       		.byte	12
 14193 0ad2 C0       		.byte	-64
 14194 0ad3 00       		.byte	0
 14195 0ad4 0C       		.byte	12
 14196 0ad5 C0       		.byte	-64
 14197 0ad6 00       		.byte	0
 14198 0ad7 0C       		.byte	12
 14199 0ad8 00       		.byte	0
 14200 0ad9 00       		.byte	0
 14201 0ada 0C       		.byte	12
 14202 0adb 00       		.byte	0
 14203 0adc 00       		.byte	0
 14204 0add 3F       		.byte	63
 14205 0ade C0       		.byte	-64
 14206 0adf 00       		.byte	0
 14207 0ae0 3F       		.byte	63
 14208 0ae1 C0       		.byte	-64
 14209 0ae2 00       		.byte	0
 14210 0ae3 00       		.byte	0
 14211 0ae4 00       		.byte	0
 14212 0ae5 00       		.byte	0
 14213 0ae6 00       		.byte	0
 14214 0ae7 00       		.byte	0
 14215 0ae8 00       		.byte	0
 14216 0ae9 00       		.byte	0
 14217 0aea 00       		.byte	0
 14218 0aeb 00       		.byte	0
 14219 0aec 00       		.byte	0
 14220 0aed 00       		.byte	0
 14221 0aee 00       		.byte	0
 14222 0aef 00       		.byte	0
 14223 0af0 00       		.byte	0
 14224 0af1 00       		.byte	0
 14225 0af2 00       		.byte	0
 14226 0af3 00       		.byte	0
 14227 0af4 00       		.byte	0
 14228 0af5 00       		.byte	0
 14229 0af6 00       		.byte	0
 14230 0af7 00       		.byte	0
 14231 0af8 00       		.byte	0
 14232 0af9 00       		.byte	0
 14233 0afa 00       		.byte	0
 14234 0afb 00       		.byte	0
 14235 0afc 00       		.byte	0
 14236 0afd 00       		.byte	0
 14237 0afe 00       		.byte	0
 14238 0aff 00       		.byte	0
 14239 0b00 00       		.byte	0
 14240 0b01 03       		.byte	3
 14241 0b02 EC       		.byte	-20
 14242 0b03 00       		.byte	0
 14243 0b04 0F       		.byte	15
 14244 0b05 FC       		.byte	-4
ARM GAS  D:\Programs\cygwin64\tmp\ccnP8CjY.s 			page 249


 14245 0b06 00       		.byte	0
 14246 0b07 1C       		.byte	28
 14247 0b08 1C       		.byte	28
 14248 0b09 00       		.byte	0
 14249 0b0a 18       		.byte	24
 14250 0b0b 0C       		.byte	12
 14251 0b0c 00       		.byte	0
 14252 0b0d 30       		.byte	48
 14253 0b0e 0C       		.byte	12
 14254 0b0f 00       		.byte	0
 14255 0b10 30       		.byte	48
 14256 0b11 00       		.byte	0
 14257 0b12 00       		.byte	0
 14258 0b13 30       		.byte	48
 14259 0b14 00       		.byte	0
 14260 0b15 00       		.byte	0
 14261 0b16 30       		.byte	48
 14262 0b17 FE       		.byte	-2
 14263 0b18 00       		.byte	0
 14264 0b19 30       		.byte	48
 14265 0b1a FE       		.byte	-2
 14266 0b1b 00       		.byte	0
 14267 0b1c 30       		.byte	48
 14268 0b1d 0C       		.byte	12
 14269 0b1e 00       		.byte	0
 14270 0b1f 38       		.byte	56
 14271 0b20 0C       		.byte	12
 14272 0b21 00       		.byte	0
 14273 0b22 1C       		.byte	28
 14274 0b23 1C       		.byte	28
 14275 0b24 00       		.byte	0
 14276 0b25 0F       		.byte	15
 14277 0b26 FC       		.byte	-4
 14278 0b27 00       		.byte	0
 14279 0b28 03       		.byte	3
 14280 0b29 F0       		.byte	-16
 14281 0b2a 00       		.byte	0
 14282 0b2b 00       		.byte	0
 14283 0b2c 00       		.byte	0
 14284 0b2d 00       		.byte	0
 14285 0b2e 00       		.byte	0
 14286 0b2f 00       		.byte	0
 14287 0b30 00       		.byte	0
 14288 0b31 00       		.byte	0
 14289 0b32 00       		.byte	0
 14290 0b33 00       		.byte	0
 14291 0b34 00       		.byte	0
 14292 0b35 00       		.byte	0
 14293 0b36 00       		.byte	0
 14294 0b37 00       		.byte	0
 14295 0b38 00       		.byte	0
 14296 0b39 00       		.byte	0
 14297 0b3a 00       		.byte	0
 14298 0b3b 00       		.byte	0
 14299 0b3c 00       		.byte	0
 14300 0b3d 00       		.byte	0
 14301 0b3e 00       		.byte	0
ARM GAS  D:\Programs\cygwin64\tmp\ccnP8CjY.s 			page 250


 14302 0b3f 00       		.byte	0
 14303 0b40 00       		.byte	0
 14304 0b41 00       		.byte	0
 14305 0b42 00       		.byte	0
 14306 0b43 00       		.byte	0
 14307 0b44 00       		.byte	0
 14308 0b45 00       		.byte	0
 14309 0b46 00       		.byte	0
 14310 0b47 00       		.byte	0
 14311 0b48 00       		.byte	0
 14312 0b49 7E       		.byte	126
 14313 0b4a 7E       		.byte	126
 14314 0b4b 00       		.byte	0
 14315 0b4c 7E       		.byte	126
 14316 0b4d 7E       		.byte	126
 14317 0b4e 00       		.byte	0
 14318 0b4f 18       		.byte	24
 14319 0b50 18       		.byte	24
 14320 0b51 00       		.byte	0
 14321 0b52 18       		.byte	24
 14322 0b53 18       		.byte	24
 14323 0b54 00       		.byte	0
 14324 0b55 18       		.byte	24
 14325 0b56 18       		.byte	24
 14326 0b57 00       		.byte	0
 14327 0b58 18       		.byte	24
 14328 0b59 18       		.byte	24
 14329 0b5a 00       		.byte	0
 14330 0b5b 1F       		.byte	31
 14331 0b5c F8       		.byte	-8
 14332 0b5d 00       		.byte	0
 14333 0b5e 1F       		.byte	31
 14334 0b5f F8       		.byte	-8
 14335 0b60 00       		.byte	0
 14336 0b61 18       		.byte	24
 14337 0b62 18       		.byte	24
 14338 0b63 00       		.byte	0
 14339 0b64 18       		.byte	24
 14340 0b65 18       		.byte	24
 14341 0b66 00       		.byte	0
 14342 0b67 18       		.byte	24
 14343 0b68 18       		.byte	24
 14344 0b69 00       		.byte	0
 14345 0b6a 18       		.byte	24
 14346 0b6b 18       		.byte	24
 14347 0b6c 00       		.byte	0
 14348 0b6d 7E       		.byte	126
 14349 0b6e 7E       		.byte	126
 14350 0b6f 00       		.byte	0
 14351 0b70 7E       		.byte	126
 14352 0b71 7E       		.byte	126
 14353 0b72 00       		.byte	0
 14354 0b73 00       		.byte	0
 14355 0b74 00       		.byte	0
 14356 0b75 00       		.byte	0
 14357 0b76 00       		.byte	0
 14358 0b77 00       		.byte	0
ARM GAS  D:\Programs\cygwin64\tmp\ccnP8CjY.s 			page 251


 14359 0b78 00       		.byte	0
 14360 0b79 00       		.byte	0
 14361 0b7a 00       		.byte	0
 14362 0b7b 00       		.byte	0
 14363 0b7c 00       		.byte	0
 14364 0b7d 00       		.byte	0
 14365 0b7e 00       		.byte	0
 14366 0b7f 00       		.byte	0
 14367 0b80 00       		.byte	0
 14368 0b81 00       		.byte	0
 14369 0b82 00       		.byte	0
 14370 0b83 00       		.byte	0
 14371 0b84 00       		.byte	0
 14372 0b85 00       		.byte	0
 14373 0b86 00       		.byte	0
 14374 0b87 00       		.byte	0
 14375 0b88 00       		.byte	0
 14376 0b89 00       		.byte	0
 14377 0b8a 00       		.byte	0
 14378 0b8b 00       		.byte	0
 14379 0b8c 00       		.byte	0
 14380 0b8d 00       		.byte	0
 14381 0b8e 00       		.byte	0
 14382 0b8f 00       		.byte	0
 14383 0b90 00       		.byte	0
 14384 0b91 1F       		.byte	31
 14385 0b92 F8       		.byte	-8
 14386 0b93 00       		.byte	0
 14387 0b94 1F       		.byte	31
 14388 0b95 F8       		.byte	-8
 14389 0b96 00       		.byte	0
 14390 0b97 01       		.byte	1
 14391 0b98 80       		.byte	-128
 14392 0b99 00       		.byte	0
 14393 0b9a 01       		.byte	1
 14394 0b9b 80       		.byte	-128
 14395 0b9c 00       		.byte	0
 14396 0b9d 01       		.byte	1
 14397 0b9e 80       		.byte	-128
 14398 0b9f 00       		.byte	0
 14399 0ba0 01       		.byte	1
 14400 0ba1 80       		.byte	-128
 14401 0ba2 00       		.byte	0
 14402 0ba3 01       		.byte	1
 14403 0ba4 80       		.byte	-128
 14404 0ba5 00       		.byte	0
 14405 0ba6 01       		.byte	1
 14406 0ba7 80       		.byte	-128
 14407 0ba8 00       		.byte	0
 14408 0ba9 01       		.byte	1
 14409 0baa 80       		.byte	-128
 14410 0bab 00       		.byte	0
 14411 0bac 01       		.byte	1
 14412 0bad 80       		.byte	-128
 14413 0bae 00       		.byte	0
 14414 0baf 01       		.byte	1
 14415 0bb0 80       		.byte	-128
ARM GAS  D:\Programs\cygwin64\tmp\ccnP8CjY.s 			page 252


 14416 0bb1 00       		.byte	0
 14417 0bb2 01       		.byte	1
 14418 0bb3 80       		.byte	-128
 14419 0bb4 00       		.byte	0
 14420 0bb5 1F       		.byte	31
 14421 0bb6 F8       		.byte	-8
 14422 0bb7 00       		.byte	0
 14423 0bb8 1F       		.byte	31
 14424 0bb9 F8       		.byte	-8
 14425 0bba 00       		.byte	0
 14426 0bbb 00       		.byte	0
 14427 0bbc 00       		.byte	0
 14428 0bbd 00       		.byte	0
 14429 0bbe 00       		.byte	0
 14430 0bbf 00       		.byte	0
 14431 0bc0 00       		.byte	0
 14432 0bc1 00       		.byte	0
 14433 0bc2 00       		.byte	0
 14434 0bc3 00       		.byte	0
 14435 0bc4 00       		.byte	0
 14436 0bc5 00       		.byte	0
 14437 0bc6 00       		.byte	0
 14438 0bc7 00       		.byte	0
 14439 0bc8 00       		.byte	0
 14440 0bc9 00       		.byte	0
 14441 0bca 00       		.byte	0
 14442 0bcb 00       		.byte	0
 14443 0bcc 00       		.byte	0
 14444 0bcd 00       		.byte	0
 14445 0bce 00       		.byte	0
 14446 0bcf 00       		.byte	0
 14447 0bd0 00       		.byte	0
 14448 0bd1 00       		.byte	0
 14449 0bd2 00       		.byte	0
 14450 0bd3 00       		.byte	0
 14451 0bd4 00       		.byte	0
 14452 0bd5 00       		.byte	0
 14453 0bd6 00       		.byte	0
 14454 0bd7 00       		.byte	0
 14455 0bd8 00       		.byte	0
 14456 0bd9 07       		.byte	7
 14457 0bda FE       		.byte	-2
 14458 0bdb 00       		.byte	0
 14459 0bdc 07       		.byte	7
 14460 0bdd FE       		.byte	-2
 14461 0bde 00       		.byte	0
 14462 0bdf 00       		.byte	0
 14463 0be0 30       		.byte	48
 14464 0be1 00       		.byte	0
 14465 0be2 00       		.byte	0
 14466 0be3 30       		.byte	48
 14467 0be4 00       		.byte	0
 14468 0be5 00       		.byte	0
 14469 0be6 30       		.byte	48
 14470 0be7 00       		.byte	0
 14471 0be8 00       		.byte	0
 14472 0be9 30       		.byte	48
ARM GAS  D:\Programs\cygwin64\tmp\ccnP8CjY.s 			page 253


 14473 0bea 00       		.byte	0
 14474 0beb 00       		.byte	0
 14475 0bec 30       		.byte	48
 14476 0bed 00       		.byte	0
 14477 0bee 30       		.byte	48
 14478 0bef 30       		.byte	48
 14479 0bf0 00       		.byte	0
 14480 0bf1 30       		.byte	48
 14481 0bf2 30       		.byte	48
 14482 0bf3 00       		.byte	0
 14483 0bf4 30       		.byte	48
 14484 0bf5 30       		.byte	48
 14485 0bf6 00       		.byte	0
 14486 0bf7 30       		.byte	48
 14487 0bf8 30       		.byte	48
 14488 0bf9 00       		.byte	0
 14489 0bfa 30       		.byte	48
 14490 0bfb 60       		.byte	96
 14491 0bfc 00       		.byte	0
 14492 0bfd 3F       		.byte	63
 14493 0bfe E0       		.byte	-32
 14494 0bff 00       		.byte	0
 14495 0c00 0F       		.byte	15
 14496 0c01 80       		.byte	-128
 14497 0c02 00       		.byte	0
 14498 0c03 00       		.byte	0
 14499 0c04 00       		.byte	0
 14500 0c05 00       		.byte	0
 14501 0c06 00       		.byte	0
 14502 0c07 00       		.byte	0
 14503 0c08 00       		.byte	0
 14504 0c09 00       		.byte	0
 14505 0c0a 00       		.byte	0
 14506 0c0b 00       		.byte	0
 14507 0c0c 00       		.byte	0
 14508 0c0d 00       		.byte	0
 14509 0c0e 00       		.byte	0
 14510 0c0f 00       		.byte	0
 14511 0c10 00       		.byte	0
 14512 0c11 00       		.byte	0
 14513 0c12 00       		.byte	0
 14514 0c13 00       		.byte	0
 14515 0c14 00       		.byte	0
 14516 0c15 00       		.byte	0
 14517 0c16 00       		.byte	0
 14518 0c17 00       		.byte	0
 14519 0c18 00       		.byte	0
 14520 0c19 00       		.byte	0
 14521 0c1a 00       		.byte	0
 14522 0c1b 00       		.byte	0
 14523 0c1c 00       		.byte	0
 14524 0c1d 00       		.byte	0
 14525 0c1e 00       		.byte	0
 14526 0c1f 00       		.byte	0
 14527 0c20 00       		.byte	0
 14528 0c21 7F       		.byte	127
 14529 0c22 3E       		.byte	62
ARM GAS  D:\Programs\cygwin64\tmp\ccnP8CjY.s 			page 254


 14530 0c23 00       		.byte	0
 14531 0c24 7F       		.byte	127
 14532 0c25 3E       		.byte	62
 14533 0c26 00       		.byte	0
 14534 0c27 18       		.byte	24
 14535 0c28 30       		.byte	48
 14536 0c29 00       		.byte	0
 14537 0c2a 18       		.byte	24
 14538 0c2b 60       		.byte	96
 14539 0c2c 00       		.byte	0
 14540 0c2d 18       		.byte	24
 14541 0c2e C0       		.byte	-64
 14542 0c2f 00       		.byte	0
 14543 0c30 19       		.byte	25
 14544 0c31 80       		.byte	-128
 14545 0c32 00       		.byte	0
 14546 0c33 1B       		.byte	27
 14547 0c34 80       		.byte	-128
 14548 0c35 00       		.byte	0
 14549 0c36 1F       		.byte	31
 14550 0c37 C0       		.byte	-64
 14551 0c38 00       		.byte	0
 14552 0c39 1C       		.byte	28
 14553 0c3a E0       		.byte	-32
 14554 0c3b 00       		.byte	0
 14555 0c3c 18       		.byte	24
 14556 0c3d 70       		.byte	112
 14557 0c3e 00       		.byte	0
 14558 0c3f 18       		.byte	24
 14559 0c40 30       		.byte	48
 14560 0c41 00       		.byte	0
 14561 0c42 18       		.byte	24
 14562 0c43 38       		.byte	56
 14563 0c44 00       		.byte	0
 14564 0c45 7F       		.byte	127
 14565 0c46 1F       		.byte	31
 14566 0c47 00       		.byte	0
 14567 0c48 7F       		.byte	127
 14568 0c49 1F       		.byte	31
 14569 0c4a 00       		.byte	0
 14570 0c4b 00       		.byte	0
 14571 0c4c 00       		.byte	0
 14572 0c4d 00       		.byte	0
 14573 0c4e 00       		.byte	0
 14574 0c4f 00       		.byte	0
 14575 0c50 00       		.byte	0
 14576 0c51 00       		.byte	0
 14577 0c52 00       		.byte	0
 14578 0c53 00       		.byte	0
 14579 0c54 00       		.byte	0
 14580 0c55 00       		.byte	0
 14581 0c56 00       		.byte	0
 14582 0c57 00       		.byte	0
 14583 0c58 00       		.byte	0
 14584 0c59 00       		.byte	0
 14585 0c5a 00       		.byte	0
 14586 0c5b 00       		.byte	0
ARM GAS  D:\Programs\cygwin64\tmp\ccnP8CjY.s 			page 255


 14587 0c5c 00       		.byte	0
 14588 0c5d 00       		.byte	0
 14589 0c5e 00       		.byte	0
 14590 0c5f 00       		.byte	0
 14591 0c60 00       		.byte	0
 14592 0c61 00       		.byte	0
 14593 0c62 00       		.byte	0
 14594 0c63 00       		.byte	0
 14595 0c64 00       		.byte	0
 14596 0c65 00       		.byte	0
 14597 0c66 00       		.byte	0
 14598 0c67 00       		.byte	0
 14599 0c68 00       		.byte	0
 14600 0c69 7F       		.byte	127
 14601 0c6a 80       		.byte	-128
 14602 0c6b 00       		.byte	0
 14603 0c6c 7F       		.byte	127
 14604 0c6d 80       		.byte	-128
 14605 0c6e 00       		.byte	0
 14606 0c6f 0C       		.byte	12
 14607 0c70 00       		.byte	0
 14608 0c71 00       		.byte	0
 14609 0c72 0C       		.byte	12
 14610 0c73 00       		.byte	0
 14611 0c74 00       		.byte	0
 14612 0c75 0C       		.byte	12
 14613 0c76 00       		.byte	0
 14614 0c77 00       		.byte	0
 14615 0c78 0C       		.byte	12
 14616 0c79 00       		.byte	0
 14617 0c7a 00       		.byte	0
 14618 0c7b 0C       		.byte	12
 14619 0c7c 00       		.byte	0
 14620 0c7d 00       		.byte	0
 14621 0c7e 0C       		.byte	12
 14622 0c7f 00       		.byte	0
 14623 0c80 00       		.byte	0
 14624 0c81 0C       		.byte	12
 14625 0c82 0C       		.byte	12
 14626 0c83 00       		.byte	0
 14627 0c84 0C       		.byte	12
 14628 0c85 0C       		.byte	12
 14629 0c86 00       		.byte	0
 14630 0c87 0C       		.byte	12
 14631 0c88 0C       		.byte	12
 14632 0c89 00       		.byte	0
 14633 0c8a 0C       		.byte	12
 14634 0c8b 0C       		.byte	12
 14635 0c8c 00       		.byte	0
 14636 0c8d 7F       		.byte	127
 14637 0c8e FC       		.byte	-4
 14638 0c8f 00       		.byte	0
 14639 0c90 7F       		.byte	127
 14640 0c91 FC       		.byte	-4
 14641 0c92 00       		.byte	0
 14642 0c93 00       		.byte	0
 14643 0c94 00       		.byte	0
ARM GAS  D:\Programs\cygwin64\tmp\ccnP8CjY.s 			page 256


 14644 0c95 00       		.byte	0
 14645 0c96 00       		.byte	0
 14646 0c97 00       		.byte	0
 14647 0c98 00       		.byte	0
 14648 0c99 00       		.byte	0
 14649 0c9a 00       		.byte	0
 14650 0c9b 00       		.byte	0
 14651 0c9c 00       		.byte	0
 14652 0c9d 00       		.byte	0
 14653 0c9e 00       		.byte	0
 14654 0c9f 00       		.byte	0
 14655 0ca0 00       		.byte	0
 14656 0ca1 00       		.byte	0
 14657 0ca2 00       		.byte	0
 14658 0ca3 00       		.byte	0
 14659 0ca4 00       		.byte	0
 14660 0ca5 00       		.byte	0
 14661 0ca6 00       		.byte	0
 14662 0ca7 00       		.byte	0
 14663 0ca8 00       		.byte	0
 14664 0ca9 00       		.byte	0
 14665 0caa 00       		.byte	0
 14666 0cab 00       		.byte	0
 14667 0cac 00       		.byte	0
 14668 0cad 00       		.byte	0
 14669 0cae 00       		.byte	0
 14670 0caf 00       		.byte	0
 14671 0cb0 00       		.byte	0
 14672 0cb1 F0       		.byte	-16
 14673 0cb2 0F       		.byte	15
 14674 0cb3 00       		.byte	0
 14675 0cb4 F8       		.byte	-8
 14676 0cb5 1F       		.byte	31
 14677 0cb6 00       		.byte	0
 14678 0cb7 38       		.byte	56
 14679 0cb8 1C       		.byte	28
 14680 0cb9 00       		.byte	0
 14681 0cba 3C       		.byte	60
 14682 0cbb 3C       		.byte	60
 14683 0cbc 00       		.byte	0
 14684 0cbd 3C       		.byte	60
 14685 0cbe 3C       		.byte	60
 14686 0cbf 00       		.byte	0
 14687 0cc0 36       		.byte	54
 14688 0cc1 6C       		.byte	108
 14689 0cc2 00       		.byte	0
 14690 0cc3 36       		.byte	54
 14691 0cc4 6C       		.byte	108
 14692 0cc5 00       		.byte	0
 14693 0cc6 33       		.byte	51
 14694 0cc7 CC       		.byte	-52
 14695 0cc8 00       		.byte	0
 14696 0cc9 33       		.byte	51
 14697 0cca CC       		.byte	-52
 14698 0ccb 00       		.byte	0
 14699 0ccc 31       		.byte	49
 14700 0ccd 8C       		.byte	-116
ARM GAS  D:\Programs\cygwin64\tmp\ccnP8CjY.s 			page 257


 14701 0cce 00       		.byte	0
 14702 0ccf 30       		.byte	48
 14703 0cd0 0C       		.byte	12
 14704 0cd1 00       		.byte	0
 14705 0cd2 30       		.byte	48
 14706 0cd3 0C       		.byte	12
 14707 0cd4 00       		.byte	0
 14708 0cd5 FE       		.byte	-2
 14709 0cd6 7F       		.byte	127
 14710 0cd7 00       		.byte	0
 14711 0cd8 FE       		.byte	-2
 14712 0cd9 7F       		.byte	127
 14713 0cda 00       		.byte	0
 14714 0cdb 00       		.byte	0
 14715 0cdc 00       		.byte	0
 14716 0cdd 00       		.byte	0
 14717 0cde 00       		.byte	0
 14718 0cdf 00       		.byte	0
 14719 0ce0 00       		.byte	0
 14720 0ce1 00       		.byte	0
 14721 0ce2 00       		.byte	0
 14722 0ce3 00       		.byte	0
 14723 0ce4 00       		.byte	0
 14724 0ce5 00       		.byte	0
 14725 0ce6 00       		.byte	0
 14726 0ce7 00       		.byte	0
 14727 0ce8 00       		.byte	0
 14728 0ce9 00       		.byte	0
 14729 0cea 00       		.byte	0
 14730 0ceb 00       		.byte	0
 14731 0cec 00       		.byte	0
 14732 0ced 00       		.byte	0
 14733 0cee 00       		.byte	0
 14734 0cef 00       		.byte	0
 14735 0cf0 00       		.byte	0
 14736 0cf1 00       		.byte	0
 14737 0cf2 00       		.byte	0
 14738 0cf3 00       		.byte	0
 14739 0cf4 00       		.byte	0
 14740 0cf5 00       		.byte	0
 14741 0cf6 00       		.byte	0
 14742 0cf7 00       		.byte	0
 14743 0cf8 00       		.byte	0
 14744 0cf9 78       		.byte	120
 14745 0cfa FE       		.byte	-2
 14746 0cfb 00       		.byte	0
 14747 0cfc 78       		.byte	120
 14748 0cfd FE       		.byte	-2
 14749 0cfe 00       		.byte	0
 14750 0cff 1C       		.byte	28
 14751 0d00 18       		.byte	24
 14752 0d01 00       		.byte	0
 14753 0d02 1E       		.byte	30
 14754 0d03 18       		.byte	24
 14755 0d04 00       		.byte	0
 14756 0d05 1F       		.byte	31
 14757 0d06 18       		.byte	24
ARM GAS  D:\Programs\cygwin64\tmp\ccnP8CjY.s 			page 258


 14758 0d07 00       		.byte	0
 14759 0d08 1B       		.byte	27
 14760 0d09 18       		.byte	24
 14761 0d0a 00       		.byte	0
 14762 0d0b 1B       		.byte	27
 14763 0d0c 98       		.byte	-104
 14764 0d0d 00       		.byte	0
 14765 0d0e 19       		.byte	25
 14766 0d0f D8       		.byte	-40
 14767 0d10 00       		.byte	0
 14768 0d11 18       		.byte	24
 14769 0d12 D8       		.byte	-40
 14770 0d13 00       		.byte	0
 14771 0d14 18       		.byte	24
 14772 0d15 F8       		.byte	-8
 14773 0d16 00       		.byte	0
 14774 0d17 18       		.byte	24
 14775 0d18 78       		.byte	120
 14776 0d19 00       		.byte	0
 14777 0d1a 18       		.byte	24
 14778 0d1b 38       		.byte	56
 14779 0d1c 00       		.byte	0
 14780 0d1d 7F       		.byte	127
 14781 0d1e 18       		.byte	24
 14782 0d1f 00       		.byte	0
 14783 0d20 7F       		.byte	127
 14784 0d21 18       		.byte	24
 14785 0d22 00       		.byte	0
 14786 0d23 00       		.byte	0
 14787 0d24 00       		.byte	0
 14788 0d25 00       		.byte	0
 14789 0d26 00       		.byte	0
 14790 0d27 00       		.byte	0
 14791 0d28 00       		.byte	0
 14792 0d29 00       		.byte	0
 14793 0d2a 00       		.byte	0
 14794 0d2b 00       		.byte	0
 14795 0d2c 00       		.byte	0
 14796 0d2d 00       		.byte	0
 14797 0d2e 00       		.byte	0
 14798 0d2f 00       		.byte	0
 14799 0d30 00       		.byte	0
 14800 0d31 00       		.byte	0
 14801 0d32 00       		.byte	0
 14802 0d33 00       		.byte	0
 14803 0d34 00       		.byte	0
 14804 0d35 00       		.byte	0
 14805 0d36 00       		.byte	0
 14806 0d37 00       		.byte	0
 14807 0d38 00       		.byte	0
 14808 0d39 00       		.byte	0
 14809 0d3a 00       		.byte	0
 14810 0d3b 00       		.byte	0
 14811 0d3c 00       		.byte	0
 14812 0d3d 00       		.byte	0
 14813 0d3e 00       		.byte	0
 14814 0d3f 00       		.byte	0
ARM GAS  D:\Programs\cygwin64\tmp\ccnP8CjY.s 			page 259


 14815 0d40 00       		.byte	0
 14816 0d41 03       		.byte	3
 14817 0d42 C0       		.byte	-64
 14818 0d43 00       		.byte	0
 14819 0d44 0F       		.byte	15
 14820 0d45 F0       		.byte	-16
 14821 0d46 00       		.byte	0
 14822 0d47 1C       		.byte	28
 14823 0d48 38       		.byte	56
 14824 0d49 00       		.byte	0
 14825 0d4a 18       		.byte	24
 14826 0d4b 18       		.byte	24
 14827 0d4c 00       		.byte	0
 14828 0d4d 38       		.byte	56
 14829 0d4e 1C       		.byte	28
 14830 0d4f 00       		.byte	0
 14831 0d50 30       		.byte	48
 14832 0d51 0C       		.byte	12
 14833 0d52 00       		.byte	0
 14834 0d53 30       		.byte	48
 14835 0d54 0C       		.byte	12
 14836 0d55 00       		.byte	0
 14837 0d56 30       		.byte	48
 14838 0d57 0C       		.byte	12
 14839 0d58 00       		.byte	0
 14840 0d59 30       		.byte	48
 14841 0d5a 0C       		.byte	12
 14842 0d5b 00       		.byte	0
 14843 0d5c 38       		.byte	56
 14844 0d5d 1C       		.byte	28
 14845 0d5e 00       		.byte	0
 14846 0d5f 18       		.byte	24
 14847 0d60 18       		.byte	24
 14848 0d61 00       		.byte	0
 14849 0d62 1C       		.byte	28
 14850 0d63 38       		.byte	56
 14851 0d64 00       		.byte	0
 14852 0d65 0F       		.byte	15
 14853 0d66 F0       		.byte	-16
 14854 0d67 00       		.byte	0
 14855 0d68 03       		.byte	3
 14856 0d69 C0       		.byte	-64
 14857 0d6a 00       		.byte	0
 14858 0d6b 00       		.byte	0
 14859 0d6c 00       		.byte	0
 14860 0d6d 00       		.byte	0
 14861 0d6e 00       		.byte	0
 14862 0d6f 00       		.byte	0
 14863 0d70 00       		.byte	0
 14864 0d71 00       		.byte	0
 14865 0d72 00       		.byte	0
 14866 0d73 00       		.byte	0
 14867 0d74 00       		.byte	0
 14868 0d75 00       		.byte	0
 14869 0d76 00       		.byte	0
 14870 0d77 00       		.byte	0
 14871 0d78 00       		.byte	0
ARM GAS  D:\Programs\cygwin64\tmp\ccnP8CjY.s 			page 260


 14872 0d79 00       		.byte	0
 14873 0d7a 00       		.byte	0
 14874 0d7b 00       		.byte	0
 14875 0d7c 00       		.byte	0
 14876 0d7d 00       		.byte	0
 14877 0d7e 00       		.byte	0
 14878 0d7f 00       		.byte	0
 14879 0d80 00       		.byte	0
 14880 0d81 00       		.byte	0
 14881 0d82 00       		.byte	0
 14882 0d83 00       		.byte	0
 14883 0d84 00       		.byte	0
 14884 0d85 00       		.byte	0
 14885 0d86 00       		.byte	0
 14886 0d87 00       		.byte	0
 14887 0d88 00       		.byte	0
 14888 0d89 3F       		.byte	63
 14889 0d8a F0       		.byte	-16
 14890 0d8b 00       		.byte	0
 14891 0d8c 3F       		.byte	63
 14892 0d8d F8       		.byte	-8
 14893 0d8e 00       		.byte	0
 14894 0d8f 0C       		.byte	12
 14895 0d90 1C       		.byte	28
 14896 0d91 00       		.byte	0
 14897 0d92 0C       		.byte	12
 14898 0d93 0C       		.byte	12
 14899 0d94 00       		.byte	0
 14900 0d95 0C       		.byte	12
 14901 0d96 0C       		.byte	12
 14902 0d97 00       		.byte	0
 14903 0d98 0C       		.byte	12
 14904 0d99 0C       		.byte	12
 14905 0d9a 00       		.byte	0
 14906 0d9b 0C       		.byte	12
 14907 0d9c 18       		.byte	24
 14908 0d9d 00       		.byte	0
 14909 0d9e 0F       		.byte	15
 14910 0d9f F8       		.byte	-8
 14911 0da0 00       		.byte	0
 14912 0da1 0F       		.byte	15
 14913 0da2 E0       		.byte	-32
 14914 0da3 00       		.byte	0
 14915 0da4 0C       		.byte	12
 14916 0da5 00       		.byte	0
 14917 0da6 00       		.byte	0
 14918 0da7 0C       		.byte	12
 14919 0da8 00       		.byte	0
 14920 0da9 00       		.byte	0
 14921 0daa 0C       		.byte	12
 14922 0dab 00       		.byte	0
 14923 0dac 00       		.byte	0
 14924 0dad 3F       		.byte	63
 14925 0dae C0       		.byte	-64
 14926 0daf 00       		.byte	0
 14927 0db0 3F       		.byte	63
 14928 0db1 C0       		.byte	-64
ARM GAS  D:\Programs\cygwin64\tmp\ccnP8CjY.s 			page 261


 14929 0db2 00       		.byte	0
 14930 0db3 00       		.byte	0
 14931 0db4 00       		.byte	0
 14932 0db5 00       		.byte	0
 14933 0db6 00       		.byte	0
 14934 0db7 00       		.byte	0
 14935 0db8 00       		.byte	0
 14936 0db9 00       		.byte	0
 14937 0dba 00       		.byte	0
 14938 0dbb 00       		.byte	0
 14939 0dbc 00       		.byte	0
 14940 0dbd 00       		.byte	0
 14941 0dbe 00       		.byte	0
 14942 0dbf 00       		.byte	0
 14943 0dc0 00       		.byte	0
 14944 0dc1 00       		.byte	0
 14945 0dc2 00       		.byte	0
 14946 0dc3 00       		.byte	0
 14947 0dc4 00       		.byte	0
 14948 0dc5 00       		.byte	0
 14949 0dc6 00       		.byte	0
 14950 0dc7 00       		.byte	0
 14951 0dc8 00       		.byte	0
 14952 0dc9 00       		.byte	0
 14953 0dca 00       		.byte	0
 14954 0dcb 00       		.byte	0
 14955 0dcc 00       		.byte	0
 14956 0dcd 00       		.byte	0
 14957 0dce 00       		.byte	0
 14958 0dcf 00       		.byte	0
 14959 0dd0 00       		.byte	0
 14960 0dd1 03       		.byte	3
 14961 0dd2 C0       		.byte	-64
 14962 0dd3 00       		.byte	0
 14963 0dd4 0F       		.byte	15
 14964 0dd5 F0       		.byte	-16
 14965 0dd6 00       		.byte	0
 14966 0dd7 1C       		.byte	28
 14967 0dd8 38       		.byte	56
 14968 0dd9 00       		.byte	0
 14969 0dda 18       		.byte	24
 14970 0ddb 18       		.byte	24
 14971 0ddc 00       		.byte	0
 14972 0ddd 38       		.byte	56
 14973 0dde 1C       		.byte	28
 14974 0ddf 00       		.byte	0
 14975 0de0 30       		.byte	48
 14976 0de1 0C       		.byte	12
 14977 0de2 00       		.byte	0
 14978 0de3 30       		.byte	48
 14979 0de4 0C       		.byte	12
 14980 0de5 00       		.byte	0
 14981 0de6 30       		.byte	48
 14982 0de7 0C       		.byte	12
 14983 0de8 00       		.byte	0
 14984 0de9 30       		.byte	48
 14985 0dea 0C       		.byte	12
ARM GAS  D:\Programs\cygwin64\tmp\ccnP8CjY.s 			page 262


 14986 0deb 00       		.byte	0
 14987 0dec 38       		.byte	56
 14988 0ded 1C       		.byte	28
 14989 0dee 00       		.byte	0
 14990 0def 18       		.byte	24
 14991 0df0 18       		.byte	24
 14992 0df1 00       		.byte	0
 14993 0df2 1C       		.byte	28
 14994 0df3 38       		.byte	56
 14995 0df4 00       		.byte	0
 14996 0df5 0F       		.byte	15
 14997 0df6 F0       		.byte	-16
 14998 0df7 00       		.byte	0
 14999 0df8 07       		.byte	7
 15000 0df9 C0       		.byte	-64
 15001 0dfa 00       		.byte	0
 15002 0dfb 07       		.byte	7
 15003 0dfc CC       		.byte	-52
 15004 0dfd 00       		.byte	0
 15005 0dfe 0F       		.byte	15
 15006 0dff FC       		.byte	-4
 15007 0e00 00       		.byte	0
 15008 0e01 0C       		.byte	12
 15009 0e02 38       		.byte	56
 15010 0e03 00       		.byte	0
 15011 0e04 00       		.byte	0
 15012 0e05 00       		.byte	0
 15013 0e06 00       		.byte	0
 15014 0e07 00       		.byte	0
 15015 0e08 00       		.byte	0
 15016 0e09 00       		.byte	0
 15017 0e0a 00       		.byte	0
 15018 0e0b 00       		.byte	0
 15019 0e0c 00       		.byte	0
 15020 0e0d 00       		.byte	0
 15021 0e0e 00       		.byte	0
 15022 0e0f 00       		.byte	0
 15023 0e10 00       		.byte	0
 15024 0e11 00       		.byte	0
 15025 0e12 00       		.byte	0
 15026 0e13 00       		.byte	0
 15027 0e14 00       		.byte	0
 15028 0e15 00       		.byte	0
 15029 0e16 00       		.byte	0
 15030 0e17 00       		.byte	0
 15031 0e18 00       		.byte	0
 15032 0e19 7F       		.byte	127
 15033 0e1a E0       		.byte	-32
 15034 0e1b 00       		.byte	0
 15035 0e1c 7F       		.byte	127
 15036 0e1d F0       		.byte	-16
 15037 0e1e 00       		.byte	0
 15038 0e1f 18       		.byte	24
 15039 0e20 38       		.byte	56
 15040 0e21 00       		.byte	0
 15041 0e22 18       		.byte	24
 15042 0e23 18       		.byte	24
ARM GAS  D:\Programs\cygwin64\tmp\ccnP8CjY.s 			page 263


 15043 0e24 00       		.byte	0
 15044 0e25 18       		.byte	24
 15045 0e26 18       		.byte	24
 15046 0e27 00       		.byte	0
 15047 0e28 18       		.byte	24
 15048 0e29 38       		.byte	56
 15049 0e2a 00       		.byte	0
 15050 0e2b 1F       		.byte	31
 15051 0e2c F0       		.byte	-16
 15052 0e2d 00       		.byte	0
 15053 0e2e 1F       		.byte	31
 15054 0e2f C0       		.byte	-64
 15055 0e30 00       		.byte	0
 15056 0e31 18       		.byte	24
 15057 0e32 E0       		.byte	-32
 15058 0e33 00       		.byte	0
 15059 0e34 18       		.byte	24
 15060 0e35 70       		.byte	112
 15061 0e36 00       		.byte	0
 15062 0e37 18       		.byte	24
 15063 0e38 30       		.byte	48
 15064 0e39 00       		.byte	0
 15065 0e3a 18       		.byte	24
 15066 0e3b 38       		.byte	56
 15067 0e3c 00       		.byte	0
 15068 0e3d 7F       		.byte	127
 15069 0e3e 1E       		.byte	30
 15070 0e3f 00       		.byte	0
 15071 0e40 7F       		.byte	127
 15072 0e41 0E       		.byte	14
 15073 0e42 00       		.byte	0
 15074 0e43 00       		.byte	0
 15075 0e44 00       		.byte	0
 15076 0e45 00       		.byte	0
 15077 0e46 00       		.byte	0
 15078 0e47 00       		.byte	0
 15079 0e48 00       		.byte	0
 15080 0e49 00       		.byte	0
 15081 0e4a 00       		.byte	0
 15082 0e4b 00       		.byte	0
 15083 0e4c 00       		.byte	0
 15084 0e4d 00       		.byte	0
 15085 0e4e 00       		.byte	0
 15086 0e4f 00       		.byte	0
 15087 0e50 00       		.byte	0
 15088 0e51 00       		.byte	0
 15089 0e52 00       		.byte	0
 15090 0e53 00       		.byte	0
 15091 0e54 00       		.byte	0
 15092 0e55 00       		.byte	0
 15093 0e56 00       		.byte	0
 15094 0e57 00       		.byte	0
 15095 0e58 00       		.byte	0
 15096 0e59 00       		.byte	0
 15097 0e5a 00       		.byte	0
 15098 0e5b 00       		.byte	0
 15099 0e5c 00       		.byte	0
ARM GAS  D:\Programs\cygwin64\tmp\ccnP8CjY.s 			page 264


 15100 0e5d 00       		.byte	0
 15101 0e5e 00       		.byte	0
 15102 0e5f 00       		.byte	0
 15103 0e60 00       		.byte	0
 15104 0e61 07       		.byte	7
 15105 0e62 D8       		.byte	-40
 15106 0e63 00       		.byte	0
 15107 0e64 0F       		.byte	15
 15108 0e65 F8       		.byte	-8
 15109 0e66 00       		.byte	0
 15110 0e67 1C       		.byte	28
 15111 0e68 38       		.byte	56
 15112 0e69 00       		.byte	0
 15113 0e6a 18       		.byte	24
 15114 0e6b 18       		.byte	24
 15115 0e6c 00       		.byte	0
 15116 0e6d 18       		.byte	24
 15117 0e6e 18       		.byte	24
 15118 0e6f 00       		.byte	0
 15119 0e70 1E       		.byte	30
 15120 0e71 00       		.byte	0
 15121 0e72 00       		.byte	0
 15122 0e73 0F       		.byte	15
 15123 0e74 C0       		.byte	-64
 15124 0e75 00       		.byte	0
 15125 0e76 03       		.byte	3
 15126 0e77 F0       		.byte	-16
 15127 0e78 00       		.byte	0
 15128 0e79 00       		.byte	0
 15129 0e7a 78       		.byte	120
 15130 0e7b 00       		.byte	0
 15131 0e7c 18       		.byte	24
 15132 0e7d 18       		.byte	24
 15133 0e7e 00       		.byte	0
 15134 0e7f 18       		.byte	24
 15135 0e80 18       		.byte	24
 15136 0e81 00       		.byte	0
 15137 0e82 1C       		.byte	28
 15138 0e83 38       		.byte	56
 15139 0e84 00       		.byte	0
 15140 0e85 1F       		.byte	31
 15141 0e86 F0       		.byte	-16
 15142 0e87 00       		.byte	0
 15143 0e88 1B       		.byte	27
 15144 0e89 E0       		.byte	-32
 15145 0e8a 00       		.byte	0
 15146 0e8b 00       		.byte	0
 15147 0e8c 00       		.byte	0
 15148 0e8d 00       		.byte	0
 15149 0e8e 00       		.byte	0
 15150 0e8f 00       		.byte	0
 15151 0e90 00       		.byte	0
 15152 0e91 00       		.byte	0
 15153 0e92 00       		.byte	0
 15154 0e93 00       		.byte	0
 15155 0e94 00       		.byte	0
 15156 0e95 00       		.byte	0
ARM GAS  D:\Programs\cygwin64\tmp\ccnP8CjY.s 			page 265


 15157 0e96 00       		.byte	0
 15158 0e97 00       		.byte	0
 15159 0e98 00       		.byte	0
 15160 0e99 00       		.byte	0
 15161 0e9a 00       		.byte	0
 15162 0e9b 00       		.byte	0
 15163 0e9c 00       		.byte	0
 15164 0e9d 00       		.byte	0
 15165 0e9e 00       		.byte	0
 15166 0e9f 00       		.byte	0
 15167 0ea0 00       		.byte	0
 15168 0ea1 00       		.byte	0
 15169 0ea2 00       		.byte	0
 15170 0ea3 00       		.byte	0
 15171 0ea4 00       		.byte	0
 15172 0ea5 00       		.byte	0
 15173 0ea6 00       		.byte	0
 15174 0ea7 00       		.byte	0
 15175 0ea8 00       		.byte	0
 15176 0ea9 3F       		.byte	63
 15177 0eaa FC       		.byte	-4
 15178 0eab 00       		.byte	0
 15179 0eac 3F       		.byte	63
 15180 0ead FC       		.byte	-4
 15181 0eae 00       		.byte	0
 15182 0eaf 31       		.byte	49
 15183 0eb0 8C       		.byte	-116
 15184 0eb1 00       		.byte	0
 15185 0eb2 31       		.byte	49
 15186 0eb3 8C       		.byte	-116
 15187 0eb4 00       		.byte	0
 15188 0eb5 31       		.byte	49
 15189 0eb6 8C       		.byte	-116
 15190 0eb7 00       		.byte	0
 15191 0eb8 31       		.byte	49
 15192 0eb9 8C       		.byte	-116
 15193 0eba 00       		.byte	0
 15194 0ebb 01       		.byte	1
 15195 0ebc 80       		.byte	-128
 15196 0ebd 00       		.byte	0
 15197 0ebe 01       		.byte	1
 15198 0ebf 80       		.byte	-128
 15199 0ec0 00       		.byte	0
 15200 0ec1 01       		.byte	1
 15201 0ec2 80       		.byte	-128
 15202 0ec3 00       		.byte	0
 15203 0ec4 01       		.byte	1
 15204 0ec5 80       		.byte	-128
 15205 0ec6 00       		.byte	0
 15206 0ec7 01       		.byte	1
 15207 0ec8 80       		.byte	-128
 15208 0ec9 00       		.byte	0
 15209 0eca 01       		.byte	1
 15210 0ecb 80       		.byte	-128
 15211 0ecc 00       		.byte	0
 15212 0ecd 0F       		.byte	15
 15213 0ece F0       		.byte	-16
ARM GAS  D:\Programs\cygwin64\tmp\ccnP8CjY.s 			page 266


 15214 0ecf 00       		.byte	0
 15215 0ed0 0F       		.byte	15
 15216 0ed1 F0       		.byte	-16
 15217 0ed2 00       		.byte	0
 15218 0ed3 00       		.byte	0
 15219 0ed4 00       		.byte	0
 15220 0ed5 00       		.byte	0
 15221 0ed6 00       		.byte	0
 15222 0ed7 00       		.byte	0
 15223 0ed8 00       		.byte	0
 15224 0ed9 00       		.byte	0
 15225 0eda 00       		.byte	0
 15226 0edb 00       		.byte	0
 15227 0edc 00       		.byte	0
 15228 0edd 00       		.byte	0
 15229 0ede 00       		.byte	0
 15230 0edf 00       		.byte	0
 15231 0ee0 00       		.byte	0
 15232 0ee1 00       		.byte	0
 15233 0ee2 00       		.byte	0
 15234 0ee3 00       		.byte	0
 15235 0ee4 00       		.byte	0
 15236 0ee5 00       		.byte	0
 15237 0ee6 00       		.byte	0
 15238 0ee7 00       		.byte	0
 15239 0ee8 00       		.byte	0
 15240 0ee9 00       		.byte	0
 15241 0eea 00       		.byte	0
 15242 0eeb 00       		.byte	0
 15243 0eec 00       		.byte	0
 15244 0eed 00       		.byte	0
 15245 0eee 00       		.byte	0
 15246 0eef 00       		.byte	0
 15247 0ef0 00       		.byte	0
 15248 0ef1 7E       		.byte	126
 15249 0ef2 7E       		.byte	126
 15250 0ef3 00       		.byte	0
 15251 0ef4 7E       		.byte	126
 15252 0ef5 7E       		.byte	126
 15253 0ef6 00       		.byte	0
 15254 0ef7 18       		.byte	24
 15255 0ef8 18       		.byte	24
 15256 0ef9 00       		.byte	0
 15257 0efa 18       		.byte	24
 15258 0efb 18       		.byte	24
 15259 0efc 00       		.byte	0
 15260 0efd 18       		.byte	24
 15261 0efe 18       		.byte	24
 15262 0eff 00       		.byte	0
 15263 0f00 18       		.byte	24
 15264 0f01 18       		.byte	24
 15265 0f02 00       		.byte	0
 15266 0f03 18       		.byte	24
 15267 0f04 18       		.byte	24
 15268 0f05 00       		.byte	0
 15269 0f06 18       		.byte	24
 15270 0f07 18       		.byte	24
ARM GAS  D:\Programs\cygwin64\tmp\ccnP8CjY.s 			page 267


 15271 0f08 00       		.byte	0
 15272 0f09 18       		.byte	24
 15273 0f0a 18       		.byte	24
 15274 0f0b 00       		.byte	0
 15275 0f0c 18       		.byte	24
 15276 0f0d 18       		.byte	24
 15277 0f0e 00       		.byte	0
 15278 0f0f 18       		.byte	24
 15279 0f10 18       		.byte	24
 15280 0f11 00       		.byte	0
 15281 0f12 0C       		.byte	12
 15282 0f13 30       		.byte	48
 15283 0f14 00       		.byte	0
 15284 0f15 0F       		.byte	15
 15285 0f16 F0       		.byte	-16
 15286 0f17 00       		.byte	0
 15287 0f18 03       		.byte	3
 15288 0f19 C0       		.byte	-64
 15289 0f1a 00       		.byte	0
 15290 0f1b 00       		.byte	0
 15291 0f1c 00       		.byte	0
 15292 0f1d 00       		.byte	0
 15293 0f1e 00       		.byte	0
 15294 0f1f 00       		.byte	0
 15295 0f20 00       		.byte	0
 15296 0f21 00       		.byte	0
 15297 0f22 00       		.byte	0
 15298 0f23 00       		.byte	0
 15299 0f24 00       		.byte	0
 15300 0f25 00       		.byte	0
 15301 0f26 00       		.byte	0
 15302 0f27 00       		.byte	0
 15303 0f28 00       		.byte	0
 15304 0f29 00       		.byte	0
 15305 0f2a 00       		.byte	0
 15306 0f2b 00       		.byte	0
 15307 0f2c 00       		.byte	0
 15308 0f2d 00       		.byte	0
 15309 0f2e 00       		.byte	0
 15310 0f2f 00       		.byte	0
 15311 0f30 00       		.byte	0
 15312 0f31 00       		.byte	0
 15313 0f32 00       		.byte	0
 15314 0f33 00       		.byte	0
 15315 0f34 00       		.byte	0
 15316 0f35 00       		.byte	0
 15317 0f36 00       		.byte	0
 15318 0f37 00       		.byte	0
 15319 0f38 00       		.byte	0
 15320 0f39 7F       		.byte	127
 15321 0f3a 7F       		.byte	127
 15322 0f3b 00       		.byte	0
 15323 0f3c 7F       		.byte	127
 15324 0f3d 7F       		.byte	127
 15325 0f3e 00       		.byte	0
 15326 0f3f 18       		.byte	24
 15327 0f40 0C       		.byte	12
ARM GAS  D:\Programs\cygwin64\tmp\ccnP8CjY.s 			page 268


 15328 0f41 00       		.byte	0
 15329 0f42 0C       		.byte	12
 15330 0f43 18       		.byte	24
 15331 0f44 00       		.byte	0
 15332 0f45 0C       		.byte	12
 15333 0f46 18       		.byte	24
 15334 0f47 00       		.byte	0
 15335 0f48 0C       		.byte	12
 15336 0f49 18       		.byte	24
 15337 0f4a 00       		.byte	0
 15338 0f4b 06       		.byte	6
 15339 0f4c 30       		.byte	48
 15340 0f4d 00       		.byte	0
 15341 0f4e 06       		.byte	6
 15342 0f4f 30       		.byte	48
 15343 0f50 00       		.byte	0
 15344 0f51 03       		.byte	3
 15345 0f52 60       		.byte	96
 15346 0f53 00       		.byte	0
 15347 0f54 03       		.byte	3
 15348 0f55 60       		.byte	96
 15349 0f56 00       		.byte	0
 15350 0f57 03       		.byte	3
 15351 0f58 60       		.byte	96
 15352 0f59 00       		.byte	0
 15353 0f5a 01       		.byte	1
 15354 0f5b C0       		.byte	-64
 15355 0f5c 00       		.byte	0
 15356 0f5d 01       		.byte	1
 15357 0f5e C0       		.byte	-64
 15358 0f5f 00       		.byte	0
 15359 0f60 00       		.byte	0
 15360 0f61 80       		.byte	-128
 15361 0f62 00       		.byte	0
 15362 0f63 00       		.byte	0
 15363 0f64 00       		.byte	0
 15364 0f65 00       		.byte	0
 15365 0f66 00       		.byte	0
 15366 0f67 00       		.byte	0
 15367 0f68 00       		.byte	0
 15368 0f69 00       		.byte	0
 15369 0f6a 00       		.byte	0
 15370 0f6b 00       		.byte	0
 15371 0f6c 00       		.byte	0
 15372 0f6d 00       		.byte	0
 15373 0f6e 00       		.byte	0
 15374 0f6f 00       		.byte	0
 15375 0f70 00       		.byte	0
 15376 0f71 00       		.byte	0
 15377 0f72 00       		.byte	0
 15378 0f73 00       		.byte	0
 15379 0f74 00       		.byte	0
 15380 0f75 00       		.byte	0
 15381 0f76 00       		.byte	0
 15382 0f77 00       		.byte	0
 15383 0f78 00       		.byte	0
 15384 0f79 00       		.byte	0
ARM GAS  D:\Programs\cygwin64\tmp\ccnP8CjY.s 			page 269


 15385 0f7a 00       		.byte	0
 15386 0f7b 00       		.byte	0
 15387 0f7c 00       		.byte	0
 15388 0f7d 00       		.byte	0
 15389 0f7e 00       		.byte	0
 15390 0f7f 00       		.byte	0
 15391 0f80 00       		.byte	0
 15392 0f81 FE       		.byte	-2
 15393 0f82 3F       		.byte	63
 15394 0f83 80       		.byte	-128
 15395 0f84 FE       		.byte	-2
 15396 0f85 3F       		.byte	63
 15397 0f86 80       		.byte	-128
 15398 0f87 30       		.byte	48
 15399 0f88 06       		.byte	6
 15400 0f89 00       		.byte	0
 15401 0f8a 30       		.byte	48
 15402 0f8b 06       		.byte	6
 15403 0f8c 00       		.byte	0
 15404 0f8d 30       		.byte	48
 15405 0f8e 86       		.byte	-122
 15406 0f8f 00       		.byte	0
 15407 0f90 19       		.byte	25
 15408 0f91 CC       		.byte	-52
 15409 0f92 00       		.byte	0
 15410 0f93 19       		.byte	25
 15411 0f94 CC       		.byte	-52
 15412 0f95 00       		.byte	0
 15413 0f96 1B       		.byte	27
 15414 0f97 6C       		.byte	108
 15415 0f98 00       		.byte	0
 15416 0f99 1B       		.byte	27
 15417 0f9a 6C       		.byte	108
 15418 0f9b 00       		.byte	0
 15419 0f9c 1E       		.byte	30
 15420 0f9d 7C       		.byte	124
 15421 0f9e 00       		.byte	0
 15422 0f9f 0E       		.byte	14
 15423 0fa0 38       		.byte	56
 15424 0fa1 00       		.byte	0
 15425 0fa2 0E       		.byte	14
 15426 0fa3 38       		.byte	56
 15427 0fa4 00       		.byte	0
 15428 0fa5 0C       		.byte	12
 15429 0fa6 18       		.byte	24
 15430 0fa7 00       		.byte	0
 15431 0fa8 0C       		.byte	12
 15432 0fa9 18       		.byte	24
 15433 0faa 00       		.byte	0
 15434 0fab 00       		.byte	0
 15435 0fac 00       		.byte	0
 15436 0fad 00       		.byte	0
 15437 0fae 00       		.byte	0
 15438 0faf 00       		.byte	0
 15439 0fb0 00       		.byte	0
 15440 0fb1 00       		.byte	0
 15441 0fb2 00       		.byte	0
ARM GAS  D:\Programs\cygwin64\tmp\ccnP8CjY.s 			page 270


 15442 0fb3 00       		.byte	0
 15443 0fb4 00       		.byte	0
 15444 0fb5 00       		.byte	0
 15445 0fb6 00       		.byte	0
 15446 0fb7 00       		.byte	0
 15447 0fb8 00       		.byte	0
 15448 0fb9 00       		.byte	0
 15449 0fba 00       		.byte	0
 15450 0fbb 00       		.byte	0
 15451 0fbc 00       		.byte	0
 15452 0fbd 00       		.byte	0
 15453 0fbe 00       		.byte	0
 15454 0fbf 00       		.byte	0
 15455 0fc0 00       		.byte	0
 15456 0fc1 00       		.byte	0
 15457 0fc2 00       		.byte	0
 15458 0fc3 00       		.byte	0
 15459 0fc4 00       		.byte	0
 15460 0fc5 00       		.byte	0
 15461 0fc6 00       		.byte	0
 15462 0fc7 00       		.byte	0
 15463 0fc8 00       		.byte	0
 15464 0fc9 7E       		.byte	126
 15465 0fca 7E       		.byte	126
 15466 0fcb 00       		.byte	0
 15467 0fcc 7E       		.byte	126
 15468 0fcd 7E       		.byte	126
 15469 0fce 00       		.byte	0
 15470 0fcf 18       		.byte	24
 15471 0fd0 18       		.byte	24
 15472 0fd1 00       		.byte	0
 15473 0fd2 0C       		.byte	12
 15474 0fd3 30       		.byte	48
 15475 0fd4 00       		.byte	0
 15476 0fd5 06       		.byte	6
 15477 0fd6 60       		.byte	96
 15478 0fd7 00       		.byte	0
 15479 0fd8 03       		.byte	3
 15480 0fd9 C0       		.byte	-64
 15481 0fda 00       		.byte	0
 15482 0fdb 01       		.byte	1
 15483 0fdc 80       		.byte	-128
 15484 0fdd 00       		.byte	0
 15485 0fde 01       		.byte	1
 15486 0fdf 80       		.byte	-128
 15487 0fe0 00       		.byte	0
 15488 0fe1 03       		.byte	3
 15489 0fe2 C0       		.byte	-64
 15490 0fe3 00       		.byte	0
 15491 0fe4 06       		.byte	6
 15492 0fe5 60       		.byte	96
 15493 0fe6 00       		.byte	0
 15494 0fe7 0C       		.byte	12
 15495 0fe8 30       		.byte	48
 15496 0fe9 00       		.byte	0
 15497 0fea 18       		.byte	24
 15498 0feb 18       		.byte	24
ARM GAS  D:\Programs\cygwin64\tmp\ccnP8CjY.s 			page 271


 15499 0fec 00       		.byte	0
 15500 0fed 7E       		.byte	126
 15501 0fee 7E       		.byte	126
 15502 0fef 00       		.byte	0
 15503 0ff0 7E       		.byte	126
 15504 0ff1 7E       		.byte	126
 15505 0ff2 00       		.byte	0
 15506 0ff3 00       		.byte	0
 15507 0ff4 00       		.byte	0
 15508 0ff5 00       		.byte	0
 15509 0ff6 00       		.byte	0
 15510 0ff7 00       		.byte	0
 15511 0ff8 00       		.byte	0
 15512 0ff9 00       		.byte	0
 15513 0ffa 00       		.byte	0
 15514 0ffb 00       		.byte	0
 15515 0ffc 00       		.byte	0
 15516 0ffd 00       		.byte	0
 15517 0ffe 00       		.byte	0
 15518 0fff 00       		.byte	0
 15519 1000 00       		.byte	0
 15520 1001 00       		.byte	0
 15521 1002 00       		.byte	0
 15522 1003 00       		.byte	0
 15523 1004 00       		.byte	0
 15524 1005 00       		.byte	0
 15525 1006 00       		.byte	0
 15526 1007 00       		.byte	0
 15527 1008 00       		.byte	0
 15528 1009 00       		.byte	0
 15529 100a 00       		.byte	0
 15530 100b 00       		.byte	0
 15531 100c 00       		.byte	0
 15532 100d 00       		.byte	0
 15533 100e 00       		.byte	0
 15534 100f 00       		.byte	0
 15535 1010 00       		.byte	0
 15536 1011 7C       		.byte	124
 15537 1012 7E       		.byte	126
 15538 1013 00       		.byte	0
 15539 1014 7C       		.byte	124
 15540 1015 7E       		.byte	126
 15541 1016 00       		.byte	0
 15542 1017 18       		.byte	24
 15543 1018 18       		.byte	24
 15544 1019 00       		.byte	0
 15545 101a 0C       		.byte	12
 15546 101b 30       		.byte	48
 15547 101c 00       		.byte	0
 15548 101d 06       		.byte	6
 15549 101e 60       		.byte	96
 15550 101f 00       		.byte	0
 15551 1020 06       		.byte	6
 15552 1021 60       		.byte	96
 15553 1022 00       		.byte	0
 15554 1023 03       		.byte	3
 15555 1024 C0       		.byte	-64
ARM GAS  D:\Programs\cygwin64\tmp\ccnP8CjY.s 			page 272


 15556 1025 00       		.byte	0
 15557 1026 01       		.byte	1
 15558 1027 80       		.byte	-128
 15559 1028 00       		.byte	0
 15560 1029 01       		.byte	1
 15561 102a 80       		.byte	-128
 15562 102b 00       		.byte	0
 15563 102c 01       		.byte	1
 15564 102d 80       		.byte	-128
 15565 102e 00       		.byte	0
 15566 102f 01       		.byte	1
 15567 1030 80       		.byte	-128
 15568 1031 00       		.byte	0
 15569 1032 01       		.byte	1
 15570 1033 80       		.byte	-128
 15571 1034 00       		.byte	0
 15572 1035 0F       		.byte	15
 15573 1036 F0       		.byte	-16
 15574 1037 00       		.byte	0
 15575 1038 0F       		.byte	15
 15576 1039 F0       		.byte	-16
 15577 103a 00       		.byte	0
 15578 103b 00       		.byte	0
 15579 103c 00       		.byte	0
 15580 103d 00       		.byte	0
 15581 103e 00       		.byte	0
 15582 103f 00       		.byte	0
 15583 1040 00       		.byte	0
 15584 1041 00       		.byte	0
 15585 1042 00       		.byte	0
 15586 1043 00       		.byte	0
 15587 1044 00       		.byte	0
 15588 1045 00       		.byte	0
 15589 1046 00       		.byte	0
 15590 1047 00       		.byte	0
 15591 1048 00       		.byte	0
 15592 1049 00       		.byte	0
 15593 104a 00       		.byte	0
 15594 104b 00       		.byte	0
 15595 104c 00       		.byte	0
 15596 104d 00       		.byte	0
 15597 104e 00       		.byte	0
 15598 104f 00       		.byte	0
 15599 1050 00       		.byte	0
 15600 1051 00       		.byte	0
 15601 1052 00       		.byte	0
 15602 1053 00       		.byte	0
 15603 1054 00       		.byte	0
 15604 1055 00       		.byte	0
 15605 1056 00       		.byte	0
 15606 1057 00       		.byte	0
 15607 1058 00       		.byte	0
 15608 1059 1F       		.byte	31
 15609 105a F8       		.byte	-8
 15610 105b 00       		.byte	0
 15611 105c 1F       		.byte	31
 15612 105d F8       		.byte	-8
ARM GAS  D:\Programs\cygwin64\tmp\ccnP8CjY.s 			page 273


 15613 105e 00       		.byte	0
 15614 105f 18       		.byte	24
 15615 1060 18       		.byte	24
 15616 1061 00       		.byte	0
 15617 1062 18       		.byte	24
 15618 1063 30       		.byte	48
 15619 1064 00       		.byte	0
 15620 1065 18       		.byte	24
 15621 1066 60       		.byte	96
 15622 1067 00       		.byte	0
 15623 1068 18       		.byte	24
 15624 1069 C0       		.byte	-64
 15625 106a 00       		.byte	0
 15626 106b 01       		.byte	1
 15627 106c 80       		.byte	-128
 15628 106d 00       		.byte	0
 15629 106e 03       		.byte	3
 15630 106f 00       		.byte	0
 15631 1070 00       		.byte	0
 15632 1071 06       		.byte	6
 15633 1072 18       		.byte	24
 15634 1073 00       		.byte	0
 15635 1074 0C       		.byte	12
 15636 1075 18       		.byte	24
 15637 1076 00       		.byte	0
 15638 1077 18       		.byte	24
 15639 1078 18       		.byte	24
 15640 1079 00       		.byte	0
 15641 107a 30       		.byte	48
 15642 107b 18       		.byte	24
 15643 107c 00       		.byte	0
 15644 107d 3F       		.byte	63
 15645 107e F8       		.byte	-8
 15646 107f 00       		.byte	0
 15647 1080 3F       		.byte	63
 15648 1081 F8       		.byte	-8
 15649 1082 00       		.byte	0
 15650 1083 00       		.byte	0
 15651 1084 00       		.byte	0
 15652 1085 00       		.byte	0
 15653 1086 00       		.byte	0
 15654 1087 00       		.byte	0
 15655 1088 00       		.byte	0
 15656 1089 00       		.byte	0
 15657 108a 00       		.byte	0
 15658 108b 00       		.byte	0
 15659 108c 00       		.byte	0
 15660 108d 00       		.byte	0
 15661 108e 00       		.byte	0
 15662 108f 00       		.byte	0
 15663 1090 00       		.byte	0
 15664 1091 00       		.byte	0
 15665 1092 00       		.byte	0
 15666 1093 00       		.byte	0
 15667 1094 00       		.byte	0
 15668 1095 00       		.byte	0
 15669 1096 00       		.byte	0
ARM GAS  D:\Programs\cygwin64\tmp\ccnP8CjY.s 			page 274


 15670 1097 00       		.byte	0
 15671 1098 00       		.byte	0
 15672 1099 00       		.byte	0
 15673 109a 00       		.byte	0
 15674 109b 00       		.byte	0
 15675 109c 00       		.byte	0
 15676 109d 00       		.byte	0
 15677 109e 01       		.byte	1
 15678 109f F0       		.byte	-16
 15679 10a0 00       		.byte	0
 15680 10a1 01       		.byte	1
 15681 10a2 F0       		.byte	-16
 15682 10a3 00       		.byte	0
 15683 10a4 01       		.byte	1
 15684 10a5 80       		.byte	-128
 15685 10a6 00       		.byte	0
 15686 10a7 01       		.byte	1
 15687 10a8 80       		.byte	-128
 15688 10a9 00       		.byte	0
 15689 10aa 01       		.byte	1
 15690 10ab 80       		.byte	-128
 15691 10ac 00       		.byte	0
 15692 10ad 01       		.byte	1
 15693 10ae 80       		.byte	-128
 15694 10af 00       		.byte	0
 15695 10b0 01       		.byte	1
 15696 10b1 80       		.byte	-128
 15697 10b2 00       		.byte	0
 15698 10b3 01       		.byte	1
 15699 10b4 80       		.byte	-128
 15700 10b5 00       		.byte	0
 15701 10b6 01       		.byte	1
 15702 10b7 80       		.byte	-128
 15703 10b8 00       		.byte	0
 15704 10b9 01       		.byte	1
 15705 10ba 80       		.byte	-128
 15706 10bb 00       		.byte	0
 15707 10bc 01       		.byte	1
 15708 10bd 80       		.byte	-128
 15709 10be 00       		.byte	0
 15710 10bf 01       		.byte	1
 15711 10c0 80       		.byte	-128
 15712 10c1 00       		.byte	0
 15713 10c2 01       		.byte	1
 15714 10c3 80       		.byte	-128
 15715 10c4 00       		.byte	0
 15716 10c5 01       		.byte	1
 15717 10c6 80       		.byte	-128
 15718 10c7 00       		.byte	0
 15719 10c8 01       		.byte	1
 15720 10c9 80       		.byte	-128
 15721 10ca 00       		.byte	0
 15722 10cb 01       		.byte	1
 15723 10cc 80       		.byte	-128
 15724 10cd 00       		.byte	0
 15725 10ce 01       		.byte	1
 15726 10cf F0       		.byte	-16
ARM GAS  D:\Programs\cygwin64\tmp\ccnP8CjY.s 			page 275


 15727 10d0 00       		.byte	0
 15728 10d1 01       		.byte	1
 15729 10d2 F0       		.byte	-16
 15730 10d3 00       		.byte	0
 15731 10d4 00       		.byte	0
 15732 10d5 00       		.byte	0
 15733 10d6 00       		.byte	0
 15734 10d7 00       		.byte	0
 15735 10d8 00       		.byte	0
 15736 10d9 00       		.byte	0
 15737 10da 00       		.byte	0
 15738 10db 00       		.byte	0
 15739 10dc 00       		.byte	0
 15740 10dd 00       		.byte	0
 15741 10de 00       		.byte	0
 15742 10df 00       		.byte	0
 15743 10e0 18       		.byte	24
 15744 10e1 00       		.byte	0
 15745 10e2 00       		.byte	0
 15746 10e3 18       		.byte	24
 15747 10e4 00       		.byte	0
 15748 10e5 00       		.byte	0
 15749 10e6 1C       		.byte	28
 15750 10e7 00       		.byte	0
 15751 10e8 00       		.byte	0
 15752 10e9 0C       		.byte	12
 15753 10ea 00       		.byte	0
 15754 10eb 00       		.byte	0
 15755 10ec 0E       		.byte	14
 15756 10ed 00       		.byte	0
 15757 10ee 00       		.byte	0
 15758 10ef 06       		.byte	6
 15759 10f0 00       		.byte	0
 15760 10f1 00       		.byte	0
 15761 10f2 06       		.byte	6
 15762 10f3 00       		.byte	0
 15763 10f4 00       		.byte	0
 15764 10f5 03       		.byte	3
 15765 10f6 00       		.byte	0
 15766 10f7 00       		.byte	0
 15767 10f8 03       		.byte	3
 15768 10f9 00       		.byte	0
 15769 10fa 00       		.byte	0
 15770 10fb 01       		.byte	1
 15771 10fc 80       		.byte	-128
 15772 10fd 00       		.byte	0
 15773 10fe 01       		.byte	1
 15774 10ff 80       		.byte	-128
 15775 1100 00       		.byte	0
 15776 1101 00       		.byte	0
 15777 1102 C0       		.byte	-64
 15778 1103 00       		.byte	0
 15779 1104 00       		.byte	0
 15780 1105 C0       		.byte	-64
 15781 1106 00       		.byte	0
 15782 1107 00       		.byte	0
 15783 1108 60       		.byte	96
ARM GAS  D:\Programs\cygwin64\tmp\ccnP8CjY.s 			page 276


 15784 1109 00       		.byte	0
 15785 110a 00       		.byte	0
 15786 110b 60       		.byte	96
 15787 110c 00       		.byte	0
 15788 110d 00       		.byte	0
 15789 110e 70       		.byte	112
 15790 110f 00       		.byte	0
 15791 1110 00       		.byte	0
 15792 1111 30       		.byte	48
 15793 1112 00       		.byte	0
 15794 1113 00       		.byte	0
 15795 1114 38       		.byte	56
 15796 1115 00       		.byte	0
 15797 1116 00       		.byte	0
 15798 1117 18       		.byte	24
 15799 1118 00       		.byte	0
 15800 1119 00       		.byte	0
 15801 111a 18       		.byte	24
 15802 111b 00       		.byte	0
 15803 111c 00       		.byte	0
 15804 111d 00       		.byte	0
 15805 111e 00       		.byte	0
 15806 111f 00       		.byte	0
 15807 1120 00       		.byte	0
 15808 1121 00       		.byte	0
 15809 1122 00       		.byte	0
 15810 1123 00       		.byte	0
 15811 1124 00       		.byte	0
 15812 1125 00       		.byte	0
 15813 1126 00       		.byte	0
 15814 1127 00       		.byte	0
 15815 1128 00       		.byte	0
 15816 1129 00       		.byte	0
 15817 112a 00       		.byte	0
 15818 112b 00       		.byte	0
 15819 112c 00       		.byte	0
 15820 112d 00       		.byte	0
 15821 112e 0F       		.byte	15
 15822 112f 80       		.byte	-128
 15823 1130 00       		.byte	0
 15824 1131 0F       		.byte	15
 15825 1132 80       		.byte	-128
 15826 1133 00       		.byte	0
 15827 1134 01       		.byte	1
 15828 1135 80       		.byte	-128
 15829 1136 00       		.byte	0
 15830 1137 01       		.byte	1
 15831 1138 80       		.byte	-128
 15832 1139 00       		.byte	0
 15833 113a 01       		.byte	1
 15834 113b 80       		.byte	-128
 15835 113c 00       		.byte	0
 15836 113d 01       		.byte	1
 15837 113e 80       		.byte	-128
 15838 113f 00       		.byte	0
 15839 1140 01       		.byte	1
 15840 1141 80       		.byte	-128
ARM GAS  D:\Programs\cygwin64\tmp\ccnP8CjY.s 			page 277


 15841 1142 00       		.byte	0
 15842 1143 01       		.byte	1
 15843 1144 80       		.byte	-128
 15844 1145 00       		.byte	0
 15845 1146 01       		.byte	1
 15846 1147 80       		.byte	-128
 15847 1148 00       		.byte	0
 15848 1149 01       		.byte	1
 15849 114a 80       		.byte	-128
 15850 114b 00       		.byte	0
 15851 114c 01       		.byte	1
 15852 114d 80       		.byte	-128
 15853 114e 00       		.byte	0
 15854 114f 01       		.byte	1
 15855 1150 80       		.byte	-128
 15856 1151 00       		.byte	0
 15857 1152 01       		.byte	1
 15858 1153 80       		.byte	-128
 15859 1154 00       		.byte	0
 15860 1155 01       		.byte	1
 15861 1156 80       		.byte	-128
 15862 1157 00       		.byte	0
 15863 1158 01       		.byte	1
 15864 1159 80       		.byte	-128
 15865 115a 00       		.byte	0
 15866 115b 01       		.byte	1
 15867 115c 80       		.byte	-128
 15868 115d 00       		.byte	0
 15869 115e 0F       		.byte	15
 15870 115f 80       		.byte	-128
 15871 1160 00       		.byte	0
 15872 1161 0F       		.byte	15
 15873 1162 80       		.byte	-128
 15874 1163 00       		.byte	0
 15875 1164 00       		.byte	0
 15876 1165 00       		.byte	0
 15877 1166 00       		.byte	0
 15878 1167 00       		.byte	0
 15879 1168 00       		.byte	0
 15880 1169 00       		.byte	0
 15881 116a 00       		.byte	0
 15882 116b 00       		.byte	0
 15883 116c 00       		.byte	0
 15884 116d 00       		.byte	0
 15885 116e 00       		.byte	0
 15886 116f 00       		.byte	0
 15887 1170 00       		.byte	0
 15888 1171 00       		.byte	0
 15889 1172 00       		.byte	0
 15890 1173 00       		.byte	0
 15891 1174 80       		.byte	-128
 15892 1175 00       		.byte	0
 15893 1176 01       		.byte	1
 15894 1177 C0       		.byte	-64
 15895 1178 00       		.byte	0
 15896 1179 03       		.byte	3
 15897 117a E0       		.byte	-32
ARM GAS  D:\Programs\cygwin64\tmp\ccnP8CjY.s 			page 278


 15898 117b 00       		.byte	0
 15899 117c 07       		.byte	7
 15900 117d 70       		.byte	112
 15901 117e 00       		.byte	0
 15902 117f 06       		.byte	6
 15903 1180 30       		.byte	48
 15904 1181 00       		.byte	0
 15905 1182 0C       		.byte	12
 15906 1183 18       		.byte	24
 15907 1184 00       		.byte	0
 15908 1185 18       		.byte	24
 15909 1186 0C       		.byte	12
 15910 1187 00       		.byte	0
 15911 1188 10       		.byte	16
 15912 1189 04       		.byte	4
 15913 118a 00       		.byte	0
 15914 118b 00       		.byte	0
 15915 118c 00       		.byte	0
 15916 118d 00       		.byte	0
 15917 118e 00       		.byte	0
 15918 118f 00       		.byte	0
 15919 1190 00       		.byte	0
 15920 1191 00       		.byte	0
 15921 1192 00       		.byte	0
 15922 1193 00       		.byte	0
 15923 1194 00       		.byte	0
 15924 1195 00       		.byte	0
 15925 1196 00       		.byte	0
 15926 1197 00       		.byte	0
 15927 1198 00       		.byte	0
 15928 1199 00       		.byte	0
 15929 119a 00       		.byte	0
 15930 119b 00       		.byte	0
 15931 119c 00       		.byte	0
 15932 119d 00       		.byte	0
 15933 119e 00       		.byte	0
 15934 119f 00       		.byte	0
 15935 11a0 00       		.byte	0
 15936 11a1 00       		.byte	0
 15937 11a2 00       		.byte	0
 15938 11a3 00       		.byte	0
 15939 11a4 00       		.byte	0
 15940 11a5 00       		.byte	0
 15941 11a6 00       		.byte	0
 15942 11a7 00       		.byte	0
 15943 11a8 00       		.byte	0
 15944 11a9 00       		.byte	0
 15945 11aa 00       		.byte	0
 15946 11ab 00       		.byte	0
 15947 11ac 00       		.byte	0
 15948 11ad 00       		.byte	0
 15949 11ae 00       		.byte	0
 15950 11af 00       		.byte	0
 15951 11b0 00       		.byte	0
 15952 11b1 00       		.byte	0
 15953 11b2 00       		.byte	0
 15954 11b3 00       		.byte	0
ARM GAS  D:\Programs\cygwin64\tmp\ccnP8CjY.s 			page 279


 15955 11b4 00       		.byte	0
 15956 11b5 00       		.byte	0
 15957 11b6 00       		.byte	0
 15958 11b7 00       		.byte	0
 15959 11b8 00       		.byte	0
 15960 11b9 00       		.byte	0
 15961 11ba 00       		.byte	0
 15962 11bb 00       		.byte	0
 15963 11bc 00       		.byte	0
 15964 11bd 00       		.byte	0
 15965 11be 00       		.byte	0
 15966 11bf 00       		.byte	0
 15967 11c0 00       		.byte	0
 15968 11c1 00       		.byte	0
 15969 11c2 00       		.byte	0
 15970 11c3 00       		.byte	0
 15971 11c4 00       		.byte	0
 15972 11c5 00       		.byte	0
 15973 11c6 00       		.byte	0
 15974 11c7 00       		.byte	0
 15975 11c8 00       		.byte	0
 15976 11c9 00       		.byte	0
 15977 11ca 00       		.byte	0
 15978 11cb 00       		.byte	0
 15979 11cc 00       		.byte	0
 15980 11cd 00       		.byte	0
 15981 11ce 00       		.byte	0
 15982 11cf 00       		.byte	0
 15983 11d0 00       		.byte	0
 15984 11d1 00       		.byte	0
 15985 11d2 00       		.byte	0
 15986 11d3 00       		.byte	0
 15987 11d4 00       		.byte	0
 15988 11d5 00       		.byte	0
 15989 11d6 00       		.byte	0
 15990 11d7 00       		.byte	0
 15991 11d8 00       		.byte	0
 15992 11d9 00       		.byte	0
 15993 11da 00       		.byte	0
 15994 11db 00       		.byte	0
 15995 11dc 00       		.byte	0
 15996 11dd 00       		.byte	0
 15997 11de 00       		.byte	0
 15998 11df 00       		.byte	0
 15999 11e0 00       		.byte	0
 16000 11e1 00       		.byte	0
 16001 11e2 00       		.byte	0
 16002 11e3 00       		.byte	0
 16003 11e4 00       		.byte	0
 16004 11e5 00       		.byte	0
 16005 11e6 00       		.byte	0
 16006 11e7 00       		.byte	0
 16007 11e8 00       		.byte	0
 16008 11e9 00       		.byte	0
 16009 11ea 00       		.byte	0
 16010 11eb 00       		.byte	0
 16011 11ec 00       		.byte	0
ARM GAS  D:\Programs\cygwin64\tmp\ccnP8CjY.s 			page 280


 16012 11ed 00       		.byte	0
 16013 11ee 00       		.byte	0
 16014 11ef 00       		.byte	0
 16015 11f0 00       		.byte	0
 16016 11f1 00       		.byte	0
 16017 11f2 00       		.byte	0
 16018 11f3 00       		.byte	0
 16019 11f4 00       		.byte	0
 16020 11f5 00       		.byte	0
 16021 11f6 00       		.byte	0
 16022 11f7 00       		.byte	0
 16023 11f8 00       		.byte	0
 16024 11f9 00       		.byte	0
 16025 11fa FF       		.byte	-1
 16026 11fb FF       		.byte	-1
 16027 11fc 00       		.byte	0
 16028 11fd FF       		.byte	-1
 16029 11fe FF       		.byte	-1
 16030 11ff 00       		.byte	0
 16031 1200 00       		.byte	0
 16032 1201 00       		.byte	0
 16033 1202 00       		.byte	0
 16034 1203 03       		.byte	3
 16035 1204 00       		.byte	0
 16036 1205 00       		.byte	0
 16037 1206 03       		.byte	3
 16038 1207 80       		.byte	-128
 16039 1208 00       		.byte	0
 16040 1209 00       		.byte	0
 16041 120a E0       		.byte	-32
 16042 120b 00       		.byte	0
 16043 120c 00       		.byte	0
 16044 120d 60       		.byte	96
 16045 120e 00       		.byte	0
 16046 120f 00       		.byte	0
 16047 1210 00       		.byte	0
 16048 1211 00       		.byte	0
 16049 1212 00       		.byte	0
 16050 1213 00       		.byte	0
 16051 1214 00       		.byte	0
 16052 1215 00       		.byte	0
 16053 1216 00       		.byte	0
 16054 1217 00       		.byte	0
 16055 1218 00       		.byte	0
 16056 1219 00       		.byte	0
 16057 121a 00       		.byte	0
 16058 121b 00       		.byte	0
 16059 121c 00       		.byte	0
 16060 121d 00       		.byte	0
 16061 121e 00       		.byte	0
 16062 121f 00       		.byte	0
 16063 1220 00       		.byte	0
 16064 1221 00       		.byte	0
 16065 1222 00       		.byte	0
 16066 1223 00       		.byte	0
 16067 1224 00       		.byte	0
 16068 1225 00       		.byte	0
ARM GAS  D:\Programs\cygwin64\tmp\ccnP8CjY.s 			page 281


 16069 1226 00       		.byte	0
 16070 1227 00       		.byte	0
 16071 1228 00       		.byte	0
 16072 1229 00       		.byte	0
 16073 122a 00       		.byte	0
 16074 122b 00       		.byte	0
 16075 122c 00       		.byte	0
 16076 122d 00       		.byte	0
 16077 122e 00       		.byte	0
 16078 122f 00       		.byte	0
 16079 1230 00       		.byte	0
 16080 1231 00       		.byte	0
 16081 1232 00       		.byte	0
 16082 1233 00       		.byte	0
 16083 1234 00       		.byte	0
 16084 1235 00       		.byte	0
 16085 1236 00       		.byte	0
 16086 1237 00       		.byte	0
 16087 1238 00       		.byte	0
 16088 1239 00       		.byte	0
 16089 123a 00       		.byte	0
 16090 123b 00       		.byte	0
 16091 123c 00       		.byte	0
 16092 123d 00       		.byte	0
 16093 123e 00       		.byte	0
 16094 123f 00       		.byte	0
 16095 1240 00       		.byte	0
 16096 1241 00       		.byte	0
 16097 1242 00       		.byte	0
 16098 1243 00       		.byte	0
 16099 1244 00       		.byte	0
 16100 1245 00       		.byte	0
 16101 1246 00       		.byte	0
 16102 1247 00       		.byte	0
 16103 1248 00       		.byte	0
 16104 1249 00       		.byte	0
 16105 124a 00       		.byte	0
 16106 124b 00       		.byte	0
 16107 124c 00       		.byte	0
 16108 124d 00       		.byte	0
 16109 124e 00       		.byte	0
 16110 124f 00       		.byte	0
 16111 1250 00       		.byte	0
 16112 1251 00       		.byte	0
 16113 1252 00       		.byte	0
 16114 1253 00       		.byte	0
 16115 1254 00       		.byte	0
 16116 1255 00       		.byte	0
 16117 1256 00       		.byte	0
 16118 1257 00       		.byte	0
 16119 1258 00       		.byte	0
 16120 1259 00       		.byte	0
 16121 125a 0F       		.byte	15
 16122 125b C0       		.byte	-64
 16123 125c 00       		.byte	0
 16124 125d 1F       		.byte	31
 16125 125e E0       		.byte	-32
ARM GAS  D:\Programs\cygwin64\tmp\ccnP8CjY.s 			page 282


 16126 125f 00       		.byte	0
 16127 1260 00       		.byte	0
 16128 1261 30       		.byte	48
 16129 1262 00       		.byte	0
 16130 1263 00       		.byte	0
 16131 1264 30       		.byte	48
 16132 1265 00       		.byte	0
 16133 1266 07       		.byte	7
 16134 1267 F0       		.byte	-16
 16135 1268 00       		.byte	0
 16136 1269 1F       		.byte	31
 16137 126a F0       		.byte	-16
 16138 126b 00       		.byte	0
 16139 126c 38       		.byte	56
 16140 126d 30       		.byte	48
 16141 126e 00       		.byte	0
 16142 126f 30       		.byte	48
 16143 1270 30       		.byte	48
 16144 1271 00       		.byte	0
 16145 1272 30       		.byte	48
 16146 1273 70       		.byte	112
 16147 1274 00       		.byte	0
 16148 1275 1F       		.byte	31
 16149 1276 FC       		.byte	-4
 16150 1277 00       		.byte	0
 16151 1278 0F       		.byte	15
 16152 1279 BC       		.byte	-68
 16153 127a 00       		.byte	0
 16154 127b 00       		.byte	0
 16155 127c 00       		.byte	0
 16156 127d 00       		.byte	0
 16157 127e 00       		.byte	0
 16158 127f 00       		.byte	0
 16159 1280 00       		.byte	0
 16160 1281 00       		.byte	0
 16161 1282 00       		.byte	0
 16162 1283 00       		.byte	0
 16163 1284 00       		.byte	0
 16164 1285 00       		.byte	0
 16165 1286 00       		.byte	0
 16166 1287 00       		.byte	0
 16167 1288 00       		.byte	0
 16168 1289 00       		.byte	0
 16169 128a 00       		.byte	0
 16170 128b 00       		.byte	0
 16171 128c 00       		.byte	0
 16172 128d 00       		.byte	0
 16173 128e 00       		.byte	0
 16174 128f 00       		.byte	0
 16175 1290 00       		.byte	0
 16176 1291 00       		.byte	0
 16177 1292 00       		.byte	0
 16178 1293 00       		.byte	0
 16179 1294 00       		.byte	0
 16180 1295 00       		.byte	0
 16181 1296 78       		.byte	120
 16182 1297 00       		.byte	0
ARM GAS  D:\Programs\cygwin64\tmp\ccnP8CjY.s 			page 283


 16183 1298 00       		.byte	0
 16184 1299 78       		.byte	120
 16185 129a 00       		.byte	0
 16186 129b 00       		.byte	0
 16187 129c 18       		.byte	24
 16188 129d 00       		.byte	0
 16189 129e 00       		.byte	0
 16190 129f 18       		.byte	24
 16191 12a0 00       		.byte	0
 16192 12a1 00       		.byte	0
 16193 12a2 1B       		.byte	27
 16194 12a3 E0       		.byte	-32
 16195 12a4 00       		.byte	0
 16196 12a5 1F       		.byte	31
 16197 12a6 F8       		.byte	-8
 16198 12a7 00       		.byte	0
 16199 12a8 1C       		.byte	28
 16200 12a9 18       		.byte	24
 16201 12aa 00       		.byte	0
 16202 12ab 18       		.byte	24
 16203 12ac 0C       		.byte	12
 16204 12ad 00       		.byte	0
 16205 12ae 18       		.byte	24
 16206 12af 0C       		.byte	12
 16207 12b0 00       		.byte	0
 16208 12b1 18       		.byte	24
 16209 12b2 0C       		.byte	12
 16210 12b3 00       		.byte	0
 16211 12b4 18       		.byte	24
 16212 12b5 0C       		.byte	12
 16213 12b6 00       		.byte	0
 16214 12b7 18       		.byte	24
 16215 12b8 0C       		.byte	12
 16216 12b9 00       		.byte	0
 16217 12ba 1C       		.byte	28
 16218 12bb 18       		.byte	24
 16219 12bc 00       		.byte	0
 16220 12bd 7F       		.byte	127
 16221 12be F8       		.byte	-8
 16222 12bf 00       		.byte	0
 16223 12c0 7B       		.byte	123
 16224 12c1 E0       		.byte	-32
 16225 12c2 00       		.byte	0
 16226 12c3 00       		.byte	0
 16227 12c4 00       		.byte	0
 16228 12c5 00       		.byte	0
 16229 12c6 00       		.byte	0
 16230 12c7 00       		.byte	0
 16231 12c8 00       		.byte	0
 16232 12c9 00       		.byte	0
 16233 12ca 00       		.byte	0
 16234 12cb 00       		.byte	0
 16235 12cc 00       		.byte	0
 16236 12cd 00       		.byte	0
 16237 12ce 00       		.byte	0
 16238 12cf 00       		.byte	0
 16239 12d0 00       		.byte	0
ARM GAS  D:\Programs\cygwin64\tmp\ccnP8CjY.s 			page 284


 16240 12d1 00       		.byte	0
 16241 12d2 00       		.byte	0
 16242 12d3 00       		.byte	0
 16243 12d4 00       		.byte	0
 16244 12d5 00       		.byte	0
 16245 12d6 00       		.byte	0
 16246 12d7 00       		.byte	0
 16247 12d8 00       		.byte	0
 16248 12d9 00       		.byte	0
 16249 12da 00       		.byte	0
 16250 12db 00       		.byte	0
 16251 12dc 00       		.byte	0
 16252 12dd 00       		.byte	0
 16253 12de 00       		.byte	0
 16254 12df 00       		.byte	0
 16255 12e0 00       		.byte	0
 16256 12e1 00       		.byte	0
 16257 12e2 00       		.byte	0
 16258 12e3 00       		.byte	0
 16259 12e4 00       		.byte	0
 16260 12e5 00       		.byte	0
 16261 12e6 00       		.byte	0
 16262 12e7 00       		.byte	0
 16263 12e8 00       		.byte	0
 16264 12e9 00       		.byte	0
 16265 12ea 03       		.byte	3
 16266 12eb EC       		.byte	-20
 16267 12ec 00       		.byte	0
 16268 12ed 0F       		.byte	15
 16269 12ee FC       		.byte	-4
 16270 12ef 00       		.byte	0
 16271 12f0 1C       		.byte	28
 16272 12f1 1C       		.byte	28
 16273 12f2 00       		.byte	0
 16274 12f3 38       		.byte	56
 16275 12f4 0C       		.byte	12
 16276 12f5 00       		.byte	0
 16277 12f6 30       		.byte	48
 16278 12f7 0C       		.byte	12
 16279 12f8 00       		.byte	0
 16280 12f9 30       		.byte	48
 16281 12fa 00       		.byte	0
 16282 12fb 00       		.byte	0
 16283 12fc 30       		.byte	48
 16284 12fd 00       		.byte	0
 16285 12fe 00       		.byte	0
 16286 12ff 38       		.byte	56
 16287 1300 0C       		.byte	12
 16288 1301 00       		.byte	0
 16289 1302 1C       		.byte	28
 16290 1303 1C       		.byte	28
 16291 1304 00       		.byte	0
 16292 1305 0F       		.byte	15
 16293 1306 F8       		.byte	-8
 16294 1307 00       		.byte	0
 16295 1308 03       		.byte	3
 16296 1309 F0       		.byte	-16
ARM GAS  D:\Programs\cygwin64\tmp\ccnP8CjY.s 			page 285


 16297 130a 00       		.byte	0
 16298 130b 00       		.byte	0
 16299 130c 00       		.byte	0
 16300 130d 00       		.byte	0
 16301 130e 00       		.byte	0
 16302 130f 00       		.byte	0
 16303 1310 00       		.byte	0
 16304 1311 00       		.byte	0
 16305 1312 00       		.byte	0
 16306 1313 00       		.byte	0
 16307 1314 00       		.byte	0
 16308 1315 00       		.byte	0
 16309 1316 00       		.byte	0
 16310 1317 00       		.byte	0
 16311 1318 00       		.byte	0
 16312 1319 00       		.byte	0
 16313 131a 00       		.byte	0
 16314 131b 00       		.byte	0
 16315 131c 00       		.byte	0
 16316 131d 00       		.byte	0
 16317 131e 00       		.byte	0
 16318 131f 00       		.byte	0
 16319 1320 00       		.byte	0
 16320 1321 00       		.byte	0
 16321 1322 00       		.byte	0
 16322 1323 00       		.byte	0
 16323 1324 00       		.byte	0
 16324 1325 00       		.byte	0
 16325 1326 00       		.byte	0
 16326 1327 78       		.byte	120
 16327 1328 00       		.byte	0
 16328 1329 00       		.byte	0
 16329 132a 78       		.byte	120
 16330 132b 00       		.byte	0
 16331 132c 00       		.byte	0
 16332 132d 18       		.byte	24
 16333 132e 00       		.byte	0
 16334 132f 00       		.byte	0
 16335 1330 18       		.byte	24
 16336 1331 00       		.byte	0
 16337 1332 07       		.byte	7
 16338 1333 D8       		.byte	-40
 16339 1334 00       		.byte	0
 16340 1335 1F       		.byte	31
 16341 1336 F8       		.byte	-8
 16342 1337 00       		.byte	0
 16343 1338 18       		.byte	24
 16344 1339 38       		.byte	56
 16345 133a 00       		.byte	0
 16346 133b 30       		.byte	48
 16347 133c 18       		.byte	24
 16348 133d 00       		.byte	0
 16349 133e 30       		.byte	48
 16350 133f 18       		.byte	24
 16351 1340 00       		.byte	0
 16352 1341 30       		.byte	48
 16353 1342 18       		.byte	24
ARM GAS  D:\Programs\cygwin64\tmp\ccnP8CjY.s 			page 286


 16354 1343 00       		.byte	0
 16355 1344 30       		.byte	48
 16356 1345 18       		.byte	24
 16357 1346 00       		.byte	0
 16358 1347 30       		.byte	48
 16359 1348 18       		.byte	24
 16360 1349 00       		.byte	0
 16361 134a 18       		.byte	24
 16362 134b 38       		.byte	56
 16363 134c 00       		.byte	0
 16364 134d 1F       		.byte	31
 16365 134e FE       		.byte	-2
 16366 134f 00       		.byte	0
 16367 1350 07       		.byte	7
 16368 1351 DE       		.byte	-34
 16369 1352 00       		.byte	0
 16370 1353 00       		.byte	0
 16371 1354 00       		.byte	0
 16372 1355 00       		.byte	0
 16373 1356 00       		.byte	0
 16374 1357 00       		.byte	0
 16375 1358 00       		.byte	0
 16376 1359 00       		.byte	0
 16377 135a 00       		.byte	0
 16378 135b 00       		.byte	0
 16379 135c 00       		.byte	0
 16380 135d 00       		.byte	0
 16381 135e 00       		.byte	0
 16382 135f 00       		.byte	0
 16383 1360 00       		.byte	0
 16384 1361 00       		.byte	0
 16385 1362 00       		.byte	0
 16386 1363 00       		.byte	0
 16387 1364 00       		.byte	0
 16388 1365 00       		.byte	0
 16389 1366 00       		.byte	0
 16390 1367 00       		.byte	0
 16391 1368 00       		.byte	0
 16392 1369 00       		.byte	0
 16393 136a 00       		.byte	0
 16394 136b 00       		.byte	0
 16395 136c 00       		.byte	0
 16396 136d 00       		.byte	0
 16397 136e 00       		.byte	0
 16398 136f 00       		.byte	0
 16399 1370 00       		.byte	0
 16400 1371 00       		.byte	0
 16401 1372 00       		.byte	0
 16402 1373 00       		.byte	0
 16403 1374 00       		.byte	0
 16404 1375 00       		.byte	0
 16405 1376 00       		.byte	0
 16406 1377 00       		.byte	0
 16407 1378 00       		.byte	0
 16408 1379 00       		.byte	0
 16409 137a 07       		.byte	7
 16410 137b E0       		.byte	-32
ARM GAS  D:\Programs\cygwin64\tmp\ccnP8CjY.s 			page 287


 16411 137c 00       		.byte	0
 16412 137d 1F       		.byte	31
 16413 137e F8       		.byte	-8
 16414 137f 00       		.byte	0
 16415 1380 18       		.byte	24
 16416 1381 18       		.byte	24
 16417 1382 00       		.byte	0
 16418 1383 30       		.byte	48
 16419 1384 0C       		.byte	12
 16420 1385 00       		.byte	0
 16421 1386 3F       		.byte	63
 16422 1387 FC       		.byte	-4
 16423 1388 00       		.byte	0
 16424 1389 3F       		.byte	63
 16425 138a FC       		.byte	-4
 16426 138b 00       		.byte	0
 16427 138c 30       		.byte	48
 16428 138d 00       		.byte	0
 16429 138e 00       		.byte	0
 16430 138f 30       		.byte	48
 16431 1390 00       		.byte	0
 16432 1391 00       		.byte	0
 16433 1392 18       		.byte	24
 16434 1393 0C       		.byte	12
 16435 1394 00       		.byte	0
 16436 1395 1F       		.byte	31
 16437 1396 FC       		.byte	-4
 16438 1397 00       		.byte	0
 16439 1398 07       		.byte	7
 16440 1399 F0       		.byte	-16
 16441 139a 00       		.byte	0
 16442 139b 00       		.byte	0
 16443 139c 00       		.byte	0
 16444 139d 00       		.byte	0
 16445 139e 00       		.byte	0
 16446 139f 00       		.byte	0
 16447 13a0 00       		.byte	0
 16448 13a1 00       		.byte	0
 16449 13a2 00       		.byte	0
 16450 13a3 00       		.byte	0
 16451 13a4 00       		.byte	0
 16452 13a5 00       		.byte	0
 16453 13a6 00       		.byte	0
 16454 13a7 00       		.byte	0
 16455 13a8 00       		.byte	0
 16456 13a9 00       		.byte	0
 16457 13aa 00       		.byte	0
 16458 13ab 00       		.byte	0
 16459 13ac 00       		.byte	0
 16460 13ad 00       		.byte	0
 16461 13ae 00       		.byte	0
 16462 13af 00       		.byte	0
 16463 13b0 00       		.byte	0
 16464 13b1 00       		.byte	0
 16465 13b2 00       		.byte	0
 16466 13b3 00       		.byte	0
 16467 13b4 00       		.byte	0
ARM GAS  D:\Programs\cygwin64\tmp\ccnP8CjY.s 			page 288


 16468 13b5 00       		.byte	0
 16469 13b6 01       		.byte	1
 16470 13b7 FC       		.byte	-4
 16471 13b8 00       		.byte	0
 16472 13b9 03       		.byte	3
 16473 13ba FC       		.byte	-4
 16474 13bb 00       		.byte	0
 16475 13bc 06       		.byte	6
 16476 13bd 00       		.byte	0
 16477 13be 00       		.byte	0
 16478 13bf 06       		.byte	6
 16479 13c0 00       		.byte	0
 16480 13c1 00       		.byte	0
 16481 13c2 3F       		.byte	63
 16482 13c3 F8       		.byte	-8
 16483 13c4 00       		.byte	0
 16484 13c5 3F       		.byte	63
 16485 13c6 F8       		.byte	-8
 16486 13c7 00       		.byte	0
 16487 13c8 06       		.byte	6
 16488 13c9 00       		.byte	0
 16489 13ca 00       		.byte	0
 16490 13cb 06       		.byte	6
 16491 13cc 00       		.byte	0
 16492 13cd 00       		.byte	0
 16493 13ce 06       		.byte	6
 16494 13cf 00       		.byte	0
 16495 13d0 00       		.byte	0
 16496 13d1 06       		.byte	6
 16497 13d2 00       		.byte	0
 16498 13d3 00       		.byte	0
 16499 13d4 06       		.byte	6
 16500 13d5 00       		.byte	0
 16501 13d6 00       		.byte	0
 16502 13d7 06       		.byte	6
 16503 13d8 00       		.byte	0
 16504 13d9 00       		.byte	0
 16505 13da 06       		.byte	6
 16506 13db 00       		.byte	0
 16507 13dc 00       		.byte	0
 16508 13dd 3F       		.byte	63
 16509 13de F0       		.byte	-16
 16510 13df 00       		.byte	0
 16511 13e0 3F       		.byte	63
 16512 13e1 F0       		.byte	-16
 16513 13e2 00       		.byte	0
 16514 13e3 00       		.byte	0
 16515 13e4 00       		.byte	0
 16516 13e5 00       		.byte	0
 16517 13e6 00       		.byte	0
 16518 13e7 00       		.byte	0
 16519 13e8 00       		.byte	0
 16520 13e9 00       		.byte	0
 16521 13ea 00       		.byte	0
 16522 13eb 00       		.byte	0
 16523 13ec 00       		.byte	0
 16524 13ed 00       		.byte	0
ARM GAS  D:\Programs\cygwin64\tmp\ccnP8CjY.s 			page 289


 16525 13ee 00       		.byte	0
 16526 13ef 00       		.byte	0
 16527 13f0 00       		.byte	0
 16528 13f1 00       		.byte	0
 16529 13f2 00       		.byte	0
 16530 13f3 00       		.byte	0
 16531 13f4 00       		.byte	0
 16532 13f5 00       		.byte	0
 16533 13f6 00       		.byte	0
 16534 13f7 00       		.byte	0
 16535 13f8 00       		.byte	0
 16536 13f9 00       		.byte	0
 16537 13fa 00       		.byte	0
 16538 13fb 00       		.byte	0
 16539 13fc 00       		.byte	0
 16540 13fd 00       		.byte	0
 16541 13fe 00       		.byte	0
 16542 13ff 00       		.byte	0
 16543 1400 00       		.byte	0
 16544 1401 00       		.byte	0
 16545 1402 00       		.byte	0
 16546 1403 00       		.byte	0
 16547 1404 00       		.byte	0
 16548 1405 00       		.byte	0
 16549 1406 00       		.byte	0
 16550 1407 00       		.byte	0
 16551 1408 00       		.byte	0
 16552 1409 00       		.byte	0
 16553 140a 07       		.byte	7
 16554 140b DE       		.byte	-34
 16555 140c 00       		.byte	0
 16556 140d 1F       		.byte	31
 16557 140e FE       		.byte	-2
 16558 140f 00       		.byte	0
 16559 1410 18       		.byte	24
 16560 1411 38       		.byte	56
 16561 1412 00       		.byte	0
 16562 1413 30       		.byte	48
 16563 1414 18       		.byte	24
 16564 1415 00       		.byte	0
 16565 1416 30       		.byte	48
 16566 1417 18       		.byte	24
 16567 1418 00       		.byte	0
 16568 1419 30       		.byte	48
 16569 141a 18       		.byte	24
 16570 141b 00       		.byte	0
 16571 141c 30       		.byte	48
 16572 141d 18       		.byte	24
 16573 141e 00       		.byte	0
 16574 141f 30       		.byte	48
 16575 1420 18       		.byte	24
 16576 1421 00       		.byte	0
 16577 1422 18       		.byte	24
 16578 1423 38       		.byte	56
 16579 1424 00       		.byte	0
 16580 1425 1F       		.byte	31
 16581 1426 F8       		.byte	-8
ARM GAS  D:\Programs\cygwin64\tmp\ccnP8CjY.s 			page 290


 16582 1427 00       		.byte	0
 16583 1428 07       		.byte	7
 16584 1429 D8       		.byte	-40
 16585 142a 00       		.byte	0
 16586 142b 00       		.byte	0
 16587 142c 18       		.byte	24
 16588 142d 00       		.byte	0
 16589 142e 00       		.byte	0
 16590 142f 18       		.byte	24
 16591 1430 00       		.byte	0
 16592 1431 00       		.byte	0
 16593 1432 38       		.byte	56
 16594 1433 00       		.byte	0
 16595 1434 0F       		.byte	15
 16596 1435 F0       		.byte	-16
 16597 1436 00       		.byte	0
 16598 1437 0F       		.byte	15
 16599 1438 C0       		.byte	-64
 16600 1439 00       		.byte	0
 16601 143a 00       		.byte	0
 16602 143b 00       		.byte	0
 16603 143c 00       		.byte	0
 16604 143d 00       		.byte	0
 16605 143e 00       		.byte	0
 16606 143f 00       		.byte	0
 16607 1440 00       		.byte	0
 16608 1441 00       		.byte	0
 16609 1442 00       		.byte	0
 16610 1443 00       		.byte	0
 16611 1444 00       		.byte	0
 16612 1445 00       		.byte	0
 16613 1446 78       		.byte	120
 16614 1447 00       		.byte	0
 16615 1448 00       		.byte	0
 16616 1449 78       		.byte	120
 16617 144a 00       		.byte	0
 16618 144b 00       		.byte	0
 16619 144c 18       		.byte	24
 16620 144d 00       		.byte	0
 16621 144e 00       		.byte	0
 16622 144f 18       		.byte	24
 16623 1450 00       		.byte	0
 16624 1451 00       		.byte	0
 16625 1452 1B       		.byte	27
 16626 1453 E0       		.byte	-32
 16627 1454 00       		.byte	0
 16628 1455 1F       		.byte	31
 16629 1456 F0       		.byte	-16
 16630 1457 00       		.byte	0
 16631 1458 1C       		.byte	28
 16632 1459 38       		.byte	56
 16633 145a 00       		.byte	0
 16634 145b 18       		.byte	24
 16635 145c 18       		.byte	24
 16636 145d 00       		.byte	0
 16637 145e 18       		.byte	24
 16638 145f 18       		.byte	24
ARM GAS  D:\Programs\cygwin64\tmp\ccnP8CjY.s 			page 291


 16639 1460 00       		.byte	0
 16640 1461 18       		.byte	24
 16641 1462 18       		.byte	24
 16642 1463 00       		.byte	0
 16643 1464 18       		.byte	24
 16644 1465 18       		.byte	24
 16645 1466 00       		.byte	0
 16646 1467 18       		.byte	24
 16647 1468 18       		.byte	24
 16648 1469 00       		.byte	0
 16649 146a 18       		.byte	24
 16650 146b 18       		.byte	24
 16651 146c 00       		.byte	0
 16652 146d 7E       		.byte	126
 16653 146e 7E       		.byte	126
 16654 146f 00       		.byte	0
 16655 1470 7E       		.byte	126
 16656 1471 7E       		.byte	126
 16657 1472 00       		.byte	0
 16658 1473 00       		.byte	0
 16659 1474 00       		.byte	0
 16660 1475 00       		.byte	0
 16661 1476 00       		.byte	0
 16662 1477 00       		.byte	0
 16663 1478 00       		.byte	0
 16664 1479 00       		.byte	0
 16665 147a 00       		.byte	0
 16666 147b 00       		.byte	0
 16667 147c 00       		.byte	0
 16668 147d 00       		.byte	0
 16669 147e 00       		.byte	0
 16670 147f 00       		.byte	0
 16671 1480 00       		.byte	0
 16672 1481 00       		.byte	0
 16673 1482 00       		.byte	0
 16674 1483 00       		.byte	0
 16675 1484 00       		.byte	0
 16676 1485 00       		.byte	0
 16677 1486 00       		.byte	0
 16678 1487 00       		.byte	0
 16679 1488 00       		.byte	0
 16680 1489 00       		.byte	0
 16681 148a 00       		.byte	0
 16682 148b 00       		.byte	0
 16683 148c 00       		.byte	0
 16684 148d 00       		.byte	0
 16685 148e 01       		.byte	1
 16686 148f 80       		.byte	-128
 16687 1490 00       		.byte	0
 16688 1491 01       		.byte	1
 16689 1492 80       		.byte	-128
 16690 1493 00       		.byte	0
 16691 1494 00       		.byte	0
 16692 1495 00       		.byte	0
 16693 1496 00       		.byte	0
 16694 1497 00       		.byte	0
 16695 1498 00       		.byte	0
ARM GAS  D:\Programs\cygwin64\tmp\ccnP8CjY.s 			page 292


 16696 1499 00       		.byte	0
 16697 149a 1F       		.byte	31
 16698 149b 80       		.byte	-128
 16699 149c 00       		.byte	0
 16700 149d 1F       		.byte	31
 16701 149e 80       		.byte	-128
 16702 149f 00       		.byte	0
 16703 14a0 01       		.byte	1
 16704 14a1 80       		.byte	-128
 16705 14a2 00       		.byte	0
 16706 14a3 01       		.byte	1
 16707 14a4 80       		.byte	-128
 16708 14a5 00       		.byte	0
 16709 14a6 01       		.byte	1
 16710 14a7 80       		.byte	-128
 16711 14a8 00       		.byte	0
 16712 14a9 01       		.byte	1
 16713 14aa 80       		.byte	-128
 16714 14ab 00       		.byte	0
 16715 14ac 01       		.byte	1
 16716 14ad 80       		.byte	-128
 16717 14ae 00       		.byte	0
 16718 14af 01       		.byte	1
 16719 14b0 80       		.byte	-128
 16720 14b1 00       		.byte	0
 16721 14b2 01       		.byte	1
 16722 14b3 80       		.byte	-128
 16723 14b4 00       		.byte	0
 16724 14b5 3F       		.byte	63
 16725 14b6 FC       		.byte	-4
 16726 14b7 00       		.byte	0
 16727 14b8 3F       		.byte	63
 16728 14b9 FC       		.byte	-4
 16729 14ba 00       		.byte	0
 16730 14bb 00       		.byte	0
 16731 14bc 00       		.byte	0
 16732 14bd 00       		.byte	0
 16733 14be 00       		.byte	0
 16734 14bf 00       		.byte	0
 16735 14c0 00       		.byte	0
 16736 14c1 00       		.byte	0
 16737 14c2 00       		.byte	0
 16738 14c3 00       		.byte	0
 16739 14c4 00       		.byte	0
 16740 14c5 00       		.byte	0
 16741 14c6 00       		.byte	0
 16742 14c7 00       		.byte	0
 16743 14c8 00       		.byte	0
 16744 14c9 00       		.byte	0
 16745 14ca 00       		.byte	0
 16746 14cb 00       		.byte	0
 16747 14cc 00       		.byte	0
 16748 14cd 00       		.byte	0
 16749 14ce 00       		.byte	0
 16750 14cf 00       		.byte	0
 16751 14d0 00       		.byte	0
 16752 14d1 00       		.byte	0
ARM GAS  D:\Programs\cygwin64\tmp\ccnP8CjY.s 			page 293


 16753 14d2 00       		.byte	0
 16754 14d3 00       		.byte	0
 16755 14d4 00       		.byte	0
 16756 14d5 00       		.byte	0
 16757 14d6 00       		.byte	0
 16758 14d7 C0       		.byte	-64
 16759 14d8 00       		.byte	0
 16760 14d9 00       		.byte	0
 16761 14da C0       		.byte	-64
 16762 14db 00       		.byte	0
 16763 14dc 00       		.byte	0
 16764 14dd 00       		.byte	0
 16765 14de 00       		.byte	0
 16766 14df 00       		.byte	0
 16767 14e0 00       		.byte	0
 16768 14e1 00       		.byte	0
 16769 14e2 1F       		.byte	31
 16770 14e3 F0       		.byte	-16
 16771 14e4 00       		.byte	0
 16772 14e5 1F       		.byte	31
 16773 14e6 F0       		.byte	-16
 16774 14e7 00       		.byte	0
 16775 14e8 00       		.byte	0
 16776 14e9 30       		.byte	48
 16777 14ea 00       		.byte	0
 16778 14eb 00       		.byte	0
 16779 14ec 30       		.byte	48
 16780 14ed 00       		.byte	0
 16781 14ee 00       		.byte	0
 16782 14ef 30       		.byte	48
 16783 14f0 00       		.byte	0
 16784 14f1 00       		.byte	0
 16785 14f2 30       		.byte	48
 16786 14f3 00       		.byte	0
 16787 14f4 00       		.byte	0
 16788 14f5 30       		.byte	48
 16789 14f6 00       		.byte	0
 16790 14f7 00       		.byte	0
 16791 14f8 30       		.byte	48
 16792 14f9 00       		.byte	0
 16793 14fa 00       		.byte	0
 16794 14fb 30       		.byte	48
 16795 14fc 00       		.byte	0
 16796 14fd 00       		.byte	0
 16797 14fe 30       		.byte	48
 16798 14ff 00       		.byte	0
 16799 1500 00       		.byte	0
 16800 1501 30       		.byte	48
 16801 1502 00       		.byte	0
 16802 1503 00       		.byte	0
 16803 1504 30       		.byte	48
 16804 1505 00       		.byte	0
 16805 1506 00       		.byte	0
 16806 1507 30       		.byte	48
 16807 1508 00       		.byte	0
 16808 1509 00       		.byte	0
 16809 150a 70       		.byte	112
ARM GAS  D:\Programs\cygwin64\tmp\ccnP8CjY.s 			page 294


 16810 150b 00       		.byte	0
 16811 150c 1F       		.byte	31
 16812 150d E0       		.byte	-32
 16813 150e 00       		.byte	0
 16814 150f 1F       		.byte	31
 16815 1510 80       		.byte	-128
 16816 1511 00       		.byte	0
 16817 1512 00       		.byte	0
 16818 1513 00       		.byte	0
 16819 1514 00       		.byte	0
 16820 1515 00       		.byte	0
 16821 1516 00       		.byte	0
 16822 1517 00       		.byte	0
 16823 1518 00       		.byte	0
 16824 1519 00       		.byte	0
 16825 151a 00       		.byte	0
 16826 151b 00       		.byte	0
 16827 151c 00       		.byte	0
 16828 151d 00       		.byte	0
 16829 151e 3C       		.byte	60
 16830 151f 00       		.byte	0
 16831 1520 00       		.byte	0
 16832 1521 3C       		.byte	60
 16833 1522 00       		.byte	0
 16834 1523 00       		.byte	0
 16835 1524 0C       		.byte	12
 16836 1525 00       		.byte	0
 16837 1526 00       		.byte	0
 16838 1527 0C       		.byte	12
 16839 1528 00       		.byte	0
 16840 1529 00       		.byte	0
 16841 152a 0C       		.byte	12
 16842 152b F8       		.byte	-8
 16843 152c 00       		.byte	0
 16844 152d 0C       		.byte	12
 16845 152e F8       		.byte	-8
 16846 152f 00       		.byte	0
 16847 1530 0C       		.byte	12
 16848 1531 C0       		.byte	-64
 16849 1532 00       		.byte	0
 16850 1533 0D       		.byte	13
 16851 1534 80       		.byte	-128
 16852 1535 00       		.byte	0
 16853 1536 0F       		.byte	15
 16854 1537 80       		.byte	-128
 16855 1538 00       		.byte	0
 16856 1539 0F       		.byte	15
 16857 153a 00       		.byte	0
 16858 153b 00       		.byte	0
 16859 153c 0F       		.byte	15
 16860 153d 80       		.byte	-128
 16861 153e 00       		.byte	0
 16862 153f 0D       		.byte	13
 16863 1540 C0       		.byte	-64
 16864 1541 00       		.byte	0
 16865 1542 0C       		.byte	12
 16866 1543 E0       		.byte	-32
ARM GAS  D:\Programs\cygwin64\tmp\ccnP8CjY.s 			page 295


 16867 1544 00       		.byte	0
 16868 1545 3C       		.byte	60
 16869 1546 7C       		.byte	124
 16870 1547 00       		.byte	0
 16871 1548 3C       		.byte	60
 16872 1549 7C       		.byte	124
 16873 154a 00       		.byte	0
 16874 154b 00       		.byte	0
 16875 154c 00       		.byte	0
 16876 154d 00       		.byte	0
 16877 154e 00       		.byte	0
 16878 154f 00       		.byte	0
 16879 1550 00       		.byte	0
 16880 1551 00       		.byte	0
 16881 1552 00       		.byte	0
 16882 1553 00       		.byte	0
 16883 1554 00       		.byte	0
 16884 1555 00       		.byte	0
 16885 1556 00       		.byte	0
 16886 1557 00       		.byte	0
 16887 1558 00       		.byte	0
 16888 1559 00       		.byte	0
 16889 155a 00       		.byte	0
 16890 155b 00       		.byte	0
 16891 155c 00       		.byte	0
 16892 155d 00       		.byte	0
 16893 155e 00       		.byte	0
 16894 155f 00       		.byte	0
 16895 1560 00       		.byte	0
 16896 1561 00       		.byte	0
 16897 1562 00       		.byte	0
 16898 1563 00       		.byte	0
 16899 1564 00       		.byte	0
 16900 1565 00       		.byte	0
 16901 1566 1F       		.byte	31
 16902 1567 80       		.byte	-128
 16903 1568 00       		.byte	0
 16904 1569 1F       		.byte	31
 16905 156a 80       		.byte	-128
 16906 156b 00       		.byte	0
 16907 156c 01       		.byte	1
 16908 156d 80       		.byte	-128
 16909 156e 00       		.byte	0
 16910 156f 01       		.byte	1
 16911 1570 80       		.byte	-128
 16912 1571 00       		.byte	0
 16913 1572 01       		.byte	1
 16914 1573 80       		.byte	-128
 16915 1574 00       		.byte	0
 16916 1575 01       		.byte	1
 16917 1576 80       		.byte	-128
 16918 1577 00       		.byte	0
 16919 1578 01       		.byte	1
 16920 1579 80       		.byte	-128
 16921 157a 00       		.byte	0
 16922 157b 01       		.byte	1
 16923 157c 80       		.byte	-128
ARM GAS  D:\Programs\cygwin64\tmp\ccnP8CjY.s 			page 296


 16924 157d 00       		.byte	0
 16925 157e 01       		.byte	1
 16926 157f 80       		.byte	-128
 16927 1580 00       		.byte	0
 16928 1581 01       		.byte	1
 16929 1582 80       		.byte	-128
 16930 1583 00       		.byte	0
 16931 1584 01       		.byte	1
 16932 1585 80       		.byte	-128
 16933 1586 00       		.byte	0
 16934 1587 01       		.byte	1
 16935 1588 80       		.byte	-128
 16936 1589 00       		.byte	0
 16937 158a 01       		.byte	1
 16938 158b 80       		.byte	-128
 16939 158c 00       		.byte	0
 16940 158d 3F       		.byte	63
 16941 158e FC       		.byte	-4
 16942 158f 00       		.byte	0
 16943 1590 3F       		.byte	63
 16944 1591 FC       		.byte	-4
 16945 1592 00       		.byte	0
 16946 1593 00       		.byte	0
 16947 1594 00       		.byte	0
 16948 1595 00       		.byte	0
 16949 1596 00       		.byte	0
 16950 1597 00       		.byte	0
 16951 1598 00       		.byte	0
 16952 1599 00       		.byte	0
 16953 159a 00       		.byte	0
 16954 159b 00       		.byte	0
 16955 159c 00       		.byte	0
 16956 159d 00       		.byte	0
 16957 159e 00       		.byte	0
 16958 159f 00       		.byte	0
 16959 15a0 00       		.byte	0
 16960 15a1 00       		.byte	0
 16961 15a2 00       		.byte	0
 16962 15a3 00       		.byte	0
 16963 15a4 00       		.byte	0
 16964 15a5 00       		.byte	0
 16965 15a6 00       		.byte	0
 16966 15a7 00       		.byte	0
 16967 15a8 00       		.byte	0
 16968 15a9 00       		.byte	0
 16969 15aa 00       		.byte	0
 16970 15ab 00       		.byte	0
 16971 15ac 00       		.byte	0
 16972 15ad 00       		.byte	0
 16973 15ae 00       		.byte	0
 16974 15af 00       		.byte	0
 16975 15b0 00       		.byte	0
 16976 15b1 00       		.byte	0
 16977 15b2 00       		.byte	0
 16978 15b3 00       		.byte	0
 16979 15b4 00       		.byte	0
 16980 15b5 00       		.byte	0
ARM GAS  D:\Programs\cygwin64\tmp\ccnP8CjY.s 			page 297


 16981 15b6 00       		.byte	0
 16982 15b7 00       		.byte	0
 16983 15b8 00       		.byte	0
 16984 15b9 00       		.byte	0
 16985 15ba F7       		.byte	-9
 16986 15bb 78       		.byte	120
 16987 15bc 00       		.byte	0
 16988 15bd FF       		.byte	-1
 16989 15be FC       		.byte	-4
 16990 15bf 00       		.byte	0
 16991 15c0 39       		.byte	57
 16992 15c1 CC       		.byte	-52
 16993 15c2 00       		.byte	0
 16994 15c3 31       		.byte	49
 16995 15c4 8C       		.byte	-116
 16996 15c5 00       		.byte	0
 16997 15c6 31       		.byte	49
 16998 15c7 8C       		.byte	-116
 16999 15c8 00       		.byte	0
 17000 15c9 31       		.byte	49
 17001 15ca 8C       		.byte	-116
 17002 15cb 00       		.byte	0
 17003 15cc 31       		.byte	49
 17004 15cd 8C       		.byte	-116
 17005 15ce 00       		.byte	0
 17006 15cf 31       		.byte	49
 17007 15d0 8C       		.byte	-116
 17008 15d1 00       		.byte	0
 17009 15d2 31       		.byte	49
 17010 15d3 8C       		.byte	-116
 17011 15d4 00       		.byte	0
 17012 15d5 FD       		.byte	-3
 17013 15d6 EF       		.byte	-17
 17014 15d7 00       		.byte	0
 17015 15d8 FD       		.byte	-3
 17016 15d9 EF       		.byte	-17
 17017 15da 00       		.byte	0
 17018 15db 00       		.byte	0
 17019 15dc 00       		.byte	0
 17020 15dd 00       		.byte	0
 17021 15de 00       		.byte	0
 17022 15df 00       		.byte	0
 17023 15e0 00       		.byte	0
 17024 15e1 00       		.byte	0
 17025 15e2 00       		.byte	0
 17026 15e3 00       		.byte	0
 17027 15e4 00       		.byte	0
 17028 15e5 00       		.byte	0
 17029 15e6 00       		.byte	0
 17030 15e7 00       		.byte	0
 17031 15e8 00       		.byte	0
 17032 15e9 00       		.byte	0
 17033 15ea 00       		.byte	0
 17034 15eb 00       		.byte	0
 17035 15ec 00       		.byte	0
 17036 15ed 00       		.byte	0
 17037 15ee 00       		.byte	0
ARM GAS  D:\Programs\cygwin64\tmp\ccnP8CjY.s 			page 298


 17038 15ef 00       		.byte	0
 17039 15f0 00       		.byte	0
 17040 15f1 00       		.byte	0
 17041 15f2 00       		.byte	0
 17042 15f3 00       		.byte	0
 17043 15f4 00       		.byte	0
 17044 15f5 00       		.byte	0
 17045 15f6 00       		.byte	0
 17046 15f7 00       		.byte	0
 17047 15f8 00       		.byte	0
 17048 15f9 00       		.byte	0
 17049 15fa 00       		.byte	0
 17050 15fb 00       		.byte	0
 17051 15fc 00       		.byte	0
 17052 15fd 00       		.byte	0
 17053 15fe 00       		.byte	0
 17054 15ff 00       		.byte	0
 17055 1600 00       		.byte	0
 17056 1601 00       		.byte	0
 17057 1602 7B       		.byte	123
 17058 1603 E0       		.byte	-32
 17059 1604 00       		.byte	0
 17060 1605 7F       		.byte	127
 17061 1606 F0       		.byte	-16
 17062 1607 00       		.byte	0
 17063 1608 1C       		.byte	28
 17064 1609 38       		.byte	56
 17065 160a 00       		.byte	0
 17066 160b 18       		.byte	24
 17067 160c 18       		.byte	24
 17068 160d 00       		.byte	0
 17069 160e 18       		.byte	24
 17070 160f 18       		.byte	24
 17071 1610 00       		.byte	0
 17072 1611 18       		.byte	24
 17073 1612 18       		.byte	24
 17074 1613 00       		.byte	0
 17075 1614 18       		.byte	24
 17076 1615 18       		.byte	24
 17077 1616 00       		.byte	0
 17078 1617 18       		.byte	24
 17079 1618 18       		.byte	24
 17080 1619 00       		.byte	0
 17081 161a 18       		.byte	24
 17082 161b 18       		.byte	24
 17083 161c 00       		.byte	0
 17084 161d 7E       		.byte	126
 17085 161e 7E       		.byte	126
 17086 161f 00       		.byte	0
 17087 1620 7E       		.byte	126
 17088 1621 7E       		.byte	126
 17089 1622 00       		.byte	0
 17090 1623 00       		.byte	0
 17091 1624 00       		.byte	0
 17092 1625 00       		.byte	0
 17093 1626 00       		.byte	0
 17094 1627 00       		.byte	0
ARM GAS  D:\Programs\cygwin64\tmp\ccnP8CjY.s 			page 299


 17095 1628 00       		.byte	0
 17096 1629 00       		.byte	0
 17097 162a 00       		.byte	0
 17098 162b 00       		.byte	0
 17099 162c 00       		.byte	0
 17100 162d 00       		.byte	0
 17101 162e 00       		.byte	0
 17102 162f 00       		.byte	0
 17103 1630 00       		.byte	0
 17104 1631 00       		.byte	0
 17105 1632 00       		.byte	0
 17106 1633 00       		.byte	0
 17107 1634 00       		.byte	0
 17108 1635 00       		.byte	0
 17109 1636 00       		.byte	0
 17110 1637 00       		.byte	0
 17111 1638 00       		.byte	0
 17112 1639 00       		.byte	0
 17113 163a 00       		.byte	0
 17114 163b 00       		.byte	0
 17115 163c 00       		.byte	0
 17116 163d 00       		.byte	0
 17117 163e 00       		.byte	0
 17118 163f 00       		.byte	0
 17119 1640 00       		.byte	0
 17120 1641 00       		.byte	0
 17121 1642 00       		.byte	0
 17122 1643 00       		.byte	0
 17123 1644 00       		.byte	0
 17124 1645 00       		.byte	0
 17125 1646 00       		.byte	0
 17126 1647 00       		.byte	0
 17127 1648 00       		.byte	0
 17128 1649 00       		.byte	0
 17129 164a 03       		.byte	3
 17130 164b C0       		.byte	-64
 17131 164c 00       		.byte	0
 17132 164d 0F       		.byte	15
 17133 164e F0       		.byte	-16
 17134 164f 00       		.byte	0
 17135 1650 1C       		.byte	28
 17136 1651 38       		.byte	56
 17137 1652 00       		.byte	0
 17138 1653 38       		.byte	56
 17139 1654 1C       		.byte	28
 17140 1655 00       		.byte	0
 17141 1656 30       		.byte	48
 17142 1657 0C       		.byte	12
 17143 1658 00       		.byte	0
 17144 1659 30       		.byte	48
 17145 165a 0C       		.byte	12
 17146 165b 00       		.byte	0
 17147 165c 30       		.byte	48
 17148 165d 0C       		.byte	12
 17149 165e 00       		.byte	0
 17150 165f 38       		.byte	56
 17151 1660 1C       		.byte	28
ARM GAS  D:\Programs\cygwin64\tmp\ccnP8CjY.s 			page 300


 17152 1661 00       		.byte	0
 17153 1662 1C       		.byte	28
 17154 1663 38       		.byte	56
 17155 1664 00       		.byte	0
 17156 1665 0F       		.byte	15
 17157 1666 F0       		.byte	-16
 17158 1667 00       		.byte	0
 17159 1668 03       		.byte	3
 17160 1669 C0       		.byte	-64
 17161 166a 00       		.byte	0
 17162 166b 00       		.byte	0
 17163 166c 00       		.byte	0
 17164 166d 00       		.byte	0
 17165 166e 00       		.byte	0
 17166 166f 00       		.byte	0
 17167 1670 00       		.byte	0
 17168 1671 00       		.byte	0
 17169 1672 00       		.byte	0
 17170 1673 00       		.byte	0
 17171 1674 00       		.byte	0
 17172 1675 00       		.byte	0
 17173 1676 00       		.byte	0
 17174 1677 00       		.byte	0
 17175 1678 00       		.byte	0
 17176 1679 00       		.byte	0
 17177 167a 00       		.byte	0
 17178 167b 00       		.byte	0
 17179 167c 00       		.byte	0
 17180 167d 00       		.byte	0
 17181 167e 00       		.byte	0
 17182 167f 00       		.byte	0
 17183 1680 00       		.byte	0
 17184 1681 00       		.byte	0
 17185 1682 00       		.byte	0
 17186 1683 00       		.byte	0
 17187 1684 00       		.byte	0
 17188 1685 00       		.byte	0
 17189 1686 00       		.byte	0
 17190 1687 00       		.byte	0
 17191 1688 00       		.byte	0
 17192 1689 00       		.byte	0
 17193 168a 00       		.byte	0
 17194 168b 00       		.byte	0
 17195 168c 00       		.byte	0
 17196 168d 00       		.byte	0
 17197 168e 00       		.byte	0
 17198 168f 00       		.byte	0
 17199 1690 00       		.byte	0
 17200 1691 00       		.byte	0
 17201 1692 7B       		.byte	123
 17202 1693 E0       		.byte	-32
 17203 1694 00       		.byte	0
 17204 1695 7F       		.byte	127
 17205 1696 F8       		.byte	-8
 17206 1697 00       		.byte	0
 17207 1698 1C       		.byte	28
 17208 1699 18       		.byte	24
ARM GAS  D:\Programs\cygwin64\tmp\ccnP8CjY.s 			page 301


 17209 169a 00       		.byte	0
 17210 169b 18       		.byte	24
 17211 169c 0C       		.byte	12
 17212 169d 00       		.byte	0
 17213 169e 18       		.byte	24
 17214 169f 0C       		.byte	12
 17215 16a0 00       		.byte	0
 17216 16a1 18       		.byte	24
 17217 16a2 0C       		.byte	12
 17218 16a3 00       		.byte	0
 17219 16a4 18       		.byte	24
 17220 16a5 0C       		.byte	12
 17221 16a6 00       		.byte	0
 17222 16a7 18       		.byte	24
 17223 16a8 0C       		.byte	12
 17224 16a9 00       		.byte	0
 17225 16aa 1C       		.byte	28
 17226 16ab 18       		.byte	24
 17227 16ac 00       		.byte	0
 17228 16ad 1F       		.byte	31
 17229 16ae F8       		.byte	-8
 17230 16af 00       		.byte	0
 17231 16b0 1B       		.byte	27
 17232 16b1 E0       		.byte	-32
 17233 16b2 00       		.byte	0
 17234 16b3 18       		.byte	24
 17235 16b4 00       		.byte	0
 17236 16b5 00       		.byte	0
 17237 16b6 18       		.byte	24
 17238 16b7 00       		.byte	0
 17239 16b8 00       		.byte	0
 17240 16b9 18       		.byte	24
 17241 16ba 00       		.byte	0
 17242 16bb 00       		.byte	0
 17243 16bc 7F       		.byte	127
 17244 16bd 00       		.byte	0
 17245 16be 00       		.byte	0
 17246 16bf 7F       		.byte	127
 17247 16c0 00       		.byte	0
 17248 16c1 00       		.byte	0
 17249 16c2 00       		.byte	0
 17250 16c3 00       		.byte	0
 17251 16c4 00       		.byte	0
 17252 16c5 00       		.byte	0
 17253 16c6 00       		.byte	0
 17254 16c7 00       		.byte	0
 17255 16c8 00       		.byte	0
 17256 16c9 00       		.byte	0
 17257 16ca 00       		.byte	0
 17258 16cb 00       		.byte	0
 17259 16cc 00       		.byte	0
 17260 16cd 00       		.byte	0
 17261 16ce 00       		.byte	0
 17262 16cf 00       		.byte	0
 17263 16d0 00       		.byte	0
 17264 16d1 00       		.byte	0
 17265 16d2 00       		.byte	0
ARM GAS  D:\Programs\cygwin64\tmp\ccnP8CjY.s 			page 302


 17266 16d3 00       		.byte	0
 17267 16d4 00       		.byte	0
 17268 16d5 00       		.byte	0
 17269 16d6 00       		.byte	0
 17270 16d7 00       		.byte	0
 17271 16d8 00       		.byte	0
 17272 16d9 00       		.byte	0
 17273 16da 07       		.byte	7
 17274 16db DE       		.byte	-34
 17275 16dc 00       		.byte	0
 17276 16dd 1F       		.byte	31
 17277 16de FE       		.byte	-2
 17278 16df 00       		.byte	0
 17279 16e0 18       		.byte	24
 17280 16e1 38       		.byte	56
 17281 16e2 00       		.byte	0
 17282 16e3 30       		.byte	48
 17283 16e4 18       		.byte	24
 17284 16e5 00       		.byte	0
 17285 16e6 30       		.byte	48
 17286 16e7 18       		.byte	24
 17287 16e8 00       		.byte	0
 17288 16e9 30       		.byte	48
 17289 16ea 18       		.byte	24
 17290 16eb 00       		.byte	0
 17291 16ec 30       		.byte	48
 17292 16ed 18       		.byte	24
 17293 16ee 00       		.byte	0
 17294 16ef 30       		.byte	48
 17295 16f0 18       		.byte	24
 17296 16f1 00       		.byte	0
 17297 16f2 18       		.byte	24
 17298 16f3 38       		.byte	56
 17299 16f4 00       		.byte	0
 17300 16f5 1F       		.byte	31
 17301 16f6 F8       		.byte	-8
 17302 16f7 00       		.byte	0
 17303 16f8 07       		.byte	7
 17304 16f9 D8       		.byte	-40
 17305 16fa 00       		.byte	0
 17306 16fb 00       		.byte	0
 17307 16fc 18       		.byte	24
 17308 16fd 00       		.byte	0
 17309 16fe 00       		.byte	0
 17310 16ff 18       		.byte	24
 17311 1700 00       		.byte	0
 17312 1701 00       		.byte	0
 17313 1702 18       		.byte	24
 17314 1703 00       		.byte	0
 17315 1704 00       		.byte	0
 17316 1705 FE       		.byte	-2
 17317 1706 00       		.byte	0
 17318 1707 00       		.byte	0
 17319 1708 FE       		.byte	-2
 17320 1709 00       		.byte	0
 17321 170a 00       		.byte	0
 17322 170b 00       		.byte	0
ARM GAS  D:\Programs\cygwin64\tmp\ccnP8CjY.s 			page 303


 17323 170c 00       		.byte	0
 17324 170d 00       		.byte	0
 17325 170e 00       		.byte	0
 17326 170f 00       		.byte	0
 17327 1710 00       		.byte	0
 17328 1711 00       		.byte	0
 17329 1712 00       		.byte	0
 17330 1713 00       		.byte	0
 17331 1714 00       		.byte	0
 17332 1715 00       		.byte	0
 17333 1716 00       		.byte	0
 17334 1717 00       		.byte	0
 17335 1718 00       		.byte	0
 17336 1719 00       		.byte	0
 17337 171a 00       		.byte	0
 17338 171b 00       		.byte	0
 17339 171c 00       		.byte	0
 17340 171d 00       		.byte	0
 17341 171e 00       		.byte	0
 17342 171f 00       		.byte	0
 17343 1720 00       		.byte	0
 17344 1721 00       		.byte	0
 17345 1722 3E       		.byte	62
 17346 1723 78       		.byte	120
 17347 1724 00       		.byte	0
 17348 1725 3E       		.byte	62
 17349 1726 FC       		.byte	-4
 17350 1727 00       		.byte	0
 17351 1728 07       		.byte	7
 17352 1729 CC       		.byte	-52
 17353 172a 00       		.byte	0
 17354 172b 07       		.byte	7
 17355 172c 00       		.byte	0
 17356 172d 00       		.byte	0
 17357 172e 06       		.byte	6
 17358 172f 00       		.byte	0
 17359 1730 00       		.byte	0
 17360 1731 06       		.byte	6
 17361 1732 00       		.byte	0
 17362 1733 00       		.byte	0
 17363 1734 06       		.byte	6
 17364 1735 00       		.byte	0
 17365 1736 00       		.byte	0
 17366 1737 06       		.byte	6
 17367 1738 00       		.byte	0
 17368 1739 00       		.byte	0
 17369 173a 06       		.byte	6
 17370 173b 00       		.byte	0
 17371 173c 00       		.byte	0
 17372 173d 3F       		.byte	63
 17373 173e F0       		.byte	-16
 17374 173f 00       		.byte	0
 17375 1740 3F       		.byte	63
 17376 1741 F0       		.byte	-16
 17377 1742 00       		.byte	0
 17378 1743 00       		.byte	0
 17379 1744 00       		.byte	0
ARM GAS  D:\Programs\cygwin64\tmp\ccnP8CjY.s 			page 304


 17380 1745 00       		.byte	0
 17381 1746 00       		.byte	0
 17382 1747 00       		.byte	0
 17383 1748 00       		.byte	0
 17384 1749 00       		.byte	0
 17385 174a 00       		.byte	0
 17386 174b 00       		.byte	0
 17387 174c 00       		.byte	0
 17388 174d 00       		.byte	0
 17389 174e 00       		.byte	0
 17390 174f 00       		.byte	0
 17391 1750 00       		.byte	0
 17392 1751 00       		.byte	0
 17393 1752 00       		.byte	0
 17394 1753 00       		.byte	0
 17395 1754 00       		.byte	0
 17396 1755 00       		.byte	0
 17397 1756 00       		.byte	0
 17398 1757 00       		.byte	0
 17399 1758 00       		.byte	0
 17400 1759 00       		.byte	0
 17401 175a 00       		.byte	0
 17402 175b 00       		.byte	0
 17403 175c 00       		.byte	0
 17404 175d 00       		.byte	0
 17405 175e 00       		.byte	0
 17406 175f 00       		.byte	0
 17407 1760 00       		.byte	0
 17408 1761 00       		.byte	0
 17409 1762 00       		.byte	0
 17410 1763 00       		.byte	0
 17411 1764 00       		.byte	0
 17412 1765 00       		.byte	0
 17413 1766 00       		.byte	0
 17414 1767 00       		.byte	0
 17415 1768 00       		.byte	0
 17416 1769 00       		.byte	0
 17417 176a 07       		.byte	7
 17418 176b F8       		.byte	-8
 17419 176c 00       		.byte	0
 17420 176d 0F       		.byte	15
 17421 176e F8       		.byte	-8
 17422 176f 00       		.byte	0
 17423 1770 18       		.byte	24
 17424 1771 18       		.byte	24
 17425 1772 00       		.byte	0
 17426 1773 18       		.byte	24
 17427 1774 18       		.byte	24
 17428 1775 00       		.byte	0
 17429 1776 1F       		.byte	31
 17430 1777 80       		.byte	-128
 17431 1778 00       		.byte	0
 17432 1779 0F       		.byte	15
 17433 177a F0       		.byte	-16
 17434 177b 00       		.byte	0
 17435 177c 00       		.byte	0
 17436 177d F8       		.byte	-8
ARM GAS  D:\Programs\cygwin64\tmp\ccnP8CjY.s 			page 305


 17437 177e 00       		.byte	0
 17438 177f 18       		.byte	24
 17439 1780 18       		.byte	24
 17440 1781 00       		.byte	0
 17441 1782 18       		.byte	24
 17442 1783 38       		.byte	56
 17443 1784 00       		.byte	0
 17444 1785 1F       		.byte	31
 17445 1786 F0       		.byte	-16
 17446 1787 00       		.byte	0
 17447 1788 1F       		.byte	31
 17448 1789 E0       		.byte	-32
 17449 178a 00       		.byte	0
 17450 178b 00       		.byte	0
 17451 178c 00       		.byte	0
 17452 178d 00       		.byte	0
 17453 178e 00       		.byte	0
 17454 178f 00       		.byte	0
 17455 1790 00       		.byte	0
 17456 1791 00       		.byte	0
 17457 1792 00       		.byte	0
 17458 1793 00       		.byte	0
 17459 1794 00       		.byte	0
 17460 1795 00       		.byte	0
 17461 1796 00       		.byte	0
 17462 1797 00       		.byte	0
 17463 1798 00       		.byte	0
 17464 1799 00       		.byte	0
 17465 179a 00       		.byte	0
 17466 179b 00       		.byte	0
 17467 179c 00       		.byte	0
 17468 179d 00       		.byte	0
 17469 179e 00       		.byte	0
 17470 179f 00       		.byte	0
 17471 17a0 00       		.byte	0
 17472 17a1 00       		.byte	0
 17473 17a2 00       		.byte	0
 17474 17a3 00       		.byte	0
 17475 17a4 00       		.byte	0
 17476 17a5 00       		.byte	0
 17477 17a6 0C       		.byte	12
 17478 17a7 00       		.byte	0
 17479 17a8 00       		.byte	0
 17480 17a9 0C       		.byte	12
 17481 17aa 00       		.byte	0
 17482 17ab 00       		.byte	0
 17483 17ac 0C       		.byte	12
 17484 17ad 00       		.byte	0
 17485 17ae 00       		.byte	0
 17486 17af 0C       		.byte	12
 17487 17b0 00       		.byte	0
 17488 17b1 00       		.byte	0
 17489 17b2 3F       		.byte	63
 17490 17b3 F0       		.byte	-16
 17491 17b4 00       		.byte	0
 17492 17b5 3F       		.byte	63
 17493 17b6 F0       		.byte	-16
ARM GAS  D:\Programs\cygwin64\tmp\ccnP8CjY.s 			page 306


 17494 17b7 00       		.byte	0
 17495 17b8 0C       		.byte	12
 17496 17b9 00       		.byte	0
 17497 17ba 00       		.byte	0
 17498 17bb 0C       		.byte	12
 17499 17bc 00       		.byte	0
 17500 17bd 00       		.byte	0
 17501 17be 0C       		.byte	12
 17502 17bf 00       		.byte	0
 17503 17c0 00       		.byte	0
 17504 17c1 0C       		.byte	12
 17505 17c2 00       		.byte	0
 17506 17c3 00       		.byte	0
 17507 17c4 0C       		.byte	12
 17508 17c5 00       		.byte	0
 17509 17c6 00       		.byte	0
 17510 17c7 0C       		.byte	12
 17511 17c8 00       		.byte	0
 17512 17c9 00       		.byte	0
 17513 17ca 0C       		.byte	12
 17514 17cb 1C       		.byte	28
 17515 17cc 00       		.byte	0
 17516 17cd 07       		.byte	7
 17517 17ce FC       		.byte	-4
 17518 17cf 00       		.byte	0
 17519 17d0 03       		.byte	3
 17520 17d1 F0       		.byte	-16
 17521 17d2 00       		.byte	0
 17522 17d3 00       		.byte	0
 17523 17d4 00       		.byte	0
 17524 17d5 00       		.byte	0
 17525 17d6 00       		.byte	0
 17526 17d7 00       		.byte	0
 17527 17d8 00       		.byte	0
 17528 17d9 00       		.byte	0
 17529 17da 00       		.byte	0
 17530 17db 00       		.byte	0
 17531 17dc 00       		.byte	0
 17532 17dd 00       		.byte	0
 17533 17de 00       		.byte	0
 17534 17df 00       		.byte	0
 17535 17e0 00       		.byte	0
 17536 17e1 00       		.byte	0
 17537 17e2 00       		.byte	0
 17538 17e3 00       		.byte	0
 17539 17e4 00       		.byte	0
 17540 17e5 00       		.byte	0
 17541 17e6 00       		.byte	0
 17542 17e7 00       		.byte	0
 17543 17e8 00       		.byte	0
 17544 17e9 00       		.byte	0
 17545 17ea 00       		.byte	0
 17546 17eb 00       		.byte	0
 17547 17ec 00       		.byte	0
 17548 17ed 00       		.byte	0
 17549 17ee 00       		.byte	0
 17550 17ef 00       		.byte	0
ARM GAS  D:\Programs\cygwin64\tmp\ccnP8CjY.s 			page 307


 17551 17f0 00       		.byte	0
 17552 17f1 00       		.byte	0
 17553 17f2 00       		.byte	0
 17554 17f3 00       		.byte	0
 17555 17f4 00       		.byte	0
 17556 17f5 00       		.byte	0
 17557 17f6 00       		.byte	0
 17558 17f7 00       		.byte	0
 17559 17f8 00       		.byte	0
 17560 17f9 00       		.byte	0
 17561 17fa 78       		.byte	120
 17562 17fb 78       		.byte	120
 17563 17fc 00       		.byte	0
 17564 17fd 78       		.byte	120
 17565 17fe 78       		.byte	120
 17566 17ff 00       		.byte	0
 17567 1800 18       		.byte	24
 17568 1801 18       		.byte	24
 17569 1802 00       		.byte	0
 17570 1803 18       		.byte	24
 17571 1804 18       		.byte	24
 17572 1805 00       		.byte	0
 17573 1806 18       		.byte	24
 17574 1807 18       		.byte	24
 17575 1808 00       		.byte	0
 17576 1809 18       		.byte	24
 17577 180a 18       		.byte	24
 17578 180b 00       		.byte	0
 17579 180c 18       		.byte	24
 17580 180d 18       		.byte	24
 17581 180e 00       		.byte	0
 17582 180f 18       		.byte	24
 17583 1810 18       		.byte	24
 17584 1811 00       		.byte	0
 17585 1812 18       		.byte	24
 17586 1813 38       		.byte	56
 17587 1814 00       		.byte	0
 17588 1815 0F       		.byte	15
 17589 1816 FE       		.byte	-2
 17590 1817 00       		.byte	0
 17591 1818 07       		.byte	7
 17592 1819 DE       		.byte	-34
 17593 181a 00       		.byte	0
 17594 181b 00       		.byte	0
 17595 181c 00       		.byte	0
 17596 181d 00       		.byte	0
 17597 181e 00       		.byte	0
 17598 181f 00       		.byte	0
 17599 1820 00       		.byte	0
 17600 1821 00       		.byte	0
 17601 1822 00       		.byte	0
 17602 1823 00       		.byte	0
 17603 1824 00       		.byte	0
 17604 1825 00       		.byte	0
 17605 1826 00       		.byte	0
 17606 1827 00       		.byte	0
 17607 1828 00       		.byte	0
ARM GAS  D:\Programs\cygwin64\tmp\ccnP8CjY.s 			page 308


 17608 1829 00       		.byte	0
 17609 182a 00       		.byte	0
 17610 182b 00       		.byte	0
 17611 182c 00       		.byte	0
 17612 182d 00       		.byte	0
 17613 182e 00       		.byte	0
 17614 182f 00       		.byte	0
 17615 1830 00       		.byte	0
 17616 1831 00       		.byte	0
 17617 1832 00       		.byte	0
 17618 1833 00       		.byte	0
 17619 1834 00       		.byte	0
 17620 1835 00       		.byte	0
 17621 1836 00       		.byte	0
 17622 1837 00       		.byte	0
 17623 1838 00       		.byte	0
 17624 1839 00       		.byte	0
 17625 183a 00       		.byte	0
 17626 183b 00       		.byte	0
 17627 183c 00       		.byte	0
 17628 183d 00       		.byte	0
 17629 183e 00       		.byte	0
 17630 183f 00       		.byte	0
 17631 1840 00       		.byte	0
 17632 1841 00       		.byte	0
 17633 1842 7C       		.byte	124
 17634 1843 3E       		.byte	62
 17635 1844 00       		.byte	0
 17636 1845 7C       		.byte	124
 17637 1846 3E       		.byte	62
 17638 1847 00       		.byte	0
 17639 1848 18       		.byte	24
 17640 1849 18       		.byte	24
 17641 184a 00       		.byte	0
 17642 184b 18       		.byte	24
 17643 184c 18       		.byte	24
 17644 184d 00       		.byte	0
 17645 184e 0C       		.byte	12
 17646 184f 30       		.byte	48
 17647 1850 00       		.byte	0
 17648 1851 0C       		.byte	12
 17649 1852 30       		.byte	48
 17650 1853 00       		.byte	0
 17651 1854 06       		.byte	6
 17652 1855 60       		.byte	96
 17653 1856 00       		.byte	0
 17654 1857 06       		.byte	6
 17655 1858 60       		.byte	96
 17656 1859 00       		.byte	0
 17657 185a 07       		.byte	7
 17658 185b E0       		.byte	-32
 17659 185c 00       		.byte	0
 17660 185d 03       		.byte	3
 17661 185e C0       		.byte	-64
 17662 185f 00       		.byte	0
 17663 1860 03       		.byte	3
 17664 1861 C0       		.byte	-64
ARM GAS  D:\Programs\cygwin64\tmp\ccnP8CjY.s 			page 309


 17665 1862 00       		.byte	0
 17666 1863 00       		.byte	0
 17667 1864 00       		.byte	0
 17668 1865 00       		.byte	0
 17669 1866 00       		.byte	0
 17670 1867 00       		.byte	0
 17671 1868 00       		.byte	0
 17672 1869 00       		.byte	0
 17673 186a 00       		.byte	0
 17674 186b 00       		.byte	0
 17675 186c 00       		.byte	0
 17676 186d 00       		.byte	0
 17677 186e 00       		.byte	0
 17678 186f 00       		.byte	0
 17679 1870 00       		.byte	0
 17680 1871 00       		.byte	0
 17681 1872 00       		.byte	0
 17682 1873 00       		.byte	0
 17683 1874 00       		.byte	0
 17684 1875 00       		.byte	0
 17685 1876 00       		.byte	0
 17686 1877 00       		.byte	0
 17687 1878 00       		.byte	0
 17688 1879 00       		.byte	0
 17689 187a 00       		.byte	0
 17690 187b 00       		.byte	0
 17691 187c 00       		.byte	0
 17692 187d 00       		.byte	0
 17693 187e 00       		.byte	0
 17694 187f 00       		.byte	0
 17695 1880 00       		.byte	0
 17696 1881 00       		.byte	0
 17697 1882 00       		.byte	0
 17698 1883 00       		.byte	0
 17699 1884 00       		.byte	0
 17700 1885 00       		.byte	0
 17701 1886 00       		.byte	0
 17702 1887 00       		.byte	0
 17703 1888 00       		.byte	0
 17704 1889 00       		.byte	0
 17705 188a 78       		.byte	120
 17706 188b 3C       		.byte	60
 17707 188c 00       		.byte	0
 17708 188d 78       		.byte	120
 17709 188e 3C       		.byte	60
 17710 188f 00       		.byte	0
 17711 1890 31       		.byte	49
 17712 1891 18       		.byte	24
 17713 1892 00       		.byte	0
 17714 1893 33       		.byte	51
 17715 1894 98       		.byte	-104
 17716 1895 00       		.byte	0
 17717 1896 33       		.byte	51
 17718 1897 98       		.byte	-104
 17719 1898 00       		.byte	0
 17720 1899 1A       		.byte	26
 17721 189a B0       		.byte	-80
ARM GAS  D:\Programs\cygwin64\tmp\ccnP8CjY.s 			page 310


 17722 189b 00       		.byte	0
 17723 189c 1E       		.byte	30
 17724 189d F0       		.byte	-16
 17725 189e 00       		.byte	0
 17726 189f 1E       		.byte	30
 17727 18a0 F0       		.byte	-16
 17728 18a1 00       		.byte	0
 17729 18a2 1C       		.byte	28
 17730 18a3 60       		.byte	96
 17731 18a4 00       		.byte	0
 17732 18a5 0C       		.byte	12
 17733 18a6 60       		.byte	96
 17734 18a7 00       		.byte	0
 17735 18a8 0C       		.byte	12
 17736 18a9 60       		.byte	96
 17737 18aa 00       		.byte	0
 17738 18ab 00       		.byte	0
 17739 18ac 00       		.byte	0
 17740 18ad 00       		.byte	0
 17741 18ae 00       		.byte	0
 17742 18af 00       		.byte	0
 17743 18b0 00       		.byte	0
 17744 18b1 00       		.byte	0
 17745 18b2 00       		.byte	0
 17746 18b3 00       		.byte	0
 17747 18b4 00       		.byte	0
 17748 18b5 00       		.byte	0
 17749 18b6 00       		.byte	0
 17750 18b7 00       		.byte	0
 17751 18b8 00       		.byte	0
 17752 18b9 00       		.byte	0
 17753 18ba 00       		.byte	0
 17754 18bb 00       		.byte	0
 17755 18bc 00       		.byte	0
 17756 18bd 00       		.byte	0
 17757 18be 00       		.byte	0
 17758 18bf 00       		.byte	0
 17759 18c0 00       		.byte	0
 17760 18c1 00       		.byte	0
 17761 18c2 00       		.byte	0
 17762 18c3 00       		.byte	0
 17763 18c4 00       		.byte	0
 17764 18c5 00       		.byte	0
 17765 18c6 00       		.byte	0
 17766 18c7 00       		.byte	0
 17767 18c8 00       		.byte	0
 17768 18c9 00       		.byte	0
 17769 18ca 00       		.byte	0
 17770 18cb 00       		.byte	0
 17771 18cc 00       		.byte	0
 17772 18cd 00       		.byte	0
 17773 18ce 00       		.byte	0
 17774 18cf 00       		.byte	0
 17775 18d0 00       		.byte	0
 17776 18d1 00       		.byte	0
 17777 18d2 3E       		.byte	62
 17778 18d3 7C       		.byte	124
ARM GAS  D:\Programs\cygwin64\tmp\ccnP8CjY.s 			page 311


 17779 18d4 00       		.byte	0
 17780 18d5 3E       		.byte	62
 17781 18d6 7C       		.byte	124
 17782 18d7 00       		.byte	0
 17783 18d8 0C       		.byte	12
 17784 18d9 30       		.byte	48
 17785 18da 00       		.byte	0
 17786 18db 06       		.byte	6
 17787 18dc 60       		.byte	96
 17788 18dd 00       		.byte	0
 17789 18de 03       		.byte	3
 17790 18df C0       		.byte	-64
 17791 18e0 00       		.byte	0
 17792 18e1 01       		.byte	1
 17793 18e2 80       		.byte	-128
 17794 18e3 00       		.byte	0
 17795 18e4 03       		.byte	3
 17796 18e5 C0       		.byte	-64
 17797 18e6 00       		.byte	0
 17798 18e7 06       		.byte	6
 17799 18e8 60       		.byte	96
 17800 18e9 00       		.byte	0
 17801 18ea 0C       		.byte	12
 17802 18eb 30       		.byte	48
 17803 18ec 00       		.byte	0
 17804 18ed 3E       		.byte	62
 17805 18ee 7C       		.byte	124
 17806 18ef 00       		.byte	0
 17807 18f0 3E       		.byte	62
 17808 18f1 7C       		.byte	124
 17809 18f2 00       		.byte	0
 17810 18f3 00       		.byte	0
 17811 18f4 00       		.byte	0
 17812 18f5 00       		.byte	0
 17813 18f6 00       		.byte	0
 17814 18f7 00       		.byte	0
 17815 18f8 00       		.byte	0
 17816 18f9 00       		.byte	0
 17817 18fa 00       		.byte	0
 17818 18fb 00       		.byte	0
 17819 18fc 00       		.byte	0
 17820 18fd 00       		.byte	0
 17821 18fe 00       		.byte	0
 17822 18ff 00       		.byte	0
 17823 1900 00       		.byte	0
 17824 1901 00       		.byte	0
 17825 1902 00       		.byte	0
 17826 1903 00       		.byte	0
 17827 1904 00       		.byte	0
 17828 1905 00       		.byte	0
 17829 1906 00       		.byte	0
 17830 1907 00       		.byte	0
 17831 1908 00       		.byte	0
 17832 1909 00       		.byte	0
 17833 190a 00       		.byte	0
 17834 190b 00       		.byte	0
 17835 190c 00       		.byte	0
ARM GAS  D:\Programs\cygwin64\tmp\ccnP8CjY.s 			page 312


 17836 190d 00       		.byte	0
 17837 190e 00       		.byte	0
 17838 190f 00       		.byte	0
 17839 1910 00       		.byte	0
 17840 1911 00       		.byte	0
 17841 1912 00       		.byte	0
 17842 1913 00       		.byte	0
 17843 1914 00       		.byte	0
 17844 1915 00       		.byte	0
 17845 1916 00       		.byte	0
 17846 1917 00       		.byte	0
 17847 1918 00       		.byte	0
 17848 1919 00       		.byte	0
 17849 191a 7E       		.byte	126
 17850 191b 1F       		.byte	31
 17851 191c 00       		.byte	0
 17852 191d 7E       		.byte	126
 17853 191e 1F       		.byte	31
 17854 191f 00       		.byte	0
 17855 1920 18       		.byte	24
 17856 1921 0C       		.byte	12
 17857 1922 00       		.byte	0
 17858 1923 0C       		.byte	12
 17859 1924 18       		.byte	24
 17860 1925 00       		.byte	0
 17861 1926 0C       		.byte	12
 17862 1927 18       		.byte	24
 17863 1928 00       		.byte	0
 17864 1929 06       		.byte	6
 17865 192a 30       		.byte	48
 17866 192b 00       		.byte	0
 17867 192c 06       		.byte	6
 17868 192d 30       		.byte	48
 17869 192e 00       		.byte	0
 17870 192f 03       		.byte	3
 17871 1930 60       		.byte	96
 17872 1931 00       		.byte	0
 17873 1932 03       		.byte	3
 17874 1933 E0       		.byte	-32
 17875 1934 00       		.byte	0
 17876 1935 01       		.byte	1
 17877 1936 C0       		.byte	-64
 17878 1937 00       		.byte	0
 17879 1938 00       		.byte	0
 17880 1939 C0       		.byte	-64
 17881 193a 00       		.byte	0
 17882 193b 01       		.byte	1
 17883 193c 80       		.byte	-128
 17884 193d 00       		.byte	0
 17885 193e 01       		.byte	1
 17886 193f 80       		.byte	-128
 17887 1940 00       		.byte	0
 17888 1941 03       		.byte	3
 17889 1942 00       		.byte	0
 17890 1943 00       		.byte	0
 17891 1944 3F       		.byte	63
 17892 1945 C0       		.byte	-64
ARM GAS  D:\Programs\cygwin64\tmp\ccnP8CjY.s 			page 313


 17893 1946 00       		.byte	0
 17894 1947 3F       		.byte	63
 17895 1948 C0       		.byte	-64
 17896 1949 00       		.byte	0
 17897 194a 00       		.byte	0
 17898 194b 00       		.byte	0
 17899 194c 00       		.byte	0
 17900 194d 00       		.byte	0
 17901 194e 00       		.byte	0
 17902 194f 00       		.byte	0
 17903 1950 00       		.byte	0
 17904 1951 00       		.byte	0
 17905 1952 00       		.byte	0
 17906 1953 00       		.byte	0
 17907 1954 00       		.byte	0
 17908 1955 00       		.byte	0
 17909 1956 00       		.byte	0
 17910 1957 00       		.byte	0
 17911 1958 00       		.byte	0
 17912 1959 00       		.byte	0
 17913 195a 00       		.byte	0
 17914 195b 00       		.byte	0
 17915 195c 00       		.byte	0
 17916 195d 00       		.byte	0
 17917 195e 00       		.byte	0
 17918 195f 00       		.byte	0
 17919 1960 00       		.byte	0
 17920 1961 00       		.byte	0
 17921 1962 1F       		.byte	31
 17922 1963 F8       		.byte	-8
 17923 1964 00       		.byte	0
 17924 1965 1F       		.byte	31
 17925 1966 F8       		.byte	-8
 17926 1967 00       		.byte	0
 17927 1968 18       		.byte	24
 17928 1969 30       		.byte	48
 17929 196a 00       		.byte	0
 17930 196b 18       		.byte	24
 17931 196c 60       		.byte	96
 17932 196d 00       		.byte	0
 17933 196e 00       		.byte	0
 17934 196f C0       		.byte	-64
 17935 1970 00       		.byte	0
 17936 1971 01       		.byte	1
 17937 1972 80       		.byte	-128
 17938 1973 00       		.byte	0
 17939 1974 03       		.byte	3
 17940 1975 00       		.byte	0
 17941 1976 00       		.byte	0
 17942 1977 06       		.byte	6
 17943 1978 18       		.byte	24
 17944 1979 00       		.byte	0
 17945 197a 0C       		.byte	12
 17946 197b 18       		.byte	24
 17947 197c 00       		.byte	0
 17948 197d 1F       		.byte	31
 17949 197e F8       		.byte	-8
ARM GAS  D:\Programs\cygwin64\tmp\ccnP8CjY.s 			page 314


 17950 197f 00       		.byte	0
 17951 1980 1F       		.byte	31
 17952 1981 F8       		.byte	-8
 17953 1982 00       		.byte	0
 17954 1983 00       		.byte	0
 17955 1984 00       		.byte	0
 17956 1985 00       		.byte	0
 17957 1986 00       		.byte	0
 17958 1987 00       		.byte	0
 17959 1988 00       		.byte	0
 17960 1989 00       		.byte	0
 17961 198a 00       		.byte	0
 17962 198b 00       		.byte	0
 17963 198c 00       		.byte	0
 17964 198d 00       		.byte	0
 17965 198e 00       		.byte	0
 17966 198f 00       		.byte	0
 17967 1990 00       		.byte	0
 17968 1991 00       		.byte	0
 17969 1992 00       		.byte	0
 17970 1993 00       		.byte	0
 17971 1994 00       		.byte	0
 17972 1995 00       		.byte	0
 17973 1996 00       		.byte	0
 17974 1997 00       		.byte	0
 17975 1998 00       		.byte	0
 17976 1999 00       		.byte	0
 17977 199a 00       		.byte	0
 17978 199b 00       		.byte	0
 17979 199c 00       		.byte	0
 17980 199d 00       		.byte	0
 17981 199e 00       		.byte	0
 17982 199f E0       		.byte	-32
 17983 19a0 00       		.byte	0
 17984 19a1 01       		.byte	1
 17985 19a2 E0       		.byte	-32
 17986 19a3 00       		.byte	0
 17987 19a4 01       		.byte	1
 17988 19a5 80       		.byte	-128
 17989 19a6 00       		.byte	0
 17990 19a7 01       		.byte	1
 17991 19a8 80       		.byte	-128
 17992 19a9 00       		.byte	0
 17993 19aa 01       		.byte	1
 17994 19ab 80       		.byte	-128
 17995 19ac 00       		.byte	0
 17996 19ad 01       		.byte	1
 17997 19ae 80       		.byte	-128
 17998 19af 00       		.byte	0
 17999 19b0 01       		.byte	1
 18000 19b1 80       		.byte	-128
 18001 19b2 00       		.byte	0
 18002 19b3 01       		.byte	1
 18003 19b4 80       		.byte	-128
 18004 19b5 00       		.byte	0
 18005 19b6 03       		.byte	3
 18006 19b7 80       		.byte	-128
ARM GAS  D:\Programs\cygwin64\tmp\ccnP8CjY.s 			page 315


 18007 19b8 00       		.byte	0
 18008 19b9 07       		.byte	7
 18009 19ba 00       		.byte	0
 18010 19bb 00       		.byte	0
 18011 19bc 03       		.byte	3
 18012 19bd 80       		.byte	-128
 18013 19be 00       		.byte	0
 18014 19bf 01       		.byte	1
 18015 19c0 80       		.byte	-128
 18016 19c1 00       		.byte	0
 18017 19c2 01       		.byte	1
 18018 19c3 80       		.byte	-128
 18019 19c4 00       		.byte	0
 18020 19c5 01       		.byte	1
 18021 19c6 80       		.byte	-128
 18022 19c7 00       		.byte	0
 18023 19c8 01       		.byte	1
 18024 19c9 80       		.byte	-128
 18025 19ca 00       		.byte	0
 18026 19cb 01       		.byte	1
 18027 19cc 80       		.byte	-128
 18028 19cd 00       		.byte	0
 18029 19ce 01       		.byte	1
 18030 19cf E0       		.byte	-32
 18031 19d0 00       		.byte	0
 18032 19d1 00       		.byte	0
 18033 19d2 E0       		.byte	-32
 18034 19d3 00       		.byte	0
 18035 19d4 00       		.byte	0
 18036 19d5 00       		.byte	0
 18037 19d6 00       		.byte	0
 18038 19d7 00       		.byte	0
 18039 19d8 00       		.byte	0
 18040 19d9 00       		.byte	0
 18041 19da 00       		.byte	0
 18042 19db 00       		.byte	0
 18043 19dc 00       		.byte	0
 18044 19dd 00       		.byte	0
 18045 19de 00       		.byte	0
 18046 19df 00       		.byte	0
 18047 19e0 00       		.byte	0
 18048 19e1 00       		.byte	0
 18049 19e2 00       		.byte	0
 18050 19e3 00       		.byte	0
 18051 19e4 00       		.byte	0
 18052 19e5 00       		.byte	0
 18053 19e6 01       		.byte	1
 18054 19e7 80       		.byte	-128
 18055 19e8 00       		.byte	0
 18056 19e9 01       		.byte	1
 18057 19ea 80       		.byte	-128
 18058 19eb 00       		.byte	0
 18059 19ec 01       		.byte	1
 18060 19ed 80       		.byte	-128
 18061 19ee 00       		.byte	0
 18062 19ef 01       		.byte	1
 18063 19f0 80       		.byte	-128
ARM GAS  D:\Programs\cygwin64\tmp\ccnP8CjY.s 			page 316


 18064 19f1 00       		.byte	0
 18065 19f2 01       		.byte	1
 18066 19f3 80       		.byte	-128
 18067 19f4 00       		.byte	0
 18068 19f5 01       		.byte	1
 18069 19f6 80       		.byte	-128
 18070 19f7 00       		.byte	0
 18071 19f8 01       		.byte	1
 18072 19f9 80       		.byte	-128
 18073 19fa 00       		.byte	0
 18074 19fb 01       		.byte	1
 18075 19fc 80       		.byte	-128
 18076 19fd 00       		.byte	0
 18077 19fe 01       		.byte	1
 18078 19ff 80       		.byte	-128
 18079 1a00 00       		.byte	0
 18080 1a01 01       		.byte	1
 18081 1a02 80       		.byte	-128
 18082 1a03 00       		.byte	0
 18083 1a04 01       		.byte	1
 18084 1a05 80       		.byte	-128
 18085 1a06 00       		.byte	0
 18086 1a07 01       		.byte	1
 18087 1a08 80       		.byte	-128
 18088 1a09 00       		.byte	0
 18089 1a0a 01       		.byte	1
 18090 1a0b 80       		.byte	-128
 18091 1a0c 00       		.byte	0
 18092 1a0d 01       		.byte	1
 18093 1a0e 80       		.byte	-128
 18094 1a0f 00       		.byte	0
 18095 1a10 01       		.byte	1
 18096 1a11 80       		.byte	-128
 18097 1a12 00       		.byte	0
 18098 1a13 01       		.byte	1
 18099 1a14 80       		.byte	-128
 18100 1a15 00       		.byte	0
 18101 1a16 01       		.byte	1
 18102 1a17 80       		.byte	-128
 18103 1a18 00       		.byte	0
 18104 1a19 01       		.byte	1
 18105 1a1a 80       		.byte	-128
 18106 1a1b 00       		.byte	0
 18107 1a1c 00       		.byte	0
 18108 1a1d 00       		.byte	0
 18109 1a1e 00       		.byte	0
 18110 1a1f 00       		.byte	0
 18111 1a20 00       		.byte	0
 18112 1a21 00       		.byte	0
 18113 1a22 00       		.byte	0
 18114 1a23 00       		.byte	0
 18115 1a24 00       		.byte	0
 18116 1a25 00       		.byte	0
 18117 1a26 00       		.byte	0
 18118 1a27 00       		.byte	0
 18119 1a28 00       		.byte	0
 18120 1a29 00       		.byte	0
ARM GAS  D:\Programs\cygwin64\tmp\ccnP8CjY.s 			page 317


 18121 1a2a 00       		.byte	0
 18122 1a2b 00       		.byte	0
 18123 1a2c 00       		.byte	0
 18124 1a2d 00       		.byte	0
 18125 1a2e 07       		.byte	7
 18126 1a2f 00       		.byte	0
 18127 1a30 00       		.byte	0
 18128 1a31 07       		.byte	7
 18129 1a32 80       		.byte	-128
 18130 1a33 00       		.byte	0
 18131 1a34 01       		.byte	1
 18132 1a35 80       		.byte	-128
 18133 1a36 00       		.byte	0
 18134 1a37 01       		.byte	1
 18135 1a38 80       		.byte	-128
 18136 1a39 00       		.byte	0
 18137 1a3a 01       		.byte	1
 18138 1a3b 80       		.byte	-128
 18139 1a3c 00       		.byte	0
 18140 1a3d 01       		.byte	1
 18141 1a3e 80       		.byte	-128
 18142 1a3f 00       		.byte	0
 18143 1a40 01       		.byte	1
 18144 1a41 80       		.byte	-128
 18145 1a42 00       		.byte	0
 18146 1a43 01       		.byte	1
 18147 1a44 80       		.byte	-128
 18148 1a45 00       		.byte	0
 18149 1a46 01       		.byte	1
 18150 1a47 C0       		.byte	-64
 18151 1a48 00       		.byte	0
 18152 1a49 00       		.byte	0
 18153 1a4a E0       		.byte	-32
 18154 1a4b 00       		.byte	0
 18155 1a4c 01       		.byte	1
 18156 1a4d C0       		.byte	-64
 18157 1a4e 00       		.byte	0
 18158 1a4f 01       		.byte	1
 18159 1a50 80       		.byte	-128
 18160 1a51 00       		.byte	0
 18161 1a52 01       		.byte	1
 18162 1a53 80       		.byte	-128
 18163 1a54 00       		.byte	0
 18164 1a55 01       		.byte	1
 18165 1a56 80       		.byte	-128
 18166 1a57 00       		.byte	0
 18167 1a58 01       		.byte	1
 18168 1a59 80       		.byte	-128
 18169 1a5a 00       		.byte	0
 18170 1a5b 01       		.byte	1
 18171 1a5c 80       		.byte	-128
 18172 1a5d 00       		.byte	0
 18173 1a5e 07       		.byte	7
 18174 1a5f 80       		.byte	-128
 18175 1a60 00       		.byte	0
 18176 1a61 07       		.byte	7
 18177 1a62 00       		.byte	0
ARM GAS  D:\Programs\cygwin64\tmp\ccnP8CjY.s 			page 318


 18178 1a63 00       		.byte	0
 18179 1a64 00       		.byte	0
 18180 1a65 00       		.byte	0
 18181 1a66 00       		.byte	0
 18182 1a67 00       		.byte	0
 18183 1a68 00       		.byte	0
 18184 1a69 00       		.byte	0
 18185 1a6a 00       		.byte	0
 18186 1a6b 00       		.byte	0
 18187 1a6c 00       		.byte	0
 18188 1a6d 00       		.byte	0
 18189 1a6e 00       		.byte	0
 18190 1a6f 00       		.byte	0
 18191 1a70 00       		.byte	0
 18192 1a71 00       		.byte	0
 18193 1a72 00       		.byte	0
 18194 1a73 00       		.byte	0
 18195 1a74 00       		.byte	0
 18196 1a75 00       		.byte	0
 18197 1a76 00       		.byte	0
 18198 1a77 00       		.byte	0
 18199 1a78 00       		.byte	0
 18200 1a79 00       		.byte	0
 18201 1a7a 00       		.byte	0
 18202 1a7b 00       		.byte	0
 18203 1a7c 00       		.byte	0
 18204 1a7d 00       		.byte	0
 18205 1a7e 00       		.byte	0
 18206 1a7f 00       		.byte	0
 18207 1a80 00       		.byte	0
 18208 1a81 00       		.byte	0
 18209 1a82 00       		.byte	0
 18210 1a83 00       		.byte	0
 18211 1a84 00       		.byte	0
 18212 1a85 00       		.byte	0
 18213 1a86 00       		.byte	0
 18214 1a87 00       		.byte	0
 18215 1a88 0E       		.byte	14
 18216 1a89 00       		.byte	0
 18217 1a8a 00       		.byte	0
 18218 1a8b 1F       		.byte	31
 18219 1a8c 18       		.byte	24
 18220 1a8d 00       		.byte	0
 18221 1a8e 3B       		.byte	59
 18222 1a8f B8       		.byte	-72
 18223 1a90 00       		.byte	0
 18224 1a91 31       		.byte	49
 18225 1a92 F0       		.byte	-16
 18226 1a93 00       		.byte	0
 18227 1a94 00       		.byte	0
 18228 1a95 E0       		.byte	-32
 18229 1a96 00       		.byte	0
 18230 1a97 00       		.byte	0
 18231 1a98 00       		.byte	0
 18232 1a99 00       		.byte	0
 18233 1a9a 00       		.byte	0
 18234 1a9b 00       		.byte	0
ARM GAS  D:\Programs\cygwin64\tmp\ccnP8CjY.s 			page 319


 18235 1a9c 00       		.byte	0
 18236 1a9d 00       		.byte	0
 18237 1a9e 00       		.byte	0
 18238 1a9f 00       		.byte	0
 18239 1aa0 00       		.byte	0
 18240 1aa1 00       		.byte	0
 18241 1aa2 00       		.byte	0
 18242 1aa3 00       		.byte	0
 18243 1aa4 00       		.byte	0
 18244 1aa5 00       		.byte	0
 18245 1aa6 00       		.byte	0
 18246 1aa7 00       		.byte	0
 18247 1aa8 00       		.byte	0
 18248 1aa9 00       		.byte	0
 18249 1aaa 00       		.byte	0
 18250 1aab 00       		.byte	0
 18251 1aac 00       		.byte	0
 18252 1aad 00       		.byte	0
 18253 1aae 00       		.byte	0
 18254 1aaf 00       		.byte	0
 18255 1ab0 00       		.byte	0
 18256 1ab1 00       		.byte	0
 18257 1ab2 00       		.byte	0
 18258 1ab3 00       		.byte	0
 18259 1ab4 00       		.byte	0
 18260 1ab5 00       		.byte	0
 18261 1ab6 00       		.byte	0
 18262 1ab7 00       		.byte	0
 18263              		.section	.rodata.Font8_Table,"a"
 18264              		.align	2
 18267              	Font8_Table:
 18268 0000 00       		.byte	0
 18269 0001 00       		.byte	0
 18270 0002 00       		.byte	0
 18271 0003 00       		.byte	0
 18272 0004 00       		.byte	0
 18273 0005 00       		.byte	0
 18274 0006 00       		.byte	0
 18275 0007 00       		.byte	0
 18276 0008 20       		.byte	32
 18277 0009 20       		.byte	32
 18278 000a 20       		.byte	32
 18279 000b 20       		.byte	32
 18280 000c 00       		.byte	0
 18281 000d 20       		.byte	32
 18282 000e 00       		.byte	0
 18283 000f 00       		.byte	0
 18284 0010 50       		.byte	80
 18285 0011 50       		.byte	80
 18286 0012 00       		.byte	0
 18287 0013 00       		.byte	0
 18288 0014 00       		.byte	0
 18289 0015 00       		.byte	0
 18290 0016 00       		.byte	0
 18291 0017 00       		.byte	0
 18292 0018 28       		.byte	40
 18293 0019 50       		.byte	80
ARM GAS  D:\Programs\cygwin64\tmp\ccnP8CjY.s 			page 320


 18294 001a F8       		.byte	-8
 18295 001b 50       		.byte	80
 18296 001c F8       		.byte	-8
 18297 001d 50       		.byte	80
 18298 001e A0       		.byte	-96
 18299 001f 00       		.byte	0
 18300 0020 20       		.byte	32
 18301 0021 30       		.byte	48
 18302 0022 60       		.byte	96
 18303 0023 30       		.byte	48
 18304 0024 10       		.byte	16
 18305 0025 60       		.byte	96
 18306 0026 20       		.byte	32
 18307 0027 00       		.byte	0
 18308 0028 20       		.byte	32
 18309 0029 20       		.byte	32
 18310 002a 18       		.byte	24
 18311 002b 60       		.byte	96
 18312 002c 10       		.byte	16
 18313 002d 10       		.byte	16
 18314 002e 00       		.byte	0
 18315 002f 00       		.byte	0
 18316 0030 00       		.byte	0
 18317 0031 38       		.byte	56
 18318 0032 20       		.byte	32
 18319 0033 60       		.byte	96
 18320 0034 50       		.byte	80
 18321 0035 78       		.byte	120
 18322 0036 00       		.byte	0
 18323 0037 00       		.byte	0
 18324 0038 20       		.byte	32
 18325 0039 20       		.byte	32
 18326 003a 20       		.byte	32
 18327 003b 00       		.byte	0
 18328 003c 00       		.byte	0
 18329 003d 00       		.byte	0
 18330 003e 00       		.byte	0
 18331 003f 00       		.byte	0
 18332 0040 10       		.byte	16
 18333 0041 20       		.byte	32
 18334 0042 20       		.byte	32
 18335 0043 20       		.byte	32
 18336 0044 20       		.byte	32
 18337 0045 20       		.byte	32
 18338 0046 10       		.byte	16
 18339 0047 00       		.byte	0
 18340 0048 40       		.byte	64
 18341 0049 20       		.byte	32
 18342 004a 20       		.byte	32
 18343 004b 20       		.byte	32
 18344 004c 20       		.byte	32
 18345 004d 20       		.byte	32
 18346 004e 40       		.byte	64
 18347 004f 00       		.byte	0
 18348 0050 20       		.byte	32
 18349 0051 70       		.byte	112
 18350 0052 20       		.byte	32
ARM GAS  D:\Programs\cygwin64\tmp\ccnP8CjY.s 			page 321


 18351 0053 50       		.byte	80
 18352 0054 00       		.byte	0
 18353 0055 00       		.byte	0
 18354 0056 00       		.byte	0
 18355 0057 00       		.byte	0
 18356 0058 00       		.byte	0
 18357 0059 20       		.byte	32
 18358 005a 20       		.byte	32
 18359 005b F8       		.byte	-8
 18360 005c 20       		.byte	32
 18361 005d 20       		.byte	32
 18362 005e 00       		.byte	0
 18363 005f 00       		.byte	0
 18364 0060 00       		.byte	0
 18365 0061 00       		.byte	0
 18366 0062 00       		.byte	0
 18367 0063 00       		.byte	0
 18368 0064 10       		.byte	16
 18369 0065 20       		.byte	32
 18370 0066 20       		.byte	32
 18371 0067 00       		.byte	0
 18372 0068 00       		.byte	0
 18373 0069 00       		.byte	0
 18374 006a 00       		.byte	0
 18375 006b 70       		.byte	112
 18376 006c 00       		.byte	0
 18377 006d 00       		.byte	0
 18378 006e 00       		.byte	0
 18379 006f 00       		.byte	0
 18380 0070 00       		.byte	0
 18381 0071 00       		.byte	0
 18382 0072 00       		.byte	0
 18383 0073 00       		.byte	0
 18384 0074 00       		.byte	0
 18385 0075 20       		.byte	32
 18386 0076 00       		.byte	0
 18387 0077 00       		.byte	0
 18388 0078 10       		.byte	16
 18389 0079 20       		.byte	32
 18390 007a 20       		.byte	32
 18391 007b 20       		.byte	32
 18392 007c 40       		.byte	64
 18393 007d 40       		.byte	64
 18394 007e 80       		.byte	-128
 18395 007f 00       		.byte	0
 18396 0080 20       		.byte	32
 18397 0081 50       		.byte	80
 18398 0082 50       		.byte	80
 18399 0083 50       		.byte	80
 18400 0084 50       		.byte	80
 18401 0085 20       		.byte	32
 18402 0086 00       		.byte	0
 18403 0087 00       		.byte	0
 18404 0088 60       		.byte	96
 18405 0089 20       		.byte	32
 18406 008a 20       		.byte	32
 18407 008b 20       		.byte	32
ARM GAS  D:\Programs\cygwin64\tmp\ccnP8CjY.s 			page 322


 18408 008c 20       		.byte	32
 18409 008d F8       		.byte	-8
 18410 008e 00       		.byte	0
 18411 008f 00       		.byte	0
 18412 0090 20       		.byte	32
 18413 0091 50       		.byte	80
 18414 0092 20       		.byte	32
 18415 0093 20       		.byte	32
 18416 0094 40       		.byte	64
 18417 0095 70       		.byte	112
 18418 0096 00       		.byte	0
 18419 0097 00       		.byte	0
 18420 0098 20       		.byte	32
 18421 0099 50       		.byte	80
 18422 009a 10       		.byte	16
 18423 009b 20       		.byte	32
 18424 009c 10       		.byte	16
 18425 009d 60       		.byte	96
 18426 009e 00       		.byte	0
 18427 009f 00       		.byte	0
 18428 00a0 10       		.byte	16
 18429 00a1 30       		.byte	48
 18430 00a2 50       		.byte	80
 18431 00a3 78       		.byte	120
 18432 00a4 10       		.byte	16
 18433 00a5 38       		.byte	56
 18434 00a6 00       		.byte	0
 18435 00a7 00       		.byte	0
 18436 00a8 70       		.byte	112
 18437 00a9 40       		.byte	64
 18438 00aa 60       		.byte	96
 18439 00ab 10       		.byte	16
 18440 00ac 50       		.byte	80
 18441 00ad 20       		.byte	32
 18442 00ae 00       		.byte	0
 18443 00af 00       		.byte	0
 18444 00b0 30       		.byte	48
 18445 00b1 40       		.byte	64
 18446 00b2 60       		.byte	96
 18447 00b3 50       		.byte	80
 18448 00b4 50       		.byte	80
 18449 00b5 60       		.byte	96
 18450 00b6 00       		.byte	0
 18451 00b7 00       		.byte	0
 18452 00b8 70       		.byte	112
 18453 00b9 50       		.byte	80
 18454 00ba 10       		.byte	16
 18455 00bb 20       		.byte	32
 18456 00bc 20       		.byte	32
 18457 00bd 20       		.byte	32
 18458 00be 00       		.byte	0
 18459 00bf 00       		.byte	0
 18460 00c0 20       		.byte	32
 18461 00c1 50       		.byte	80
 18462 00c2 20       		.byte	32
 18463 00c3 50       		.byte	80
 18464 00c4 50       		.byte	80
ARM GAS  D:\Programs\cygwin64\tmp\ccnP8CjY.s 			page 323


 18465 00c5 20       		.byte	32
 18466 00c6 00       		.byte	0
 18467 00c7 00       		.byte	0
 18468 00c8 30       		.byte	48
 18469 00c9 50       		.byte	80
 18470 00ca 50       		.byte	80
 18471 00cb 30       		.byte	48
 18472 00cc 10       		.byte	16
 18473 00cd 60       		.byte	96
 18474 00ce 00       		.byte	0
 18475 00cf 00       		.byte	0
 18476 00d0 00       		.byte	0
 18477 00d1 00       		.byte	0
 18478 00d2 20       		.byte	32
 18479 00d3 00       		.byte	0
 18480 00d4 00       		.byte	0
 18481 00d5 20       		.byte	32
 18482 00d6 00       		.byte	0
 18483 00d7 00       		.byte	0
 18484 00d8 00       		.byte	0
 18485 00d9 00       		.byte	0
 18486 00da 10       		.byte	16
 18487 00db 00       		.byte	0
 18488 00dc 10       		.byte	16
 18489 00dd 20       		.byte	32
 18490 00de 00       		.byte	0
 18491 00df 00       		.byte	0
 18492 00e0 00       		.byte	0
 18493 00e1 10       		.byte	16
 18494 00e2 20       		.byte	32
 18495 00e3 C0       		.byte	-64
 18496 00e4 20       		.byte	32
 18497 00e5 10       		.byte	16
 18498 00e6 00       		.byte	0
 18499 00e7 00       		.byte	0
 18500 00e8 00       		.byte	0
 18501 00e9 70       		.byte	112
 18502 00ea 00       		.byte	0
 18503 00eb 70       		.byte	112
 18504 00ec 00       		.byte	0
 18505 00ed 00       		.byte	0
 18506 00ee 00       		.byte	0
 18507 00ef 00       		.byte	0
 18508 00f0 00       		.byte	0
 18509 00f1 40       		.byte	64
 18510 00f2 20       		.byte	32
 18511 00f3 18       		.byte	24
 18512 00f4 20       		.byte	32
 18513 00f5 40       		.byte	64
 18514 00f6 00       		.byte	0
 18515 00f7 00       		.byte	0
 18516 00f8 20       		.byte	32
 18517 00f9 50       		.byte	80
 18518 00fa 10       		.byte	16
 18519 00fb 20       		.byte	32
 18520 00fc 00       		.byte	0
 18521 00fd 20       		.byte	32
ARM GAS  D:\Programs\cygwin64\tmp\ccnP8CjY.s 			page 324


 18522 00fe 00       		.byte	0
 18523 00ff 00       		.byte	0
 18524 0100 30       		.byte	48
 18525 0101 48       		.byte	72
 18526 0102 48       		.byte	72
 18527 0103 58       		.byte	88
 18528 0104 48       		.byte	72
 18529 0105 40       		.byte	64
 18530 0106 38       		.byte	56
 18531 0107 00       		.byte	0
 18532 0108 60       		.byte	96
 18533 0109 20       		.byte	32
 18534 010a 50       		.byte	80
 18535 010b 70       		.byte	112
 18536 010c 88       		.byte	-120
 18537 010d D8       		.byte	-40
 18538 010e 00       		.byte	0
 18539 010f 00       		.byte	0
 18540 0110 F0       		.byte	-16
 18541 0111 48       		.byte	72
 18542 0112 70       		.byte	112
 18543 0113 48       		.byte	72
 18544 0114 48       		.byte	72
 18545 0115 F0       		.byte	-16
 18546 0116 00       		.byte	0
 18547 0117 00       		.byte	0
 18548 0118 70       		.byte	112
 18549 0119 50       		.byte	80
 18550 011a 40       		.byte	64
 18551 011b 40       		.byte	64
 18552 011c 40       		.byte	64
 18553 011d 30       		.byte	48
 18554 011e 00       		.byte	0
 18555 011f 00       		.byte	0
 18556 0120 F0       		.byte	-16
 18557 0121 48       		.byte	72
 18558 0122 48       		.byte	72
 18559 0123 48       		.byte	72
 18560 0124 48       		.byte	72
 18561 0125 F0       		.byte	-16
 18562 0126 00       		.byte	0
 18563 0127 00       		.byte	0
 18564 0128 F8       		.byte	-8
 18565 0129 48       		.byte	72
 18566 012a 60       		.byte	96
 18567 012b 40       		.byte	64
 18568 012c 48       		.byte	72
 18569 012d F8       		.byte	-8
 18570 012e 00       		.byte	0
 18571 012f 00       		.byte	0
 18572 0130 F8       		.byte	-8
 18573 0131 48       		.byte	72
 18574 0132 60       		.byte	96
 18575 0133 40       		.byte	64
 18576 0134 40       		.byte	64
 18577 0135 E0       		.byte	-32
 18578 0136 00       		.byte	0
ARM GAS  D:\Programs\cygwin64\tmp\ccnP8CjY.s 			page 325


 18579 0137 00       		.byte	0
 18580 0138 70       		.byte	112
 18581 0139 40       		.byte	64
 18582 013a 40       		.byte	64
 18583 013b 58       		.byte	88
 18584 013c 50       		.byte	80
 18585 013d 30       		.byte	48
 18586 013e 00       		.byte	0
 18587 013f 00       		.byte	0
 18588 0140 E8       		.byte	-24
 18589 0141 48       		.byte	72
 18590 0142 78       		.byte	120
 18591 0143 48       		.byte	72
 18592 0144 48       		.byte	72
 18593 0145 E8       		.byte	-24
 18594 0146 00       		.byte	0
 18595 0147 00       		.byte	0
 18596 0148 70       		.byte	112
 18597 0149 20       		.byte	32
 18598 014a 20       		.byte	32
 18599 014b 20       		.byte	32
 18600 014c 20       		.byte	32
 18601 014d 70       		.byte	112
 18602 014e 00       		.byte	0
 18603 014f 00       		.byte	0
 18604 0150 38       		.byte	56
 18605 0151 10       		.byte	16
 18606 0152 10       		.byte	16
 18607 0153 50       		.byte	80
 18608 0154 50       		.byte	80
 18609 0155 20       		.byte	32
 18610 0156 00       		.byte	0
 18611 0157 00       		.byte	0
 18612 0158 D8       		.byte	-40
 18613 0159 50       		.byte	80
 18614 015a 60       		.byte	96
 18615 015b 70       		.byte	112
 18616 015c 50       		.byte	80
 18617 015d D8       		.byte	-40
 18618 015e 00       		.byte	0
 18619 015f 00       		.byte	0
 18620 0160 E0       		.byte	-32
 18621 0161 40       		.byte	64
 18622 0162 40       		.byte	64
 18623 0163 40       		.byte	64
 18624 0164 48       		.byte	72
 18625 0165 F8       		.byte	-8
 18626 0166 00       		.byte	0
 18627 0167 00       		.byte	0
 18628 0168 D8       		.byte	-40
 18629 0169 D8       		.byte	-40
 18630 016a D8       		.byte	-40
 18631 016b A8       		.byte	-88
 18632 016c 88       		.byte	-120
 18633 016d D8       		.byte	-40
 18634 016e 00       		.byte	0
 18635 016f 00       		.byte	0
ARM GAS  D:\Programs\cygwin64\tmp\ccnP8CjY.s 			page 326


 18636 0170 D8       		.byte	-40
 18637 0171 68       		.byte	104
 18638 0172 68       		.byte	104
 18639 0173 58       		.byte	88
 18640 0174 58       		.byte	88
 18641 0175 E8       		.byte	-24
 18642 0176 00       		.byte	0
 18643 0177 00       		.byte	0
 18644 0178 30       		.byte	48
 18645 0179 48       		.byte	72
 18646 017a 48       		.byte	72
 18647 017b 48       		.byte	72
 18648 017c 48       		.byte	72
 18649 017d 30       		.byte	48
 18650 017e 00       		.byte	0
 18651 017f 00       		.byte	0
 18652 0180 F0       		.byte	-16
 18653 0181 48       		.byte	72
 18654 0182 48       		.byte	72
 18655 0183 70       		.byte	112
 18656 0184 40       		.byte	64
 18657 0185 E0       		.byte	-32
 18658 0186 00       		.byte	0
 18659 0187 00       		.byte	0
 18660 0188 30       		.byte	48
 18661 0189 48       		.byte	72
 18662 018a 48       		.byte	72
 18663 018b 48       		.byte	72
 18664 018c 48       		.byte	72
 18665 018d 30       		.byte	48
 18666 018e 18       		.byte	24
 18667 018f 00       		.byte	0
 18668 0190 F0       		.byte	-16
 18669 0191 48       		.byte	72
 18670 0192 48       		.byte	72
 18671 0193 70       		.byte	112
 18672 0194 48       		.byte	72
 18673 0195 E8       		.byte	-24
 18674 0196 00       		.byte	0
 18675 0197 00       		.byte	0
 18676 0198 70       		.byte	112
 18677 0199 50       		.byte	80
 18678 019a 20       		.byte	32
 18679 019b 10       		.byte	16
 18680 019c 50       		.byte	80
 18681 019d 70       		.byte	112
 18682 019e 00       		.byte	0
 18683 019f 00       		.byte	0
 18684 01a0 F8       		.byte	-8
 18685 01a1 A8       		.byte	-88
 18686 01a2 20       		.byte	32
 18687 01a3 20       		.byte	32
 18688 01a4 20       		.byte	32
 18689 01a5 70       		.byte	112
 18690 01a6 00       		.byte	0
 18691 01a7 00       		.byte	0
 18692 01a8 D8       		.byte	-40
ARM GAS  D:\Programs\cygwin64\tmp\ccnP8CjY.s 			page 327


 18693 01a9 48       		.byte	72
 18694 01aa 48       		.byte	72
 18695 01ab 48       		.byte	72
 18696 01ac 48       		.byte	72
 18697 01ad 30       		.byte	48
 18698 01ae 00       		.byte	0
 18699 01af 00       		.byte	0
 18700 01b0 D8       		.byte	-40
 18701 01b1 88       		.byte	-120
 18702 01b2 48       		.byte	72
 18703 01b3 50       		.byte	80
 18704 01b4 50       		.byte	80
 18705 01b5 30       		.byte	48
 18706 01b6 00       		.byte	0
 18707 01b7 00       		.byte	0
 18708 01b8 D8       		.byte	-40
 18709 01b9 88       		.byte	-120
 18710 01ba A8       		.byte	-88
 18711 01bb A8       		.byte	-88
 18712 01bc A8       		.byte	-88
 18713 01bd 50       		.byte	80
 18714 01be 00       		.byte	0
 18715 01bf 00       		.byte	0
 18716 01c0 D8       		.byte	-40
 18717 01c1 50       		.byte	80
 18718 01c2 20       		.byte	32
 18719 01c3 20       		.byte	32
 18720 01c4 50       		.byte	80
 18721 01c5 D8       		.byte	-40
 18722 01c6 00       		.byte	0
 18723 01c7 00       		.byte	0
 18724 01c8 D8       		.byte	-40
 18725 01c9 88       		.byte	-120
 18726 01ca 50       		.byte	80
 18727 01cb 20       		.byte	32
 18728 01cc 20       		.byte	32
 18729 01cd 70       		.byte	112
 18730 01ce 00       		.byte	0
 18731 01cf 00       		.byte	0
 18732 01d0 78       		.byte	120
 18733 01d1 48       		.byte	72
 18734 01d2 10       		.byte	16
 18735 01d3 20       		.byte	32
 18736 01d4 48       		.byte	72
 18737 01d5 78       		.byte	120
 18738 01d6 00       		.byte	0
 18739 01d7 00       		.byte	0
 18740 01d8 30       		.byte	48
 18741 01d9 20       		.byte	32
 18742 01da 20       		.byte	32
 18743 01db 20       		.byte	32
 18744 01dc 20       		.byte	32
 18745 01dd 20       		.byte	32
 18746 01de 30       		.byte	48
 18747 01df 00       		.byte	0
 18748 01e0 80       		.byte	-128
 18749 01e1 40       		.byte	64
ARM GAS  D:\Programs\cygwin64\tmp\ccnP8CjY.s 			page 328


 18750 01e2 40       		.byte	64
 18751 01e3 20       		.byte	32
 18752 01e4 20       		.byte	32
 18753 01e5 20       		.byte	32
 18754 01e6 10       		.byte	16
 18755 01e7 00       		.byte	0
 18756 01e8 60       		.byte	96
 18757 01e9 20       		.byte	32
 18758 01ea 20       		.byte	32
 18759 01eb 20       		.byte	32
 18760 01ec 20       		.byte	32
 18761 01ed 20       		.byte	32
 18762 01ee 60       		.byte	96
 18763 01ef 00       		.byte	0
 18764 01f0 20       		.byte	32
 18765 01f1 20       		.byte	32
 18766 01f2 50       		.byte	80
 18767 01f3 00       		.byte	0
 18768 01f4 00       		.byte	0
 18769 01f5 00       		.byte	0
 18770 01f6 00       		.byte	0
 18771 01f7 00       		.byte	0
 18772 01f8 00       		.byte	0
 18773 01f9 00       		.byte	0
 18774 01fa 00       		.byte	0
 18775 01fb 00       		.byte	0
 18776 01fc 00       		.byte	0
 18777 01fd 00       		.byte	0
 18778 01fe 00       		.byte	0
 18779 01ff F8       		.byte	-8
 18780 0200 20       		.byte	32
 18781 0201 10       		.byte	16
 18782 0202 00       		.byte	0
 18783 0203 00       		.byte	0
 18784 0204 00       		.byte	0
 18785 0205 00       		.byte	0
 18786 0206 00       		.byte	0
 18787 0207 00       		.byte	0
 18788 0208 00       		.byte	0
 18789 0209 00       		.byte	0
 18790 020a 30       		.byte	48
 18791 020b 10       		.byte	16
 18792 020c 70       		.byte	112
 18793 020d 78       		.byte	120
 18794 020e 00       		.byte	0
 18795 020f 00       		.byte	0
 18796 0210 C0       		.byte	-64
 18797 0211 40       		.byte	64
 18798 0212 70       		.byte	112
 18799 0213 48       		.byte	72
 18800 0214 48       		.byte	72
 18801 0215 F0       		.byte	-16
 18802 0216 00       		.byte	0
 18803 0217 00       		.byte	0
 18804 0218 00       		.byte	0
 18805 0219 00       		.byte	0
 18806 021a 70       		.byte	112
ARM GAS  D:\Programs\cygwin64\tmp\ccnP8CjY.s 			page 329


 18807 021b 40       		.byte	64
 18808 021c 40       		.byte	64
 18809 021d 70       		.byte	112
 18810 021e 00       		.byte	0
 18811 021f 00       		.byte	0
 18812 0220 18       		.byte	24
 18813 0221 08       		.byte	8
 18814 0222 38       		.byte	56
 18815 0223 48       		.byte	72
 18816 0224 48       		.byte	72
 18817 0225 38       		.byte	56
 18818 0226 00       		.byte	0
 18819 0227 00       		.byte	0
 18820 0228 00       		.byte	0
 18821 0229 00       		.byte	0
 18822 022a 70       		.byte	112
 18823 022b 70       		.byte	112
 18824 022c 40       		.byte	64
 18825 022d 30       		.byte	48
 18826 022e 00       		.byte	0
 18827 022f 00       		.byte	0
 18828 0230 10       		.byte	16
 18829 0231 20       		.byte	32
 18830 0232 70       		.byte	112
 18831 0233 20       		.byte	32
 18832 0234 20       		.byte	32
 18833 0235 70       		.byte	112
 18834 0236 00       		.byte	0
 18835 0237 00       		.byte	0
 18836 0238 00       		.byte	0
 18837 0239 00       		.byte	0
 18838 023a 38       		.byte	56
 18839 023b 48       		.byte	72
 18840 023c 48       		.byte	72
 18841 023d 38       		.byte	56
 18842 023e 08       		.byte	8
 18843 023f 30       		.byte	48
 18844 0240 C0       		.byte	-64
 18845 0241 40       		.byte	64
 18846 0242 70       		.byte	112
 18847 0243 48       		.byte	72
 18848 0244 48       		.byte	72
 18849 0245 E8       		.byte	-24
 18850 0246 00       		.byte	0
 18851 0247 00       		.byte	0
 18852 0248 20       		.byte	32
 18853 0249 00       		.byte	0
 18854 024a 60       		.byte	96
 18855 024b 20       		.byte	32
 18856 024c 20       		.byte	32
 18857 024d 70       		.byte	112
 18858 024e 00       		.byte	0
 18859 024f 00       		.byte	0
 18860 0250 20       		.byte	32
 18861 0251 00       		.byte	0
 18862 0252 70       		.byte	112
 18863 0253 10       		.byte	16
ARM GAS  D:\Programs\cygwin64\tmp\ccnP8CjY.s 			page 330


 18864 0254 10       		.byte	16
 18865 0255 10       		.byte	16
 18866 0256 10       		.byte	16
 18867 0257 70       		.byte	112
 18868 0258 C0       		.byte	-64
 18869 0259 40       		.byte	64
 18870 025a 58       		.byte	88
 18871 025b 70       		.byte	112
 18872 025c 50       		.byte	80
 18873 025d D8       		.byte	-40
 18874 025e 00       		.byte	0
 18875 025f 00       		.byte	0
 18876 0260 60       		.byte	96
 18877 0261 20       		.byte	32
 18878 0262 20       		.byte	32
 18879 0263 20       		.byte	32
 18880 0264 20       		.byte	32
 18881 0265 70       		.byte	112
 18882 0266 00       		.byte	0
 18883 0267 00       		.byte	0
 18884 0268 00       		.byte	0
 18885 0269 00       		.byte	0
 18886 026a D0       		.byte	-48
 18887 026b A8       		.byte	-88
 18888 026c A8       		.byte	-88
 18889 026d A8       		.byte	-88
 18890 026e 00       		.byte	0
 18891 026f 00       		.byte	0
 18892 0270 00       		.byte	0
 18893 0271 00       		.byte	0
 18894 0272 F0       		.byte	-16
 18895 0273 48       		.byte	72
 18896 0274 48       		.byte	72
 18897 0275 C8       		.byte	-56
 18898 0276 00       		.byte	0
 18899 0277 00       		.byte	0
 18900 0278 00       		.byte	0
 18901 0279 00       		.byte	0
 18902 027a 30       		.byte	48
 18903 027b 48       		.byte	72
 18904 027c 48       		.byte	72
 18905 027d 30       		.byte	48
 18906 027e 00       		.byte	0
 18907 027f 00       		.byte	0
 18908 0280 00       		.byte	0
 18909 0281 00       		.byte	0
 18910 0282 F0       		.byte	-16
 18911 0283 48       		.byte	72
 18912 0284 48       		.byte	72
 18913 0285 70       		.byte	112
 18914 0286 40       		.byte	64
 18915 0287 E0       		.byte	-32
 18916 0288 00       		.byte	0
 18917 0289 00       		.byte	0
 18918 028a 38       		.byte	56
 18919 028b 48       		.byte	72
 18920 028c 48       		.byte	72
ARM GAS  D:\Programs\cygwin64\tmp\ccnP8CjY.s 			page 331


 18921 028d 38       		.byte	56
 18922 028e 08       		.byte	8
 18923 028f 18       		.byte	24
 18924 0290 00       		.byte	0
 18925 0291 00       		.byte	0
 18926 0292 78       		.byte	120
 18927 0293 20       		.byte	32
 18928 0294 20       		.byte	32
 18929 0295 70       		.byte	112
 18930 0296 00       		.byte	0
 18931 0297 00       		.byte	0
 18932 0298 00       		.byte	0
 18933 0299 00       		.byte	0
 18934 029a 30       		.byte	48
 18935 029b 20       		.byte	32
 18936 029c 10       		.byte	16
 18937 029d 60       		.byte	96
 18938 029e 00       		.byte	0
 18939 029f 00       		.byte	0
 18940 02a0 00       		.byte	0
 18941 02a1 40       		.byte	64
 18942 02a2 F0       		.byte	-16
 18943 02a3 40       		.byte	64
 18944 02a4 48       		.byte	72
 18945 02a5 30       		.byte	48
 18946 02a6 00       		.byte	0
 18947 02a7 00       		.byte	0
 18948 02a8 00       		.byte	0
 18949 02a9 00       		.byte	0
 18950 02aa D8       		.byte	-40
 18951 02ab 48       		.byte	72
 18952 02ac 48       		.byte	72
 18953 02ad 38       		.byte	56
 18954 02ae 00       		.byte	0
 18955 02af 00       		.byte	0
 18956 02b0 00       		.byte	0
 18957 02b1 00       		.byte	0
 18958 02b2 C8       		.byte	-56
 18959 02b3 48       		.byte	72
 18960 02b4 30       		.byte	48
 18961 02b5 30       		.byte	48
 18962 02b6 00       		.byte	0
 18963 02b7 00       		.byte	0
 18964 02b8 00       		.byte	0
 18965 02b9 00       		.byte	0
 18966 02ba D8       		.byte	-40
 18967 02bb A8       		.byte	-88
 18968 02bc A8       		.byte	-88
 18969 02bd 50       		.byte	80
 18970 02be 00       		.byte	0
 18971 02bf 00       		.byte	0
 18972 02c0 00       		.byte	0
 18973 02c1 00       		.byte	0
 18974 02c2 48       		.byte	72
 18975 02c3 30       		.byte	48
 18976 02c4 30       		.byte	48
 18977 02c5 48       		.byte	72
ARM GAS  D:\Programs\cygwin64\tmp\ccnP8CjY.s 			page 332


 18978 02c6 00       		.byte	0
 18979 02c7 00       		.byte	0
 18980 02c8 00       		.byte	0
 18981 02c9 00       		.byte	0
 18982 02ca D8       		.byte	-40
 18983 02cb 50       		.byte	80
 18984 02cc 50       		.byte	80
 18985 02cd 20       		.byte	32
 18986 02ce 20       		.byte	32
 18987 02cf 60       		.byte	96
 18988 02d0 00       		.byte	0
 18989 02d1 00       		.byte	0
 18990 02d2 78       		.byte	120
 18991 02d3 50       		.byte	80
 18992 02d4 28       		.byte	40
 18993 02d5 78       		.byte	120
 18994 02d6 00       		.byte	0
 18995 02d7 00       		.byte	0
 18996 02d8 10       		.byte	16
 18997 02d9 20       		.byte	32
 18998 02da 20       		.byte	32
 18999 02db 60       		.byte	96
 19000 02dc 20       		.byte	32
 19001 02dd 20       		.byte	32
 19002 02de 10       		.byte	16
 19003 02df 00       		.byte	0
 19004 02e0 20       		.byte	32
 19005 02e1 20       		.byte	32
 19006 02e2 20       		.byte	32
 19007 02e3 20       		.byte	32
 19008 02e4 20       		.byte	32
 19009 02e5 20       		.byte	32
 19010 02e6 20       		.byte	32
 19011 02e7 00       		.byte	0
 19012 02e8 40       		.byte	64
 19013 02e9 20       		.byte	32
 19014 02ea 20       		.byte	32
 19015 02eb 30       		.byte	48
 19016 02ec 20       		.byte	32
 19017 02ed 20       		.byte	32
 19018 02ee 40       		.byte	64
 19019 02ef 00       		.byte	0
 19020 02f0 00       		.byte	0
 19021 02f1 00       		.byte	0
 19022 02f2 00       		.byte	0
 19023 02f3 28       		.byte	40
 19024 02f4 50       		.byte	80
 19025 02f5 00       		.byte	0
 19026 02f6 00       		.byte	0
 19027 02f7 00       		.byte	0
 19028              		.ident	"GCC: (GNU Tools for Arm Embedded Processors 8-2018-q4-major) 8.2.1 20181213 (release) [gcc
ARM GAS  D:\Programs\cygwin64\tmp\ccnP8CjY.s 			page 333


DEFINED SYMBOLS
                            *ABS*:00000000 stm32f429i_discovery_lcd.c
D:\Programs\cygwin64\tmp\ccnP8CjY.s:16     .text.BSP_LCD_GetXSize:00000000 $t
D:\Programs\cygwin64\tmp\ccnP8CjY.s:25     .text.BSP_LCD_GetXSize:00000000 BSP_LCD_GetXSize
D:\Programs\cygwin64\tmp\ccnP8CjY.s:37     .text.BSP_LCD_GetXSize:0000000c $d
                            *COM*:00000004 LcdDrv
D:\Programs\cygwin64\tmp\ccnP8CjY.s:40     .text.BSP_LCD_GetYSize:00000000 $t
D:\Programs\cygwin64\tmp\ccnP8CjY.s:48     .text.BSP_LCD_GetYSize:00000000 BSP_LCD_GetYSize
D:\Programs\cygwin64\tmp\ccnP8CjY.s:60     .text.BSP_LCD_GetYSize:0000000c $d
D:\Programs\cygwin64\tmp\ccnP8CjY.s:63     .text.BSP_LCD_LayerDefaultInit:00000000 $t
D:\Programs\cygwin64\tmp\ccnP8CjY.s:71     .text.BSP_LCD_LayerDefaultInit:00000000 BSP_LCD_LayerDefaultInit
D:\Programs\cygwin64\tmp\ccnP8CjY.s:129    .text.BSP_LCD_LayerDefaultInit:00000084 $d
                            *COM*:000000a8 LtdcHandler
D:\Programs\cygwin64\tmp\ccnP8CjY.s:135    .text.BSP_LCD_SelectLayer:00000000 $t
D:\Programs\cygwin64\tmp\ccnP8CjY.s:143    .text.BSP_LCD_SelectLayer:00000000 BSP_LCD_SelectLayer
D:\Programs\cygwin64\tmp\ccnP8CjY.s:153    .text.BSP_LCD_SelectLayer:00000008 $d
D:\Programs\cygwin64\tmp\ccnP8CjY.s:156    .text.BSP_LCD_SetLayerVisible:00000000 $t
D:\Programs\cygwin64\tmp\ccnP8CjY.s:164    .text.BSP_LCD_SetLayerVisible:00000000 BSP_LCD_SetLayerVisible
D:\Programs\cygwin64\tmp\ccnP8CjY.s:185    .text.BSP_LCD_SetLayerVisible:00000024 $d
D:\Programs\cygwin64\tmp\ccnP8CjY.s:188    .text.BSP_LCD_SetLayerVisible_NoReload:00000000 $t
D:\Programs\cygwin64\tmp\ccnP8CjY.s:196    .text.BSP_LCD_SetLayerVisible_NoReload:00000000 BSP_LCD_SetLayerVisible_NoReload
D:\Programs\cygwin64\tmp\ccnP8CjY.s:214    .text.BSP_LCD_SetLayerVisible_NoReload:0000001c $d
D:\Programs\cygwin64\tmp\ccnP8CjY.s:217    .text.BSP_LCD_SetTransparency:00000000 $t
D:\Programs\cygwin64\tmp\ccnP8CjY.s:225    .text.BSP_LCD_SetTransparency:00000000 BSP_LCD_SetTransparency
D:\Programs\cygwin64\tmp\ccnP8CjY.s:235    .text.BSP_LCD_SetTransparency:00000008 $d
D:\Programs\cygwin64\tmp\ccnP8CjY.s:238    .text.BSP_LCD_SetTransparency_NoReload:00000000 $t
D:\Programs\cygwin64\tmp\ccnP8CjY.s:246    .text.BSP_LCD_SetTransparency_NoReload:00000000 BSP_LCD_SetTransparency_NoReload
D:\Programs\cygwin64\tmp\ccnP8CjY.s:256    .text.BSP_LCD_SetTransparency_NoReload:00000008 $d
D:\Programs\cygwin64\tmp\ccnP8CjY.s:259    .text.BSP_LCD_SetLayerAddress:00000000 $t
D:\Programs\cygwin64\tmp\ccnP8CjY.s:267    .text.BSP_LCD_SetLayerAddress:00000000 BSP_LCD_SetLayerAddress
D:\Programs\cygwin64\tmp\ccnP8CjY.s:277    .text.BSP_LCD_SetLayerAddress:00000008 $d
D:\Programs\cygwin64\tmp\ccnP8CjY.s:280    .text.BSP_LCD_SetLayerAddress_NoReload:00000000 $t
D:\Programs\cygwin64\tmp\ccnP8CjY.s:288    .text.BSP_LCD_SetLayerAddress_NoReload:00000000 BSP_LCD_SetLayerAddress_NoReload
D:\Programs\cygwin64\tmp\ccnP8CjY.s:298    .text.BSP_LCD_SetLayerAddress_NoReload:00000008 $d
D:\Programs\cygwin64\tmp\ccnP8CjY.s:301    .text.BSP_LCD_SetLayerWindow:00000000 $t
D:\Programs\cygwin64\tmp\ccnP8CjY.s:309    .text.BSP_LCD_SetLayerWindow:00000000 BSP_LCD_SetLayerWindow
D:\Programs\cygwin64\tmp\ccnP8CjY.s:331    .text.BSP_LCD_SetLayerWindow:0000002c $d
D:\Programs\cygwin64\tmp\ccnP8CjY.s:334    .text.BSP_LCD_SetLayerWindow_NoReload:00000000 $t
D:\Programs\cygwin64\tmp\ccnP8CjY.s:342    .text.BSP_LCD_SetLayerWindow_NoReload:00000000 BSP_LCD_SetLayerWindow_NoReload
D:\Programs\cygwin64\tmp\ccnP8CjY.s:364    .text.BSP_LCD_SetLayerWindow_NoReload:0000002c $d
D:\Programs\cygwin64\tmp\ccnP8CjY.s:367    .text.BSP_LCD_SetColorKeying:00000000 $t
D:\Programs\cygwin64\tmp\ccnP8CjY.s:375    .text.BSP_LCD_SetColorKeying:00000000 BSP_LCD_SetColorKeying
D:\Programs\cygwin64\tmp\ccnP8CjY.s:391    .text.BSP_LCD_SetColorKeying:0000001c $d
D:\Programs\cygwin64\tmp\ccnP8CjY.s:394    .text.BSP_LCD_SetColorKeying_NoReload:00000000 $t
D:\Programs\cygwin64\tmp\ccnP8CjY.s:402    .text.BSP_LCD_SetColorKeying_NoReload:00000000 BSP_LCD_SetColorKeying_NoReload
D:\Programs\cygwin64\tmp\ccnP8CjY.s:418    .text.BSP_LCD_SetColorKeying_NoReload:0000001c $d
D:\Programs\cygwin64\tmp\ccnP8CjY.s:421    .text.BSP_LCD_ResetColorKeying:00000000 $t
D:\Programs\cygwin64\tmp\ccnP8CjY.s:429    .text.BSP_LCD_ResetColorKeying:00000000 BSP_LCD_ResetColorKeying
D:\Programs\cygwin64\tmp\ccnP8CjY.s:439    .text.BSP_LCD_ResetColorKeying:00000008 $d
D:\Programs\cygwin64\tmp\ccnP8CjY.s:442    .text.BSP_LCD_ResetColorKeying_NoReload:00000000 $t
D:\Programs\cygwin64\tmp\ccnP8CjY.s:450    .text.BSP_LCD_ResetColorKeying_NoReload:00000000 BSP_LCD_ResetColorKeying_NoReload
D:\Programs\cygwin64\tmp\ccnP8CjY.s:460    .text.BSP_LCD_ResetColorKeying_NoReload:00000008 $d
D:\Programs\cygwin64\tmp\ccnP8CjY.s:463    .text.BSP_LCD_Relaod:00000000 $t
D:\Programs\cygwin64\tmp\ccnP8CjY.s:471    .text.BSP_LCD_Relaod:00000000 BSP_LCD_Relaod
D:\Programs\cygwin64\tmp\ccnP8CjY.s:481    .text.BSP_LCD_Relaod:00000008 $d
D:\Programs\cygwin64\tmp\ccnP8CjY.s:484    .text.BSP_LCD_GetTextColor:00000000 $t
D:\Programs\cygwin64\tmp\ccnP8CjY.s:492    .text.BSP_LCD_GetTextColor:00000000 BSP_LCD_GetTextColor
ARM GAS  D:\Programs\cygwin64\tmp\ccnP8CjY.s 			page 334


D:\Programs\cygwin64\tmp\ccnP8CjY.s:505    .text.BSP_LCD_GetTextColor:00000010 $d
D:\Programs\cygwin64\tmp\ccnP8CjY.s:509    .text.BSP_LCD_GetBackColor:00000000 $t
D:\Programs\cygwin64\tmp\ccnP8CjY.s:517    .text.BSP_LCD_GetBackColor:00000000 BSP_LCD_GetBackColor
D:\Programs\cygwin64\tmp\ccnP8CjY.s:531    .text.BSP_LCD_GetBackColor:00000014 $d
D:\Programs\cygwin64\tmp\ccnP8CjY.s:535    .text.BSP_LCD_SetTextColor:00000000 $t
D:\Programs\cygwin64\tmp\ccnP8CjY.s:543    .text.BSP_LCD_SetTextColor:00000000 BSP_LCD_SetTextColor
D:\Programs\cygwin64\tmp\ccnP8CjY.s:556    .text.BSP_LCD_SetTextColor:00000010 $d
D:\Programs\cygwin64\tmp\ccnP8CjY.s:560    .text.BSP_LCD_SetBackColor:00000000 $t
D:\Programs\cygwin64\tmp\ccnP8CjY.s:568    .text.BSP_LCD_SetBackColor:00000000 BSP_LCD_SetBackColor
D:\Programs\cygwin64\tmp\ccnP8CjY.s:582    .text.BSP_LCD_SetBackColor:00000014 $d
D:\Programs\cygwin64\tmp\ccnP8CjY.s:586    .text.BSP_LCD_SetFont:00000000 $t
D:\Programs\cygwin64\tmp\ccnP8CjY.s:594    .text.BSP_LCD_SetFont:00000000 BSP_LCD_SetFont
D:\Programs\cygwin64\tmp\ccnP8CjY.s:608    .text.BSP_LCD_SetFont:00000014 $d
D:\Programs\cygwin64\tmp\ccnP8CjY.s:612    .text.BSP_LCD_GetFont:00000000 $t
D:\Programs\cygwin64\tmp\ccnP8CjY.s:620    .text.BSP_LCD_GetFont:00000000 BSP_LCD_GetFont
D:\Programs\cygwin64\tmp\ccnP8CjY.s:634    .text.BSP_LCD_GetFont:00000014 $d
D:\Programs\cygwin64\tmp\ccnP8CjY.s:638    .text.BSP_LCD_ReadPixel:00000000 $t
D:\Programs\cygwin64\tmp\ccnP8CjY.s:646    .text.BSP_LCD_ReadPixel:00000000 BSP_LCD_ReadPixel
D:\Programs\cygwin64\tmp\ccnP8CjY.s:696    .text.BSP_LCD_ReadPixel:00000068 $d
D:\Programs\cygwin64\tmp\ccnP8CjY.s:701    .text.BSP_LCD_Clear:00000000 $t
D:\Programs\cygwin64\tmp\ccnP8CjY.s:709    .text.BSP_LCD_Clear:00000000 BSP_LCD_Clear
D:\Programs\cygwin64\tmp\ccnP8CjY.s:767    .text.BSP_LCD_Clear:00000078 $d
D:\Programs\cygwin64\tmp\ccnP8CjY.s:774    .text.BSP_LCD_ClearStringLine:00000000 $t
D:\Programs\cygwin64\tmp\ccnP8CjY.s:782    .text.BSP_LCD_ClearStringLine:00000000 BSP_LCD_ClearStringLine
D:\Programs\cygwin64\tmp\ccnP8CjY.s:873    .text.BSP_LCD_ClearStringLine:000000dc $d
D:\Programs\cygwin64\tmp\ccnP8CjY.s:881    .text.BSP_LCD_DisplayChar:00000000 $t
D:\Programs\cygwin64\tmp\ccnP8CjY.s:889    .text.BSP_LCD_DisplayChar:00000000 BSP_LCD_DisplayChar
D:\Programs\cygwin64\tmp\ccnP8CjY.s:994    .text.BSP_LCD_DisplayChar:00000104 $d
D:\Programs\cygwin64\tmp\ccnP8CjY.s:1000   .text.BSP_LCD_DisplayStringAt:00000000 $t
D:\Programs\cygwin64\tmp\ccnP8CjY.s:1008   .text.BSP_LCD_DisplayStringAt:00000000 BSP_LCD_DisplayStringAt
D:\Programs\cygwin64\tmp\ccnP8CjY.s:1097   .text.BSP_LCD_DisplayStringAt:000000c8 $d
D:\Programs\cygwin64\tmp\ccnP8CjY.s:1102   .text.BSP_LCD_DisplayStringAtLine:00000000 $t
D:\Programs\cygwin64\tmp\ccnP8CjY.s:1110   .text.BSP_LCD_DisplayStringAtLine:00000000 BSP_LCD_DisplayStringAtLine
D:\Programs\cygwin64\tmp\ccnP8CjY.s:1130   .text.BSP_LCD_DisplayStringAtLine:00000024 $d
D:\Programs\cygwin64\tmp\ccnP8CjY.s:1134   .text.BSP_LCD_DrawHLine:00000000 $t
D:\Programs\cygwin64\tmp\ccnP8CjY.s:1142   .text.BSP_LCD_DrawHLine:00000000 BSP_LCD_DrawHLine
D:\Programs\cygwin64\tmp\ccnP8CjY.s:1204   .text.BSP_LCD_DrawHLine:00000088 $d
D:\Programs\cygwin64\tmp\ccnP8CjY.s:1212   .text.BSP_LCD_DrawVLine:00000000 $t
D:\Programs\cygwin64\tmp\ccnP8CjY.s:1220   .text.BSP_LCD_DrawVLine:00000000 BSP_LCD_DrawVLine
D:\Programs\cygwin64\tmp\ccnP8CjY.s:1287   .text.BSP_LCD_DrawVLine:00000098 $d
D:\Programs\cygwin64\tmp\ccnP8CjY.s:1295   .text.BSP_LCD_DrawLine:00000000 $t
D:\Programs\cygwin64\tmp\ccnP8CjY.s:1303   .text.BSP_LCD_DrawLine:00000000 BSP_LCD_DrawLine
D:\Programs\cygwin64\tmp\ccnP8CjY.s:1420   .text.BSP_LCD_DrawLine:00000108 $d
D:\Programs\cygwin64\tmp\ccnP8CjY.s:1426   .text.BSP_LCD_DrawRect:00000000 $t
D:\Programs\cygwin64\tmp\ccnP8CjY.s:1434   .text.BSP_LCD_DrawRect:00000000 BSP_LCD_DrawRect
D:\Programs\cygwin64\tmp\ccnP8CjY.s:1460   .text.BSP_LCD_DrawCircle:00000000 $t
D:\Programs\cygwin64\tmp\ccnP8CjY.s:1468   .text.BSP_LCD_DrawCircle:00000000 BSP_LCD_DrawCircle
D:\Programs\cygwin64\tmp\ccnP8CjY.s:1660   .text.BSP_LCD_DrawCircle:000001f0 $d
D:\Programs\cygwin64\tmp\ccnP8CjY.s:1666   .text.BSP_LCD_DrawPolygon:00000000 $t
D:\Programs\cygwin64\tmp\ccnP8CjY.s:1674   .text.BSP_LCD_DrawPolygon:00000000 BSP_LCD_DrawPolygon
D:\Programs\cygwin64\tmp\ccnP8CjY.s:1709   .text.BSP_LCD_DrawEllipse:00000000 $t
D:\Programs\cygwin64\tmp\ccnP8CjY.s:1717   .text.BSP_LCD_DrawEllipse:00000000 BSP_LCD_DrawEllipse
D:\Programs\cygwin64\tmp\ccnP8CjY.s:1860   .text.BSP_LCD_DrawEllipse:00000178 $d
D:\Programs\cygwin64\tmp\ccnP8CjY.s:1866   .text.BSP_LCD_DrawBitmap:00000000 $t
D:\Programs\cygwin64\tmp\ccnP8CjY.s:1874   .text.BSP_LCD_DrawBitmap:00000000 BSP_LCD_DrawBitmap
D:\Programs\cygwin64\tmp\ccnP8CjY.s:1999   .text.BSP_LCD_DrawBitmap:00000144 $d
D:\Programs\cygwin64\tmp\ccnP8CjY.s:2006   .text.BSP_LCD_FillRect:00000000 $t
ARM GAS  D:\Programs\cygwin64\tmp\ccnP8CjY.s 			page 335


D:\Programs\cygwin64\tmp\ccnP8CjY.s:2014   .text.BSP_LCD_FillRect:00000000 BSP_LCD_FillRect
D:\Programs\cygwin64\tmp\ccnP8CjY.s:2083   .text.BSP_LCD_FillRect:0000009c $d
D:\Programs\cygwin64\tmp\ccnP8CjY.s:2091   .text.BSP_LCD_FillCircle:00000000 $t
D:\Programs\cygwin64\tmp\ccnP8CjY.s:2099   .text.BSP_LCD_FillCircle:00000000 BSP_LCD_FillCircle
D:\Programs\cygwin64\tmp\ccnP8CjY.s:2186   .text.BSP_LCD_FillTriangle:00000000 $t
D:\Programs\cygwin64\tmp\ccnP8CjY.s:2194   .text.BSP_LCD_FillTriangle:00000000 BSP_LCD_FillTriangle
D:\Programs\cygwin64\tmp\ccnP8CjY.s:2292   .text.BSP_LCD_FillPolygon:00000000 $t
D:\Programs\cygwin64\tmp\ccnP8CjY.s:2300   .text.BSP_LCD_FillPolygon:00000000 BSP_LCD_FillPolygon
D:\Programs\cygwin64\tmp\ccnP8CjY.s:2890   .text.BSP_LCD_FillEllipse:00000000 $t
D:\Programs\cygwin64\tmp\ccnP8CjY.s:2898   .text.BSP_LCD_FillEllipse:00000000 BSP_LCD_FillEllipse
D:\Programs\cygwin64\tmp\ccnP8CjY.s:3029   .text.BSP_LCD_FillEllipse:00000140 $d
D:\Programs\cygwin64\tmp\ccnP8CjY.s:3037   .text.BSP_LCD_DisplayOn:00000000 $t
D:\Programs\cygwin64\tmp\ccnP8CjY.s:3045   .text.BSP_LCD_DisplayOn:00000000 BSP_LCD_DisplayOn
D:\Programs\cygwin64\tmp\ccnP8CjY.s:3059   .text.BSP_LCD_DisplayOn:0000000c $d
D:\Programs\cygwin64\tmp\ccnP8CjY.s:3062   .text.BSP_LCD_DisplayOff:00000000 $t
D:\Programs\cygwin64\tmp\ccnP8CjY.s:3070   .text.BSP_LCD_DisplayOff:00000000 BSP_LCD_DisplayOff
D:\Programs\cygwin64\tmp\ccnP8CjY.s:3084   .text.BSP_LCD_DisplayOff:0000000c $d
D:\Programs\cygwin64\tmp\ccnP8CjY.s:3087   .text.BSP_LCD_MspInit:00000000 $t
D:\Programs\cygwin64\tmp\ccnP8CjY.s:3095   .text.BSP_LCD_MspInit:00000000 BSP_LCD_MspInit
D:\Programs\cygwin64\tmp\ccnP8CjY.s:3221   .text.BSP_LCD_MspInit:0000012c $d
D:\Programs\cygwin64\tmp\ccnP8CjY.s:3230   .text.BSP_LCD_Init:00000000 $t
D:\Programs\cygwin64\tmp\ccnP8CjY.s:3238   .text.BSP_LCD_Init:00000000 BSP_LCD_Init
D:\Programs\cygwin64\tmp\ccnP8CjY.s:3297   .text.BSP_LCD_Init:00000088 $d
D:\Programs\cygwin64\tmp\ccnP8CjY.s:3307   .text.BSP_LCD_DrawPixel:00000000 $t
D:\Programs\cygwin64\tmp\ccnP8CjY.s:3315   .text.BSP_LCD_DrawPixel:00000000 BSP_LCD_DrawPixel
D:\Programs\cygwin64\tmp\ccnP8CjY.s:3338   .text.BSP_LCD_DrawPixel:00000030 $d
D:\Programs\cygwin64\tmp\ccnP8CjY.s:3419   .data.Font8:00000000 Font8
D:\Programs\cygwin64\tmp\ccnP8CjY.s:18267  .rodata.Font8_Table:00000000 Font8_Table
D:\Programs\cygwin64\tmp\ccnP8CjY.s:3386   .data.Font12:00000000 Font12
D:\Programs\cygwin64\tmp\ccnP8CjY.s:3427   .rodata.Font12_Table:00000000 Font12_Table
D:\Programs\cygwin64\tmp\ccnP8CjY.s:3394   .data.Font16:00000000 Font16
D:\Programs\cygwin64\tmp\ccnP8CjY.s:4572   .rodata.Font16_Table:00000000 Font16_Table
D:\Programs\cygwin64\tmp\ccnP8CjY.s:3402   .data.Font20:00000000 Font20
D:\Programs\cygwin64\tmp\ccnP8CjY.s:7617   .rodata.Font20_Table:00000000 Font20_Table
D:\Programs\cygwin64\tmp\ccnP8CjY.s:3411   .data.Font24:00000000 Font24
D:\Programs\cygwin64\tmp\ccnP8CjY.s:11422  .rodata.Font24_Table:00000000 Font24_Table
D:\Programs\cygwin64\tmp\ccnP8CjY.s:3355   .bss.ActiveLayer:00000000 $d
D:\Programs\cygwin64\tmp\ccnP8CjY.s:3359   .bss.ActiveLayer:00000000 ActiveLayer
D:\Programs\cygwin64\tmp\ccnP8CjY.s:3362   .bss.Dma2dHandler:00000000 $d
D:\Programs\cygwin64\tmp\ccnP8CjY.s:3366   .bss.Dma2dHandler:00000000 Dma2dHandler
D:\Programs\cygwin64\tmp\ccnP8CjY.s:3369   .bss.DrawProp:00000000 $d
D:\Programs\cygwin64\tmp\ccnP8CjY.s:3373   .bss.DrawProp:00000000 DrawProp
D:\Programs\cygwin64\tmp\ccnP8CjY.s:3376   .bss.PeriphClkInitStruct:00000000 $d
D:\Programs\cygwin64\tmp\ccnP8CjY.s:3380   .bss.PeriphClkInitStruct:00000000 PeriphClkInitStruct
D:\Programs\cygwin64\tmp\ccnP8CjY.s:3383   .data.Font12:00000000 $d
D:\Programs\cygwin64\tmp\ccnP8CjY.s:3391   .data.Font16:00000000 $d
D:\Programs\cygwin64\tmp\ccnP8CjY.s:3399   .data.Font20:00000000 $d
D:\Programs\cygwin64\tmp\ccnP8CjY.s:3407   .data.Font24:00000000 $d
D:\Programs\cygwin64\tmp\ccnP8CjY.s:3416   .data.Font8:00000000 $d
D:\Programs\cygwin64\tmp\ccnP8CjY.s:3424   .rodata.Font12_Table:00000000 $d
D:\Programs\cygwin64\tmp\ccnP8CjY.s:4569   .rodata.Font16_Table:00000000 $d
D:\Programs\cygwin64\tmp\ccnP8CjY.s:7614   .rodata.Font20_Table:00000000 $d
D:\Programs\cygwin64\tmp\ccnP8CjY.s:11419  .rodata.Font24_Table:00000000 $d
D:\Programs\cygwin64\tmp\ccnP8CjY.s:18264  .rodata.Font8_Table:00000000 $d

UNDEFINED SYMBOLS
HAL_LTDC_ConfigLayer
ARM GAS  D:\Programs\cygwin64\tmp\ccnP8CjY.s 			page 336


HAL_LTDC_EnableDither
HAL_LTDC_SetAlpha
HAL_LTDC_SetAlpha_NoReload
HAL_LTDC_SetAddress
HAL_LTDC_SetAddress_NoReload
HAL_LTDC_SetWindowSize
HAL_LTDC_SetWindowPosition
HAL_LTDC_SetWindowSize_NoReload
HAL_LTDC_SetWindowPosition_NoReload
HAL_LTDC_ConfigColorKeying
HAL_LTDC_EnableColorKeying
HAL_LTDC_ConfigColorKeying_NoReload
HAL_LTDC_EnableColorKeying_NoReload
HAL_LTDC_DisableColorKeying
HAL_LTDC_DisableColorKeying_NoReload
HAL_LTDC_Reload
HAL_DMA2D_Init
HAL_DMA2D_ConfigLayer
HAL_DMA2D_Start
HAL_DMA2D_PollForTransfer
HAL_GPIO_Init
HAL_RCCEx_PeriphCLKConfig
HAL_LTDC_Init
BSP_SDRAM_Init
ili9341_drv
