ARM GAS  D:\Programs\cygwin64\tmp\cctM4zih.s 			page 1


   1              		.cpu cortex-m4
   2              		.eabi_attribute 27, 1
   3              		.eabi_attribute 28, 1
   4              		.eabi_attribute 20, 1
   5              		.eabi_attribute 21, 1
   6              		.eabi_attribute 23, 3
   7              		.eabi_attribute 24, 1
   8              		.eabi_attribute 25, 1
   9              		.eabi_attribute 26, 1
  10              		.eabi_attribute 30, 2
  11              		.eabi_attribute 34, 1
  12              		.eabi_attribute 18, 4
  13              		.file	"stm32f4xx_hal_tim.c"
  14              		.text
  15              		.section	.text.HAL_TIM_Base_MspInit,"ax",%progbits
  16              		.align	1
  17              		.p2align 2,,3
  18              		.weak	HAL_TIM_Base_MspInit
  19              		.arch armv7e-m
  20              		.syntax unified
  21              		.thumb
  22              		.thumb_func
  23              		.fpu fpv4-sp-d16
  25              	HAL_TIM_Base_MspInit:
  26              		@ args = 0, pretend = 0, frame = 0
  27              		@ frame_needed = 0, uses_anonymous_args = 0
  28              		@ link register save eliminated.
  29 0000 7047     		bx	lr
  31 0002 00BF     		.section	.text.HAL_TIM_Base_Init,"ax",%progbits
  32              		.align	1
  33              		.p2align 2,,3
  34              		.global	HAL_TIM_Base_Init
  35              		.syntax unified
  36              		.thumb
  37              		.thumb_func
  38              		.fpu fpv4-sp-d16
  40              	HAL_TIM_Base_Init:
  41              		@ args = 0, pretend = 0, frame = 0
  42              		@ frame_needed = 0, uses_anonymous_args = 0
  43 0000 0028     		cmp	r0, #0
  44 0002 68D0     		beq	.L16
  45 0004 F8B5     		push	{r3, r4, r5, r6, r7, lr}
  46 0006 90F83D30 		ldrb	r3, [r0, #61]	@ zero_extendqisi2
  47 000a 0446     		mov	r4, r0
  48 000c 03F0FF02 		and	r2, r3, #255
  49 0010 002B     		cmp	r3, #0
  50 0012 5BD0     		beq	.L24
  51              	.L5:
  52 0014 2268     		ldr	r2, [r4]
  53 0016 314D     		ldr	r5, .L25
  54 0018 A669     		ldr	r6, [r4, #24]
  55 001a E068     		ldr	r0, [r4, #12]
  56 001c 6168     		ldr	r1, [r4, #4]
  57 001e 0223     		movs	r3, #2
  58 0020 84F83D30 		strb	r3, [r4, #61]
  59 0024 AA42     		cmp	r2, r5
  60 0026 1368     		ldr	r3, [r2]
ARM GAS  D:\Programs\cygwin64\tmp\cctM4zih.s 			page 2


  61 0028 3FD0     		beq	.L11
  62 002a B2F1804F 		cmp	r2, #1073741824
  63 002e 28D0     		beq	.L8
  64 0030 A5F57C45 		sub	r5, r5, #64512
  65 0034 AA42     		cmp	r2, r5
  66 0036 24D0     		beq	.L8
  67 0038 05F58065 		add	r5, r5, #1024
  68 003c AA42     		cmp	r2, r5
  69 003e 20D0     		beq	.L8
  70 0040 05F58065 		add	r5, r5, #1024
  71 0044 AA42     		cmp	r2, r5
  72 0046 1CD0     		beq	.L8
  73 0048 05F57845 		add	r5, r5, #63488
  74 004c AA42     		cmp	r2, r5
  75 004e 2CD0     		beq	.L11
  76 0050 05F57055 		add	r5, r5, #15360
  77 0054 AA42     		cmp	r2, r5
  78 0056 18D0     		beq	.L12
  79 0058 05F58065 		add	r5, r5, #1024
  80 005c AA42     		cmp	r2, r5
  81 005e 14D0     		beq	.L12
  82 0060 05F58065 		add	r5, r5, #1024
  83 0064 AA42     		cmp	r2, r5
  84 0066 10D0     		beq	.L12
  85 0068 A5F59835 		sub	r5, r5, #77824
  86 006c AA42     		cmp	r2, r5
  87 006e 0CD0     		beq	.L12
  88 0070 05F58065 		add	r5, r5, #1024
  89 0074 AA42     		cmp	r2, r5
  90 0076 08D0     		beq	.L12
  91 0078 05F58065 		add	r5, r5, #1024
  92 007c AA42     		cmp	r2, r5
  93 007e 08D1     		bne	.L23
  94 0080 03E0     		b	.L12
  95              	.L8:
  96 0082 A568     		ldr	r5, [r4, #8]
  97 0084 23F07003 		bic	r3, r3, #112
  98 0088 2B43     		orrs	r3, r3, r5
  99              	.L12:
 100 008a 2569     		ldr	r5, [r4, #16]
 101 008c 23F44073 		bic	r3, r3, #768
 102 0090 2B43     		orrs	r3, r3, r5
 103              	.L23:
 104 0092 23F08003 		bic	r3, r3, #128
 105 0096 3343     		orrs	r3, r3, r6
 106 0098 1360     		str	r3, [r2]
 107 009a D062     		str	r0, [r2, #44]
 108 009c 9162     		str	r1, [r2, #40]
 109              	.L14:
 110 009e 0123     		movs	r3, #1
 111 00a0 5361     		str	r3, [r2, #20]
 112 00a2 0020     		movs	r0, #0
 113 00a4 84F83D30 		strb	r3, [r4, #61]
 114 00a8 F8BD     		pop	{r3, r4, r5, r6, r7, pc}
 115              	.L11:
 116 00aa A768     		ldr	r7, [r4, #8]
 117 00ac 2569     		ldr	r5, [r4, #16]
ARM GAS  D:\Programs\cygwin64\tmp\cctM4zih.s 			page 3


 118 00ae 23F07003 		bic	r3, r3, #112
 119 00b2 3B43     		orrs	r3, r3, r7
 120 00b4 23F44073 		bic	r3, r3, #768
 121 00b8 2B43     		orrs	r3, r3, r5
 122 00ba 23F08003 		bic	r3, r3, #128
 123 00be 3343     		orrs	r3, r3, r6
 124 00c0 1360     		str	r3, [r2]
 125 00c2 D062     		str	r0, [r2, #44]
 126 00c4 9162     		str	r1, [r2, #40]
 127 00c6 6369     		ldr	r3, [r4, #20]
 128 00c8 1363     		str	r3, [r2, #48]
 129 00ca E8E7     		b	.L14
 130              	.L24:
 131 00cc 80F83C20 		strb	r2, [r0, #60]
 132 00d0 FFF7FEFF 		bl	HAL_TIM_Base_MspInit
 133 00d4 9EE7     		b	.L5
 134              	.L16:
 135 00d6 0120     		movs	r0, #1
 136 00d8 7047     		bx	lr
 137              	.L26:
 138 00da 00BF     		.align	2
 139              	.L25:
 140 00dc 00000140 		.word	1073807360
 142              		.section	.text.HAL_TIM_Base_MspDeInit,"ax",%progbits
 143              		.align	1
 144              		.p2align 2,,3
 145              		.weak	HAL_TIM_Base_MspDeInit
 146              		.syntax unified
 147              		.thumb
 148              		.thumb_func
 149              		.fpu fpv4-sp-d16
 151              	HAL_TIM_Base_MspDeInit:
 152              		@ args = 0, pretend = 0, frame = 0
 153              		@ frame_needed = 0, uses_anonymous_args = 0
 154              		@ link register save eliminated.
 155 0000 7047     		bx	lr
 157 0002 00BF     		.section	.text.HAL_TIM_Base_DeInit,"ax",%progbits
 158              		.align	1
 159              		.p2align 2,,3
 160              		.global	HAL_TIM_Base_DeInit
 161              		.syntax unified
 162              		.thumb
 163              		.thumb_func
 164              		.fpu fpv4-sp-d16
 166              	HAL_TIM_Base_DeInit:
 167              		@ args = 0, pretend = 0, frame = 0
 168              		@ frame_needed = 0, uses_anonymous_args = 0
 169 0000 0222     		movs	r2, #2
 170 0002 0368     		ldr	r3, [r0]
 171 0004 10B5     		push	{r4, lr}
 172 0006 80F83D20 		strb	r2, [r0, #61]
 173 000a 196A     		ldr	r1, [r3, #32]
 174 000c 41F21112 		movw	r2, #4369
 175 0010 1142     		tst	r1, r2
 176 0012 0446     		mov	r4, r0
 177 0014 08D1     		bne	.L29
 178 0016 196A     		ldr	r1, [r3, #32]
ARM GAS  D:\Programs\cygwin64\tmp\cctM4zih.s 			page 4


 179 0018 40F24442 		movw	r2, #1092
 180 001c 1142     		tst	r1, r2
 181 001e 03D1     		bne	.L29
 182 0020 1A68     		ldr	r2, [r3]
 183 0022 22F00102 		bic	r2, r2, #1
 184 0026 1A60     		str	r2, [r3]
 185              	.L29:
 186 0028 2046     		mov	r0, r4
 187 002a FFF7FEFF 		bl	HAL_TIM_Base_MspDeInit
 188 002e 0020     		movs	r0, #0
 189 0030 84F83D00 		strb	r0, [r4, #61]
 190 0034 84F83C00 		strb	r0, [r4, #60]
 191 0038 10BD     		pop	{r4, pc}
 193 003a 00BF     		.section	.text.HAL_TIM_Base_Start,"ax",%progbits
 194              		.align	1
 195              		.p2align 2,,3
 196              		.global	HAL_TIM_Base_Start
 197              		.syntax unified
 198              		.thumb
 199              		.thumb_func
 200              		.fpu fpv4-sp-d16
 202              	HAL_TIM_Base_Start:
 203              		@ args = 0, pretend = 0, frame = 0
 204              		@ frame_needed = 0, uses_anonymous_args = 0
 205              		@ link register save eliminated.
 206 0000 0223     		movs	r3, #2
 207 0002 0268     		ldr	r2, [r0]
 208 0004 80F83D30 		strb	r3, [r0, #61]
 209 0008 9368     		ldr	r3, [r2, #8]
 210 000a 03F00703 		and	r3, r3, #7
 211 000e 062B     		cmp	r3, #6
 212 0010 03D0     		beq	.L32
 213 0012 1368     		ldr	r3, [r2]
 214 0014 43F00103 		orr	r3, r3, #1
 215 0018 1360     		str	r3, [r2]
 216              	.L32:
 217 001a 0123     		movs	r3, #1
 218 001c 80F83D30 		strb	r3, [r0, #61]
 219 0020 0020     		movs	r0, #0
 220 0022 7047     		bx	lr
 222              		.section	.text.HAL_TIM_Base_Stop,"ax",%progbits
 223              		.align	1
 224              		.p2align 2,,3
 225              		.global	HAL_TIM_Base_Stop
 226              		.syntax unified
 227              		.thumb
 228              		.thumb_func
 229              		.fpu fpv4-sp-d16
 231              	HAL_TIM_Base_Stop:
 232              		@ args = 0, pretend = 0, frame = 0
 233              		@ frame_needed = 0, uses_anonymous_args = 0
 234              		@ link register save eliminated.
 235 0000 0222     		movs	r2, #2
 236 0002 0368     		ldr	r3, [r0]
 237 0004 80F83D20 		strb	r2, [r0, #61]
 238 0008 196A     		ldr	r1, [r3, #32]
 239 000a 41F21112 		movw	r2, #4369
ARM GAS  D:\Programs\cygwin64\tmp\cctM4zih.s 			page 5


 240 000e 1142     		tst	r1, r2
 241 0010 08D1     		bne	.L37
 242 0012 196A     		ldr	r1, [r3, #32]
 243 0014 40F24442 		movw	r2, #1092
 244 0018 1142     		tst	r1, r2
 245 001a 03D1     		bne	.L37
 246 001c 1A68     		ldr	r2, [r3]
 247 001e 22F00102 		bic	r2, r2, #1
 248 0022 1A60     		str	r2, [r3]
 249              	.L37:
 250 0024 0123     		movs	r3, #1
 251 0026 80F83D30 		strb	r3, [r0, #61]
 252 002a 0020     		movs	r0, #0
 253 002c 7047     		bx	lr
 255 002e 00BF     		.section	.text.HAL_TIM_Base_Start_IT,"ax",%progbits
 256              		.align	1
 257              		.p2align 2,,3
 258              		.global	HAL_TIM_Base_Start_IT
 259              		.syntax unified
 260              		.thumb
 261              		.thumb_func
 262              		.fpu fpv4-sp-d16
 264              	HAL_TIM_Base_Start_IT:
 265              		@ args = 0, pretend = 0, frame = 0
 266              		@ frame_needed = 0, uses_anonymous_args = 0
 267              		@ link register save eliminated.
 268 0000 0368     		ldr	r3, [r0]
 269 0002 DA68     		ldr	r2, [r3, #12]
 270 0004 42F00102 		orr	r2, r2, #1
 271 0008 DA60     		str	r2, [r3, #12]
 272 000a 9A68     		ldr	r2, [r3, #8]
 273 000c 02F00702 		and	r2, r2, #7
 274 0010 062A     		cmp	r2, #6
 275 0012 03D0     		beq	.L39
 276 0014 1A68     		ldr	r2, [r3]
 277 0016 42F00102 		orr	r2, r2, #1
 278 001a 1A60     		str	r2, [r3]
 279              	.L39:
 280 001c 0020     		movs	r0, #0
 281 001e 7047     		bx	lr
 283              		.section	.text.HAL_TIM_Base_Stop_IT,"ax",%progbits
 284              		.align	1
 285              		.p2align 2,,3
 286              		.global	HAL_TIM_Base_Stop_IT
 287              		.syntax unified
 288              		.thumb
 289              		.thumb_func
 290              		.fpu fpv4-sp-d16
 292              	HAL_TIM_Base_Stop_IT:
 293              		@ args = 0, pretend = 0, frame = 0
 294              		@ frame_needed = 0, uses_anonymous_args = 0
 295              		@ link register save eliminated.
 296 0000 0368     		ldr	r3, [r0]
 297 0002 DA68     		ldr	r2, [r3, #12]
 298 0004 22F00102 		bic	r2, r2, #1
 299 0008 DA60     		str	r2, [r3, #12]
 300 000a 196A     		ldr	r1, [r3, #32]
ARM GAS  D:\Programs\cygwin64\tmp\cctM4zih.s 			page 6


 301 000c 41F21112 		movw	r2, #4369
 302 0010 1142     		tst	r1, r2
 303 0012 08D1     		bne	.L44
 304 0014 196A     		ldr	r1, [r3, #32]
 305 0016 40F24442 		movw	r2, #1092
 306 001a 1142     		tst	r1, r2
 307 001c 03D1     		bne	.L44
 308 001e 1A68     		ldr	r2, [r3]
 309 0020 22F00102 		bic	r2, r2, #1
 310 0024 1A60     		str	r2, [r3]
 311              	.L44:
 312 0026 0020     		movs	r0, #0
 313 0028 7047     		bx	lr
 315 002a 00BF     		.section	.text.HAL_TIM_Base_Start_DMA,"ax",%progbits
 316              		.align	1
 317              		.p2align 2,,3
 318              		.global	HAL_TIM_Base_Start_DMA
 319              		.syntax unified
 320              		.thumb
 321              		.thumb_func
 322              		.fpu fpv4-sp-d16
 324              	HAL_TIM_Base_Start_DMA:
 325              		@ args = 0, pretend = 0, frame = 0
 326              		@ frame_needed = 0, uses_anonymous_args = 0
 327 0000 38B5     		push	{r3, r4, r5, lr}
 328 0002 90F83D40 		ldrb	r4, [r0, #61]	@ zero_extendqisi2
 329 0006 E4B2     		uxtb	r4, r4
 330 0008 022C     		cmp	r4, #2
 331 000a 28D0     		beq	.L50
 332 000c 90F83D30 		ldrb	r3, [r0, #61]	@ zero_extendqisi2
 333 0010 012B     		cmp	r3, #1
 334 0012 03D1     		bne	.L47
 335 0014 F9B1     		cbz	r1, .L58
 336              	.L48:
 337 0016 0223     		movs	r3, #2
 338 0018 80F83D30 		strb	r3, [r0, #61]
 339              	.L47:
 340 001c 0446     		mov	r4, r0
 341 001e 006A     		ldr	r0, [r0, #32]
 342 0020 104D     		ldr	r5, .L59
 343 0022 1346     		mov	r3, r2
 344 0024 2268     		ldr	r2, [r4]
 345 0026 C563     		str	r5, [r0, #60]
 346 0028 0F4D     		ldr	r5, .L59+4
 347 002a 0564     		str	r5, [r0, #64]
 348 002c 0F4D     		ldr	r5, .L59+8
 349 002e C564     		str	r5, [r0, #76]
 350 0030 2C32     		adds	r2, r2, #44
 351 0032 FFF7FEFF 		bl	HAL_DMA_Start_IT
 352 0036 80B9     		cbnz	r0, .L49
 353 0038 2368     		ldr	r3, [r4]
 354 003a DA68     		ldr	r2, [r3, #12]
 355 003c 42F48072 		orr	r2, r2, #256
 356 0040 DA60     		str	r2, [r3, #12]
 357 0042 9A68     		ldr	r2, [r3, #8]
 358 0044 02F00702 		and	r2, r2, #7
 359 0048 062A     		cmp	r2, #6
ARM GAS  D:\Programs\cygwin64\tmp\cctM4zih.s 			page 7


 360 004a 03D0     		beq	.L46
 361 004c 1A68     		ldr	r2, [r3]
 362 004e 42F00102 		orr	r2, r2, #1
 363 0052 1A60     		str	r2, [r3]
 364              	.L46:
 365 0054 38BD     		pop	{r3, r4, r5, pc}
 366              	.L58:
 367 0056 002A     		cmp	r2, #0
 368 0058 DDD0     		beq	.L48
 369              	.L49:
 370 005a 0120     		movs	r0, #1
 371 005c 38BD     		pop	{r3, r4, r5, pc}
 372              	.L50:
 373 005e 2046     		mov	r0, r4
 374 0060 38BD     		pop	{r3, r4, r5, pc}
 375              	.L60:
 376 0062 00BF     		.align	2
 377              	.L59:
 378 0064 00000000 		.word	TIM_DMAPeriodElapsedCplt
 379 0068 00000000 		.word	TIM_DMAPeriodElapsedHalfCplt
 380 006c 00000000 		.word	TIM_DMAError
 382              		.section	.text.HAL_TIM_Base_Stop_DMA,"ax",%progbits
 383              		.align	1
 384              		.p2align 2,,3
 385              		.global	HAL_TIM_Base_Stop_DMA
 386              		.syntax unified
 387              		.thumb
 388              		.thumb_func
 389              		.fpu fpv4-sp-d16
 391              	HAL_TIM_Base_Stop_DMA:
 392              		@ args = 0, pretend = 0, frame = 0
 393              		@ frame_needed = 0, uses_anonymous_args = 0
 394 0000 0268     		ldr	r2, [r0]
 395 0002 D368     		ldr	r3, [r2, #12]
 396 0004 10B5     		push	{r4, lr}
 397 0006 23F48073 		bic	r3, r3, #256
 398 000a 0446     		mov	r4, r0
 399 000c 006A     		ldr	r0, [r0, #32]
 400 000e D360     		str	r3, [r2, #12]
 401 0010 FFF7FEFF 		bl	HAL_DMA_Abort_IT
 402 0014 2368     		ldr	r3, [r4]
 403 0016 196A     		ldr	r1, [r3, #32]
 404 0018 41F21112 		movw	r2, #4369
 405 001c 1142     		tst	r1, r2
 406 001e 08D1     		bne	.L62
 407 0020 196A     		ldr	r1, [r3, #32]
 408 0022 40F24442 		movw	r2, #1092
 409 0026 1142     		tst	r1, r2
 410 0028 03D1     		bne	.L62
 411 002a 1A68     		ldr	r2, [r3]
 412 002c 22F00102 		bic	r2, r2, #1
 413 0030 1A60     		str	r2, [r3]
 414              	.L62:
 415 0032 0123     		movs	r3, #1
 416 0034 84F83D30 		strb	r3, [r4, #61]
 417 0038 0020     		movs	r0, #0
 418 003a 10BD     		pop	{r4, pc}
ARM GAS  D:\Programs\cygwin64\tmp\cctM4zih.s 			page 8


 420              		.section	.text.HAL_TIM_OC_MspInit,"ax",%progbits
 421              		.align	1
 422              		.p2align 2,,3
 423              		.weak	HAL_TIM_OC_MspInit
 424              		.syntax unified
 425              		.thumb
 426              		.thumb_func
 427              		.fpu fpv4-sp-d16
 429              	HAL_TIM_OC_MspInit:
 430              		@ args = 0, pretend = 0, frame = 0
 431              		@ frame_needed = 0, uses_anonymous_args = 0
 432              		@ link register save eliminated.
 433 0000 7047     		bx	lr
 435 0002 00BF     		.section	.text.HAL_TIM_OC_Init,"ax",%progbits
 436              		.align	1
 437              		.p2align 2,,3
 438              		.global	HAL_TIM_OC_Init
 439              		.syntax unified
 440              		.thumb
 441              		.thumb_func
 442              		.fpu fpv4-sp-d16
 444              	HAL_TIM_OC_Init:
 445              		@ args = 0, pretend = 0, frame = 0
 446              		@ frame_needed = 0, uses_anonymous_args = 0
 447 0000 0028     		cmp	r0, #0
 448 0002 68D0     		beq	.L78
 449 0004 F8B5     		push	{r3, r4, r5, r6, r7, lr}
 450 0006 90F83D30 		ldrb	r3, [r0, #61]	@ zero_extendqisi2
 451 000a 0446     		mov	r4, r0
 452 000c 03F0FF02 		and	r2, r3, #255
 453 0010 002B     		cmp	r3, #0
 454 0012 5BD0     		beq	.L86
 455              	.L67:
 456 0014 2268     		ldr	r2, [r4]
 457 0016 314D     		ldr	r5, .L87
 458 0018 A669     		ldr	r6, [r4, #24]
 459 001a E068     		ldr	r0, [r4, #12]
 460 001c 6168     		ldr	r1, [r4, #4]
 461 001e 0223     		movs	r3, #2
 462 0020 84F83D30 		strb	r3, [r4, #61]
 463 0024 AA42     		cmp	r2, r5
 464 0026 1368     		ldr	r3, [r2]
 465 0028 3FD0     		beq	.L73
 466 002a B2F1804F 		cmp	r2, #1073741824
 467 002e 28D0     		beq	.L70
 468 0030 A5F57C45 		sub	r5, r5, #64512
 469 0034 AA42     		cmp	r2, r5
 470 0036 24D0     		beq	.L70
 471 0038 05F58065 		add	r5, r5, #1024
 472 003c AA42     		cmp	r2, r5
 473 003e 20D0     		beq	.L70
 474 0040 05F58065 		add	r5, r5, #1024
 475 0044 AA42     		cmp	r2, r5
 476 0046 1CD0     		beq	.L70
 477 0048 05F57845 		add	r5, r5, #63488
 478 004c AA42     		cmp	r2, r5
 479 004e 2CD0     		beq	.L73
ARM GAS  D:\Programs\cygwin64\tmp\cctM4zih.s 			page 9


 480 0050 05F57055 		add	r5, r5, #15360
 481 0054 AA42     		cmp	r2, r5
 482 0056 18D0     		beq	.L74
 483 0058 05F58065 		add	r5, r5, #1024
 484 005c AA42     		cmp	r2, r5
 485 005e 14D0     		beq	.L74
 486 0060 05F58065 		add	r5, r5, #1024
 487 0064 AA42     		cmp	r2, r5
 488 0066 10D0     		beq	.L74
 489 0068 A5F59835 		sub	r5, r5, #77824
 490 006c AA42     		cmp	r2, r5
 491 006e 0CD0     		beq	.L74
 492 0070 05F58065 		add	r5, r5, #1024
 493 0074 AA42     		cmp	r2, r5
 494 0076 08D0     		beq	.L74
 495 0078 05F58065 		add	r5, r5, #1024
 496 007c AA42     		cmp	r2, r5
 497 007e 08D1     		bne	.L85
 498 0080 03E0     		b	.L74
 499              	.L70:
 500 0082 A568     		ldr	r5, [r4, #8]
 501 0084 23F07003 		bic	r3, r3, #112
 502 0088 2B43     		orrs	r3, r3, r5
 503              	.L74:
 504 008a 2569     		ldr	r5, [r4, #16]
 505 008c 23F44073 		bic	r3, r3, #768
 506 0090 2B43     		orrs	r3, r3, r5
 507              	.L85:
 508 0092 23F08003 		bic	r3, r3, #128
 509 0096 3343     		orrs	r3, r3, r6
 510 0098 1360     		str	r3, [r2]
 511 009a D062     		str	r0, [r2, #44]
 512 009c 9162     		str	r1, [r2, #40]
 513              	.L76:
 514 009e 0123     		movs	r3, #1
 515 00a0 5361     		str	r3, [r2, #20]
 516 00a2 0020     		movs	r0, #0
 517 00a4 84F83D30 		strb	r3, [r4, #61]
 518 00a8 F8BD     		pop	{r3, r4, r5, r6, r7, pc}
 519              	.L73:
 520 00aa A768     		ldr	r7, [r4, #8]
 521 00ac 2569     		ldr	r5, [r4, #16]
 522 00ae 23F07003 		bic	r3, r3, #112
 523 00b2 3B43     		orrs	r3, r3, r7
 524 00b4 23F44073 		bic	r3, r3, #768
 525 00b8 2B43     		orrs	r3, r3, r5
 526 00ba 23F08003 		bic	r3, r3, #128
 527 00be 3343     		orrs	r3, r3, r6
 528 00c0 1360     		str	r3, [r2]
 529 00c2 D062     		str	r0, [r2, #44]
 530 00c4 9162     		str	r1, [r2, #40]
 531 00c6 6369     		ldr	r3, [r4, #20]
 532 00c8 1363     		str	r3, [r2, #48]
 533 00ca E8E7     		b	.L76
 534              	.L86:
 535 00cc 80F83C20 		strb	r2, [r0, #60]
 536 00d0 FFF7FEFF 		bl	HAL_TIM_OC_MspInit
ARM GAS  D:\Programs\cygwin64\tmp\cctM4zih.s 			page 10


 537 00d4 9EE7     		b	.L67
 538              	.L78:
 539 00d6 0120     		movs	r0, #1
 540 00d8 7047     		bx	lr
 541              	.L88:
 542 00da 00BF     		.align	2
 543              	.L87:
 544 00dc 00000140 		.word	1073807360
 546              		.section	.text.HAL_TIM_OC_MspDeInit,"ax",%progbits
 547              		.align	1
 548              		.p2align 2,,3
 549              		.weak	HAL_TIM_OC_MspDeInit
 550              		.syntax unified
 551              		.thumb
 552              		.thumb_func
 553              		.fpu fpv4-sp-d16
 555              	HAL_TIM_OC_MspDeInit:
 556              		@ args = 0, pretend = 0, frame = 0
 557              		@ frame_needed = 0, uses_anonymous_args = 0
 558              		@ link register save eliminated.
 559 0000 7047     		bx	lr
 561 0002 00BF     		.section	.text.HAL_TIM_OC_DeInit,"ax",%progbits
 562              		.align	1
 563              		.p2align 2,,3
 564              		.global	HAL_TIM_OC_DeInit
 565              		.syntax unified
 566              		.thumb
 567              		.thumb_func
 568              		.fpu fpv4-sp-d16
 570              	HAL_TIM_OC_DeInit:
 571              		@ args = 0, pretend = 0, frame = 0
 572              		@ frame_needed = 0, uses_anonymous_args = 0
 573 0000 0222     		movs	r2, #2
 574 0002 0368     		ldr	r3, [r0]
 575 0004 10B5     		push	{r4, lr}
 576 0006 80F83D20 		strb	r2, [r0, #61]
 577 000a 196A     		ldr	r1, [r3, #32]
 578 000c 41F21112 		movw	r2, #4369
 579 0010 1142     		tst	r1, r2
 580 0012 0446     		mov	r4, r0
 581 0014 08D1     		bne	.L91
 582 0016 196A     		ldr	r1, [r3, #32]
 583 0018 40F24442 		movw	r2, #1092
 584 001c 1142     		tst	r1, r2
 585 001e 03D1     		bne	.L91
 586 0020 1A68     		ldr	r2, [r3]
 587 0022 22F00102 		bic	r2, r2, #1
 588 0026 1A60     		str	r2, [r3]
 589              	.L91:
 590 0028 2046     		mov	r0, r4
 591 002a FFF7FEFF 		bl	HAL_TIM_OC_MspDeInit
 592 002e 0020     		movs	r0, #0
 593 0030 84F83D00 		strb	r0, [r4, #61]
 594 0034 84F83C00 		strb	r0, [r4, #60]
 595 0038 10BD     		pop	{r4, pc}
 597 003a 00BF     		.section	.text.HAL_TIM_OC_Start,"ax",%progbits
 598              		.align	1
ARM GAS  D:\Programs\cygwin64\tmp\cctM4zih.s 			page 11


 599              		.p2align 2,,3
 600              		.global	HAL_TIM_OC_Start
 601              		.syntax unified
 602              		.thumb
 603              		.thumb_func
 604              		.fpu fpv4-sp-d16
 606              	HAL_TIM_OC_Start:
 607              		@ args = 0, pretend = 0, frame = 0
 608              		@ frame_needed = 0, uses_anonymous_args = 0
 609              		@ link register save eliminated.
 610 0000 0368     		ldr	r3, [r0]
 611 0002 0122     		movs	r2, #1
 612 0004 186A     		ldr	r0, [r3, #32]
 613 0006 01F01F01 		and	r1, r1, #31
 614 000a 02FA01F1 		lsl	r1, r2, r1
 615 000e 20EA0100 		bic	r0, r0, r1
 616 0012 10B4     		push	{r4}
 617 0014 1862     		str	r0, [r3, #32]
 618 0016 1A6A     		ldr	r2, [r3, #32]
 619 0018 0C4C     		ldr	r4, .L101
 620 001a 1143     		orrs	r1, r1, r2
 621 001c A342     		cmp	r3, r4
 622 001e 1962     		str	r1, [r3, #32]
 623 0020 0FD0     		beq	.L94
 624 0022 0B4A     		ldr	r2, .L101+4
 625 0024 9342     		cmp	r3, r2
 626 0026 0CD0     		beq	.L94
 627              	.L95:
 628 0028 9A68     		ldr	r2, [r3, #8]
 629 002a 02F00702 		and	r2, r2, #7
 630 002e 062A     		cmp	r2, #6
 631 0030 03D0     		beq	.L96
 632 0032 1A68     		ldr	r2, [r3]
 633 0034 42F00102 		orr	r2, r2, #1
 634 0038 1A60     		str	r2, [r3]
 635              	.L96:
 636 003a 0020     		movs	r0, #0
 637 003c 5DF8044B 		ldr	r4, [sp], #4
 638 0040 7047     		bx	lr
 639              	.L94:
 640 0042 5A6C     		ldr	r2, [r3, #68]
 641 0044 42F40042 		orr	r2, r2, #32768
 642 0048 5A64     		str	r2, [r3, #68]
 643 004a EDE7     		b	.L95
 644              	.L102:
 645              		.align	2
 646              	.L101:
 647 004c 00000140 		.word	1073807360
 648 0050 00040140 		.word	1073808384
 650              		.section	.text.HAL_TIM_OC_Stop,"ax",%progbits
 651              		.align	1
 652              		.p2align 2,,3
 653              		.global	HAL_TIM_OC_Stop
 654              		.syntax unified
 655              		.thumb
 656              		.thumb_func
 657              		.fpu fpv4-sp-d16
ARM GAS  D:\Programs\cygwin64\tmp\cctM4zih.s 			page 12


 659              	HAL_TIM_OC_Stop:
 660              		@ args = 0, pretend = 0, frame = 0
 661              		@ frame_needed = 0, uses_anonymous_args = 0
 662              		@ link register save eliminated.
 663 0000 0368     		ldr	r3, [r0]
 664 0002 01F01F01 		and	r1, r1, #31
 665 0006 1A6A     		ldr	r2, [r3, #32]
 666 0008 0120     		movs	r0, #1
 667 000a 8840     		lsls	r0, r0, r1
 668 000c 10B4     		push	{r4}
 669 000e 22EA0002 		bic	r2, r2, r0
 670 0012 154C     		ldr	r4, .L108
 671 0014 1A62     		str	r2, [r3, #32]
 672 0016 1A6A     		ldr	r2, [r3, #32]
 673 0018 1A62     		str	r2, [r3, #32]
 674 001a A342     		cmp	r3, r4
 675 001c 14D0     		beq	.L104
 676 001e 134A     		ldr	r2, .L108+4
 677 0020 9342     		cmp	r3, r2
 678 0022 11D0     		beq	.L104
 679              	.L105:
 680 0024 196A     		ldr	r1, [r3, #32]
 681 0026 41F21112 		movw	r2, #4369
 682 002a 1142     		tst	r1, r2
 683 002c 08D1     		bne	.L106
 684 002e 196A     		ldr	r1, [r3, #32]
 685 0030 40F24442 		movw	r2, #1092
 686 0034 1142     		tst	r1, r2
 687 0036 03D1     		bne	.L106
 688 0038 1A68     		ldr	r2, [r3]
 689 003a 22F00102 		bic	r2, r2, #1
 690 003e 1A60     		str	r2, [r3]
 691              	.L106:
 692 0040 0020     		movs	r0, #0
 693 0042 5DF8044B 		ldr	r4, [sp], #4
 694 0046 7047     		bx	lr
 695              	.L104:
 696 0048 196A     		ldr	r1, [r3, #32]
 697 004a 41F21112 		movw	r2, #4369
 698 004e 1142     		tst	r1, r2
 699 0050 E8D1     		bne	.L105
 700 0052 196A     		ldr	r1, [r3, #32]
 701 0054 40F24442 		movw	r2, #1092
 702 0058 1142     		tst	r1, r2
 703 005a E3D1     		bne	.L105
 704 005c 5A6C     		ldr	r2, [r3, #68]
 705 005e 22F40042 		bic	r2, r2, #32768
 706 0062 5A64     		str	r2, [r3, #68]
 707 0064 DEE7     		b	.L105
 708              	.L109:
 709 0066 00BF     		.align	2
 710              	.L108:
 711 0068 00000140 		.word	1073807360
 712 006c 00040140 		.word	1073808384
 714              		.section	.text.HAL_TIM_OC_Start_IT,"ax",%progbits
 715              		.align	1
 716              		.p2align 2,,3
ARM GAS  D:\Programs\cygwin64\tmp\cctM4zih.s 			page 13


 717              		.global	HAL_TIM_OC_Start_IT
 718              		.syntax unified
 719              		.thumb
 720              		.thumb_func
 721              		.fpu fpv4-sp-d16
 723              	HAL_TIM_OC_Start_IT:
 724              		@ args = 0, pretend = 0, frame = 0
 725              		@ frame_needed = 0, uses_anonymous_args = 0
 726              		@ link register save eliminated.
 727 0000 10B4     		push	{r4}
 728 0002 0368     		ldr	r3, [r0]
 729 0004 0C29     		cmp	r1, #12
 730 0006 0CD8     		bhi	.L111
 731 0008 DFE801F0 		tbb	[pc, r1]
 732              	.L113:
 733 000c 07       		.byte	(.L116-.L113)/2
 734 000d 0B       		.byte	(.L111-.L113)/2
 735 000e 0B       		.byte	(.L111-.L113)/2
 736 000f 0B       		.byte	(.L111-.L113)/2
 737 0010 39       		.byte	(.L115-.L113)/2
 738 0011 0B       		.byte	(.L111-.L113)/2
 739 0012 0B       		.byte	(.L111-.L113)/2
 740 0013 0B       		.byte	(.L111-.L113)/2
 741 0014 34       		.byte	(.L114-.L113)/2
 742 0015 0B       		.byte	(.L111-.L113)/2
 743 0016 0B       		.byte	(.L111-.L113)/2
 744 0017 0B       		.byte	(.L111-.L113)/2
 745 0018 2F       		.byte	(.L112-.L113)/2
 746 0019 00       		.p2align 1
 747              	.L116:
 748 001a DA68     		ldr	r2, [r3, #12]
 749 001c 42F00202 		orr	r2, r2, #2
 750 0020 DA60     		str	r2, [r3, #12]
 751              	.L111:
 752 0022 186A     		ldr	r0, [r3, #32]
 753 0024 184C     		ldr	r4, .L124
 754 0026 01F01F02 		and	r2, r1, #31
 755 002a 0121     		movs	r1, #1
 756 002c 9140     		lsls	r1, r1, r2
 757 002e 20EA0100 		bic	r0, r0, r1
 758 0032 1862     		str	r0, [r3, #32]
 759 0034 1A6A     		ldr	r2, [r3, #32]
 760 0036 A342     		cmp	r3, r4
 761 0038 41EA0201 		orr	r1, r1, r2
 762 003c 1962     		str	r1, [r3, #32]
 763 003e 0FD0     		beq	.L117
 764 0040 124A     		ldr	r2, .L124+4
 765 0042 9342     		cmp	r3, r2
 766 0044 0CD0     		beq	.L117
 767              	.L118:
 768 0046 9A68     		ldr	r2, [r3, #8]
 769 0048 02F00702 		and	r2, r2, #7
 770 004c 062A     		cmp	r2, #6
 771 004e 03D0     		beq	.L119
 772 0050 1A68     		ldr	r2, [r3]
 773 0052 42F00102 		orr	r2, r2, #1
 774 0056 1A60     		str	r2, [r3]
ARM GAS  D:\Programs\cygwin64\tmp\cctM4zih.s 			page 14


 775              	.L119:
 776 0058 0020     		movs	r0, #0
 777 005a 5DF8044B 		ldr	r4, [sp], #4
 778 005e 7047     		bx	lr
 779              	.L117:
 780 0060 5A6C     		ldr	r2, [r3, #68]
 781 0062 42F40042 		orr	r2, r2, #32768
 782 0066 5A64     		str	r2, [r3, #68]
 783 0068 EDE7     		b	.L118
 784              	.L112:
 785 006a DA68     		ldr	r2, [r3, #12]
 786 006c 42F01002 		orr	r2, r2, #16
 787 0070 DA60     		str	r2, [r3, #12]
 788 0072 D6E7     		b	.L111
 789              	.L114:
 790 0074 DA68     		ldr	r2, [r3, #12]
 791 0076 42F00802 		orr	r2, r2, #8
 792 007a DA60     		str	r2, [r3, #12]
 793 007c D1E7     		b	.L111
 794              	.L115:
 795 007e DA68     		ldr	r2, [r3, #12]
 796 0080 42F00402 		orr	r2, r2, #4
 797 0084 DA60     		str	r2, [r3, #12]
 798 0086 CCE7     		b	.L111
 799              	.L125:
 800              		.align	2
 801              	.L124:
 802 0088 00000140 		.word	1073807360
 803 008c 00040140 		.word	1073808384
 805              		.section	.text.HAL_TIM_OC_Stop_IT,"ax",%progbits
 806              		.align	1
 807              		.p2align 2,,3
 808              		.global	HAL_TIM_OC_Stop_IT
 809              		.syntax unified
 810              		.thumb
 811              		.thumb_func
 812              		.fpu fpv4-sp-d16
 814              	HAL_TIM_OC_Stop_IT:
 815              		@ args = 0, pretend = 0, frame = 0
 816              		@ frame_needed = 0, uses_anonymous_args = 0
 817              		@ link register save eliminated.
 818 0000 10B4     		push	{r4}
 819 0002 0368     		ldr	r3, [r0]
 820 0004 0C29     		cmp	r1, #12
 821 0006 0CD8     		bhi	.L127
 822 0008 DFE801F0 		tbb	[pc, r1]
 823              	.L129:
 824 000c 07       		.byte	(.L132-.L129)/2
 825 000d 0B       		.byte	(.L127-.L129)/2
 826 000e 0B       		.byte	(.L127-.L129)/2
 827 000f 0B       		.byte	(.L127-.L129)/2
 828 0010 4C       		.byte	(.L131-.L129)/2
 829 0011 0B       		.byte	(.L127-.L129)/2
 830 0012 0B       		.byte	(.L127-.L129)/2
 831 0013 0B       		.byte	(.L127-.L129)/2
 832 0014 47       		.byte	(.L130-.L129)/2
 833 0015 0B       		.byte	(.L127-.L129)/2
ARM GAS  D:\Programs\cygwin64\tmp\cctM4zih.s 			page 15


 834 0016 0B       		.byte	(.L127-.L129)/2
 835 0017 0B       		.byte	(.L127-.L129)/2
 836 0018 42       		.byte	(.L128-.L129)/2
 837 0019 00       		.p2align 1
 838              	.L132:
 839 001a DA68     		ldr	r2, [r3, #12]
 840 001c 22F00202 		bic	r2, r2, #2
 841 0020 DA60     		str	r2, [r3, #12]
 842              	.L127:
 843 0022 1A6A     		ldr	r2, [r3, #32]
 844 0024 224C     		ldr	r4, .L138
 845 0026 01F01F01 		and	r1, r1, #31
 846 002a 0120     		movs	r0, #1
 847 002c 00FA01F1 		lsl	r1, r0, r1
 848 0030 22EA0101 		bic	r1, r2, r1
 849 0034 1962     		str	r1, [r3, #32]
 850 0036 1A6A     		ldr	r2, [r3, #32]
 851 0038 1A62     		str	r2, [r3, #32]
 852 003a A342     		cmp	r3, r4
 853 003c 14D0     		beq	.L133
 854 003e 1D4A     		ldr	r2, .L138+4
 855 0040 9342     		cmp	r3, r2
 856 0042 11D0     		beq	.L133
 857              	.L134:
 858 0044 196A     		ldr	r1, [r3, #32]
 859 0046 41F21112 		movw	r2, #4369
 860 004a 1142     		tst	r1, r2
 861 004c 08D1     		bne	.L135
 862              	.L137:
 863 004e 196A     		ldr	r1, [r3, #32]
 864 0050 40F24442 		movw	r2, #1092
 865 0054 1142     		tst	r1, r2
 866 0056 03D1     		bne	.L135
 867 0058 1A68     		ldr	r2, [r3]
 868 005a 22F00102 		bic	r2, r2, #1
 869 005e 1A60     		str	r2, [r3]
 870              	.L135:
 871 0060 0020     		movs	r0, #0
 872 0062 5DF8044B 		ldr	r4, [sp], #4
 873 0066 7047     		bx	lr
 874              	.L133:
 875 0068 196A     		ldr	r1, [r3, #32]
 876 006a 41F21112 		movw	r2, #4369
 877 006e 1142     		tst	r1, r2
 878 0070 E8D1     		bne	.L134
 879 0072 196A     		ldr	r1, [r3, #32]
 880 0074 40F24442 		movw	r2, #1092
 881 0078 1142     		tst	r1, r2
 882 007a E3D1     		bne	.L134
 883 007c 5A6C     		ldr	r2, [r3, #68]
 884 007e 22F40042 		bic	r2, r2, #32768
 885 0082 5A64     		str	r2, [r3, #68]
 886 0084 196A     		ldr	r1, [r3, #32]
 887 0086 41F21112 		movw	r2, #4369
 888 008a 1142     		tst	r1, r2
 889 008c E8D1     		bne	.L135
 890 008e DEE7     		b	.L137
ARM GAS  D:\Programs\cygwin64\tmp\cctM4zih.s 			page 16


 891              	.L128:
 892 0090 DA68     		ldr	r2, [r3, #12]
 893 0092 22F01002 		bic	r2, r2, #16
 894 0096 DA60     		str	r2, [r3, #12]
 895 0098 C3E7     		b	.L127
 896              	.L130:
 897 009a DA68     		ldr	r2, [r3, #12]
 898 009c 22F00802 		bic	r2, r2, #8
 899 00a0 DA60     		str	r2, [r3, #12]
 900 00a2 BEE7     		b	.L127
 901              	.L131:
 902 00a4 DA68     		ldr	r2, [r3, #12]
 903 00a6 22F00402 		bic	r2, r2, #4
 904 00aa DA60     		str	r2, [r3, #12]
 905 00ac B9E7     		b	.L127
 906              	.L139:
 907 00ae 00BF     		.align	2
 908              	.L138:
 909 00b0 00000140 		.word	1073807360
 910 00b4 00040140 		.word	1073808384
 912              		.section	.text.HAL_TIM_OC_Start_DMA,"ax",%progbits
 913              		.align	1
 914              		.p2align 2,,3
 915              		.global	HAL_TIM_OC_Start_DMA
 916              		.syntax unified
 917              		.thumb
 918              		.thumb_func
 919              		.fpu fpv4-sp-d16
 921              	HAL_TIM_OC_Start_DMA:
 922              		@ args = 0, pretend = 0, frame = 0
 923              		@ frame_needed = 0, uses_anonymous_args = 0
 924 0000 F8B5     		push	{r3, r4, r5, r6, r7, lr}
 925 0002 90F83D40 		ldrb	r4, [r0, #61]	@ zero_extendqisi2
 926 0006 E4B2     		uxtb	r4, r4
 927 0008 022C     		cmp	r4, #2
 928 000a 00F09B80 		beq	.L153
 929 000e 90F83D40 		ldrb	r4, [r0, #61]	@ zero_extendqisi2
 930 0012 012C     		cmp	r4, #1
 931 0014 4CD0     		beq	.L159
 932              	.L142:
 933 0016 1746     		mov	r7, r2
 934 0018 0E46     		mov	r6, r1
 935 001a 0546     		mov	r5, r0
 936 001c 0468     		ldr	r4, [r0]
 937 001e 0C29     		cmp	r1, #12
 938 0020 1DD8     		bhi	.L144
 939 0022 DFE801F0 		tbb	[pc, r1]
 940              	.L146:
 941 0026 07       		.byte	(.L149-.L146)/2
 942 0027 1C       		.byte	(.L144-.L146)/2
 943 0028 1C       		.byte	(.L144-.L146)/2
 944 0029 1C       		.byte	(.L144-.L146)/2
 945 002a 61       		.byte	(.L148-.L146)/2
 946 002b 1C       		.byte	(.L144-.L146)/2
 947 002c 1C       		.byte	(.L144-.L146)/2
 948 002d 1C       		.byte	(.L144-.L146)/2
 949 002e 76       		.byte	(.L147-.L146)/2
ARM GAS  D:\Programs\cygwin64\tmp\cctM4zih.s 			page 17


 950 002f 1C       		.byte	(.L144-.L146)/2
 951 0030 1C       		.byte	(.L144-.L146)/2
 952 0031 1C       		.byte	(.L144-.L146)/2
 953 0032 4B       		.byte	(.L145-.L146)/2
 954 0033 00       		.p2align 1
 955              	.L149:
 956 0034 406A     		ldr	r0, [r0, #36]
 957 0036 4449     		ldr	r1, .L162
 958 0038 444A     		ldr	r2, .L162+4
 959 003a DFF81CC1 		ldr	ip, .L162+16
 960 003e C163     		str	r1, [r0, #60]
 961 0040 0264     		str	r2, [r0, #64]
 962 0042 3946     		mov	r1, r7
 963 0044 04F13402 		add	r2, r4, #52
 964 0048 C0F84CC0 		str	ip, [r0, #76]
 965 004c FFF7FEFF 		bl	HAL_DMA_Start_IT
 966 0050 0028     		cmp	r0, #0
 967 0052 75D1     		bne	.L150
 968 0054 2C68     		ldr	r4, [r5]
 969 0056 E368     		ldr	r3, [r4, #12]
 970 0058 43F40073 		orr	r3, r3, #512
 971 005c E360     		str	r3, [r4, #12]
 972              	.L144:
 973 005e 226A     		ldr	r2, [r4, #32]
 974 0060 3B48     		ldr	r0, .L162+8
 975 0062 0123     		movs	r3, #1
 976 0064 06F01F01 		and	r1, r6, #31
 977 0068 03FA01F1 		lsl	r1, r3, r1
 978 006c 22EA0102 		bic	r2, r2, r1
 979 0070 2262     		str	r2, [r4, #32]
 980 0072 236A     		ldr	r3, [r4, #32]
 981 0074 8442     		cmp	r4, r0
 982 0076 41EA0301 		orr	r1, r1, r3
 983 007a 2162     		str	r1, [r4, #32]
 984 007c 0DD0     		beq	.L151
 985 007e 354B     		ldr	r3, .L162+12
 986 0080 9C42     		cmp	r4, r3
 987 0082 0AD0     		beq	.L151
 988 0084 A368     		ldr	r3, [r4, #8]
 989 0086 03F00703 		and	r3, r3, #7
 990 008a 062B     		cmp	r3, #6
 991 008c 0ED0     		beq	.L154
 992              	.L160:
 993 008e 2368     		ldr	r3, [r4]
 994 0090 43F00103 		orr	r3, r3, #1
 995 0094 2360     		str	r3, [r4]
 996 0096 0020     		movs	r0, #0
 997 0098 F8BD     		pop	{r3, r4, r5, r6, r7, pc}
 998              	.L151:
 999 009a 636C     		ldr	r3, [r4, #68]
 1000 009c 43F40043 		orr	r3, r3, #32768
 1001 00a0 6364     		str	r3, [r4, #68]
 1002 00a2 A368     		ldr	r3, [r4, #8]
 1003 00a4 03F00703 		and	r3, r3, #7
 1004 00a8 062B     		cmp	r3, #6
 1005 00aa F0D1     		bne	.L160
 1006              	.L154:
ARM GAS  D:\Programs\cygwin64\tmp\cctM4zih.s 			page 18


 1007 00ac 0020     		movs	r0, #0
 1008 00ae F8BD     		pop	{r3, r4, r5, r6, r7, pc}
 1009              	.L159:
 1010 00b0 002A     		cmp	r2, #0
 1011 00b2 43D0     		beq	.L161
 1012              	.L143:
 1013 00b4 0224     		movs	r4, #2
 1014 00b6 80F83D40 		strb	r4, [r0, #61]
 1015 00ba ACE7     		b	.L142
 1016              	.L145:
 1017 00bc 006B     		ldr	r0, [r0, #48]
 1018 00be 2249     		ldr	r1, .L162
 1019 00c0 224A     		ldr	r2, .L162+4
 1020 00c2 DFF894C0 		ldr	ip, .L162+16
 1021 00c6 C163     		str	r1, [r0, #60]
 1022 00c8 0264     		str	r2, [r0, #64]
 1023 00ca 3946     		mov	r1, r7
 1024 00cc 04F14002 		add	r2, r4, #64
 1025 00d0 C0F84CC0 		str	ip, [r0, #76]
 1026 00d4 FFF7FEFF 		bl	HAL_DMA_Start_IT
 1027 00d8 0028     		cmp	r0, #0
 1028 00da 31D1     		bne	.L150
 1029 00dc 2C68     		ldr	r4, [r5]
 1030 00de E368     		ldr	r3, [r4, #12]
 1031 00e0 43F48053 		orr	r3, r3, #4096
 1032 00e4 E360     		str	r3, [r4, #12]
 1033 00e6 BAE7     		b	.L144
 1034              	.L148:
 1035 00e8 806A     		ldr	r0, [r0, #40]
 1036 00ea 1749     		ldr	r1, .L162
 1037 00ec 174A     		ldr	r2, .L162+4
 1038 00ee DFF868C0 		ldr	ip, .L162+16
 1039 00f2 C163     		str	r1, [r0, #60]
 1040 00f4 0264     		str	r2, [r0, #64]
 1041 00f6 3946     		mov	r1, r7
 1042 00f8 04F13802 		add	r2, r4, #56
 1043 00fc C0F84CC0 		str	ip, [r0, #76]
 1044 0100 FFF7FEFF 		bl	HAL_DMA_Start_IT
 1045 0104 E0B9     		cbnz	r0, .L150
 1046 0106 2C68     		ldr	r4, [r5]
 1047 0108 E368     		ldr	r3, [r4, #12]
 1048 010a 43F48063 		orr	r3, r3, #1024
 1049 010e E360     		str	r3, [r4, #12]
 1050 0110 A5E7     		b	.L144
 1051              	.L147:
 1052 0112 C06A     		ldr	r0, [r0, #44]
 1053 0114 0C49     		ldr	r1, .L162
 1054 0116 0D4A     		ldr	r2, .L162+4
 1055 0118 DFF83CC0 		ldr	ip, .L162+16
 1056 011c C163     		str	r1, [r0, #60]
 1057 011e 0264     		str	r2, [r0, #64]
 1058 0120 3946     		mov	r1, r7
 1059 0122 04F13C02 		add	r2, r4, #60
 1060 0126 C0F84CC0 		str	ip, [r0, #76]
 1061 012a FFF7FEFF 		bl	HAL_DMA_Start_IT
 1062 012e 38B9     		cbnz	r0, .L150
 1063 0130 2C68     		ldr	r4, [r5]
ARM GAS  D:\Programs\cygwin64\tmp\cctM4zih.s 			page 19


 1064 0132 E368     		ldr	r3, [r4, #12]
 1065 0134 43F40063 		orr	r3, r3, #2048
 1066 0138 E360     		str	r3, [r4, #12]
 1067 013a 90E7     		b	.L144
 1068              	.L161:
 1069 013c 002B     		cmp	r3, #0
 1070 013e B9D0     		beq	.L143
 1071              	.L150:
 1072 0140 0120     		movs	r0, #1
 1073 0142 F8BD     		pop	{r3, r4, r5, r6, r7, pc}
 1074              	.L153:
 1075 0144 2046     		mov	r0, r4
 1076 0146 F8BD     		pop	{r3, r4, r5, r6, r7, pc}
 1077              	.L163:
 1078              		.align	2
 1079              	.L162:
 1080 0148 00000000 		.word	TIM_DMADelayPulseCplt
 1081 014c 00000000 		.word	TIM_DMADelayPulseHalfCplt
 1082 0150 00000140 		.word	1073807360
 1083 0154 00040140 		.word	1073808384
 1084 0158 00000000 		.word	TIM_DMAError
 1086              		.section	.text.HAL_TIM_OC_Stop_DMA,"ax",%progbits
 1087              		.align	1
 1088              		.p2align 2,,3
 1089              		.global	HAL_TIM_OC_Stop_DMA
 1090              		.syntax unified
 1091              		.thumb
 1092              		.thumb_func
 1093              		.fpu fpv4-sp-d16
 1095              	HAL_TIM_OC_Stop_DMA:
 1096              		@ args = 0, pretend = 0, frame = 0
 1097              		@ frame_needed = 0, uses_anonymous_args = 0
 1098 0000 38B5     		push	{r3, r4, r5, lr}
 1099 0002 0546     		mov	r5, r0
 1100 0004 0C46     		mov	r4, r1
 1101 0006 0368     		ldr	r3, [r0]
 1102 0008 0C29     		cmp	r1, #12
 1103 000a 10D8     		bhi	.L165
 1104 000c DFE801F0 		tbb	[pc, r1]
 1105              	.L167:
 1106 0010 07       		.byte	(.L170-.L167)/2
 1107 0011 0F       		.byte	(.L165-.L167)/2
 1108 0012 0F       		.byte	(.L165-.L167)/2
 1109 0013 0F       		.byte	(.L165-.L167)/2
 1110 0014 59       		.byte	(.L169-.L167)/2
 1111 0015 0F       		.byte	(.L165-.L167)/2
 1112 0016 0F       		.byte	(.L165-.L167)/2
 1113 0017 0F       		.byte	(.L165-.L167)/2
 1114 0018 50       		.byte	(.L168-.L167)/2
 1115 0019 0F       		.byte	(.L165-.L167)/2
 1116 001a 0F       		.byte	(.L165-.L167)/2
 1117 001b 0F       		.byte	(.L165-.L167)/2
 1118 001c 47       		.byte	(.L166-.L167)/2
 1119 001d 00       		.p2align 1
 1120              	.L170:
 1121 001e DA68     		ldr	r2, [r3, #12]
 1122 0020 406A     		ldr	r0, [r0, #36]
ARM GAS  D:\Programs\cygwin64\tmp\cctM4zih.s 			page 20


 1123 0022 22F40072 		bic	r2, r2, #512
 1124 0026 DA60     		str	r2, [r3, #12]
 1125 0028 FFF7FEFF 		bl	HAL_DMA_Abort_IT
 1126 002c 2B68     		ldr	r3, [r5]
 1127              	.L165:
 1128 002e 1A6A     		ldr	r2, [r3, #32]
 1129 0030 2848     		ldr	r0, .L176
 1130 0032 04F01F04 		and	r4, r4, #31
 1131 0036 0121     		movs	r1, #1
 1132 0038 01FA04F4 		lsl	r4, r1, r4
 1133 003c 22EA0402 		bic	r2, r2, r4
 1134 0040 1A62     		str	r2, [r3, #32]
 1135 0042 1A6A     		ldr	r2, [r3, #32]
 1136 0044 1A62     		str	r2, [r3, #32]
 1137 0046 8342     		cmp	r3, r0
 1138 0048 15D0     		beq	.L171
 1139 004a 234A     		ldr	r2, .L176+4
 1140 004c 9342     		cmp	r3, r2
 1141 004e 12D0     		beq	.L171
 1142              	.L172:
 1143 0050 196A     		ldr	r1, [r3, #32]
 1144 0052 41F21112 		movw	r2, #4369
 1145 0056 1142     		tst	r1, r2
 1146 0058 08D1     		bne	.L173
 1147              	.L175:
 1148 005a 196A     		ldr	r1, [r3, #32]
 1149 005c 40F24442 		movw	r2, #1092
 1150 0060 1142     		tst	r1, r2
 1151 0062 03D1     		bne	.L173
 1152 0064 1A68     		ldr	r2, [r3]
 1153 0066 22F00102 		bic	r2, r2, #1
 1154 006a 1A60     		str	r2, [r3]
 1155              	.L173:
 1156 006c 0123     		movs	r3, #1
 1157 006e 85F83D30 		strb	r3, [r5, #61]
 1158 0072 0020     		movs	r0, #0
 1159 0074 38BD     		pop	{r3, r4, r5, pc}
 1160              	.L171:
 1161 0076 196A     		ldr	r1, [r3, #32]
 1162 0078 41F21112 		movw	r2, #4369
 1163 007c 1142     		tst	r1, r2
 1164 007e E7D1     		bne	.L172
 1165 0080 196A     		ldr	r1, [r3, #32]
 1166 0082 40F24442 		movw	r2, #1092
 1167 0086 1142     		tst	r1, r2
 1168 0088 E2D1     		bne	.L172
 1169 008a 5A6C     		ldr	r2, [r3, #68]
 1170 008c 22F40042 		bic	r2, r2, #32768
 1171 0090 5A64     		str	r2, [r3, #68]
 1172 0092 196A     		ldr	r1, [r3, #32]
 1173 0094 41F21112 		movw	r2, #4369
 1174 0098 1142     		tst	r1, r2
 1175 009a E7D1     		bne	.L173
 1176 009c DDE7     		b	.L175
 1177              	.L166:
 1178 009e DA68     		ldr	r2, [r3, #12]
 1179 00a0 006B     		ldr	r0, [r0, #48]
ARM GAS  D:\Programs\cygwin64\tmp\cctM4zih.s 			page 21


 1180 00a2 22F48052 		bic	r2, r2, #4096
 1181 00a6 DA60     		str	r2, [r3, #12]
 1182 00a8 FFF7FEFF 		bl	HAL_DMA_Abort_IT
 1183 00ac 2B68     		ldr	r3, [r5]
 1184 00ae BEE7     		b	.L165
 1185              	.L168:
 1186 00b0 DA68     		ldr	r2, [r3, #12]
 1187 00b2 C06A     		ldr	r0, [r0, #44]
 1188 00b4 22F40062 		bic	r2, r2, #2048
 1189 00b8 DA60     		str	r2, [r3, #12]
 1190 00ba FFF7FEFF 		bl	HAL_DMA_Abort_IT
 1191 00be 2B68     		ldr	r3, [r5]
 1192 00c0 B5E7     		b	.L165
 1193              	.L169:
 1194 00c2 DA68     		ldr	r2, [r3, #12]
 1195 00c4 806A     		ldr	r0, [r0, #40]
 1196 00c6 22F48062 		bic	r2, r2, #1024
 1197 00ca DA60     		str	r2, [r3, #12]
 1198 00cc FFF7FEFF 		bl	HAL_DMA_Abort_IT
 1199 00d0 2B68     		ldr	r3, [r5]
 1200 00d2 ACE7     		b	.L165
 1201              	.L177:
 1202              		.align	2
 1203              	.L176:
 1204 00d4 00000140 		.word	1073807360
 1205 00d8 00040140 		.word	1073808384
 1207              		.section	.text.HAL_TIM_PWM_MspInit,"ax",%progbits
 1208              		.align	1
 1209              		.p2align 2,,3
 1210              		.weak	HAL_TIM_PWM_MspInit
 1211              		.syntax unified
 1212              		.thumb
 1213              		.thumb_func
 1214              		.fpu fpv4-sp-d16
 1216              	HAL_TIM_PWM_MspInit:
 1217              		@ args = 0, pretend = 0, frame = 0
 1218              		@ frame_needed = 0, uses_anonymous_args = 0
 1219              		@ link register save eliminated.
 1220 0000 7047     		bx	lr
 1222 0002 00BF     		.section	.text.HAL_TIM_PWM_Init,"ax",%progbits
 1223              		.align	1
 1224              		.p2align 2,,3
 1225              		.global	HAL_TIM_PWM_Init
 1226              		.syntax unified
 1227              		.thumb
 1228              		.thumb_func
 1229              		.fpu fpv4-sp-d16
 1231              	HAL_TIM_PWM_Init:
 1232              		@ args = 0, pretend = 0, frame = 0
 1233              		@ frame_needed = 0, uses_anonymous_args = 0
 1234 0000 0028     		cmp	r0, #0
 1235 0002 68D0     		beq	.L192
 1236 0004 F8B5     		push	{r3, r4, r5, r6, r7, lr}
 1237 0006 90F83D30 		ldrb	r3, [r0, #61]	@ zero_extendqisi2
 1238 000a 0446     		mov	r4, r0
 1239 000c 03F0FF02 		and	r2, r3, #255
 1240 0010 002B     		cmp	r3, #0
ARM GAS  D:\Programs\cygwin64\tmp\cctM4zih.s 			page 22


 1241 0012 5BD0     		beq	.L200
 1242              	.L181:
 1243 0014 2268     		ldr	r2, [r4]
 1244 0016 314D     		ldr	r5, .L201
 1245 0018 A669     		ldr	r6, [r4, #24]
 1246 001a E068     		ldr	r0, [r4, #12]
 1247 001c 6168     		ldr	r1, [r4, #4]
 1248 001e 0223     		movs	r3, #2
 1249 0020 84F83D30 		strb	r3, [r4, #61]
 1250 0024 AA42     		cmp	r2, r5
 1251 0026 1368     		ldr	r3, [r2]
 1252 0028 3FD0     		beq	.L187
 1253 002a B2F1804F 		cmp	r2, #1073741824
 1254 002e 28D0     		beq	.L184
 1255 0030 A5F57C45 		sub	r5, r5, #64512
 1256 0034 AA42     		cmp	r2, r5
 1257 0036 24D0     		beq	.L184
 1258 0038 05F58065 		add	r5, r5, #1024
 1259 003c AA42     		cmp	r2, r5
 1260 003e 20D0     		beq	.L184
 1261 0040 05F58065 		add	r5, r5, #1024
 1262 0044 AA42     		cmp	r2, r5
 1263 0046 1CD0     		beq	.L184
 1264 0048 05F57845 		add	r5, r5, #63488
 1265 004c AA42     		cmp	r2, r5
 1266 004e 2CD0     		beq	.L187
 1267 0050 05F57055 		add	r5, r5, #15360
 1268 0054 AA42     		cmp	r2, r5
 1269 0056 18D0     		beq	.L188
 1270 0058 05F58065 		add	r5, r5, #1024
 1271 005c AA42     		cmp	r2, r5
 1272 005e 14D0     		beq	.L188
 1273 0060 05F58065 		add	r5, r5, #1024
 1274 0064 AA42     		cmp	r2, r5
 1275 0066 10D0     		beq	.L188
 1276 0068 A5F59835 		sub	r5, r5, #77824
 1277 006c AA42     		cmp	r2, r5
 1278 006e 0CD0     		beq	.L188
 1279 0070 05F58065 		add	r5, r5, #1024
 1280 0074 AA42     		cmp	r2, r5
 1281 0076 08D0     		beq	.L188
 1282 0078 05F58065 		add	r5, r5, #1024
 1283 007c AA42     		cmp	r2, r5
 1284 007e 08D1     		bne	.L199
 1285 0080 03E0     		b	.L188
 1286              	.L184:
 1287 0082 A568     		ldr	r5, [r4, #8]
 1288 0084 23F07003 		bic	r3, r3, #112
 1289 0088 2B43     		orrs	r3, r3, r5
 1290              	.L188:
 1291 008a 2569     		ldr	r5, [r4, #16]
 1292 008c 23F44073 		bic	r3, r3, #768
 1293 0090 2B43     		orrs	r3, r3, r5
 1294              	.L199:
 1295 0092 23F08003 		bic	r3, r3, #128
 1296 0096 3343     		orrs	r3, r3, r6
 1297 0098 1360     		str	r3, [r2]
ARM GAS  D:\Programs\cygwin64\tmp\cctM4zih.s 			page 23


 1298 009a D062     		str	r0, [r2, #44]
 1299 009c 9162     		str	r1, [r2, #40]
 1300              	.L190:
 1301 009e 0123     		movs	r3, #1
 1302 00a0 5361     		str	r3, [r2, #20]
 1303 00a2 0020     		movs	r0, #0
 1304 00a4 84F83D30 		strb	r3, [r4, #61]
 1305 00a8 F8BD     		pop	{r3, r4, r5, r6, r7, pc}
 1306              	.L187:
 1307 00aa A768     		ldr	r7, [r4, #8]
 1308 00ac 2569     		ldr	r5, [r4, #16]
 1309 00ae 23F07003 		bic	r3, r3, #112
 1310 00b2 3B43     		orrs	r3, r3, r7
 1311 00b4 23F44073 		bic	r3, r3, #768
 1312 00b8 2B43     		orrs	r3, r3, r5
 1313 00ba 23F08003 		bic	r3, r3, #128
 1314 00be 3343     		orrs	r3, r3, r6
 1315 00c0 1360     		str	r3, [r2]
 1316 00c2 D062     		str	r0, [r2, #44]
 1317 00c4 9162     		str	r1, [r2, #40]
 1318 00c6 6369     		ldr	r3, [r4, #20]
 1319 00c8 1363     		str	r3, [r2, #48]
 1320 00ca E8E7     		b	.L190
 1321              	.L200:
 1322 00cc 80F83C20 		strb	r2, [r0, #60]
 1323 00d0 FFF7FEFF 		bl	HAL_TIM_PWM_MspInit
 1324 00d4 9EE7     		b	.L181
 1325              	.L192:
 1326 00d6 0120     		movs	r0, #1
 1327 00d8 7047     		bx	lr
 1328              	.L202:
 1329 00da 00BF     		.align	2
 1330              	.L201:
 1331 00dc 00000140 		.word	1073807360
 1333              		.section	.text.HAL_TIM_PWM_MspDeInit,"ax",%progbits
 1334              		.align	1
 1335              		.p2align 2,,3
 1336              		.weak	HAL_TIM_PWM_MspDeInit
 1337              		.syntax unified
 1338              		.thumb
 1339              		.thumb_func
 1340              		.fpu fpv4-sp-d16
 1342              	HAL_TIM_PWM_MspDeInit:
 1343              		@ args = 0, pretend = 0, frame = 0
 1344              		@ frame_needed = 0, uses_anonymous_args = 0
 1345              		@ link register save eliminated.
 1346 0000 7047     		bx	lr
 1348 0002 00BF     		.section	.text.HAL_TIM_PWM_DeInit,"ax",%progbits
 1349              		.align	1
 1350              		.p2align 2,,3
 1351              		.global	HAL_TIM_PWM_DeInit
 1352              		.syntax unified
 1353              		.thumb
 1354              		.thumb_func
 1355              		.fpu fpv4-sp-d16
 1357              	HAL_TIM_PWM_DeInit:
 1358              		@ args = 0, pretend = 0, frame = 0
ARM GAS  D:\Programs\cygwin64\tmp\cctM4zih.s 			page 24


 1359              		@ frame_needed = 0, uses_anonymous_args = 0
 1360 0000 0222     		movs	r2, #2
 1361 0002 0368     		ldr	r3, [r0]
 1362 0004 10B5     		push	{r4, lr}
 1363 0006 80F83D20 		strb	r2, [r0, #61]
 1364 000a 196A     		ldr	r1, [r3, #32]
 1365 000c 41F21112 		movw	r2, #4369
 1366 0010 1142     		tst	r1, r2
 1367 0012 0446     		mov	r4, r0
 1368 0014 08D1     		bne	.L205
 1369 0016 196A     		ldr	r1, [r3, #32]
 1370 0018 40F24442 		movw	r2, #1092
 1371 001c 1142     		tst	r1, r2
 1372 001e 03D1     		bne	.L205
 1373 0020 1A68     		ldr	r2, [r3]
 1374 0022 22F00102 		bic	r2, r2, #1
 1375 0026 1A60     		str	r2, [r3]
 1376              	.L205:
 1377 0028 2046     		mov	r0, r4
 1378 002a FFF7FEFF 		bl	HAL_TIM_PWM_MspDeInit
 1379 002e 0020     		movs	r0, #0
 1380 0030 84F83D00 		strb	r0, [r4, #61]
 1381 0034 84F83C00 		strb	r0, [r4, #60]
 1382 0038 10BD     		pop	{r4, pc}
 1384 003a 00BF     		.section	.text.HAL_TIM_PWM_Start,"ax",%progbits
 1385              		.align	1
 1386              		.p2align 2,,3
 1387              		.global	HAL_TIM_PWM_Start
 1388              		.syntax unified
 1389              		.thumb
 1390              		.thumb_func
 1391              		.fpu fpv4-sp-d16
 1393              	HAL_TIM_PWM_Start:
 1394              		@ args = 0, pretend = 0, frame = 0
 1395              		@ frame_needed = 0, uses_anonymous_args = 0
 1396              		@ link register save eliminated.
 1397 0000 0368     		ldr	r3, [r0]
 1398 0002 0122     		movs	r2, #1
 1399 0004 186A     		ldr	r0, [r3, #32]
 1400 0006 01F01F01 		and	r1, r1, #31
 1401 000a 02FA01F1 		lsl	r1, r2, r1
 1402 000e 20EA0100 		bic	r0, r0, r1
 1403 0012 10B4     		push	{r4}
 1404 0014 1862     		str	r0, [r3, #32]
 1405 0016 1A6A     		ldr	r2, [r3, #32]
 1406 0018 0C4C     		ldr	r4, .L215
 1407 001a 1143     		orrs	r1, r1, r2
 1408 001c A342     		cmp	r3, r4
 1409 001e 1962     		str	r1, [r3, #32]
 1410 0020 0FD0     		beq	.L208
 1411 0022 0B4A     		ldr	r2, .L215+4
 1412 0024 9342     		cmp	r3, r2
 1413 0026 0CD0     		beq	.L208
 1414              	.L209:
 1415 0028 9A68     		ldr	r2, [r3, #8]
 1416 002a 02F00702 		and	r2, r2, #7
 1417 002e 062A     		cmp	r2, #6
ARM GAS  D:\Programs\cygwin64\tmp\cctM4zih.s 			page 25


 1418 0030 03D0     		beq	.L210
 1419 0032 1A68     		ldr	r2, [r3]
 1420 0034 42F00102 		orr	r2, r2, #1
 1421 0038 1A60     		str	r2, [r3]
 1422              	.L210:
 1423 003a 0020     		movs	r0, #0
 1424 003c 5DF8044B 		ldr	r4, [sp], #4
 1425 0040 7047     		bx	lr
 1426              	.L208:
 1427 0042 5A6C     		ldr	r2, [r3, #68]
 1428 0044 42F40042 		orr	r2, r2, #32768
 1429 0048 5A64     		str	r2, [r3, #68]
 1430 004a EDE7     		b	.L209
 1431              	.L216:
 1432              		.align	2
 1433              	.L215:
 1434 004c 00000140 		.word	1073807360
 1435 0050 00040140 		.word	1073808384
 1437              		.section	.text.HAL_TIM_PWM_Stop,"ax",%progbits
 1438              		.align	1
 1439              		.p2align 2,,3
 1440              		.global	HAL_TIM_PWM_Stop
 1441              		.syntax unified
 1442              		.thumb
 1443              		.thumb_func
 1444              		.fpu fpv4-sp-d16
 1446              	HAL_TIM_PWM_Stop:
 1447              		@ args = 0, pretend = 0, frame = 0
 1448              		@ frame_needed = 0, uses_anonymous_args = 0
 1449              		@ link register save eliminated.
 1450 0000 0368     		ldr	r3, [r0]
 1451 0002 30B4     		push	{r4, r5}
 1452 0004 1A6A     		ldr	r2, [r3, #32]
 1453 0006 194D     		ldr	r5, .L222
 1454 0008 01F01F01 		and	r1, r1, #31
 1455 000c 0124     		movs	r4, #1
 1456 000e 8C40     		lsls	r4, r4, r1
 1457 0010 22EA0402 		bic	r2, r2, r4
 1458 0014 1A62     		str	r2, [r3, #32]
 1459 0016 1A6A     		ldr	r2, [r3, #32]
 1460 0018 1A62     		str	r2, [r3, #32]
 1461 001a AB42     		cmp	r3, r5
 1462 001c 16D0     		beq	.L218
 1463 001e 144A     		ldr	r2, .L222+4
 1464 0020 9342     		cmp	r3, r2
 1465 0022 13D0     		beq	.L218
 1466              	.L219:
 1467 0024 196A     		ldr	r1, [r3, #32]
 1468 0026 41F21112 		movw	r2, #4369
 1469 002a 1142     		tst	r1, r2
 1470 002c 08D1     		bne	.L220
 1471 002e 196A     		ldr	r1, [r3, #32]
 1472 0030 40F24442 		movw	r2, #1092
 1473 0034 1142     		tst	r1, r2
 1474 0036 03D1     		bne	.L220
 1475 0038 1A68     		ldr	r2, [r3]
 1476 003a 22F00102 		bic	r2, r2, #1
ARM GAS  D:\Programs\cygwin64\tmp\cctM4zih.s 			page 26


 1477 003e 1A60     		str	r2, [r3]
 1478              	.L220:
 1479 0040 0123     		movs	r3, #1
 1480 0042 80F83D30 		strb	r3, [r0, #61]
 1481 0046 30BC     		pop	{r4, r5}
 1482 0048 0020     		movs	r0, #0
 1483 004a 7047     		bx	lr
 1484              	.L218:
 1485 004c 196A     		ldr	r1, [r3, #32]
 1486 004e 41F21112 		movw	r2, #4369
 1487 0052 1142     		tst	r1, r2
 1488 0054 E6D1     		bne	.L219
 1489 0056 196A     		ldr	r1, [r3, #32]
 1490 0058 40F24442 		movw	r2, #1092
 1491 005c 1142     		tst	r1, r2
 1492 005e E1D1     		bne	.L219
 1493 0060 5A6C     		ldr	r2, [r3, #68]
 1494 0062 22F40042 		bic	r2, r2, #32768
 1495 0066 5A64     		str	r2, [r3, #68]
 1496 0068 DCE7     		b	.L219
 1497              	.L223:
 1498 006a 00BF     		.align	2
 1499              	.L222:
 1500 006c 00000140 		.word	1073807360
 1501 0070 00040140 		.word	1073808384
 1503              		.section	.text.HAL_TIM_PWM_Start_IT,"ax",%progbits
 1504              		.align	1
 1505              		.p2align 2,,3
 1506              		.global	HAL_TIM_PWM_Start_IT
 1507              		.syntax unified
 1508              		.thumb
 1509              		.thumb_func
 1510              		.fpu fpv4-sp-d16
 1512              	HAL_TIM_PWM_Start_IT:
 1513              		@ args = 0, pretend = 0, frame = 0
 1514              		@ frame_needed = 0, uses_anonymous_args = 0
 1515              		@ link register save eliminated.
 1516 0000 10B4     		push	{r4}
 1517 0002 0368     		ldr	r3, [r0]
 1518 0004 0C29     		cmp	r1, #12
 1519 0006 0CD8     		bhi	.L225
 1520 0008 DFE801F0 		tbb	[pc, r1]
 1521              	.L227:
 1522 000c 39       		.byte	(.L230-.L227)/2
 1523 000d 0B       		.byte	(.L225-.L227)/2
 1524 000e 0B       		.byte	(.L225-.L227)/2
 1525 000f 0B       		.byte	(.L225-.L227)/2
 1526 0010 34       		.byte	(.L229-.L227)/2
 1527 0011 0B       		.byte	(.L225-.L227)/2
 1528 0012 0B       		.byte	(.L225-.L227)/2
 1529 0013 0B       		.byte	(.L225-.L227)/2
 1530 0014 2F       		.byte	(.L228-.L227)/2
 1531 0015 0B       		.byte	(.L225-.L227)/2
 1532 0016 0B       		.byte	(.L225-.L227)/2
 1533 0017 0B       		.byte	(.L225-.L227)/2
 1534 0018 07       		.byte	(.L226-.L227)/2
 1535 0019 00       		.p2align 1
ARM GAS  D:\Programs\cygwin64\tmp\cctM4zih.s 			page 27


 1536              	.L226:
 1537 001a DA68     		ldr	r2, [r3, #12]
 1538 001c 42F01002 		orr	r2, r2, #16
 1539 0020 DA60     		str	r2, [r3, #12]
 1540              	.L225:
 1541 0022 186A     		ldr	r0, [r3, #32]
 1542 0024 184C     		ldr	r4, .L238
 1543 0026 01F01F02 		and	r2, r1, #31
 1544 002a 0121     		movs	r1, #1
 1545 002c 9140     		lsls	r1, r1, r2
 1546 002e 20EA0100 		bic	r0, r0, r1
 1547 0032 1862     		str	r0, [r3, #32]
 1548 0034 1A6A     		ldr	r2, [r3, #32]
 1549 0036 A342     		cmp	r3, r4
 1550 0038 41EA0201 		orr	r1, r1, r2
 1551 003c 1962     		str	r1, [r3, #32]
 1552 003e 0FD0     		beq	.L231
 1553 0040 124A     		ldr	r2, .L238+4
 1554 0042 9342     		cmp	r3, r2
 1555 0044 0CD0     		beq	.L231
 1556              	.L232:
 1557 0046 9A68     		ldr	r2, [r3, #8]
 1558 0048 02F00702 		and	r2, r2, #7
 1559 004c 062A     		cmp	r2, #6
 1560 004e 03D0     		beq	.L233
 1561 0050 1A68     		ldr	r2, [r3]
 1562 0052 42F00102 		orr	r2, r2, #1
 1563 0056 1A60     		str	r2, [r3]
 1564              	.L233:
 1565 0058 0020     		movs	r0, #0
 1566 005a 5DF8044B 		ldr	r4, [sp], #4
 1567 005e 7047     		bx	lr
 1568              	.L231:
 1569 0060 5A6C     		ldr	r2, [r3, #68]
 1570 0062 42F40042 		orr	r2, r2, #32768
 1571 0066 5A64     		str	r2, [r3, #68]
 1572 0068 EDE7     		b	.L232
 1573              	.L228:
 1574 006a DA68     		ldr	r2, [r3, #12]
 1575 006c 42F00802 		orr	r2, r2, #8
 1576 0070 DA60     		str	r2, [r3, #12]
 1577 0072 D6E7     		b	.L225
 1578              	.L229:
 1579 0074 DA68     		ldr	r2, [r3, #12]
 1580 0076 42F00402 		orr	r2, r2, #4
 1581 007a DA60     		str	r2, [r3, #12]
 1582 007c D1E7     		b	.L225
 1583              	.L230:
 1584 007e DA68     		ldr	r2, [r3, #12]
 1585 0080 42F00202 		orr	r2, r2, #2
 1586 0084 DA60     		str	r2, [r3, #12]
 1587 0086 CCE7     		b	.L225
 1588              	.L239:
 1589              		.align	2
 1590              	.L238:
 1591 0088 00000140 		.word	1073807360
 1592 008c 00040140 		.word	1073808384
ARM GAS  D:\Programs\cygwin64\tmp\cctM4zih.s 			page 28


 1594              		.section	.text.HAL_TIM_PWM_Stop_IT,"ax",%progbits
 1595              		.align	1
 1596              		.p2align 2,,3
 1597              		.global	HAL_TIM_PWM_Stop_IT
 1598              		.syntax unified
 1599              		.thumb
 1600              		.thumb_func
 1601              		.fpu fpv4-sp-d16
 1603              	HAL_TIM_PWM_Stop_IT:
 1604              		@ args = 0, pretend = 0, frame = 0
 1605              		@ frame_needed = 0, uses_anonymous_args = 0
 1606              		@ link register save eliminated.
 1607 0000 10B4     		push	{r4}
 1608 0002 0368     		ldr	r3, [r0]
 1609 0004 0C29     		cmp	r1, #12
 1610 0006 0CD8     		bhi	.L241
 1611 0008 DFE801F0 		tbb	[pc, r1]
 1612              	.L243:
 1613 000c 47       		.byte	(.L246-.L243)/2
 1614 000d 0B       		.byte	(.L241-.L243)/2
 1615 000e 0B       		.byte	(.L241-.L243)/2
 1616 000f 0B       		.byte	(.L241-.L243)/2
 1617 0010 42       		.byte	(.L245-.L243)/2
 1618 0011 0B       		.byte	(.L241-.L243)/2
 1619 0012 0B       		.byte	(.L241-.L243)/2
 1620 0013 0B       		.byte	(.L241-.L243)/2
 1621 0014 3D       		.byte	(.L244-.L243)/2
 1622 0015 0B       		.byte	(.L241-.L243)/2
 1623 0016 0B       		.byte	(.L241-.L243)/2
 1624 0017 0B       		.byte	(.L241-.L243)/2
 1625 0018 07       		.byte	(.L242-.L243)/2
 1626 0019 00       		.p2align 1
 1627              	.L242:
 1628 001a DA68     		ldr	r2, [r3, #12]
 1629 001c 22F01002 		bic	r2, r2, #16
 1630 0020 DA60     		str	r2, [r3, #12]
 1631              	.L241:
 1632 0022 1A6A     		ldr	r2, [r3, #32]
 1633 0024 1F4C     		ldr	r4, .L251
 1634 0026 01F01F01 		and	r1, r1, #31
 1635 002a 0120     		movs	r0, #1
 1636 002c 00FA01F1 		lsl	r1, r0, r1
 1637 0030 22EA0101 		bic	r1, r2, r1
 1638 0034 1962     		str	r1, [r3, #32]
 1639 0036 1A6A     		ldr	r2, [r3, #32]
 1640 0038 1A62     		str	r2, [r3, #32]
 1641 003a A342     		cmp	r3, r4
 1642 003c 14D0     		beq	.L247
 1643 003e 1A4A     		ldr	r2, .L251+4
 1644 0040 9342     		cmp	r3, r2
 1645 0042 11D0     		beq	.L247
 1646              	.L248:
 1647 0044 196A     		ldr	r1, [r3, #32]
 1648 0046 41F21112 		movw	r2, #4369
 1649 004a 1142     		tst	r1, r2
 1650 004c 08D1     		bne	.L249
 1651 004e 196A     		ldr	r1, [r3, #32]
ARM GAS  D:\Programs\cygwin64\tmp\cctM4zih.s 			page 29


 1652 0050 40F24442 		movw	r2, #1092
 1653 0054 1142     		tst	r1, r2
 1654 0056 03D1     		bne	.L249
 1655 0058 1A68     		ldr	r2, [r3]
 1656 005a 22F00102 		bic	r2, r2, #1
 1657 005e 1A60     		str	r2, [r3]
 1658              	.L249:
 1659 0060 0020     		movs	r0, #0
 1660 0062 5DF8044B 		ldr	r4, [sp], #4
 1661 0066 7047     		bx	lr
 1662              	.L247:
 1663 0068 196A     		ldr	r1, [r3, #32]
 1664 006a 41F21112 		movw	r2, #4369
 1665 006e 1142     		tst	r1, r2
 1666 0070 E8D1     		bne	.L248
 1667 0072 196A     		ldr	r1, [r3, #32]
 1668 0074 40F24442 		movw	r2, #1092
 1669 0078 1142     		tst	r1, r2
 1670 007a E3D1     		bne	.L248
 1671 007c 5A6C     		ldr	r2, [r3, #68]
 1672 007e 22F40042 		bic	r2, r2, #32768
 1673 0082 5A64     		str	r2, [r3, #68]
 1674 0084 DEE7     		b	.L248
 1675              	.L244:
 1676 0086 DA68     		ldr	r2, [r3, #12]
 1677 0088 22F00802 		bic	r2, r2, #8
 1678 008c DA60     		str	r2, [r3, #12]
 1679 008e C8E7     		b	.L241
 1680              	.L245:
 1681 0090 DA68     		ldr	r2, [r3, #12]
 1682 0092 22F00402 		bic	r2, r2, #4
 1683 0096 DA60     		str	r2, [r3, #12]
 1684 0098 C3E7     		b	.L241
 1685              	.L246:
 1686 009a DA68     		ldr	r2, [r3, #12]
 1687 009c 22F00202 		bic	r2, r2, #2
 1688 00a0 DA60     		str	r2, [r3, #12]
 1689 00a2 BEE7     		b	.L241
 1690              	.L252:
 1691              		.align	2
 1692              	.L251:
 1693 00a4 00000140 		.word	1073807360
 1694 00a8 00040140 		.word	1073808384
 1696              		.section	.text.HAL_TIM_PWM_Start_DMA,"ax",%progbits
 1697              		.align	1
 1698              		.p2align 2,,3
 1699              		.global	HAL_TIM_PWM_Start_DMA
 1700              		.syntax unified
 1701              		.thumb
 1702              		.thumb_func
 1703              		.fpu fpv4-sp-d16
 1705              	HAL_TIM_PWM_Start_DMA:
 1706              		@ args = 0, pretend = 0, frame = 0
 1707              		@ frame_needed = 0, uses_anonymous_args = 0
 1708 0000 F8B5     		push	{r3, r4, r5, r6, r7, lr}
 1709 0002 90F83D40 		ldrb	r4, [r0, #61]	@ zero_extendqisi2
 1710 0006 E4B2     		uxtb	r4, r4
ARM GAS  D:\Programs\cygwin64\tmp\cctM4zih.s 			page 30


 1711 0008 022C     		cmp	r4, #2
 1712 000a 00F09B80 		beq	.L266
 1713 000e 90F83D40 		ldrb	r4, [r0, #61]	@ zero_extendqisi2
 1714 0012 012C     		cmp	r4, #1
 1715 0014 4CD0     		beq	.L272
 1716              	.L255:
 1717 0016 1746     		mov	r7, r2
 1718 0018 0E46     		mov	r6, r1
 1719 001a 0546     		mov	r5, r0
 1720 001c 0468     		ldr	r4, [r0]
 1721 001e 0C29     		cmp	r1, #12
 1722 0020 1DD8     		bhi	.L257
 1723 0022 DFE801F0 		tbb	[pc, r1]
 1724              	.L259:
 1725 0026 4B       		.byte	(.L262-.L259)/2
 1726 0027 1C       		.byte	(.L257-.L259)/2
 1727 0028 1C       		.byte	(.L257-.L259)/2
 1728 0029 1C       		.byte	(.L257-.L259)/2
 1729 002a 61       		.byte	(.L261-.L259)/2
 1730 002b 1C       		.byte	(.L257-.L259)/2
 1731 002c 1C       		.byte	(.L257-.L259)/2
 1732 002d 1C       		.byte	(.L257-.L259)/2
 1733 002e 76       		.byte	(.L260-.L259)/2
 1734 002f 1C       		.byte	(.L257-.L259)/2
 1735 0030 1C       		.byte	(.L257-.L259)/2
 1736 0031 1C       		.byte	(.L257-.L259)/2
 1737 0032 07       		.byte	(.L258-.L259)/2
 1738 0033 00       		.p2align 1
 1739              	.L258:
 1740 0034 006B     		ldr	r0, [r0, #48]
 1741 0036 4449     		ldr	r1, .L275
 1742 0038 444A     		ldr	r2, .L275+4
 1743 003a DFF81CC1 		ldr	ip, .L275+16
 1744 003e C163     		str	r1, [r0, #60]
 1745 0040 0264     		str	r2, [r0, #64]
 1746 0042 3946     		mov	r1, r7
 1747 0044 04F14002 		add	r2, r4, #64
 1748 0048 C0F84CC0 		str	ip, [r0, #76]
 1749 004c FFF7FEFF 		bl	HAL_DMA_Start_IT
 1750 0050 0028     		cmp	r0, #0
 1751 0052 75D1     		bne	.L263
 1752 0054 2C68     		ldr	r4, [r5]
 1753 0056 E368     		ldr	r3, [r4, #12]
 1754 0058 43F48053 		orr	r3, r3, #4096
 1755 005c E360     		str	r3, [r4, #12]
 1756              	.L257:
 1757 005e 226A     		ldr	r2, [r4, #32]
 1758 0060 3B48     		ldr	r0, .L275+8
 1759 0062 0123     		movs	r3, #1
 1760 0064 06F01F01 		and	r1, r6, #31
 1761 0068 03FA01F1 		lsl	r1, r3, r1
 1762 006c 22EA0102 		bic	r2, r2, r1
 1763 0070 2262     		str	r2, [r4, #32]
 1764 0072 236A     		ldr	r3, [r4, #32]
 1765 0074 8442     		cmp	r4, r0
 1766 0076 41EA0301 		orr	r1, r1, r3
 1767 007a 2162     		str	r1, [r4, #32]
ARM GAS  D:\Programs\cygwin64\tmp\cctM4zih.s 			page 31


 1768 007c 0DD0     		beq	.L264
 1769 007e 354B     		ldr	r3, .L275+12
 1770 0080 9C42     		cmp	r4, r3
 1771 0082 0AD0     		beq	.L264
 1772 0084 A368     		ldr	r3, [r4, #8]
 1773 0086 03F00703 		and	r3, r3, #7
 1774 008a 062B     		cmp	r3, #6
 1775 008c 0ED0     		beq	.L267
 1776              	.L273:
 1777 008e 2368     		ldr	r3, [r4]
 1778 0090 43F00103 		orr	r3, r3, #1
 1779 0094 2360     		str	r3, [r4]
 1780 0096 0020     		movs	r0, #0
 1781 0098 F8BD     		pop	{r3, r4, r5, r6, r7, pc}
 1782              	.L264:
 1783 009a 636C     		ldr	r3, [r4, #68]
 1784 009c 43F40043 		orr	r3, r3, #32768
 1785 00a0 6364     		str	r3, [r4, #68]
 1786 00a2 A368     		ldr	r3, [r4, #8]
 1787 00a4 03F00703 		and	r3, r3, #7
 1788 00a8 062B     		cmp	r3, #6
 1789 00aa F0D1     		bne	.L273
 1790              	.L267:
 1791 00ac 0020     		movs	r0, #0
 1792 00ae F8BD     		pop	{r3, r4, r5, r6, r7, pc}
 1793              	.L272:
 1794 00b0 002A     		cmp	r2, #0
 1795 00b2 43D0     		beq	.L274
 1796              	.L256:
 1797 00b4 0224     		movs	r4, #2
 1798 00b6 80F83D40 		strb	r4, [r0, #61]
 1799 00ba ACE7     		b	.L255
 1800              	.L262:
 1801 00bc 406A     		ldr	r0, [r0, #36]
 1802 00be 2249     		ldr	r1, .L275
 1803 00c0 224A     		ldr	r2, .L275+4
 1804 00c2 DFF894C0 		ldr	ip, .L275+16
 1805 00c6 C163     		str	r1, [r0, #60]
 1806 00c8 0264     		str	r2, [r0, #64]
 1807 00ca 3946     		mov	r1, r7
 1808 00cc 04F13402 		add	r2, r4, #52
 1809 00d0 C0F84CC0 		str	ip, [r0, #76]
 1810 00d4 FFF7FEFF 		bl	HAL_DMA_Start_IT
 1811 00d8 0028     		cmp	r0, #0
 1812 00da 31D1     		bne	.L263
 1813 00dc 2C68     		ldr	r4, [r5]
 1814 00de E368     		ldr	r3, [r4, #12]
 1815 00e0 43F40073 		orr	r3, r3, #512
 1816 00e4 E360     		str	r3, [r4, #12]
 1817 00e6 BAE7     		b	.L257
 1818              	.L261:
 1819 00e8 806A     		ldr	r0, [r0, #40]
 1820 00ea 1749     		ldr	r1, .L275
 1821 00ec 174A     		ldr	r2, .L275+4
 1822 00ee DFF868C0 		ldr	ip, .L275+16
 1823 00f2 C163     		str	r1, [r0, #60]
 1824 00f4 0264     		str	r2, [r0, #64]
ARM GAS  D:\Programs\cygwin64\tmp\cctM4zih.s 			page 32


 1825 00f6 3946     		mov	r1, r7
 1826 00f8 04F13802 		add	r2, r4, #56
 1827 00fc C0F84CC0 		str	ip, [r0, #76]
 1828 0100 FFF7FEFF 		bl	HAL_DMA_Start_IT
 1829 0104 E0B9     		cbnz	r0, .L263
 1830 0106 2C68     		ldr	r4, [r5]
 1831 0108 E368     		ldr	r3, [r4, #12]
 1832 010a 43F48063 		orr	r3, r3, #1024
 1833 010e E360     		str	r3, [r4, #12]
 1834 0110 A5E7     		b	.L257
 1835              	.L260:
 1836 0112 C06A     		ldr	r0, [r0, #44]
 1837 0114 0C49     		ldr	r1, .L275
 1838 0116 0D4A     		ldr	r2, .L275+4
 1839 0118 DFF83CC0 		ldr	ip, .L275+16
 1840 011c C163     		str	r1, [r0, #60]
 1841 011e 0264     		str	r2, [r0, #64]
 1842 0120 3946     		mov	r1, r7
 1843 0122 04F13C02 		add	r2, r4, #60
 1844 0126 C0F84CC0 		str	ip, [r0, #76]
 1845 012a FFF7FEFF 		bl	HAL_DMA_Start_IT
 1846 012e 38B9     		cbnz	r0, .L263
 1847 0130 2C68     		ldr	r4, [r5]
 1848 0132 E368     		ldr	r3, [r4, #12]
 1849 0134 43F40063 		orr	r3, r3, #2048
 1850 0138 E360     		str	r3, [r4, #12]
 1851 013a 90E7     		b	.L257
 1852              	.L274:
 1853 013c 002B     		cmp	r3, #0
 1854 013e B9D0     		beq	.L256
 1855              	.L263:
 1856 0140 0120     		movs	r0, #1
 1857 0142 F8BD     		pop	{r3, r4, r5, r6, r7, pc}
 1858              	.L266:
 1859 0144 2046     		mov	r0, r4
 1860 0146 F8BD     		pop	{r3, r4, r5, r6, r7, pc}
 1861              	.L276:
 1862              		.align	2
 1863              	.L275:
 1864 0148 00000000 		.word	TIM_DMADelayPulseCplt
 1865 014c 00000000 		.word	TIM_DMADelayPulseHalfCplt
 1866 0150 00000140 		.word	1073807360
 1867 0154 00040140 		.word	1073808384
 1868 0158 00000000 		.word	TIM_DMAError
 1870              		.section	.text.HAL_TIM_PWM_Stop_DMA,"ax",%progbits
 1871              		.align	1
 1872              		.p2align 2,,3
 1873              		.global	HAL_TIM_PWM_Stop_DMA
 1874              		.syntax unified
 1875              		.thumb
 1876              		.thumb_func
 1877              		.fpu fpv4-sp-d16
 1879              	HAL_TIM_PWM_Stop_DMA:
 1880              		@ args = 0, pretend = 0, frame = 0
 1881              		@ frame_needed = 0, uses_anonymous_args = 0
 1882 0000 38B5     		push	{r3, r4, r5, lr}
 1883 0002 0546     		mov	r5, r0
ARM GAS  D:\Programs\cygwin64\tmp\cctM4zih.s 			page 33


 1884 0004 0C46     		mov	r4, r1
 1885 0006 0368     		ldr	r3, [r0]
 1886 0008 0C29     		cmp	r1, #12
 1887 000a 10D8     		bhi	.L278
 1888 000c DFE801F0 		tbb	[pc, r1]
 1889              	.L280:
 1890 0010 54       		.byte	(.L283-.L280)/2
 1891 0011 0F       		.byte	(.L278-.L280)/2
 1892 0012 0F       		.byte	(.L278-.L280)/2
 1893 0013 0F       		.byte	(.L278-.L280)/2
 1894 0014 4B       		.byte	(.L282-.L280)/2
 1895 0015 0F       		.byte	(.L278-.L280)/2
 1896 0016 0F       		.byte	(.L278-.L280)/2
 1897 0017 0F       		.byte	(.L278-.L280)/2
 1898 0018 42       		.byte	(.L281-.L280)/2
 1899 0019 0F       		.byte	(.L278-.L280)/2
 1900 001a 0F       		.byte	(.L278-.L280)/2
 1901 001b 0F       		.byte	(.L278-.L280)/2
 1902 001c 07       		.byte	(.L279-.L280)/2
 1903 001d 00       		.p2align 1
 1904              	.L279:
 1905 001e DA68     		ldr	r2, [r3, #12]
 1906 0020 006B     		ldr	r0, [r0, #48]
 1907 0022 22F48052 		bic	r2, r2, #4096
 1908 0026 DA60     		str	r2, [r3, #12]
 1909 0028 FFF7FEFF 		bl	HAL_DMA_Abort_IT
 1910 002c 2B68     		ldr	r3, [r5]
 1911              	.L278:
 1912 002e 1A6A     		ldr	r2, [r3, #32]
 1913 0030 2648     		ldr	r0, .L288
 1914 0032 04F01F04 		and	r4, r4, #31
 1915 0036 0121     		movs	r1, #1
 1916 0038 01FA04F4 		lsl	r4, r1, r4
 1917 003c 22EA0402 		bic	r2, r2, r4
 1918 0040 1A62     		str	r2, [r3, #32]
 1919 0042 1A6A     		ldr	r2, [r3, #32]
 1920 0044 1A62     		str	r2, [r3, #32]
 1921 0046 8342     		cmp	r3, r0
 1922 0048 15D0     		beq	.L284
 1923 004a 214A     		ldr	r2, .L288+4
 1924 004c 9342     		cmp	r3, r2
 1925 004e 12D0     		beq	.L284
 1926              	.L285:
 1927 0050 196A     		ldr	r1, [r3, #32]
 1928 0052 41F21112 		movw	r2, #4369
 1929 0056 1142     		tst	r1, r2
 1930 0058 08D1     		bne	.L286
 1931 005a 196A     		ldr	r1, [r3, #32]
 1932 005c 40F24442 		movw	r2, #1092
 1933 0060 1142     		tst	r1, r2
 1934 0062 03D1     		bne	.L286
 1935 0064 1A68     		ldr	r2, [r3]
 1936 0066 22F00102 		bic	r2, r2, #1
 1937 006a 1A60     		str	r2, [r3]
 1938              	.L286:
 1939 006c 0123     		movs	r3, #1
 1940 006e 85F83D30 		strb	r3, [r5, #61]
ARM GAS  D:\Programs\cygwin64\tmp\cctM4zih.s 			page 34


 1941 0072 0020     		movs	r0, #0
 1942 0074 38BD     		pop	{r3, r4, r5, pc}
 1943              	.L284:
 1944 0076 196A     		ldr	r1, [r3, #32]
 1945 0078 41F21112 		movw	r2, #4369
 1946 007c 1142     		tst	r1, r2
 1947 007e E7D1     		bne	.L285
 1948 0080 196A     		ldr	r1, [r3, #32]
 1949 0082 40F24442 		movw	r2, #1092
 1950 0086 1142     		tst	r1, r2
 1951 0088 E2D1     		bne	.L285
 1952 008a 5A6C     		ldr	r2, [r3, #68]
 1953 008c 22F40042 		bic	r2, r2, #32768
 1954 0090 5A64     		str	r2, [r3, #68]
 1955 0092 DDE7     		b	.L285
 1956              	.L281:
 1957 0094 DA68     		ldr	r2, [r3, #12]
 1958 0096 C06A     		ldr	r0, [r0, #44]
 1959 0098 22F40062 		bic	r2, r2, #2048
 1960 009c DA60     		str	r2, [r3, #12]
 1961 009e FFF7FEFF 		bl	HAL_DMA_Abort_IT
 1962 00a2 2B68     		ldr	r3, [r5]
 1963 00a4 C3E7     		b	.L278
 1964              	.L282:
 1965 00a6 DA68     		ldr	r2, [r3, #12]
 1966 00a8 806A     		ldr	r0, [r0, #40]
 1967 00aa 22F48062 		bic	r2, r2, #1024
 1968 00ae DA60     		str	r2, [r3, #12]
 1969 00b0 FFF7FEFF 		bl	HAL_DMA_Abort_IT
 1970 00b4 2B68     		ldr	r3, [r5]
 1971 00b6 BAE7     		b	.L278
 1972              	.L283:
 1973 00b8 DA68     		ldr	r2, [r3, #12]
 1974 00ba 406A     		ldr	r0, [r0, #36]
 1975 00bc 22F40072 		bic	r2, r2, #512
 1976 00c0 DA60     		str	r2, [r3, #12]
 1977 00c2 FFF7FEFF 		bl	HAL_DMA_Abort_IT
 1978 00c6 2B68     		ldr	r3, [r5]
 1979 00c8 B1E7     		b	.L278
 1980              	.L289:
 1981 00ca 00BF     		.align	2
 1982              	.L288:
 1983 00cc 00000140 		.word	1073807360
 1984 00d0 00040140 		.word	1073808384
 1986              		.section	.text.HAL_TIM_IC_MspInit,"ax",%progbits
 1987              		.align	1
 1988              		.p2align 2,,3
 1989              		.weak	HAL_TIM_IC_MspInit
 1990              		.syntax unified
 1991              		.thumb
 1992              		.thumb_func
 1993              		.fpu fpv4-sp-d16
 1995              	HAL_TIM_IC_MspInit:
 1996              		@ args = 0, pretend = 0, frame = 0
 1997              		@ frame_needed = 0, uses_anonymous_args = 0
 1998              		@ link register save eliminated.
 1999 0000 7047     		bx	lr
ARM GAS  D:\Programs\cygwin64\tmp\cctM4zih.s 			page 35


 2001 0002 00BF     		.section	.text.HAL_TIM_IC_Init,"ax",%progbits
 2002              		.align	1
 2003              		.p2align 2,,3
 2004              		.global	HAL_TIM_IC_Init
 2005              		.syntax unified
 2006              		.thumb
 2007              		.thumb_func
 2008              		.fpu fpv4-sp-d16
 2010              	HAL_TIM_IC_Init:
 2011              		@ args = 0, pretend = 0, frame = 0
 2012              		@ frame_needed = 0, uses_anonymous_args = 0
 2013 0000 0028     		cmp	r0, #0
 2014 0002 68D0     		beq	.L304
 2015 0004 F8B5     		push	{r3, r4, r5, r6, r7, lr}
 2016 0006 90F83D30 		ldrb	r3, [r0, #61]	@ zero_extendqisi2
 2017 000a 0446     		mov	r4, r0
 2018 000c 03F0FF02 		and	r2, r3, #255
 2019 0010 002B     		cmp	r3, #0
 2020 0012 5BD0     		beq	.L312
 2021              	.L293:
 2022 0014 2268     		ldr	r2, [r4]
 2023 0016 314D     		ldr	r5, .L313
 2024 0018 A669     		ldr	r6, [r4, #24]
 2025 001a E068     		ldr	r0, [r4, #12]
 2026 001c 6168     		ldr	r1, [r4, #4]
 2027 001e 0223     		movs	r3, #2
 2028 0020 84F83D30 		strb	r3, [r4, #61]
 2029 0024 AA42     		cmp	r2, r5
 2030 0026 1368     		ldr	r3, [r2]
 2031 0028 3FD0     		beq	.L299
 2032 002a B2F1804F 		cmp	r2, #1073741824
 2033 002e 28D0     		beq	.L296
 2034 0030 A5F57C45 		sub	r5, r5, #64512
 2035 0034 AA42     		cmp	r2, r5
 2036 0036 24D0     		beq	.L296
 2037 0038 05F58065 		add	r5, r5, #1024
 2038 003c AA42     		cmp	r2, r5
 2039 003e 20D0     		beq	.L296
 2040 0040 05F58065 		add	r5, r5, #1024
 2041 0044 AA42     		cmp	r2, r5
 2042 0046 1CD0     		beq	.L296
 2043 0048 05F57845 		add	r5, r5, #63488
 2044 004c AA42     		cmp	r2, r5
 2045 004e 2CD0     		beq	.L299
 2046 0050 05F57055 		add	r5, r5, #15360
 2047 0054 AA42     		cmp	r2, r5
 2048 0056 18D0     		beq	.L300
 2049 0058 05F58065 		add	r5, r5, #1024
 2050 005c AA42     		cmp	r2, r5
 2051 005e 14D0     		beq	.L300
 2052 0060 05F58065 		add	r5, r5, #1024
 2053 0064 AA42     		cmp	r2, r5
 2054 0066 10D0     		beq	.L300
 2055 0068 A5F59835 		sub	r5, r5, #77824
 2056 006c AA42     		cmp	r2, r5
 2057 006e 0CD0     		beq	.L300
 2058 0070 05F58065 		add	r5, r5, #1024
ARM GAS  D:\Programs\cygwin64\tmp\cctM4zih.s 			page 36


 2059 0074 AA42     		cmp	r2, r5
 2060 0076 08D0     		beq	.L300
 2061 0078 05F58065 		add	r5, r5, #1024
 2062 007c AA42     		cmp	r2, r5
 2063 007e 08D1     		bne	.L311
 2064 0080 03E0     		b	.L300
 2065              	.L296:
 2066 0082 A568     		ldr	r5, [r4, #8]
 2067 0084 23F07003 		bic	r3, r3, #112
 2068 0088 2B43     		orrs	r3, r3, r5
 2069              	.L300:
 2070 008a 2569     		ldr	r5, [r4, #16]
 2071 008c 23F44073 		bic	r3, r3, #768
 2072 0090 2B43     		orrs	r3, r3, r5
 2073              	.L311:
 2074 0092 23F08003 		bic	r3, r3, #128
 2075 0096 3343     		orrs	r3, r3, r6
 2076 0098 1360     		str	r3, [r2]
 2077 009a D062     		str	r0, [r2, #44]
 2078 009c 9162     		str	r1, [r2, #40]
 2079              	.L302:
 2080 009e 0123     		movs	r3, #1
 2081 00a0 5361     		str	r3, [r2, #20]
 2082 00a2 0020     		movs	r0, #0
 2083 00a4 84F83D30 		strb	r3, [r4, #61]
 2084 00a8 F8BD     		pop	{r3, r4, r5, r6, r7, pc}
 2085              	.L299:
 2086 00aa A768     		ldr	r7, [r4, #8]
 2087 00ac 2569     		ldr	r5, [r4, #16]
 2088 00ae 23F07003 		bic	r3, r3, #112
 2089 00b2 3B43     		orrs	r3, r3, r7
 2090 00b4 23F44073 		bic	r3, r3, #768
 2091 00b8 2B43     		orrs	r3, r3, r5
 2092 00ba 23F08003 		bic	r3, r3, #128
 2093 00be 3343     		orrs	r3, r3, r6
 2094 00c0 1360     		str	r3, [r2]
 2095 00c2 D062     		str	r0, [r2, #44]
 2096 00c4 9162     		str	r1, [r2, #40]
 2097 00c6 6369     		ldr	r3, [r4, #20]
 2098 00c8 1363     		str	r3, [r2, #48]
 2099 00ca E8E7     		b	.L302
 2100              	.L312:
 2101 00cc 80F83C20 		strb	r2, [r0, #60]
 2102 00d0 FFF7FEFF 		bl	HAL_TIM_IC_MspInit
 2103 00d4 9EE7     		b	.L293
 2104              	.L304:
 2105 00d6 0120     		movs	r0, #1
 2106 00d8 7047     		bx	lr
 2107              	.L314:
 2108 00da 00BF     		.align	2
 2109              	.L313:
 2110 00dc 00000140 		.word	1073807360
 2112              		.section	.text.HAL_TIM_IC_MspDeInit,"ax",%progbits
 2113              		.align	1
 2114              		.p2align 2,,3
 2115              		.weak	HAL_TIM_IC_MspDeInit
 2116              		.syntax unified
ARM GAS  D:\Programs\cygwin64\tmp\cctM4zih.s 			page 37


 2117              		.thumb
 2118              		.thumb_func
 2119              		.fpu fpv4-sp-d16
 2121              	HAL_TIM_IC_MspDeInit:
 2122              		@ args = 0, pretend = 0, frame = 0
 2123              		@ frame_needed = 0, uses_anonymous_args = 0
 2124              		@ link register save eliminated.
 2125 0000 7047     		bx	lr
 2127 0002 00BF     		.section	.text.HAL_TIM_IC_DeInit,"ax",%progbits
 2128              		.align	1
 2129              		.p2align 2,,3
 2130              		.global	HAL_TIM_IC_DeInit
 2131              		.syntax unified
 2132              		.thumb
 2133              		.thumb_func
 2134              		.fpu fpv4-sp-d16
 2136              	HAL_TIM_IC_DeInit:
 2137              		@ args = 0, pretend = 0, frame = 0
 2138              		@ frame_needed = 0, uses_anonymous_args = 0
 2139 0000 0222     		movs	r2, #2
 2140 0002 0368     		ldr	r3, [r0]
 2141 0004 10B5     		push	{r4, lr}
 2142 0006 80F83D20 		strb	r2, [r0, #61]
 2143 000a 196A     		ldr	r1, [r3, #32]
 2144 000c 41F21112 		movw	r2, #4369
 2145 0010 1142     		tst	r1, r2
 2146 0012 0446     		mov	r4, r0
 2147 0014 08D1     		bne	.L317
 2148 0016 196A     		ldr	r1, [r3, #32]
 2149 0018 40F24442 		movw	r2, #1092
 2150 001c 1142     		tst	r1, r2
 2151 001e 03D1     		bne	.L317
 2152 0020 1A68     		ldr	r2, [r3]
 2153 0022 22F00102 		bic	r2, r2, #1
 2154 0026 1A60     		str	r2, [r3]
 2155              	.L317:
 2156 0028 2046     		mov	r0, r4
 2157 002a FFF7FEFF 		bl	HAL_TIM_IC_MspDeInit
 2158 002e 0020     		movs	r0, #0
 2159 0030 84F83D00 		strb	r0, [r4, #61]
 2160 0034 84F83C00 		strb	r0, [r4, #60]
 2161 0038 10BD     		pop	{r4, pc}
 2163 003a 00BF     		.section	.text.HAL_TIM_IC_Start,"ax",%progbits
 2164              		.align	1
 2165              		.p2align 2,,3
 2166              		.global	HAL_TIM_IC_Start
 2167              		.syntax unified
 2168              		.thumb
 2169              		.thumb_func
 2170              		.fpu fpv4-sp-d16
 2172              	HAL_TIM_IC_Start:
 2173              		@ args = 0, pretend = 0, frame = 0
 2174              		@ frame_needed = 0, uses_anonymous_args = 0
 2175              		@ link register save eliminated.
 2176 0000 0368     		ldr	r3, [r0]
 2177 0002 0122     		movs	r2, #1
 2178 0004 186A     		ldr	r0, [r3, #32]
ARM GAS  D:\Programs\cygwin64\tmp\cctM4zih.s 			page 38


 2179 0006 01F01F01 		and	r1, r1, #31
 2180 000a 02FA01F1 		lsl	r1, r2, r1
 2181 000e 20EA0100 		bic	r0, r0, r1
 2182 0012 1862     		str	r0, [r3, #32]
 2183 0014 1A6A     		ldr	r2, [r3, #32]
 2184 0016 1143     		orrs	r1, r1, r2
 2185 0018 1962     		str	r1, [r3, #32]
 2186 001a 9A68     		ldr	r2, [r3, #8]
 2187 001c 02F00702 		and	r2, r2, #7
 2188 0020 062A     		cmp	r2, #6
 2189 0022 03D0     		beq	.L320
 2190 0024 1A68     		ldr	r2, [r3]
 2191 0026 42F00102 		orr	r2, r2, #1
 2192 002a 1A60     		str	r2, [r3]
 2193              	.L320:
 2194 002c 0020     		movs	r0, #0
 2195 002e 7047     		bx	lr
 2197              		.section	.text.HAL_TIM_IC_Stop,"ax",%progbits
 2198              		.align	1
 2199              		.p2align 2,,3
 2200              		.global	HAL_TIM_IC_Stop
 2201              		.syntax unified
 2202              		.thumb
 2203              		.thumb_func
 2204              		.fpu fpv4-sp-d16
 2206              	HAL_TIM_IC_Stop:
 2207              		@ args = 0, pretend = 0, frame = 0
 2208              		@ frame_needed = 0, uses_anonymous_args = 0
 2209              		@ link register save eliminated.
 2210 0000 0368     		ldr	r3, [r0]
 2211 0002 01F01F01 		and	r1, r1, #31
 2212 0006 1A6A     		ldr	r2, [r3, #32]
 2213 0008 0120     		movs	r0, #1
 2214 000a 8840     		lsls	r0, r0, r1
 2215 000c 22EA0002 		bic	r2, r2, r0
 2216 0010 1A62     		str	r2, [r3, #32]
 2217 0012 1A6A     		ldr	r2, [r3, #32]
 2218 0014 1A62     		str	r2, [r3, #32]
 2219 0016 196A     		ldr	r1, [r3, #32]
 2220 0018 41F21112 		movw	r2, #4369
 2221 001c 1142     		tst	r1, r2
 2222 001e 08D1     		bne	.L325
 2223 0020 196A     		ldr	r1, [r3, #32]
 2224 0022 40F24442 		movw	r2, #1092
 2225 0026 1142     		tst	r1, r2
 2226 0028 03D1     		bne	.L325
 2227 002a 1A68     		ldr	r2, [r3]
 2228 002c 22F00102 		bic	r2, r2, #1
 2229 0030 1A60     		str	r2, [r3]
 2230              	.L325:
 2231 0032 0020     		movs	r0, #0
 2232 0034 7047     		bx	lr
 2234 0036 00BF     		.section	.text.HAL_TIM_IC_Start_IT,"ax",%progbits
 2235              		.align	1
 2236              		.p2align 2,,3
 2237              		.global	HAL_TIM_IC_Start_IT
 2238              		.syntax unified
ARM GAS  D:\Programs\cygwin64\tmp\cctM4zih.s 			page 39


 2239              		.thumb
 2240              		.thumb_func
 2241              		.fpu fpv4-sp-d16
 2243              	HAL_TIM_IC_Start_IT:
 2244              		@ args = 0, pretend = 0, frame = 0
 2245              		@ frame_needed = 0, uses_anonymous_args = 0
 2246              		@ link register save eliminated.
 2247 0000 0368     		ldr	r3, [r0]
 2248 0002 0C29     		cmp	r1, #12
 2249 0004 0CD8     		bhi	.L327
 2250 0006 DFE801F0 		tbb	[pc, r1]
 2251              	.L329:
 2252 000a 07       		.byte	(.L332-.L329)/2
 2253 000b 0B       		.byte	(.L327-.L329)/2
 2254 000c 0B       		.byte	(.L327-.L329)/2
 2255 000d 0B       		.byte	(.L327-.L329)/2
 2256 000e 2B       		.byte	(.L331-.L329)/2
 2257 000f 0B       		.byte	(.L327-.L329)/2
 2258 0010 0B       		.byte	(.L327-.L329)/2
 2259 0011 0B       		.byte	(.L327-.L329)/2
 2260 0012 26       		.byte	(.L330-.L329)/2
 2261 0013 0B       		.byte	(.L327-.L329)/2
 2262 0014 0B       		.byte	(.L327-.L329)/2
 2263 0015 0B       		.byte	(.L327-.L329)/2
 2264 0016 21       		.byte	(.L328-.L329)/2
 2265 0017 00       		.p2align 1
 2266              	.L332:
 2267 0018 DA68     		ldr	r2, [r3, #12]
 2268 001a 42F00202 		orr	r2, r2, #2
 2269 001e DA60     		str	r2, [r3, #12]
 2270              	.L327:
 2271 0020 186A     		ldr	r0, [r3, #32]
 2272 0022 01F01F02 		and	r2, r1, #31
 2273 0026 0121     		movs	r1, #1
 2274 0028 9140     		lsls	r1, r1, r2
 2275 002a 20EA0100 		bic	r0, r0, r1
 2276 002e 1862     		str	r0, [r3, #32]
 2277 0030 1A6A     		ldr	r2, [r3, #32]
 2278 0032 1143     		orrs	r1, r1, r2
 2279 0034 1962     		str	r1, [r3, #32]
 2280 0036 9A68     		ldr	r2, [r3, #8]
 2281 0038 02F00702 		and	r2, r2, #7
 2282 003c 062A     		cmp	r2, #6
 2283 003e 03D0     		beq	.L333
 2284 0040 1A68     		ldr	r2, [r3]
 2285 0042 42F00102 		orr	r2, r2, #1
 2286 0046 1A60     		str	r2, [r3]
 2287              	.L333:
 2288 0048 0020     		movs	r0, #0
 2289 004a 7047     		bx	lr
 2290              	.L328:
 2291 004c DA68     		ldr	r2, [r3, #12]
 2292 004e 42F01002 		orr	r2, r2, #16
 2293 0052 DA60     		str	r2, [r3, #12]
 2294 0054 E4E7     		b	.L327
 2295              	.L330:
 2296 0056 DA68     		ldr	r2, [r3, #12]
ARM GAS  D:\Programs\cygwin64\tmp\cctM4zih.s 			page 40


 2297 0058 42F00802 		orr	r2, r2, #8
 2298 005c DA60     		str	r2, [r3, #12]
 2299 005e DFE7     		b	.L327
 2300              	.L331:
 2301 0060 DA68     		ldr	r2, [r3, #12]
 2302 0062 42F00402 		orr	r2, r2, #4
 2303 0066 DA60     		str	r2, [r3, #12]
 2304 0068 DAE7     		b	.L327
 2306 006a 00BF     		.section	.text.HAL_TIM_IC_Stop_IT,"ax",%progbits
 2307              		.align	1
 2308              		.p2align 2,,3
 2309              		.global	HAL_TIM_IC_Stop_IT
 2310              		.syntax unified
 2311              		.thumb
 2312              		.thumb_func
 2313              		.fpu fpv4-sp-d16
 2315              	HAL_TIM_IC_Stop_IT:
 2316              		@ args = 0, pretend = 0, frame = 0
 2317              		@ frame_needed = 0, uses_anonymous_args = 0
 2318              		@ link register save eliminated.
 2319 0000 0368     		ldr	r3, [r0]
 2320 0002 0C29     		cmp	r1, #12
 2321 0004 0CD8     		bhi	.L338
 2322 0006 DFE801F0 		tbb	[pc, r1]
 2323              	.L340:
 2324 000a 07       		.byte	(.L343-.L340)/2
 2325 000b 0B       		.byte	(.L338-.L340)/2
 2326 000c 0B       		.byte	(.L338-.L340)/2
 2327 000d 0B       		.byte	(.L338-.L340)/2
 2328 000e 30       		.byte	(.L342-.L340)/2
 2329 000f 0B       		.byte	(.L338-.L340)/2
 2330 0010 0B       		.byte	(.L338-.L340)/2
 2331 0011 0B       		.byte	(.L338-.L340)/2
 2332 0012 2B       		.byte	(.L341-.L340)/2
 2333 0013 0B       		.byte	(.L338-.L340)/2
 2334 0014 0B       		.byte	(.L338-.L340)/2
 2335 0015 0B       		.byte	(.L338-.L340)/2
 2336 0016 26       		.byte	(.L339-.L340)/2
 2337 0017 00       		.p2align 1
 2338              	.L343:
 2339 0018 DA68     		ldr	r2, [r3, #12]
 2340 001a 22F00202 		bic	r2, r2, #2
 2341 001e DA60     		str	r2, [r3, #12]
 2342              	.L338:
 2343 0020 1A6A     		ldr	r2, [r3, #32]
 2344 0022 01F01F01 		and	r1, r1, #31
 2345 0026 0120     		movs	r0, #1
 2346 0028 00FA01F1 		lsl	r1, r0, r1
 2347 002c 22EA0101 		bic	r1, r2, r1
 2348 0030 1962     		str	r1, [r3, #32]
 2349 0032 1A6A     		ldr	r2, [r3, #32]
 2350 0034 1A62     		str	r2, [r3, #32]
 2351 0036 196A     		ldr	r1, [r3, #32]
 2352 0038 41F21112 		movw	r2, #4369
 2353 003c 1142     		tst	r1, r2
 2354 003e 08D1     		bne	.L344
 2355 0040 196A     		ldr	r1, [r3, #32]
ARM GAS  D:\Programs\cygwin64\tmp\cctM4zih.s 			page 41


 2356 0042 40F24442 		movw	r2, #1092
 2357 0046 1142     		tst	r1, r2
 2358 0048 03D1     		bne	.L344
 2359 004a 1A68     		ldr	r2, [r3]
 2360 004c 22F00102 		bic	r2, r2, #1
 2361 0050 1A60     		str	r2, [r3]
 2362              	.L344:
 2363 0052 0020     		movs	r0, #0
 2364 0054 7047     		bx	lr
 2365              	.L339:
 2366 0056 DA68     		ldr	r2, [r3, #12]
 2367 0058 22F01002 		bic	r2, r2, #16
 2368 005c DA60     		str	r2, [r3, #12]
 2369 005e DFE7     		b	.L338
 2370              	.L341:
 2371 0060 DA68     		ldr	r2, [r3, #12]
 2372 0062 22F00802 		bic	r2, r2, #8
 2373 0066 DA60     		str	r2, [r3, #12]
 2374 0068 DAE7     		b	.L338
 2375              	.L342:
 2376 006a DA68     		ldr	r2, [r3, #12]
 2377 006c 22F00402 		bic	r2, r2, #4
 2378 0070 DA60     		str	r2, [r3, #12]
 2379 0072 D5E7     		b	.L338
 2381              		.section	.text.HAL_TIM_IC_Start_DMA,"ax",%progbits
 2382              		.align	1
 2383              		.p2align 2,,3
 2384              		.global	HAL_TIM_IC_Start_DMA
 2385              		.syntax unified
 2386              		.thumb
 2387              		.thumb_func
 2388              		.fpu fpv4-sp-d16
 2390              	HAL_TIM_IC_Start_DMA:
 2391              		@ args = 0, pretend = 0, frame = 0
 2392              		@ frame_needed = 0, uses_anonymous_args = 0
 2393 0000 F8B5     		push	{r3, r4, r5, r6, r7, lr}
 2394 0002 90F83D40 		ldrb	r4, [r0, #61]	@ zero_extendqisi2
 2395 0006 E4B2     		uxtb	r4, r4
 2396 0008 022C     		cmp	r4, #2
 2397 000a 7DD0     		beq	.L356
 2398 000c 90F83D40 		ldrb	r4, [r0, #61]	@ zero_extendqisi2
 2399 0010 012C     		cmp	r4, #1
 2400 0012 38D0     		beq	.L362
 2401              	.L347:
 2402 0014 0E46     		mov	r6, r1
 2403 0016 0446     		mov	r4, r0
 2404 0018 0568     		ldr	r5, [r0]
 2405 001a 0C2E     		cmp	r6, #12
 2406 001c 1AD8     		bhi	.L349
 2407 001e DFE806F0 		tbb	[pc, r6]
 2408              	.L351:
 2409 0022 07       		.byte	(.L354-.L351)/2
 2410 0023 19       		.byte	(.L349-.L351)/2
 2411 0024 19       		.byte	(.L349-.L351)/2
 2412 0025 19       		.byte	(.L349-.L351)/2
 2413 0026 5D       		.byte	(.L353-.L351)/2
 2414 0027 19       		.byte	(.L349-.L351)/2
ARM GAS  D:\Programs\cygwin64\tmp\cctM4zih.s 			page 42


 2415 0028 19       		.byte	(.L349-.L351)/2
 2416 0029 19       		.byte	(.L349-.L351)/2
 2417 002a 38       		.byte	(.L352-.L351)/2
 2418 002b 19       		.byte	(.L349-.L351)/2
 2419 002c 19       		.byte	(.L349-.L351)/2
 2420 002d 19       		.byte	(.L349-.L351)/2
 2421 002e 4B       		.byte	(.L350-.L351)/2
 2422 002f 00       		.p2align 1
 2423              	.L354:
 2424 0030 406A     		ldr	r0, [r0, #36]
 2425 0032 364F     		ldr	r7, .L364
 2426 0034 3649     		ldr	r1, .L364+4
 2427 0036 C763     		str	r7, [r0, #60]
 2428 0038 364F     		ldr	r7, .L364+8
 2429 003a 0164     		str	r1, [r0, #64]
 2430 003c C764     		str	r7, [r0, #76]
 2431 003e 05F13401 		add	r1, r5, #52
 2432 0042 FFF7FEFF 		bl	HAL_DMA_Start_IT
 2433 0046 0028     		cmp	r0, #0
 2434 0048 5CD1     		bne	.L355
 2435 004a 2568     		ldr	r5, [r4]
 2436 004c EB68     		ldr	r3, [r5, #12]
 2437 004e 43F40073 		orr	r3, r3, #512
 2438 0052 EB60     		str	r3, [r5, #12]
 2439              	.L349:
 2440 0054 296A     		ldr	r1, [r5, #32]
 2441 0056 0122     		movs	r2, #1
 2442 0058 06F01F03 		and	r3, r6, #31
 2443 005c 02FA03F3 		lsl	r3, r2, r3
 2444 0060 21EA0301 		bic	r1, r1, r3
 2445 0064 2962     		str	r1, [r5, #32]
 2446 0066 2A6A     		ldr	r2, [r5, #32]
 2447 0068 1343     		orrs	r3, r3, r2
 2448 006a 2B62     		str	r3, [r5, #32]
 2449 006c AB68     		ldr	r3, [r5, #8]
 2450 006e 03F00703 		and	r3, r3, #7
 2451 0072 062B     		cmp	r3, #6
 2452 0074 05D0     		beq	.L357
 2453 0076 2B68     		ldr	r3, [r5]
 2454 0078 43F00103 		orr	r3, r3, #1
 2455 007c 2B60     		str	r3, [r5]
 2456 007e 0020     		movs	r0, #0
 2457 0080 F8BD     		pop	{r3, r4, r5, r6, r7, pc}
 2458              	.L357:
 2459 0082 0020     		movs	r0, #0
 2460 0084 F8BD     		pop	{r3, r4, r5, r6, r7, pc}
 2461              	.L362:
 2462 0086 002A     		cmp	r2, #0
 2463 0088 3AD0     		beq	.L363
 2464              	.L348:
 2465 008a 0224     		movs	r4, #2
 2466 008c 80F83D40 		strb	r4, [r0, #61]
 2467 0090 C0E7     		b	.L347
 2468              	.L352:
 2469 0092 C06A     		ldr	r0, [r0, #44]
 2470 0094 1D4F     		ldr	r7, .L364
 2471 0096 1E49     		ldr	r1, .L364+4
ARM GAS  D:\Programs\cygwin64\tmp\cctM4zih.s 			page 43


 2472 0098 C763     		str	r7, [r0, #60]
 2473 009a 1E4F     		ldr	r7, .L364+8
 2474 009c 0164     		str	r1, [r0, #64]
 2475 009e C764     		str	r7, [r0, #76]
 2476 00a0 05F13C01 		add	r1, r5, #60
 2477 00a4 FFF7FEFF 		bl	HAL_DMA_Start_IT
 2478 00a8 0028     		cmp	r0, #0
 2479 00aa 2BD1     		bne	.L355
 2480 00ac 2568     		ldr	r5, [r4]
 2481 00ae EB68     		ldr	r3, [r5, #12]
 2482 00b0 43F40063 		orr	r3, r3, #2048
 2483 00b4 EB60     		str	r3, [r5, #12]
 2484 00b6 CDE7     		b	.L349
 2485              	.L350:
 2486 00b8 006B     		ldr	r0, [r0, #48]
 2487 00ba 144F     		ldr	r7, .L364
 2488 00bc 1449     		ldr	r1, .L364+4
 2489 00be C763     		str	r7, [r0, #60]
 2490 00c0 144F     		ldr	r7, .L364+8
 2491 00c2 0164     		str	r1, [r0, #64]
 2492 00c4 C764     		str	r7, [r0, #76]
 2493 00c6 05F14001 		add	r1, r5, #64
 2494 00ca FFF7FEFF 		bl	HAL_DMA_Start_IT
 2495 00ce C8B9     		cbnz	r0, .L355
 2496 00d0 2568     		ldr	r5, [r4]
 2497 00d2 EB68     		ldr	r3, [r5, #12]
 2498 00d4 43F48053 		orr	r3, r3, #4096
 2499 00d8 EB60     		str	r3, [r5, #12]
 2500 00da BBE7     		b	.L349
 2501              	.L353:
 2502 00dc 806A     		ldr	r0, [r0, #40]
 2503 00de 0B4F     		ldr	r7, .L364
 2504 00e0 0B49     		ldr	r1, .L364+4
 2505 00e2 C763     		str	r7, [r0, #60]
 2506 00e4 0B4F     		ldr	r7, .L364+8
 2507 00e6 0164     		str	r1, [r0, #64]
 2508 00e8 C764     		str	r7, [r0, #76]
 2509 00ea 05F13801 		add	r1, r5, #56
 2510 00ee FFF7FEFF 		bl	HAL_DMA_Start_IT
 2511 00f2 38B9     		cbnz	r0, .L355
 2512 00f4 2568     		ldr	r5, [r4]
 2513 00f6 EB68     		ldr	r3, [r5, #12]
 2514 00f8 43F48063 		orr	r3, r3, #1024
 2515 00fc EB60     		str	r3, [r5, #12]
 2516 00fe A9E7     		b	.L349
 2517              	.L363:
 2518 0100 002B     		cmp	r3, #0
 2519 0102 C2D0     		beq	.L348
 2520              	.L355:
 2521 0104 0120     		movs	r0, #1
 2522 0106 F8BD     		pop	{r3, r4, r5, r6, r7, pc}
 2523              	.L356:
 2524 0108 2046     		mov	r0, r4
 2525 010a F8BD     		pop	{r3, r4, r5, r6, r7, pc}
 2526              	.L365:
 2527              		.align	2
 2528              	.L364:
ARM GAS  D:\Programs\cygwin64\tmp\cctM4zih.s 			page 44


 2529 010c 00000000 		.word	TIM_DMACaptureCplt
 2530 0110 00000000 		.word	TIM_DMACaptureHalfCplt
 2531 0114 00000000 		.word	TIM_DMAError
 2533              		.section	.text.HAL_TIM_IC_Stop_DMA,"ax",%progbits
 2534              		.align	1
 2535              		.p2align 2,,3
 2536              		.global	HAL_TIM_IC_Stop_DMA
 2537              		.syntax unified
 2538              		.thumb
 2539              		.thumb_func
 2540              		.fpu fpv4-sp-d16
 2542              	HAL_TIM_IC_Stop_DMA:
 2543              		@ args = 0, pretend = 0, frame = 0
 2544              		@ frame_needed = 0, uses_anonymous_args = 0
 2545 0000 38B5     		push	{r3, r4, r5, lr}
 2546 0002 0546     		mov	r5, r0
 2547 0004 0C46     		mov	r4, r1
 2548 0006 0368     		ldr	r3, [r0]
 2549 0008 0C29     		cmp	r1, #12
 2550 000a 10D8     		bhi	.L367
 2551 000c DFE801F0 		tbb	[pc, r1]
 2552              	.L369:
 2553 0010 07       		.byte	(.L372-.L369)/2
 2554 0011 0F       		.byte	(.L367-.L369)/2
 2555 0012 0F       		.byte	(.L367-.L369)/2
 2556 0013 0F       		.byte	(.L367-.L369)/2
 2557 0014 3F       		.byte	(.L371-.L369)/2
 2558 0015 0F       		.byte	(.L367-.L369)/2
 2559 0016 0F       		.byte	(.L367-.L369)/2
 2560 0017 0F       		.byte	(.L367-.L369)/2
 2561 0018 36       		.byte	(.L370-.L369)/2
 2562 0019 0F       		.byte	(.L367-.L369)/2
 2563 001a 0F       		.byte	(.L367-.L369)/2
 2564 001b 0F       		.byte	(.L367-.L369)/2
 2565 001c 2D       		.byte	(.L368-.L369)/2
 2566 001d 00       		.p2align 1
 2567              	.L372:
 2568 001e DA68     		ldr	r2, [r3, #12]
 2569 0020 406A     		ldr	r0, [r0, #36]
 2570 0022 22F40072 		bic	r2, r2, #512
 2571 0026 DA60     		str	r2, [r3, #12]
 2572 0028 FFF7FEFF 		bl	HAL_DMA_Abort_IT
 2573 002c 2B68     		ldr	r3, [r5]
 2574              	.L367:
 2575 002e 1A6A     		ldr	r2, [r3, #32]
 2576 0030 0121     		movs	r1, #1
 2577 0032 04F01F04 		and	r4, r4, #31
 2578 0036 01FA04F4 		lsl	r4, r1, r4
 2579 003a 22EA0402 		bic	r2, r2, r4
 2580 003e 1A62     		str	r2, [r3, #32]
 2581 0040 1A6A     		ldr	r2, [r3, #32]
 2582 0042 1A62     		str	r2, [r3, #32]
 2583 0044 196A     		ldr	r1, [r3, #32]
 2584 0046 41F21112 		movw	r2, #4369
 2585 004a 1142     		tst	r1, r2
 2586 004c 08D1     		bne	.L373
 2587 004e 196A     		ldr	r1, [r3, #32]
ARM GAS  D:\Programs\cygwin64\tmp\cctM4zih.s 			page 45


 2588 0050 40F24442 		movw	r2, #1092
 2589 0054 1142     		tst	r1, r2
 2590 0056 03D1     		bne	.L373
 2591 0058 1A68     		ldr	r2, [r3]
 2592 005a 22F00102 		bic	r2, r2, #1
 2593 005e 1A60     		str	r2, [r3]
 2594              	.L373:
 2595 0060 0123     		movs	r3, #1
 2596 0062 85F83D30 		strb	r3, [r5, #61]
 2597 0066 0020     		movs	r0, #0
 2598 0068 38BD     		pop	{r3, r4, r5, pc}
 2599              	.L368:
 2600 006a DA68     		ldr	r2, [r3, #12]
 2601 006c 006B     		ldr	r0, [r0, #48]
 2602 006e 22F48052 		bic	r2, r2, #4096
 2603 0072 DA60     		str	r2, [r3, #12]
 2604 0074 FFF7FEFF 		bl	HAL_DMA_Abort_IT
 2605 0078 2B68     		ldr	r3, [r5]
 2606 007a D8E7     		b	.L367
 2607              	.L370:
 2608 007c DA68     		ldr	r2, [r3, #12]
 2609 007e C06A     		ldr	r0, [r0, #44]
 2610 0080 22F40062 		bic	r2, r2, #2048
 2611 0084 DA60     		str	r2, [r3, #12]
 2612 0086 FFF7FEFF 		bl	HAL_DMA_Abort_IT
 2613 008a 2B68     		ldr	r3, [r5]
 2614 008c CFE7     		b	.L367
 2615              	.L371:
 2616 008e DA68     		ldr	r2, [r3, #12]
 2617 0090 806A     		ldr	r0, [r0, #40]
 2618 0092 22F48062 		bic	r2, r2, #1024
 2619 0096 DA60     		str	r2, [r3, #12]
 2620 0098 FFF7FEFF 		bl	HAL_DMA_Abort_IT
 2621 009c 2B68     		ldr	r3, [r5]
 2622 009e C6E7     		b	.L367
 2624              		.section	.text.HAL_TIM_OnePulse_MspInit,"ax",%progbits
 2625              		.align	1
 2626              		.p2align 2,,3
 2627              		.weak	HAL_TIM_OnePulse_MspInit
 2628              		.syntax unified
 2629              		.thumb
 2630              		.thumb_func
 2631              		.fpu fpv4-sp-d16
 2633              	HAL_TIM_OnePulse_MspInit:
 2634              		@ args = 0, pretend = 0, frame = 0
 2635              		@ frame_needed = 0, uses_anonymous_args = 0
 2636              		@ link register save eliminated.
 2637 0000 7047     		bx	lr
 2639 0002 00BF     		.section	.text.HAL_TIM_OnePulse_Init,"ax",%progbits
 2640              		.align	1
 2641              		.p2align 2,,3
 2642              		.global	HAL_TIM_OnePulse_Init
 2643              		.syntax unified
 2644              		.thumb
 2645              		.thumb_func
 2646              		.fpu fpv4-sp-d16
 2648              	HAL_TIM_OnePulse_Init:
ARM GAS  D:\Programs\cygwin64\tmp\cctM4zih.s 			page 46


 2649              		@ args = 0, pretend = 0, frame = 8
 2650              		@ frame_needed = 0, uses_anonymous_args = 0
 2651 0000 0028     		cmp	r0, #0
 2652 0002 74D0     		beq	.L389
 2653 0004 F0B5     		push	{r4, r5, r6, r7, lr}
 2654 0006 90F83D30 		ldrb	r3, [r0, #61]	@ zero_extendqisi2
 2655 000a 83B0     		sub	sp, sp, #12
 2656 000c 0446     		mov	r4, r0
 2657 000e 0D46     		mov	r5, r1
 2658 0010 03F0FF02 		and	r2, r3, #255
 2659 0014 002B     		cmp	r3, #0
 2660 0016 65D0     		beq	.L397
 2661              	.L378:
 2662 0018 2368     		ldr	r3, [r4]
 2663 001a 364E     		ldr	r6, .L398
 2664 001c A769     		ldr	r7, [r4, #24]
 2665 001e E068     		ldr	r0, [r4, #12]
 2666 0020 6168     		ldr	r1, [r4, #4]
 2667 0022 0222     		movs	r2, #2
 2668 0024 84F83D20 		strb	r2, [r4, #61]
 2669 0028 B342     		cmp	r3, r6
 2670 002a 1A68     		ldr	r2, [r3]
 2671 002c 47D0     		beq	.L384
 2672 002e B3F1804F 		cmp	r3, #1073741824
 2673 0032 28D0     		beq	.L381
 2674 0034 A6F57C46 		sub	r6, r6, #64512
 2675 0038 B342     		cmp	r3, r6
 2676 003a 24D0     		beq	.L381
 2677 003c 06F58066 		add	r6, r6, #1024
 2678 0040 B342     		cmp	r3, r6
 2679 0042 20D0     		beq	.L381
 2680 0044 06F58066 		add	r6, r6, #1024
 2681 0048 B342     		cmp	r3, r6
 2682 004a 1CD0     		beq	.L381
 2683 004c 06F57846 		add	r6, r6, #63488
 2684 0050 B342     		cmp	r3, r6
 2685 0052 34D0     		beq	.L384
 2686 0054 06F57056 		add	r6, r6, #15360
 2687 0058 B342     		cmp	r3, r6
 2688 005a 18D0     		beq	.L385
 2689 005c 06F58066 		add	r6, r6, #1024
 2690 0060 B342     		cmp	r3, r6
 2691 0062 14D0     		beq	.L385
 2692 0064 06F58066 		add	r6, r6, #1024
 2693 0068 B342     		cmp	r3, r6
 2694 006a 10D0     		beq	.L385
 2695 006c A6F59836 		sub	r6, r6, #77824
 2696 0070 B342     		cmp	r3, r6
 2697 0072 0CD0     		beq	.L385
 2698 0074 06F58066 		add	r6, r6, #1024
 2699 0078 B342     		cmp	r3, r6
 2700 007a 08D0     		beq	.L385
 2701 007c 06F58066 		add	r6, r6, #1024
 2702 0080 B342     		cmp	r3, r6
 2703 0082 08D1     		bne	.L396
 2704 0084 03E0     		b	.L385
 2705              	.L381:
ARM GAS  D:\Programs\cygwin64\tmp\cctM4zih.s 			page 47


 2706 0086 A668     		ldr	r6, [r4, #8]
 2707 0088 22F07002 		bic	r2, r2, #112
 2708 008c 3243     		orrs	r2, r2, r6
 2709              	.L385:
 2710 008e 2669     		ldr	r6, [r4, #16]
 2711 0090 22F44072 		bic	r2, r2, #768
 2712 0094 3243     		orrs	r2, r2, r6
 2713              	.L396:
 2714 0096 22F08002 		bic	r2, r2, #128
 2715 009a 3A43     		orrs	r2, r2, r7
 2716 009c 1A60     		str	r2, [r3]
 2717 009e D862     		str	r0, [r3, #44]
 2718 00a0 9962     		str	r1, [r3, #40]
 2719              	.L387:
 2720 00a2 0126     		movs	r6, #1
 2721 00a4 5E61     		str	r6, [r3, #20]
 2722 00a6 1A68     		ldr	r2, [r3]
 2723 00a8 22F00802 		bic	r2, r2, #8
 2724 00ac 1A60     		str	r2, [r3]
 2725 00ae 1A68     		ldr	r2, [r3]
 2726 00b0 0020     		movs	r0, #0
 2727 00b2 2A43     		orrs	r2, r2, r5
 2728 00b4 1A60     		str	r2, [r3]
 2729 00b6 84F83D60 		strb	r6, [r4, #61]
 2730 00ba 03B0     		add	sp, sp, #12
 2731              		@ sp needed
 2732 00bc F0BD     		pop	{r4, r5, r6, r7, pc}
 2733              	.L384:
 2734 00be 2669     		ldr	r6, [r4, #16]
 2735 00c0 0196     		str	r6, [sp, #4]
 2736 00c2 A668     		ldr	r6, [r4, #8]
 2737 00c4 22F07002 		bic	r2, r2, #112
 2738 00c8 3243     		orrs	r2, r2, r6
 2739 00ca 019E     		ldr	r6, [sp, #4]
 2740 00cc 22F44072 		bic	r2, r2, #768
 2741 00d0 3243     		orrs	r2, r2, r6
 2742 00d2 22F08002 		bic	r2, r2, #128
 2743 00d6 3A43     		orrs	r2, r2, r7
 2744 00d8 1A60     		str	r2, [r3]
 2745 00da D862     		str	r0, [r3, #44]
 2746 00dc 9962     		str	r1, [r3, #40]
 2747 00de 6269     		ldr	r2, [r4, #20]
 2748 00e0 1A63     		str	r2, [r3, #48]
 2749 00e2 DEE7     		b	.L387
 2750              	.L397:
 2751 00e4 80F83C20 		strb	r2, [r0, #60]
 2752 00e8 FFF7FEFF 		bl	HAL_TIM_OnePulse_MspInit
 2753 00ec 94E7     		b	.L378
 2754              	.L389:
 2755 00ee 0120     		movs	r0, #1
 2756 00f0 7047     		bx	lr
 2757              	.L399:
 2758 00f2 00BF     		.align	2
 2759              	.L398:
 2760 00f4 00000140 		.word	1073807360
 2762              		.section	.text.HAL_TIM_OnePulse_MspDeInit,"ax",%progbits
 2763              		.align	1
ARM GAS  D:\Programs\cygwin64\tmp\cctM4zih.s 			page 48


 2764              		.p2align 2,,3
 2765              		.weak	HAL_TIM_OnePulse_MspDeInit
 2766              		.syntax unified
 2767              		.thumb
 2768              		.thumb_func
 2769              		.fpu fpv4-sp-d16
 2771              	HAL_TIM_OnePulse_MspDeInit:
 2772              		@ args = 0, pretend = 0, frame = 0
 2773              		@ frame_needed = 0, uses_anonymous_args = 0
 2774              		@ link register save eliminated.
 2775 0000 7047     		bx	lr
 2777 0002 00BF     		.section	.text.HAL_TIM_OnePulse_DeInit,"ax",%progbits
 2778              		.align	1
 2779              		.p2align 2,,3
 2780              		.global	HAL_TIM_OnePulse_DeInit
 2781              		.syntax unified
 2782              		.thumb
 2783              		.thumb_func
 2784              		.fpu fpv4-sp-d16
 2786              	HAL_TIM_OnePulse_DeInit:
 2787              		@ args = 0, pretend = 0, frame = 0
 2788              		@ frame_needed = 0, uses_anonymous_args = 0
 2789 0000 0222     		movs	r2, #2
 2790 0002 0368     		ldr	r3, [r0]
 2791 0004 10B5     		push	{r4, lr}
 2792 0006 80F83D20 		strb	r2, [r0, #61]
 2793 000a 196A     		ldr	r1, [r3, #32]
 2794 000c 41F21112 		movw	r2, #4369
 2795 0010 1142     		tst	r1, r2
 2796 0012 0446     		mov	r4, r0
 2797 0014 08D1     		bne	.L402
 2798 0016 196A     		ldr	r1, [r3, #32]
 2799 0018 40F24442 		movw	r2, #1092
 2800 001c 1142     		tst	r1, r2
 2801 001e 03D1     		bne	.L402
 2802 0020 1A68     		ldr	r2, [r3]
 2803 0022 22F00102 		bic	r2, r2, #1
 2804 0026 1A60     		str	r2, [r3]
 2805              	.L402:
 2806 0028 2046     		mov	r0, r4
 2807 002a FFF7FEFF 		bl	HAL_TIM_OnePulse_MspDeInit
 2808 002e 0020     		movs	r0, #0
 2809 0030 84F83D00 		strb	r0, [r4, #61]
 2810 0034 84F83C00 		strb	r0, [r4, #60]
 2811 0038 10BD     		pop	{r4, pc}
 2813 003a 00BF     		.section	.text.HAL_TIM_OnePulse_Start,"ax",%progbits
 2814              		.align	1
 2815              		.p2align 2,,3
 2816              		.global	HAL_TIM_OnePulse_Start
 2817              		.syntax unified
 2818              		.thumb
 2819              		.thumb_func
 2820              		.fpu fpv4-sp-d16
 2822              	HAL_TIM_OnePulse_Start:
 2823              		@ args = 0, pretend = 0, frame = 0
 2824              		@ frame_needed = 0, uses_anonymous_args = 0
 2825              		@ link register save eliminated.
ARM GAS  D:\Programs\cygwin64\tmp\cctM4zih.s 			page 49


 2826 0000 0368     		ldr	r3, [r0]
 2827 0002 0F49     		ldr	r1, .L407
 2828 0004 1A6A     		ldr	r2, [r3, #32]
 2829 0006 22F00102 		bic	r2, r2, #1
 2830 000a 1A62     		str	r2, [r3, #32]
 2831 000c 1A6A     		ldr	r2, [r3, #32]
 2832 000e 42F00102 		orr	r2, r2, #1
 2833 0012 1A62     		str	r2, [r3, #32]
 2834 0014 1A6A     		ldr	r2, [r3, #32]
 2835 0016 22F01002 		bic	r2, r2, #16
 2836 001a 1A62     		str	r2, [r3, #32]
 2837 001c 1A6A     		ldr	r2, [r3, #32]
 2838 001e 8B42     		cmp	r3, r1
 2839 0020 42F01002 		orr	r2, r2, #16
 2840 0024 1A62     		str	r2, [r3, #32]
 2841 0026 04D0     		beq	.L405
 2842 0028 064A     		ldr	r2, .L407+4
 2843 002a 9342     		cmp	r3, r2
 2844 002c 01D0     		beq	.L405
 2845 002e 0020     		movs	r0, #0
 2846 0030 7047     		bx	lr
 2847              	.L405:
 2848 0032 5A6C     		ldr	r2, [r3, #68]
 2849 0034 42F40042 		orr	r2, r2, #32768
 2850 0038 5A64     		str	r2, [r3, #68]
 2851 003a 0020     		movs	r0, #0
 2852 003c 7047     		bx	lr
 2853              	.L408:
 2854 003e 00BF     		.align	2
 2855              	.L407:
 2856 0040 00000140 		.word	1073807360
 2857 0044 00040140 		.word	1073808384
 2859              		.section	.text.HAL_TIM_OnePulse_Stop,"ax",%progbits
 2860              		.align	1
 2861              		.p2align 2,,3
 2862              		.global	HAL_TIM_OnePulse_Stop
 2863              		.syntax unified
 2864              		.thumb
 2865              		.thumb_func
 2866              		.fpu fpv4-sp-d16
 2868              	HAL_TIM_OnePulse_Stop:
 2869              		@ args = 0, pretend = 0, frame = 0
 2870              		@ frame_needed = 0, uses_anonymous_args = 0
 2871              		@ link register save eliminated.
 2872 0000 0368     		ldr	r3, [r0]
 2873 0002 1849     		ldr	r1, .L413
 2874 0004 1A6A     		ldr	r2, [r3, #32]
 2875 0006 22F00102 		bic	r2, r2, #1
 2876 000a 1A62     		str	r2, [r3, #32]
 2877 000c 1A6A     		ldr	r2, [r3, #32]
 2878 000e 1A62     		str	r2, [r3, #32]
 2879 0010 1A6A     		ldr	r2, [r3, #32]
 2880 0012 22F01002 		bic	r2, r2, #16
 2881 0016 1A62     		str	r2, [r3, #32]
 2882 0018 1A6A     		ldr	r2, [r3, #32]
 2883 001a 1A62     		str	r2, [r3, #32]
 2884 001c 8B42     		cmp	r3, r1
ARM GAS  D:\Programs\cygwin64\tmp\cctM4zih.s 			page 50


 2885 001e 12D0     		beq	.L410
 2886 0020 114A     		ldr	r2, .L413+4
 2887 0022 9342     		cmp	r3, r2
 2888 0024 0FD0     		beq	.L410
 2889              	.L411:
 2890 0026 196A     		ldr	r1, [r3, #32]
 2891 0028 41F21112 		movw	r2, #4369
 2892 002c 1142     		tst	r1, r2
 2893 002e 08D1     		bne	.L412
 2894 0030 196A     		ldr	r1, [r3, #32]
 2895 0032 40F24442 		movw	r2, #1092
 2896 0036 1142     		tst	r1, r2
 2897 0038 03D1     		bne	.L412
 2898 003a 1A68     		ldr	r2, [r3]
 2899 003c 22F00102 		bic	r2, r2, #1
 2900 0040 1A60     		str	r2, [r3]
 2901              	.L412:
 2902 0042 0020     		movs	r0, #0
 2903 0044 7047     		bx	lr
 2904              	.L410:
 2905 0046 196A     		ldr	r1, [r3, #32]
 2906 0048 41F21112 		movw	r2, #4369
 2907 004c 1142     		tst	r1, r2
 2908 004e EAD1     		bne	.L411
 2909 0050 196A     		ldr	r1, [r3, #32]
 2910 0052 40F24442 		movw	r2, #1092
 2911 0056 1142     		tst	r1, r2
 2912 0058 E5D1     		bne	.L411
 2913 005a 5A6C     		ldr	r2, [r3, #68]
 2914 005c 22F40042 		bic	r2, r2, #32768
 2915 0060 5A64     		str	r2, [r3, #68]
 2916 0062 E0E7     		b	.L411
 2917              	.L414:
 2918              		.align	2
 2919              	.L413:
 2920 0064 00000140 		.word	1073807360
 2921 0068 00040140 		.word	1073808384
 2923              		.section	.text.HAL_TIM_OnePulse_Start_IT,"ax",%progbits
 2924              		.align	1
 2925              		.p2align 2,,3
 2926              		.global	HAL_TIM_OnePulse_Start_IT
 2927              		.syntax unified
 2928              		.thumb
 2929              		.thumb_func
 2930              		.fpu fpv4-sp-d16
 2932              	HAL_TIM_OnePulse_Start_IT:
 2933              		@ args = 0, pretend = 0, frame = 0
 2934              		@ frame_needed = 0, uses_anonymous_args = 0
 2935              		@ link register save eliminated.
 2936 0000 0368     		ldr	r3, [r0]
 2937 0002 1349     		ldr	r1, .L418
 2938 0004 DA68     		ldr	r2, [r3, #12]
 2939 0006 42F00202 		orr	r2, r2, #2
 2940 000a DA60     		str	r2, [r3, #12]
 2941 000c DA68     		ldr	r2, [r3, #12]
 2942 000e 42F00402 		orr	r2, r2, #4
 2943 0012 DA60     		str	r2, [r3, #12]
ARM GAS  D:\Programs\cygwin64\tmp\cctM4zih.s 			page 51


 2944 0014 1A6A     		ldr	r2, [r3, #32]
 2945 0016 22F00102 		bic	r2, r2, #1
 2946 001a 1A62     		str	r2, [r3, #32]
 2947 001c 1A6A     		ldr	r2, [r3, #32]
 2948 001e 42F00102 		orr	r2, r2, #1
 2949 0022 1A62     		str	r2, [r3, #32]
 2950 0024 1A6A     		ldr	r2, [r3, #32]
 2951 0026 22F01002 		bic	r2, r2, #16
 2952 002a 1A62     		str	r2, [r3, #32]
 2953 002c 1A6A     		ldr	r2, [r3, #32]
 2954 002e 8B42     		cmp	r3, r1
 2955 0030 42F01002 		orr	r2, r2, #16
 2956 0034 1A62     		str	r2, [r3, #32]
 2957 0036 04D0     		beq	.L416
 2958 0038 064A     		ldr	r2, .L418+4
 2959 003a 9342     		cmp	r3, r2
 2960 003c 01D0     		beq	.L416
 2961 003e 0020     		movs	r0, #0
 2962 0040 7047     		bx	lr
 2963              	.L416:
 2964 0042 5A6C     		ldr	r2, [r3, #68]
 2965 0044 42F40042 		orr	r2, r2, #32768
 2966 0048 5A64     		str	r2, [r3, #68]
 2967 004a 0020     		movs	r0, #0
 2968 004c 7047     		bx	lr
 2969              	.L419:
 2970 004e 00BF     		.align	2
 2971              	.L418:
 2972 0050 00000140 		.word	1073807360
 2973 0054 00040140 		.word	1073808384
 2975              		.section	.text.HAL_TIM_OnePulse_Stop_IT,"ax",%progbits
 2976              		.align	1
 2977              		.p2align 2,,3
 2978              		.global	HAL_TIM_OnePulse_Stop_IT
 2979              		.syntax unified
 2980              		.thumb
 2981              		.thumb_func
 2982              		.fpu fpv4-sp-d16
 2984              	HAL_TIM_OnePulse_Stop_IT:
 2985              		@ args = 0, pretend = 0, frame = 0
 2986              		@ frame_needed = 0, uses_anonymous_args = 0
 2987              		@ link register save eliminated.
 2988 0000 0368     		ldr	r3, [r0]
 2989 0002 1C49     		ldr	r1, .L424
 2990 0004 DA68     		ldr	r2, [r3, #12]
 2991 0006 22F00202 		bic	r2, r2, #2
 2992 000a DA60     		str	r2, [r3, #12]
 2993 000c DA68     		ldr	r2, [r3, #12]
 2994 000e 22F00402 		bic	r2, r2, #4
 2995 0012 DA60     		str	r2, [r3, #12]
 2996 0014 1A6A     		ldr	r2, [r3, #32]
 2997 0016 22F00102 		bic	r2, r2, #1
 2998 001a 1A62     		str	r2, [r3, #32]
 2999 001c 1A6A     		ldr	r2, [r3, #32]
 3000 001e 1A62     		str	r2, [r3, #32]
 3001 0020 1A6A     		ldr	r2, [r3, #32]
 3002 0022 22F01002 		bic	r2, r2, #16
ARM GAS  D:\Programs\cygwin64\tmp\cctM4zih.s 			page 52


 3003 0026 1A62     		str	r2, [r3, #32]
 3004 0028 1A6A     		ldr	r2, [r3, #32]
 3005 002a 1A62     		str	r2, [r3, #32]
 3006 002c 8B42     		cmp	r3, r1
 3007 002e 12D0     		beq	.L421
 3008 0030 114A     		ldr	r2, .L424+4
 3009 0032 9342     		cmp	r3, r2
 3010 0034 0FD0     		beq	.L421
 3011              	.L422:
 3012 0036 196A     		ldr	r1, [r3, #32]
 3013 0038 41F21112 		movw	r2, #4369
 3014 003c 1142     		tst	r1, r2
 3015 003e 08D1     		bne	.L423
 3016 0040 196A     		ldr	r1, [r3, #32]
 3017 0042 40F24442 		movw	r2, #1092
 3018 0046 1142     		tst	r1, r2
 3019 0048 03D1     		bne	.L423
 3020 004a 1A68     		ldr	r2, [r3]
 3021 004c 22F00102 		bic	r2, r2, #1
 3022 0050 1A60     		str	r2, [r3]
 3023              	.L423:
 3024 0052 0020     		movs	r0, #0
 3025 0054 7047     		bx	lr
 3026              	.L421:
 3027 0056 196A     		ldr	r1, [r3, #32]
 3028 0058 41F21112 		movw	r2, #4369
 3029 005c 1142     		tst	r1, r2
 3030 005e EAD1     		bne	.L422
 3031 0060 196A     		ldr	r1, [r3, #32]
 3032 0062 40F24442 		movw	r2, #1092
 3033 0066 1142     		tst	r1, r2
 3034 0068 E5D1     		bne	.L422
 3035 006a 5A6C     		ldr	r2, [r3, #68]
 3036 006c 22F40042 		bic	r2, r2, #32768
 3037 0070 5A64     		str	r2, [r3, #68]
 3038 0072 E0E7     		b	.L422
 3039              	.L425:
 3040              		.align	2
 3041              	.L424:
 3042 0074 00000140 		.word	1073807360
 3043 0078 00040140 		.word	1073808384
 3045              		.section	.text.HAL_TIM_Encoder_MspInit,"ax",%progbits
 3046              		.align	1
 3047              		.p2align 2,,3
 3048              		.weak	HAL_TIM_Encoder_MspInit
 3049              		.syntax unified
 3050              		.thumb
 3051              		.thumb_func
 3052              		.fpu fpv4-sp-d16
 3054              	HAL_TIM_Encoder_MspInit:
 3055              		@ args = 0, pretend = 0, frame = 0
 3056              		@ frame_needed = 0, uses_anonymous_args = 0
 3057              		@ link register save eliminated.
 3058 0000 7047     		bx	lr
 3060 0002 00BF     		.section	.text.HAL_TIM_Encoder_MspDeInit,"ax",%progbits
 3061              		.align	1
 3062              		.p2align 2,,3
ARM GAS  D:\Programs\cygwin64\tmp\cctM4zih.s 			page 53


 3063              		.weak	HAL_TIM_Encoder_MspDeInit
 3064              		.syntax unified
 3065              		.thumb
 3066              		.thumb_func
 3067              		.fpu fpv4-sp-d16
 3069              	HAL_TIM_Encoder_MspDeInit:
 3070              		@ args = 0, pretend = 0, frame = 0
 3071              		@ frame_needed = 0, uses_anonymous_args = 0
 3072              		@ link register save eliminated.
 3073 0000 7047     		bx	lr
 3075 0002 00BF     		.section	.text.HAL_TIM_Encoder_DeInit,"ax",%progbits
 3076              		.align	1
 3077              		.p2align 2,,3
 3078              		.global	HAL_TIM_Encoder_DeInit
 3079              		.syntax unified
 3080              		.thumb
 3081              		.thumb_func
 3082              		.fpu fpv4-sp-d16
 3084              	HAL_TIM_Encoder_DeInit:
 3085              		@ args = 0, pretend = 0, frame = 0
 3086              		@ frame_needed = 0, uses_anonymous_args = 0
 3087 0000 0222     		movs	r2, #2
 3088 0002 0368     		ldr	r3, [r0]
 3089 0004 10B5     		push	{r4, lr}
 3090 0006 80F83D20 		strb	r2, [r0, #61]
 3091 000a 196A     		ldr	r1, [r3, #32]
 3092 000c 41F21112 		movw	r2, #4369
 3093 0010 1142     		tst	r1, r2
 3094 0012 0446     		mov	r4, r0
 3095 0014 08D1     		bne	.L429
 3096 0016 196A     		ldr	r1, [r3, #32]
 3097 0018 40F24442 		movw	r2, #1092
 3098 001c 1142     		tst	r1, r2
 3099 001e 03D1     		bne	.L429
 3100 0020 1A68     		ldr	r2, [r3]
 3101 0022 22F00102 		bic	r2, r2, #1
 3102 0026 1A60     		str	r2, [r3]
 3103              	.L429:
 3104 0028 2046     		mov	r0, r4
 3105 002a FFF7FEFF 		bl	HAL_TIM_Encoder_MspDeInit
 3106 002e 0020     		movs	r0, #0
 3107 0030 84F83D00 		strb	r0, [r4, #61]
 3108 0034 84F83C00 		strb	r0, [r4, #60]
 3109 0038 10BD     		pop	{r4, pc}
 3111 003a 00BF     		.section	.text.HAL_TIM_Encoder_Start,"ax",%progbits
 3112              		.align	1
 3113              		.p2align 2,,3
 3114              		.global	HAL_TIM_Encoder_Start
 3115              		.syntax unified
 3116              		.thumb
 3117              		.thumb_func
 3118              		.fpu fpv4-sp-d16
 3120              	HAL_TIM_Encoder_Start:
 3121              		@ args = 0, pretend = 0, frame = 0
 3122              		@ frame_needed = 0, uses_anonymous_args = 0
 3123              		@ link register save eliminated.
 3124 0000 0368     		ldr	r3, [r0]
ARM GAS  D:\Programs\cygwin64\tmp\cctM4zih.s 			page 54


 3125 0002 B9B1     		cbz	r1, .L432
 3126 0004 0429     		cmp	r1, #4
 3127 0006 07D0     		beq	.L437
 3128 0008 1A6A     		ldr	r2, [r3, #32]
 3129 000a 22F00102 		bic	r2, r2, #1
 3130 000e 1A62     		str	r2, [r3, #32]
 3131 0010 1A6A     		ldr	r2, [r3, #32]
 3132 0012 42F00102 		orr	r2, r2, #1
 3133 0016 1A62     		str	r2, [r3, #32]
 3134              	.L437:
 3135 0018 1A6A     		ldr	r2, [r3, #32]
 3136 001a 22F01002 		bic	r2, r2, #16
 3137 001e 1A62     		str	r2, [r3, #32]
 3138 0020 1A6A     		ldr	r2, [r3, #32]
 3139 0022 42F01002 		orr	r2, r2, #16
 3140 0026 1A62     		str	r2, [r3, #32]
 3141              	.L435:
 3142 0028 1A68     		ldr	r2, [r3]
 3143 002a 42F00102 		orr	r2, r2, #1
 3144 002e 1A60     		str	r2, [r3]
 3145 0030 0020     		movs	r0, #0
 3146 0032 7047     		bx	lr
 3147              	.L432:
 3148 0034 1A6A     		ldr	r2, [r3, #32]
 3149 0036 22F00102 		bic	r2, r2, #1
 3150 003a 1A62     		str	r2, [r3, #32]
 3151 003c 1A6A     		ldr	r2, [r3, #32]
 3152 003e 42F00102 		orr	r2, r2, #1
 3153 0042 1A62     		str	r2, [r3, #32]
 3154 0044 F0E7     		b	.L435
 3156 0046 00BF     		.section	.text.HAL_TIM_Encoder_Stop,"ax",%progbits
 3157              		.align	1
 3158              		.p2align 2,,3
 3159              		.global	HAL_TIM_Encoder_Stop
 3160              		.syntax unified
 3161              		.thumb
 3162              		.thumb_func
 3163              		.fpu fpv4-sp-d16
 3165              	HAL_TIM_Encoder_Stop:
 3166              		@ args = 0, pretend = 0, frame = 0
 3167              		@ frame_needed = 0, uses_anonymous_args = 0
 3168              		@ link register save eliminated.
 3169 0000 0368     		ldr	r3, [r0]
 3170 0002 E9B1     		cbz	r1, .L439
 3171 0004 0429     		cmp	r1, #4
 3172 0006 05D0     		beq	.L445
 3173 0008 1A6A     		ldr	r2, [r3, #32]
 3174 000a 22F00102 		bic	r2, r2, #1
 3175 000e 1A62     		str	r2, [r3, #32]
 3176 0010 1A6A     		ldr	r2, [r3, #32]
 3177 0012 1A62     		str	r2, [r3, #32]
 3178              	.L445:
 3179 0014 1A6A     		ldr	r2, [r3, #32]
 3180 0016 22F01002 		bic	r2, r2, #16
 3181 001a 1A62     		str	r2, [r3, #32]
 3182 001c 1A6A     		ldr	r2, [r3, #32]
 3183 001e 1A62     		str	r2, [r3, #32]
ARM GAS  D:\Programs\cygwin64\tmp\cctM4zih.s 			page 55


 3184              	.L442:
 3185 0020 196A     		ldr	r1, [r3, #32]
 3186 0022 41F21112 		movw	r2, #4369
 3187 0026 1142     		tst	r1, r2
 3188 0028 08D1     		bne	.L443
 3189 002a 196A     		ldr	r1, [r3, #32]
 3190 002c 40F24442 		movw	r2, #1092
 3191 0030 1142     		tst	r1, r2
 3192 0032 03D1     		bne	.L443
 3193 0034 1A68     		ldr	r2, [r3]
 3194 0036 22F00102 		bic	r2, r2, #1
 3195 003a 1A60     		str	r2, [r3]
 3196              	.L443:
 3197 003c 0020     		movs	r0, #0
 3198 003e 7047     		bx	lr
 3199              	.L439:
 3200 0040 1A6A     		ldr	r2, [r3, #32]
 3201 0042 22F00102 		bic	r2, r2, #1
 3202 0046 1A62     		str	r2, [r3, #32]
 3203 0048 1A6A     		ldr	r2, [r3, #32]
 3204 004a 1A62     		str	r2, [r3, #32]
 3205 004c E8E7     		b	.L442
 3207 004e 00BF     		.section	.text.HAL_TIM_Encoder_Start_IT,"ax",%progbits
 3208              		.align	1
 3209              		.p2align 2,,3
 3210              		.global	HAL_TIM_Encoder_Start_IT
 3211              		.syntax unified
 3212              		.thumb
 3213              		.thumb_func
 3214              		.fpu fpv4-sp-d16
 3216              	HAL_TIM_Encoder_Start_IT:
 3217              		@ args = 0, pretend = 0, frame = 0
 3218              		@ frame_needed = 0, uses_anonymous_args = 0
 3219              		@ link register save eliminated.
 3220 0000 0368     		ldr	r3, [r0]
 3221 0002 F9B1     		cbz	r1, .L447
 3222 0004 0429     		cmp	r1, #4
 3223 0006 2AD0     		beq	.L448
 3224 0008 1A6A     		ldr	r2, [r3, #32]
 3225 000a 22F00102 		bic	r2, r2, #1
 3226 000e 1A62     		str	r2, [r3, #32]
 3227 0010 1A6A     		ldr	r2, [r3, #32]
 3228 0012 42F00102 		orr	r2, r2, #1
 3229 0016 1A62     		str	r2, [r3, #32]
 3230 0018 1A6A     		ldr	r2, [r3, #32]
 3231 001a 22F01002 		bic	r2, r2, #16
 3232 001e 1A62     		str	r2, [r3, #32]
 3233 0020 1A6A     		ldr	r2, [r3, #32]
 3234 0022 42F01002 		orr	r2, r2, #16
 3235 0026 1A62     		str	r2, [r3, #32]
 3236 0028 DA68     		ldr	r2, [r3, #12]
 3237 002a 42F00202 		orr	r2, r2, #2
 3238 002e DA60     		str	r2, [r3, #12]
 3239 0030 DA68     		ldr	r2, [r3, #12]
 3240 0032 42F00402 		orr	r2, r2, #4
 3241 0036 DA60     		str	r2, [r3, #12]
 3242              	.L450:
ARM GAS  D:\Programs\cygwin64\tmp\cctM4zih.s 			page 56


 3243 0038 1A68     		ldr	r2, [r3]
 3244 003a 42F00102 		orr	r2, r2, #1
 3245 003e 1A60     		str	r2, [r3]
 3246 0040 0020     		movs	r0, #0
 3247 0042 7047     		bx	lr
 3248              	.L447:
 3249 0044 1A6A     		ldr	r2, [r3, #32]
 3250 0046 22F00102 		bic	r2, r2, #1
 3251 004a 1A62     		str	r2, [r3, #32]
 3252 004c 1A6A     		ldr	r2, [r3, #32]
 3253 004e 42F00102 		orr	r2, r2, #1
 3254 0052 1A62     		str	r2, [r3, #32]
 3255 0054 DA68     		ldr	r2, [r3, #12]
 3256 0056 42F00202 		orr	r2, r2, #2
 3257 005a DA60     		str	r2, [r3, #12]
 3258 005c ECE7     		b	.L450
 3259              	.L448:
 3260 005e 1A6A     		ldr	r2, [r3, #32]
 3261 0060 22F01002 		bic	r2, r2, #16
 3262 0064 1A62     		str	r2, [r3, #32]
 3263 0066 1A6A     		ldr	r2, [r3, #32]
 3264 0068 42F01002 		orr	r2, r2, #16
 3265 006c 1A62     		str	r2, [r3, #32]
 3266 006e DA68     		ldr	r2, [r3, #12]
 3267 0070 42F00402 		orr	r2, r2, #4
 3268 0074 DA60     		str	r2, [r3, #12]
 3269 0076 DFE7     		b	.L450
 3271              		.section	.text.HAL_TIM_Encoder_Stop_IT,"ax",%progbits
 3272              		.align	1
 3273              		.p2align 2,,3
 3274              		.global	HAL_TIM_Encoder_Stop_IT
 3275              		.syntax unified
 3276              		.thumb
 3277              		.thumb_func
 3278              		.fpu fpv4-sp-d16
 3280              	HAL_TIM_Encoder_Stop_IT:
 3281              		@ args = 0, pretend = 0, frame = 0
 3282              		@ frame_needed = 0, uses_anonymous_args = 0
 3283              		@ link register save eliminated.
 3284 0000 0368     		ldr	r3, [r0]
 3285 0002 1A6A     		ldr	r2, [r3, #32]
 3286 0004 D9B9     		cbnz	r1, .L453
 3287 0006 22F00102 		bic	r2, r2, #1
 3288 000a 1A62     		str	r2, [r3, #32]
 3289 000c 1A6A     		ldr	r2, [r3, #32]
 3290 000e 1A62     		str	r2, [r3, #32]
 3291 0010 DA68     		ldr	r2, [r3, #12]
 3292 0012 22F00202 		bic	r2, r2, #2
 3293 0016 DA60     		str	r2, [r3, #12]
 3294              	.L454:
 3295 0018 196A     		ldr	r1, [r3, #32]
 3296 001a 41F21112 		movw	r2, #4369
 3297 001e 1142     		tst	r1, r2
 3298 0020 08D1     		bne	.L456
 3299 0022 196A     		ldr	r1, [r3, #32]
 3300 0024 40F24442 		movw	r2, #1092
 3301 0028 1142     		tst	r1, r2
ARM GAS  D:\Programs\cygwin64\tmp\cctM4zih.s 			page 57


 3302 002a 03D1     		bne	.L456
 3303 002c 1A68     		ldr	r2, [r3]
 3304 002e 22F00102 		bic	r2, r2, #1
 3305 0032 1A60     		str	r2, [r3]
 3306              	.L456:
 3307 0034 0123     		movs	r3, #1
 3308 0036 80F83D30 		strb	r3, [r0, #61]
 3309 003a 0020     		movs	r0, #0
 3310 003c 7047     		bx	lr
 3311              	.L453:
 3312 003e 0429     		cmp	r1, #4
 3313 0040 13D0     		beq	.L457
 3314 0042 22F00102 		bic	r2, r2, #1
 3315 0046 1A62     		str	r2, [r3, #32]
 3316 0048 1A6A     		ldr	r2, [r3, #32]
 3317 004a 1A62     		str	r2, [r3, #32]
 3318 004c 1A6A     		ldr	r2, [r3, #32]
 3319 004e 22F01002 		bic	r2, r2, #16
 3320 0052 1A62     		str	r2, [r3, #32]
 3321 0054 1A6A     		ldr	r2, [r3, #32]
 3322 0056 1A62     		str	r2, [r3, #32]
 3323 0058 DA68     		ldr	r2, [r3, #12]
 3324 005a 22F00202 		bic	r2, r2, #2
 3325 005e DA60     		str	r2, [r3, #12]
 3326 0060 DA68     		ldr	r2, [r3, #12]
 3327 0062 22F00402 		bic	r2, r2, #4
 3328 0066 DA60     		str	r2, [r3, #12]
 3329 0068 D6E7     		b	.L454
 3330              	.L457:
 3331 006a 22F01002 		bic	r2, r2, #16
 3332 006e 1A62     		str	r2, [r3, #32]
 3333 0070 1A6A     		ldr	r2, [r3, #32]
 3334 0072 1A62     		str	r2, [r3, #32]
 3335 0074 DA68     		ldr	r2, [r3, #12]
 3336 0076 22F00402 		bic	r2, r2, #4
 3337 007a DA60     		str	r2, [r3, #12]
 3338 007c CCE7     		b	.L454
 3340 007e 00BF     		.section	.text.HAL_TIM_Encoder_Start_DMA,"ax",%progbits
 3341              		.align	1
 3342              		.p2align 2,,3
 3343              		.global	HAL_TIM_Encoder_Start_DMA
 3344              		.syntax unified
 3345              		.thumb
 3346              		.thumb_func
 3347              		.fpu fpv4-sp-d16
 3349              	HAL_TIM_Encoder_Start_DMA:
 3350              		@ args = 4, pretend = 0, frame = 0
 3351              		@ frame_needed = 0, uses_anonymous_args = 0
 3352 0000 2DE9F843 		push	{r3, r4, r5, r6, r7, r8, r9, lr}
 3353 0004 90F83D40 		ldrb	r4, [r0, #61]	@ zero_extendqisi2
 3354 0008 BDF82050 		ldrh	r5, [sp, #32]
 3355 000c E4B2     		uxtb	r4, r4
 3356 000e 022C     		cmp	r4, #2
 3357 0010 00F0A280 		beq	.L466
 3358 0014 90F83D40 		ldrb	r4, [r0, #61]	@ zero_extendqisi2
 3359 0018 012C     		cmp	r4, #1
 3360 001a 0AD0     		beq	.L476
ARM GAS  D:\Programs\cygwin64\tmp\cctM4zih.s 			page 58


 3361 001c 0429     		cmp	r1, #4
 3362 001e 1E46     		mov	r6, r3
 3363 0020 0446     		mov	r4, r0
 3364 0022 13D0     		beq	.L463
 3365              	.L478:
 3366 0024 3C29     		cmp	r1, #60
 3367 0026 53D0     		beq	.L464
 3368 0028 0029     		cmp	r1, #0
 3369 002a 31D0     		beq	.L477
 3370 002c 0020     		movs	r0, #0
 3371              	.L459:
 3372 002e BDE8F883 		pop	{r3, r4, r5, r6, r7, r8, r9, pc}
 3373              	.L476:
 3374 0032 002A     		cmp	r2, #0
 3375 0034 00F08A80 		beq	.L461
 3376 0038 002B     		cmp	r3, #0
 3377 003a 00F08780 		beq	.L461
 3378 003e 0224     		movs	r4, #2
 3379 0040 80F83D40 		strb	r4, [r0, #61]
 3380              	.L480:
 3381 0044 0429     		cmp	r1, #4
 3382 0046 1E46     		mov	r6, r3
 3383 0048 0446     		mov	r4, r0
 3384 004a EBD1     		bne	.L478
 3385              	.L463:
 3386 004c 806A     		ldr	r0, [r0, #40]
 3387 004e 444B     		ldr	r3, .L481
 3388 0050 2168     		ldr	r1, [r4]
 3389 0052 C363     		str	r3, [r0, #60]
 3390 0054 434B     		ldr	r3, .L481+4
 3391 0056 0364     		str	r3, [r0, #64]
 3392 0058 434B     		ldr	r3, .L481+8
 3393 005a C364     		str	r3, [r0, #76]
 3394 005c 3246     		mov	r2, r6
 3395 005e 2B46     		mov	r3, r5
 3396 0060 3831     		adds	r1, r1, #56
 3397 0062 FFF7FEFF 		bl	HAL_DMA_Start_IT
 3398 0066 0028     		cmp	r0, #0
 3399 0068 41D1     		bne	.L465
 3400 006a 2368     		ldr	r3, [r4]
 3401 006c DA68     		ldr	r2, [r3, #12]
 3402 006e 42F48062 		orr	r2, r2, #1024
 3403 0072 DA60     		str	r2, [r3, #12]
 3404 0074 1A68     		ldr	r2, [r3]
 3405 0076 42F00102 		orr	r2, r2, #1
 3406 007a 1A60     		str	r2, [r3]
 3407 007c 1A6A     		ldr	r2, [r3, #32]
 3408 007e 22F01002 		bic	r2, r2, #16
 3409 0082 1A62     		str	r2, [r3, #32]
 3410 0084 1A6A     		ldr	r2, [r3, #32]
 3411 0086 42F01002 		orr	r2, r2, #16
 3412 008a 1A62     		str	r2, [r3, #32]
 3413 008c BDE8F883 		pop	{r3, r4, r5, r6, r7, r8, r9, pc}
 3414              	.L477:
 3415 0090 406A     		ldr	r0, [r0, #36]
 3416 0092 334B     		ldr	r3, .L481
 3417 0094 2168     		ldr	r1, [r4]
ARM GAS  D:\Programs\cygwin64\tmp\cctM4zih.s 			page 59


 3418 0096 C363     		str	r3, [r0, #60]
 3419 0098 324B     		ldr	r3, .L481+4
 3420 009a 0364     		str	r3, [r0, #64]
 3421 009c 324B     		ldr	r3, .L481+8
 3422 009e C364     		str	r3, [r0, #76]
 3423 00a0 3431     		adds	r1, r1, #52
 3424 00a2 2B46     		mov	r3, r5
 3425 00a4 FFF7FEFF 		bl	HAL_DMA_Start_IT
 3426 00a8 08BB     		cbnz	r0, .L465
 3427 00aa 2368     		ldr	r3, [r4]
 3428 00ac DA68     		ldr	r2, [r3, #12]
 3429 00ae 42F40072 		orr	r2, r2, #512
 3430 00b2 DA60     		str	r2, [r3, #12]
 3431 00b4 1A68     		ldr	r2, [r3]
 3432 00b6 42F00102 		orr	r2, r2, #1
 3433 00ba 1A60     		str	r2, [r3]
 3434 00bc 1A6A     		ldr	r2, [r3, #32]
 3435 00be 22F00102 		bic	r2, r2, #1
 3436 00c2 1A62     		str	r2, [r3, #32]
 3437 00c4 1A6A     		ldr	r2, [r3, #32]
 3438 00c6 42F00102 		orr	r2, r2, #1
 3439 00ca 1A62     		str	r2, [r3, #32]
 3440 00cc BDE8F883 		pop	{r3, r4, r5, r6, r7, r8, r9, pc}
 3441              	.L464:
 3442 00d0 2168     		ldr	r1, [r4]
 3443 00d2 406A     		ldr	r0, [r0, #36]
 3444 00d4 DFF88890 		ldr	r9, .L481
 3445 00d8 DFF88880 		ldr	r8, .L481+4
 3446 00dc 224F     		ldr	r7, .L481+8
 3447 00de C764     		str	r7, [r0, #76]
 3448 00e0 C0E90F98 		strd	r9, r8, [r0, #60]
 3449 00e4 3431     		adds	r1, r1, #52
 3450 00e6 2B46     		mov	r3, r5
 3451 00e8 FFF7FEFF 		bl	HAL_DMA_Start_IT
 3452 00ec 10B1     		cbz	r0, .L479
 3453              	.L465:
 3454 00ee 0120     		movs	r0, #1
 3455 00f0 BDE8F883 		pop	{r3, r4, r5, r6, r7, r8, r9, pc}
 3456              	.L479:
 3457 00f4 2168     		ldr	r1, [r4]
 3458 00f6 A06A     		ldr	r0, [r4, #40]
 3459 00f8 2B46     		mov	r3, r5
 3460 00fa C0F83C90 		str	r9, [r0, #60]
 3461 00fe 3246     		mov	r2, r6
 3462 0100 C0F84080 		str	r8, [r0, #64]
 3463 0104 C764     		str	r7, [r0, #76]
 3464 0106 3831     		adds	r1, r1, #56
 3465 0108 FFF7FEFF 		bl	HAL_DMA_Start_IT
 3466 010c 0028     		cmp	r0, #0
 3467 010e EED1     		bne	.L465
 3468 0110 2368     		ldr	r3, [r4]
 3469 0112 1A68     		ldr	r2, [r3]
 3470 0114 42F00102 		orr	r2, r2, #1
 3471 0118 1A60     		str	r2, [r3]
 3472 011a 1A6A     		ldr	r2, [r3, #32]
 3473 011c 22F00102 		bic	r2, r2, #1
 3474 0120 1A62     		str	r2, [r3, #32]
ARM GAS  D:\Programs\cygwin64\tmp\cctM4zih.s 			page 60


 3475 0122 1A6A     		ldr	r2, [r3, #32]
 3476 0124 42F00102 		orr	r2, r2, #1
 3477 0128 1A62     		str	r2, [r3, #32]
 3478 012a 1A6A     		ldr	r2, [r3, #32]
 3479 012c 22F01002 		bic	r2, r2, #16
 3480 0130 1A62     		str	r2, [r3, #32]
 3481 0132 1A6A     		ldr	r2, [r3, #32]
 3482 0134 42F01002 		orr	r2, r2, #16
 3483 0138 1A62     		str	r2, [r3, #32]
 3484 013a DA68     		ldr	r2, [r3, #12]
 3485 013c 42F40072 		orr	r2, r2, #512
 3486 0140 DA60     		str	r2, [r3, #12]
 3487 0142 DA68     		ldr	r2, [r3, #12]
 3488 0144 42F48062 		orr	r2, r2, #1024
 3489 0148 DA60     		str	r2, [r3, #12]
 3490 014a 70E7     		b	.L459
 3491              	.L461:
 3492 014c 002D     		cmp	r5, #0
 3493 014e CED1     		bne	.L465
 3494 0150 0224     		movs	r4, #2
 3495 0152 80F83D40 		strb	r4, [r0, #61]
 3496 0156 75E7     		b	.L480
 3497              	.L466:
 3498 0158 2046     		mov	r0, r4
 3499 015a BDE8F883 		pop	{r3, r4, r5, r6, r7, r8, r9, pc}
 3500              	.L482:
 3501 015e 00BF     		.align	2
 3502              	.L481:
 3503 0160 00000000 		.word	TIM_DMACaptureCplt
 3504 0164 00000000 		.word	TIM_DMACaptureHalfCplt
 3505 0168 00000000 		.word	TIM_DMAError
 3507              		.section	.text.HAL_TIM_Encoder_Stop_DMA,"ax",%progbits
 3508              		.align	1
 3509              		.p2align 2,,3
 3510              		.global	HAL_TIM_Encoder_Stop_DMA
 3511              		.syntax unified
 3512              		.thumb
 3513              		.thumb_func
 3514              		.fpu fpv4-sp-d16
 3516              	HAL_TIM_Encoder_Stop_DMA:
 3517              		@ args = 0, pretend = 0, frame = 0
 3518              		@ frame_needed = 0, uses_anonymous_args = 0
 3519 0000 0368     		ldr	r3, [r0]
 3520 0002 10B5     		push	{r4, lr}
 3521 0004 1A6A     		ldr	r2, [r3, #32]
 3522 0006 0446     		mov	r4, r0
 3523 0008 0029     		cmp	r1, #0
 3524 000a 3BD0     		beq	.L489
 3525 000c 0429     		cmp	r1, #4
 3526 000e 2CD0     		beq	.L490
 3527 0010 22F00102 		bic	r2, r2, #1
 3528 0014 406A     		ldr	r0, [r0, #36]
 3529 0016 1A62     		str	r2, [r3, #32]
 3530 0018 1A6A     		ldr	r2, [r3, #32]
 3531 001a 1A62     		str	r2, [r3, #32]
 3532 001c 1A6A     		ldr	r2, [r3, #32]
 3533 001e 22F01002 		bic	r2, r2, #16
ARM GAS  D:\Programs\cygwin64\tmp\cctM4zih.s 			page 61


 3534 0022 1A62     		str	r2, [r3, #32]
 3535 0024 1A6A     		ldr	r2, [r3, #32]
 3536 0026 1A62     		str	r2, [r3, #32]
 3537 0028 DA68     		ldr	r2, [r3, #12]
 3538 002a 22F40072 		bic	r2, r2, #512
 3539 002e DA60     		str	r2, [r3, #12]
 3540 0030 DA68     		ldr	r2, [r3, #12]
 3541 0032 22F48062 		bic	r2, r2, #1024
 3542 0036 DA60     		str	r2, [r3, #12]
 3543 0038 FFF7FEFF 		bl	HAL_DMA_Abort_IT
 3544 003c A06A     		ldr	r0, [r4, #40]
 3545 003e FFF7FEFF 		bl	HAL_DMA_Abort_IT
 3546              	.L485:
 3547 0042 2368     		ldr	r3, [r4]
 3548 0044 196A     		ldr	r1, [r3, #32]
 3549 0046 41F21112 		movw	r2, #4369
 3550 004a 1142     		tst	r1, r2
 3551 004c 08D1     		bne	.L487
 3552 004e 196A     		ldr	r1, [r3, #32]
 3553 0050 40F24442 		movw	r2, #1092
 3554 0054 1142     		tst	r1, r2
 3555 0056 03D1     		bne	.L487
 3556 0058 1A68     		ldr	r2, [r3]
 3557 005a 22F00102 		bic	r2, r2, #1
 3558 005e 1A60     		str	r2, [r3]
 3559              	.L487:
 3560 0060 0123     		movs	r3, #1
 3561 0062 84F83D30 		strb	r3, [r4, #61]
 3562 0066 0020     		movs	r0, #0
 3563 0068 10BD     		pop	{r4, pc}
 3564              	.L490:
 3565 006a 22F01002 		bic	r2, r2, #16
 3566 006e 806A     		ldr	r0, [r0, #40]
 3567 0070 1A62     		str	r2, [r3, #32]
 3568 0072 1A6A     		ldr	r2, [r3, #32]
 3569 0074 1A62     		str	r2, [r3, #32]
 3570 0076 DA68     		ldr	r2, [r3, #12]
 3571 0078 22F48062 		bic	r2, r2, #1024
 3572 007c DA60     		str	r2, [r3, #12]
 3573 007e FFF7FEFF 		bl	HAL_DMA_Abort_IT
 3574 0082 DEE7     		b	.L485
 3575              	.L489:
 3576 0084 22F00102 		bic	r2, r2, #1
 3577 0088 406A     		ldr	r0, [r0, #36]
 3578 008a 1A62     		str	r2, [r3, #32]
 3579 008c 1A6A     		ldr	r2, [r3, #32]
 3580 008e 1A62     		str	r2, [r3, #32]
 3581 0090 DA68     		ldr	r2, [r3, #12]
 3582 0092 22F40072 		bic	r2, r2, #512
 3583 0096 DA60     		str	r2, [r3, #12]
 3584 0098 FFF7FEFF 		bl	HAL_DMA_Abort_IT
 3585 009c D1E7     		b	.L485
 3587 009e 00BF     		.section	.text.HAL_TIM_OC_ConfigChannel,"ax",%progbits
 3588              		.align	1
 3589              		.p2align 2,,3
 3590              		.global	HAL_TIM_OC_ConfigChannel
 3591              		.syntax unified
ARM GAS  D:\Programs\cygwin64\tmp\cctM4zih.s 			page 62


 3592              		.thumb
 3593              		.thumb_func
 3594              		.fpu fpv4-sp-d16
 3596              	HAL_TIM_OC_ConfigChannel:
 3597              		@ args = 0, pretend = 0, frame = 0
 3598              		@ frame_needed = 0, uses_anonymous_args = 0
 3599              		@ link register save eliminated.
 3600 0000 90F83C30 		ldrb	r3, [r0, #60]	@ zero_extendqisi2
 3601 0004 012B     		cmp	r3, #1
 3602 0006 00F09880 		beq	.L513
 3603 000a F0B4     		push	{r4, r5, r6, r7}
 3604 000c 0223     		movs	r3, #2
 3605 000e 0124     		movs	r4, #1
 3606 0010 80F83C40 		strb	r4, [r0, #60]
 3607 0014 80F83D30 		strb	r3, [r0, #61]
 3608 0018 0C2A     		cmp	r2, #12
 3609 001a 27D8     		bhi	.L493
 3610 001c DFE802F0 		tbb	[pc, r2]
 3611              	.L495:
 3612 0020 07       		.byte	(.L498-.L495)/2
 3613 0021 26       		.byte	(.L493-.L495)/2
 3614 0022 26       		.byte	(.L493-.L495)/2
 3615 0023 26       		.byte	(.L493-.L495)/2
 3616 0024 4F       		.byte	(.L497-.L495)/2
 3617 0025 26       		.byte	(.L493-.L495)/2
 3618 0026 26       		.byte	(.L493-.L495)/2
 3619 0027 26       		.byte	(.L493-.L495)/2
 3620 0028 6E       		.byte	(.L496-.L495)/2
 3621 0029 26       		.byte	(.L493-.L495)/2
 3622 002a 26       		.byte	(.L493-.L495)/2
 3623 002b 26       		.byte	(.L493-.L495)/2
 3624 002c 2F       		.byte	(.L494-.L495)/2
 3625 002d 00       		.p2align 1
 3626              	.L498:
 3627 002e 0368     		ldr	r3, [r0]
 3628 0030 D1F808C0 		ldr	ip, [r1, #8]
 3629 0034 1D6A     		ldr	r5, [r3, #32]
 3630 0036 0F68     		ldr	r7, [r1]
 3631 0038 5A4E     		ldr	r6, .L519
 3632 003a 25F00105 		bic	r5, r5, #1
 3633 003e 1D62     		str	r5, [r3, #32]
 3634 0040 1A6A     		ldr	r2, [r3, #32]
 3635 0042 5D68     		ldr	r5, [r3, #4]
 3636 0044 9C69     		ldr	r4, [r3, #24]
 3637 0046 22F00202 		bic	r2, r2, #2
 3638 004a 24F07304 		bic	r4, r4, #115
 3639 004e B342     		cmp	r3, r6
 3640 0050 42EA0C02 		orr	r2, r2, ip
 3641 0054 44EA0704 		orr	r4, r4, r7
 3642 0058 71D0     		beq	.L499
 3643 005a 06F58066 		add	r6, r6, #1024
 3644 005e B342     		cmp	r3, r6
 3645 0060 6DD0     		beq	.L499
 3646              	.L501:
 3647 0062 4968     		ldr	r1, [r1, #4]
 3648 0064 5D60     		str	r5, [r3, #4]
 3649 0066 9C61     		str	r4, [r3, #24]
ARM GAS  D:\Programs\cygwin64\tmp\cctM4zih.s 			page 63


 3650 0068 5963     		str	r1, [r3, #52]
 3651 006a 1A62     		str	r2, [r3, #32]
 3652              	.L493:
 3653 006c 0023     		movs	r3, #0
 3654 006e 0122     		movs	r2, #1
 3655 0070 80F83D20 		strb	r2, [r0, #61]
 3656 0074 80F83C30 		strb	r3, [r0, #60]
 3657 0078 F0BC     		pop	{r4, r5, r6, r7}
 3658 007a 1846     		mov	r0, r3
 3659 007c 7047     		bx	lr
 3660              	.L494:
 3661 007e 0368     		ldr	r3, [r0]
 3662 0080 D1F808C0 		ldr	ip, [r1, #8]
 3663 0084 1D6A     		ldr	r5, [r3, #32]
 3664 0086 0F68     		ldr	r7, [r1]
 3665 0088 464E     		ldr	r6, .L519
 3666 008a 25F48055 		bic	r5, r5, #4096
 3667 008e 1D62     		str	r5, [r3, #32]
 3668 0090 1A6A     		ldr	r2, [r3, #32]
 3669 0092 5D68     		ldr	r5, [r3, #4]
 3670 0094 DC69     		ldr	r4, [r3, #28]
 3671 0096 22F40052 		bic	r2, r2, #8192
 3672 009a 24F4E644 		bic	r4, r4, #29440
 3673 009e B342     		cmp	r3, r6
 3674 00a0 42EA0C32 		orr	r2, r2, ip, lsl #12
 3675 00a4 44EA0724 		orr	r4, r4, r7, lsl #8
 3676 00a8 66D0     		beq	.L508
 3677 00aa 06F58066 		add	r6, r6, #1024
 3678 00ae B342     		cmp	r3, r6
 3679 00b0 62D0     		beq	.L508
 3680              	.L509:
 3681 00b2 4968     		ldr	r1, [r1, #4]
 3682 00b4 5D60     		str	r5, [r3, #4]
 3683 00b6 DC61     		str	r4, [r3, #28]
 3684 00b8 1964     		str	r1, [r3, #64]
 3685 00ba 1A62     		str	r2, [r3, #32]
 3686 00bc D6E7     		b	.L493
 3687              	.L497:
 3688 00be 0368     		ldr	r3, [r0]
 3689 00c0 8F68     		ldr	r7, [r1, #8]
 3690 00c2 1D6A     		ldr	r5, [r3, #32]
 3691 00c4 0E68     		ldr	r6, [r1]
 3692 00c6 DFF8DCC0 		ldr	ip, .L519
 3693 00ca 25F01005 		bic	r5, r5, #16
 3694 00ce 1D62     		str	r5, [r3, #32]
 3695 00d0 1A6A     		ldr	r2, [r3, #32]
 3696 00d2 5D68     		ldr	r5, [r3, #4]
 3697 00d4 9C69     		ldr	r4, [r3, #24]
 3698 00d6 22F02002 		bic	r2, r2, #32
 3699 00da 24F4E644 		bic	r4, r4, #29440
 3700 00de 6345     		cmp	r3, ip
 3701 00e0 42EA0712 		orr	r2, r2, r7, lsl #4
 3702 00e4 44EA0624 		orr	r4, r4, r6, lsl #8
 3703 00e8 36D0     		beq	.L503
 3704 00ea 2F4F     		ldr	r7, .L519+4
 3705 00ec BB42     		cmp	r3, r7
 3706 00ee 33D0     		beq	.L503
ARM GAS  D:\Programs\cygwin64\tmp\cctM4zih.s 			page 64


 3707              	.L504:
 3708 00f0 4968     		ldr	r1, [r1, #4]
 3709 00f2 5D60     		str	r5, [r3, #4]
 3710 00f4 9C61     		str	r4, [r3, #24]
 3711 00f6 9963     		str	r1, [r3, #56]
 3712 00f8 1A62     		str	r2, [r3, #32]
 3713 00fa B7E7     		b	.L493
 3714              	.L496:
 3715 00fc 0368     		ldr	r3, [r0]
 3716 00fe 8F68     		ldr	r7, [r1, #8]
 3717 0100 1D6A     		ldr	r5, [r3, #32]
 3718 0102 0E68     		ldr	r6, [r1]
 3719 0104 DFF89CC0 		ldr	ip, .L519
 3720 0108 25F48075 		bic	r5, r5, #256
 3721 010c 1D62     		str	r5, [r3, #32]
 3722 010e 1A6A     		ldr	r2, [r3, #32]
 3723 0110 5D68     		ldr	r5, [r3, #4]
 3724 0112 DC69     		ldr	r4, [r3, #28]
 3725 0114 22F40072 		bic	r2, r2, #512
 3726 0118 24F07304 		bic	r4, r4, #115
 3727 011c 6345     		cmp	r3, ip
 3728 011e 42EA0722 		orr	r2, r2, r7, lsl #8
 3729 0122 44EA0604 		orr	r4, r4, r6
 3730 0126 2DD0     		beq	.L505
 3731 0128 1F4F     		ldr	r7, .L519+4
 3732 012a BB42     		cmp	r3, r7
 3733 012c 2AD0     		beq	.L505
 3734              	.L507:
 3735 012e 4968     		ldr	r1, [r1, #4]
 3736 0130 5D60     		str	r5, [r3, #4]
 3737 0132 DC61     		str	r4, [r3, #28]
 3738 0134 D963     		str	r1, [r3, #60]
 3739 0136 1A62     		str	r2, [r3, #32]
 3740 0138 98E7     		b	.L493
 3741              	.L513:
 3742 013a 0220     		movs	r0, #2
 3743 013c 7047     		bx	lr
 3744              	.L499:
 3745 013e CE68     		ldr	r6, [r1, #12]
 3746 0140 22F00802 		bic	r2, r2, #8
 3747 0144 3243     		orrs	r2, r2, r6
 3748 0146 D1E90567 		ldrd	r6, r7, [r1, #20]
 3749 014a 25F44075 		bic	r5, r5, #768
 3750 014e 3E43     		orrs	r6, r6, r7
 3751 0150 22F00402 		bic	r2, r2, #4
 3752 0154 3543     		orrs	r5, r5, r6
 3753 0156 84E7     		b	.L501
 3754              	.L503:
 3755 0158 CE68     		ldr	r6, [r1, #12]
 3756 015a 22F08002 		bic	r2, r2, #128
 3757 015e 42EA0612 		orr	r2, r2, r6, lsl #4
 3758 0162 D1E90567 		ldrd	r6, r7, [r1, #20]
 3759 0166 25F4406C 		bic	ip, r5, #3072
 3760 016a 46EA0705 		orr	r5, r6, r7
 3761 016e 22F04002 		bic	r2, r2, #64
 3762 0172 4CEA8505 		orr	r5, ip, r5, lsl #2
 3763 0176 BBE7     		b	.L504
ARM GAS  D:\Programs\cygwin64\tmp\cctM4zih.s 			page 65


 3764              	.L508:
 3765 0178 4E69     		ldr	r6, [r1, #20]
 3766 017a 25F48045 		bic	r5, r5, #16384
 3767 017e 45EA8615 		orr	r5, r5, r6, lsl #6
 3768 0182 96E7     		b	.L509
 3769              	.L505:
 3770 0184 CE68     		ldr	r6, [r1, #12]
 3771 0186 22F40062 		bic	r2, r2, #2048
 3772 018a 42EA0622 		orr	r2, r2, r6, lsl #8
 3773 018e D1E90567 		ldrd	r6, r7, [r1, #20]
 3774 0192 25F4405C 		bic	ip, r5, #12288
 3775 0196 46EA0705 		orr	r5, r6, r7
 3776 019a 22F48062 		bic	r2, r2, #1024
 3777 019e 4CEA0515 		orr	r5, ip, r5, lsl #4
 3778 01a2 C4E7     		b	.L507
 3779              	.L520:
 3780              		.align	2
 3781              	.L519:
 3782 01a4 00000140 		.word	1073807360
 3783 01a8 00040140 		.word	1073808384
 3785              		.section	.text.HAL_TIM_IC_ConfigChannel,"ax",%progbits
 3786              		.align	1
 3787              		.p2align 2,,3
 3788              		.global	HAL_TIM_IC_ConfigChannel
 3789              		.syntax unified
 3790              		.thumb
 3791              		.thumb_func
 3792              		.fpu fpv4-sp-d16
 3794              	HAL_TIM_IC_ConfigChannel:
 3795              		@ args = 0, pretend = 0, frame = 0
 3796              		@ frame_needed = 0, uses_anonymous_args = 0
 3797              		@ link register save eliminated.
 3798 0000 90F83C30 		ldrb	r3, [r0, #60]	@ zero_extendqisi2
 3799 0004 012B     		cmp	r3, #1
 3800 0006 00F0BC80 		beq	.L529
 3801 000a F0B4     		push	{r4, r5, r6, r7}
 3802 000c 0223     		movs	r3, #2
 3803 000e 0124     		movs	r4, #1
 3804 0010 80F83C40 		strb	r4, [r0, #60]
 3805 0014 80F83D30 		strb	r3, [r0, #61]
 3806 0018 D1E90057 		ldrd	r5, r7, [r1]
 3807 001c 0368     		ldr	r3, [r0]
 3808 001e D1E90264 		ldrd	r6, r4, [r1, #8]
 3809 0022 72B3     		cbz	r2, .L537
 3810 0024 042A     		cmp	r2, #4
 3811 0026 6BD0     		beq	.L538
 3812 0028 082A     		cmp	r2, #8
 3813 002a 1A6A     		ldr	r2, [r3, #32]
 3814 002c 00F08A80 		beq	.L539
 3815 0030 22F48052 		bic	r2, r2, #4096
 3816 0034 1A62     		str	r2, [r3, #32]
 3817 0036 D969     		ldr	r1, [r3, #28]
 3818 0038 D3F820C0 		ldr	ip, [r3, #32]
 3819 003c 21F44071 		bic	r1, r1, #768
 3820 0040 2403     		lsls	r4, r4, #12
 3821 0042 2A03     		lsls	r2, r5, #12
 3822 0044 41EA0721 		orr	r1, r1, r7, lsl #8
ARM GAS  D:\Programs\cygwin64\tmp\cctM4zih.s 			page 66


 3823 0048 A4B2     		uxth	r4, r4
 3824 004a 02F42042 		and	r2, r2, #40960
 3825 004e 21F47041 		bic	r1, r1, #61440
 3826 0052 2CF4204C 		bic	ip, ip, #40960
 3827 0056 42EA0C02 		orr	r2, r2, ip
 3828 005a 0C43     		orrs	r4, r4, r1
 3829 005c DC61     		str	r4, [r3, #28]
 3830 005e 1A62     		str	r2, [r3, #32]
 3831 0060 DA69     		ldr	r2, [r3, #28]
 3832 0062 22F44062 		bic	r2, r2, #3072
 3833 0066 DA61     		str	r2, [r3, #28]
 3834 0068 DA69     		ldr	r2, [r3, #28]
 3835 006a 42EA0626 		orr	r6, r2, r6, lsl #8
 3836 006e DE61     		str	r6, [r3, #28]
 3837              	.L526:
 3838 0070 0023     		movs	r3, #0
 3839 0072 0122     		movs	r2, #1
 3840 0074 80F83D20 		strb	r2, [r0, #61]
 3841 0078 80F83C30 		strb	r3, [r0, #60]
 3842 007c F0BC     		pop	{r4, r5, r6, r7}
 3843 007e 1846     		mov	r0, r3
 3844 0080 7047     		bx	lr
 3845              	.L537:
 3846 0082 1A6A     		ldr	r2, [r3, #32]
 3847 0084 DFF800C1 		ldr	ip, .L540
 3848 0088 22F00102 		bic	r2, r2, #1
 3849 008c 1A62     		str	r2, [r3, #32]
 3850 008e 6345     		cmp	r3, ip
 3851 0090 9969     		ldr	r1, [r3, #24]
 3852 0092 1A6A     		ldr	r2, [r3, #32]
 3853 0094 1DD0     		beq	.L524
 3854 0096 B3F1804F 		cmp	r3, #1073741824
 3855 009a 1AD0     		beq	.L524
 3856 009c ACF57C4C 		sub	ip, ip, #64512
 3857 00a0 6345     		cmp	r3, ip
 3858 00a2 16D0     		beq	.L524
 3859 00a4 0CF5806C 		add	ip, ip, #1024
 3860 00a8 6345     		cmp	r3, ip
 3861 00aa 12D0     		beq	.L524
 3862 00ac 0CF5806C 		add	ip, ip, #1024
 3863 00b0 6345     		cmp	r3, ip
 3864 00b2 0ED0     		beq	.L524
 3865 00b4 0CF5784C 		add	ip, ip, #63488
 3866 00b8 6345     		cmp	r3, ip
 3867 00ba 0AD0     		beq	.L524
 3868 00bc 0CF5705C 		add	ip, ip, #15360
 3869 00c0 6345     		cmp	r3, ip
 3870 00c2 06D0     		beq	.L524
 3871 00c4 ACF5943C 		sub	ip, ip, #75776
 3872 00c8 6345     		cmp	r3, ip
 3873 00ca 02D0     		beq	.L524
 3874 00cc 41F00101 		orr	r1, r1, #1
 3875 00d0 02E0     		b	.L525
 3876              	.L524:
 3877 00d2 21F00301 		bic	r1, r1, #3
 3878 00d6 3943     		orrs	r1, r1, r7
 3879              	.L525:
ARM GAS  D:\Programs\cygwin64\tmp\cctM4zih.s 			page 67


 3880 00d8 2401     		lsls	r4, r4, #4
 3881 00da 22F00A07 		bic	r7, r2, #10
 3882 00de E4B2     		uxtb	r4, r4
 3883 00e0 21F0F001 		bic	r1, r1, #240
 3884 00e4 05F00A02 		and	r2, r5, #10
 3885 00e8 3A43     		orrs	r2, r2, r7
 3886 00ea 2143     		orrs	r1, r1, r4
 3887 00ec 9961     		str	r1, [r3, #24]
 3888 00ee 1A62     		str	r2, [r3, #32]
 3889 00f0 9A69     		ldr	r2, [r3, #24]
 3890 00f2 22F00C02 		bic	r2, r2, #12
 3891 00f6 9A61     		str	r2, [r3, #24]
 3892 00f8 9A69     		ldr	r2, [r3, #24]
 3893 00fa 1643     		orrs	r6, r6, r2
 3894 00fc 9E61     		str	r6, [r3, #24]
 3895 00fe B7E7     		b	.L526
 3896              	.L538:
 3897 0100 1A6A     		ldr	r2, [r3, #32]
 3898 0102 22F01002 		bic	r2, r2, #16
 3899 0106 1A62     		str	r2, [r3, #32]
 3900 0108 9969     		ldr	r1, [r3, #24]
 3901 010a D3F820C0 		ldr	ip, [r3, #32]
 3902 010e 21F44071 		bic	r1, r1, #768
 3903 0112 2403     		lsls	r4, r4, #12
 3904 0114 2A01     		lsls	r2, r5, #4
 3905 0116 41EA0721 		orr	r1, r1, r7, lsl #8
 3906 011a A4B2     		uxth	r4, r4
 3907 011c 02F0A002 		and	r2, r2, #160
 3908 0120 21F47041 		bic	r1, r1, #61440
 3909 0124 2CF0A00C 		bic	ip, ip, #160
 3910 0128 42EA0C02 		orr	r2, r2, ip
 3911 012c 2143     		orrs	r1, r1, r4
 3912 012e 9961     		str	r1, [r3, #24]
 3913 0130 1A62     		str	r2, [r3, #32]
 3914 0132 9A69     		ldr	r2, [r3, #24]
 3915 0134 22F44062 		bic	r2, r2, #3072
 3916 0138 9A61     		str	r2, [r3, #24]
 3917 013a 9A69     		ldr	r2, [r3, #24]
 3918 013c 42EA0626 		orr	r6, r2, r6, lsl #8
 3919 0140 9E61     		str	r6, [r3, #24]
 3920 0142 95E7     		b	.L526
 3921              	.L539:
 3922 0144 22F48072 		bic	r2, r2, #256
 3923 0148 1A62     		str	r2, [r3, #32]
 3924 014a D969     		ldr	r1, [r3, #28]
 3925 014c D3F820C0 		ldr	ip, [r3, #32]
 3926 0150 21F00301 		bic	r1, r1, #3
 3927 0154 2401     		lsls	r4, r4, #4
 3928 0156 2A02     		lsls	r2, r5, #8
 3929 0158 3943     		orrs	r1, r1, r7
 3930 015a E4B2     		uxtb	r4, r4
 3931 015c 02F42062 		and	r2, r2, #2560
 3932 0160 21F0F001 		bic	r1, r1, #240
 3933 0164 2CF4206C 		bic	ip, ip, #2560
 3934 0168 42EA0C02 		orr	r2, r2, ip
 3935 016c 2143     		orrs	r1, r1, r4
 3936 016e D961     		str	r1, [r3, #28]
ARM GAS  D:\Programs\cygwin64\tmp\cctM4zih.s 			page 68


 3937 0170 1A62     		str	r2, [r3, #32]
 3938 0172 DA69     		ldr	r2, [r3, #28]
 3939 0174 22F00C02 		bic	r2, r2, #12
 3940 0178 DA61     		str	r2, [r3, #28]
 3941 017a DA69     		ldr	r2, [r3, #28]
 3942 017c 1643     		orrs	r6, r6, r2
 3943 017e DE61     		str	r6, [r3, #28]
 3944 0180 76E7     		b	.L526
 3945              	.L529:
 3946 0182 0220     		movs	r0, #2
 3947 0184 7047     		bx	lr
 3948              	.L541:
 3949 0186 00BF     		.align	2
 3950              	.L540:
 3951 0188 00000140 		.word	1073807360
 3953              		.section	.text.HAL_TIM_PWM_ConfigChannel,"ax",%progbits
 3954              		.align	1
 3955              		.p2align 2,,3
 3956              		.global	HAL_TIM_PWM_ConfigChannel
 3957              		.syntax unified
 3958              		.thumb
 3959              		.thumb_func
 3960              		.fpu fpv4-sp-d16
 3962              	HAL_TIM_PWM_ConfigChannel:
 3963              		@ args = 0, pretend = 0, frame = 0
 3964              		@ frame_needed = 0, uses_anonymous_args = 0
 3965              		@ link register save eliminated.
 3966 0000 90F83C30 		ldrb	r3, [r0, #60]	@ zero_extendqisi2
 3967 0004 012B     		cmp	r3, #1
 3968 0006 00F0CE80 		beq	.L564
 3969 000a F0B4     		push	{r4, r5, r6, r7}
 3970 000c 0223     		movs	r3, #2
 3971 000e 0124     		movs	r4, #1
 3972 0010 80F83C40 		strb	r4, [r0, #60]
 3973 0014 80F83D30 		strb	r3, [r0, #61]
 3974 0018 0C2A     		cmp	r2, #12
 3975 001a 35D8     		bhi	.L544
 3976 001c DFE802F0 		tbb	[pc, r2]
 3977              	.L546:
 3978 0020 07       		.byte	(.L549-.L546)/2
 3979 0021 34       		.byte	(.L544-.L546)/2
 3980 0022 34       		.byte	(.L544-.L546)/2
 3981 0023 34       		.byte	(.L544-.L546)/2
 3982 0024 6C       		.byte	(.L548-.L546)/2
 3983 0025 34       		.byte	(.L544-.L546)/2
 3984 0026 34       		.byte	(.L544-.L546)/2
 3985 0027 34       		.byte	(.L544-.L546)/2
 3986 0028 98       		.byte	(.L547-.L546)/2
 3987 0029 34       		.byte	(.L544-.L546)/2
 3988 002a 34       		.byte	(.L544-.L546)/2
 3989 002b 34       		.byte	(.L544-.L546)/2
 3990 002c 3D       		.byte	(.L545-.L546)/2
 3991 002d 00       		.p2align 1
 3992              	.L549:
 3993 002e 0368     		ldr	r3, [r0]
 3994 0030 D1F808C0 		ldr	ip, [r1, #8]
 3995 0034 1D6A     		ldr	r5, [r3, #32]
ARM GAS  D:\Programs\cygwin64\tmp\cctM4zih.s 			page 69


 3996 0036 0F68     		ldr	r7, [r1]
 3997 0038 754E     		ldr	r6, .L570
 3998 003a 25F00105 		bic	r5, r5, #1
 3999 003e 1D62     		str	r5, [r3, #32]
 4000 0040 1A6A     		ldr	r2, [r3, #32]
 4001 0042 5D68     		ldr	r5, [r3, #4]
 4002 0044 9C69     		ldr	r4, [r3, #24]
 4003 0046 22F00202 		bic	r2, r2, #2
 4004 004a 24F07304 		bic	r4, r4, #115
 4005 004e B342     		cmp	r3, r6
 4006 0050 42EA0C02 		orr	r2, r2, ip
 4007 0054 44EA0704 		orr	r4, r4, r7
 4008 0058 00F0A780 		beq	.L550
 4009 005c 06F58066 		add	r6, r6, #1024
 4010 0060 B342     		cmp	r3, r6
 4011 0062 00F0A280 		beq	.L550
 4012              	.L552:
 4013 0066 4E68     		ldr	r6, [r1, #4]
 4014 0068 5D60     		str	r5, [r3, #4]
 4015 006a 9C61     		str	r4, [r3, #24]
 4016 006c 5E63     		str	r6, [r3, #52]
 4017 006e 1A62     		str	r2, [r3, #32]
 4018 0070 9C69     		ldr	r4, [r3, #24]
 4019 0072 0D69     		ldr	r5, [r1, #16]
 4020 0074 44F00804 		orr	r4, r4, #8
 4021 0078 9C61     		str	r4, [r3, #24]
 4022 007a 9969     		ldr	r1, [r3, #24]
 4023 007c 21F00401 		bic	r1, r1, #4
 4024 0080 9961     		str	r1, [r3, #24]
 4025 0082 9A69     		ldr	r2, [r3, #24]
 4026 0084 2A43     		orrs	r2, r2, r5
 4027 0086 9A61     		str	r2, [r3, #24]
 4028              	.L544:
 4029 0088 0023     		movs	r3, #0
 4030 008a 0122     		movs	r2, #1
 4031 008c 80F83D20 		strb	r2, [r0, #61]
 4032 0090 80F83C30 		strb	r3, [r0, #60]
 4033 0094 F0BC     		pop	{r4, r5, r6, r7}
 4034 0096 1846     		mov	r0, r3
 4035 0098 7047     		bx	lr
 4036              	.L545:
 4037 009a 0368     		ldr	r3, [r0]
 4038 009c D1F808C0 		ldr	ip, [r1, #8]
 4039 00a0 1D6A     		ldr	r5, [r3, #32]
 4040 00a2 0F68     		ldr	r7, [r1]
 4041 00a4 5A4E     		ldr	r6, .L570
 4042 00a6 25F48055 		bic	r5, r5, #4096
 4043 00aa 1D62     		str	r5, [r3, #32]
 4044 00ac 1A6A     		ldr	r2, [r3, #32]
 4045 00ae 5D68     		ldr	r5, [r3, #4]
 4046 00b0 DC69     		ldr	r4, [r3, #28]
 4047 00b2 22F40052 		bic	r2, r2, #8192
 4048 00b6 24F4E644 		bic	r4, r4, #29440
 4049 00ba B342     		cmp	r3, r6
 4050 00bc 42EA0C32 		orr	r2, r2, ip, lsl #12
 4051 00c0 44EA0724 		orr	r4, r4, r7, lsl #8
 4052 00c4 00F08E80 		beq	.L559
ARM GAS  D:\Programs\cygwin64\tmp\cctM4zih.s 			page 70


 4053 00c8 06F58066 		add	r6, r6, #1024
 4054 00cc B342     		cmp	r3, r6
 4055 00ce 00F08980 		beq	.L559
 4056              	.L560:
 4057 00d2 4E68     		ldr	r6, [r1, #4]
 4058 00d4 5D60     		str	r5, [r3, #4]
 4059 00d6 DC61     		str	r4, [r3, #28]
 4060 00d8 1E64     		str	r6, [r3, #64]
 4061 00da 1A62     		str	r2, [r3, #32]
 4062 00dc DC69     		ldr	r4, [r3, #28]
 4063 00de 0D69     		ldr	r5, [r1, #16]
 4064 00e0 44F40064 		orr	r4, r4, #2048
 4065 00e4 DC61     		str	r4, [r3, #28]
 4066 00e6 D969     		ldr	r1, [r3, #28]
 4067 00e8 21F48061 		bic	r1, r1, #1024
 4068 00ec D961     		str	r1, [r3, #28]
 4069 00ee DA69     		ldr	r2, [r3, #28]
 4070 00f0 42EA0522 		orr	r2, r2, r5, lsl #8
 4071 00f4 DA61     		str	r2, [r3, #28]
 4072 00f6 C7E7     		b	.L544
 4073              	.L548:
 4074 00f8 0368     		ldr	r3, [r0]
 4075 00fa 8F68     		ldr	r7, [r1, #8]
 4076 00fc 1D6A     		ldr	r5, [r3, #32]
 4077 00fe 0E68     		ldr	r6, [r1]
 4078 0100 DFF80CC1 		ldr	ip, .L570
 4079 0104 25F01005 		bic	r5, r5, #16
 4080 0108 1D62     		str	r5, [r3, #32]
 4081 010a 1A6A     		ldr	r2, [r3, #32]
 4082 010c 5D68     		ldr	r5, [r3, #4]
 4083 010e 9C69     		ldr	r4, [r3, #24]
 4084 0110 22F02002 		bic	r2, r2, #32
 4085 0114 24F4E644 		bic	r4, r4, #29440
 4086 0118 6345     		cmp	r3, ip
 4087 011a 42EA0712 		orr	r2, r2, r7, lsl #4
 4088 011e 44EA0624 		orr	r4, r4, r6, lsl #8
 4089 0122 4FD0     		beq	.L554
 4090 0124 3B4F     		ldr	r7, .L570+4
 4091 0126 BB42     		cmp	r3, r7
 4092 0128 4CD0     		beq	.L554
 4093              	.L555:
 4094 012a 4E68     		ldr	r6, [r1, #4]
 4095 012c 5D60     		str	r5, [r3, #4]
 4096 012e 9C61     		str	r4, [r3, #24]
 4097 0130 9E63     		str	r6, [r3, #56]
 4098 0132 1A62     		str	r2, [r3, #32]
 4099 0134 9C69     		ldr	r4, [r3, #24]
 4100 0136 0D69     		ldr	r5, [r1, #16]
 4101 0138 44F40064 		orr	r4, r4, #2048
 4102 013c 9C61     		str	r4, [r3, #24]
 4103 013e 9969     		ldr	r1, [r3, #24]
 4104 0140 21F48061 		bic	r1, r1, #1024
 4105 0144 9961     		str	r1, [r3, #24]
 4106 0146 9A69     		ldr	r2, [r3, #24]
 4107 0148 42EA0522 		orr	r2, r2, r5, lsl #8
 4108 014c 9A61     		str	r2, [r3, #24]
 4109 014e 9BE7     		b	.L544
ARM GAS  D:\Programs\cygwin64\tmp\cctM4zih.s 			page 71


 4110              	.L547:
 4111 0150 0368     		ldr	r3, [r0]
 4112 0152 8F68     		ldr	r7, [r1, #8]
 4113 0154 1D6A     		ldr	r5, [r3, #32]
 4114 0156 0E68     		ldr	r6, [r1]
 4115 0158 DFF8B4C0 		ldr	ip, .L570
 4116 015c 25F48075 		bic	r5, r5, #256
 4117 0160 1D62     		str	r5, [r3, #32]
 4118 0162 1A6A     		ldr	r2, [r3, #32]
 4119 0164 5D68     		ldr	r5, [r3, #4]
 4120 0166 DC69     		ldr	r4, [r3, #28]
 4121 0168 22F40072 		bic	r2, r2, #512
 4122 016c 24F07304 		bic	r4, r4, #115
 4123 0170 6345     		cmp	r3, ip
 4124 0172 42EA0722 		orr	r2, r2, r7, lsl #8
 4125 0176 44EA0604 		orr	r4, r4, r6
 4126 017a 39D0     		beq	.L556
 4127 017c 254F     		ldr	r7, .L570+4
 4128 017e BB42     		cmp	r3, r7
 4129 0180 36D0     		beq	.L556
 4130              	.L558:
 4131 0182 4E68     		ldr	r6, [r1, #4]
 4132 0184 5D60     		str	r5, [r3, #4]
 4133 0186 DC61     		str	r4, [r3, #28]
 4134 0188 DE63     		str	r6, [r3, #60]
 4135 018a 1A62     		str	r2, [r3, #32]
 4136 018c DC69     		ldr	r4, [r3, #28]
 4137 018e 0D69     		ldr	r5, [r1, #16]
 4138 0190 44F00804 		orr	r4, r4, #8
 4139 0194 DC61     		str	r4, [r3, #28]
 4140 0196 D969     		ldr	r1, [r3, #28]
 4141 0198 21F00401 		bic	r1, r1, #4
 4142 019c D961     		str	r1, [r3, #28]
 4143 019e DA69     		ldr	r2, [r3, #28]
 4144 01a0 2A43     		orrs	r2, r2, r5
 4145 01a2 DA61     		str	r2, [r3, #28]
 4146 01a4 70E7     		b	.L544
 4147              	.L564:
 4148 01a6 0220     		movs	r0, #2
 4149 01a8 7047     		bx	lr
 4150              	.L550:
 4151 01aa CE68     		ldr	r6, [r1, #12]
 4152 01ac 22F00802 		bic	r2, r2, #8
 4153 01b0 3243     		orrs	r2, r2, r6
 4154 01b2 D1E90567 		ldrd	r6, r7, [r1, #20]
 4155 01b6 25F44075 		bic	r5, r5, #768
 4156 01ba 3E43     		orrs	r6, r6, r7
 4157 01bc 22F00402 		bic	r2, r2, #4
 4158 01c0 3543     		orrs	r5, r5, r6
 4159 01c2 50E7     		b	.L552
 4160              	.L554:
 4161 01c4 CE68     		ldr	r6, [r1, #12]
 4162 01c6 22F08002 		bic	r2, r2, #128
 4163 01ca 42EA0612 		orr	r2, r2, r6, lsl #4
 4164 01ce D1E90567 		ldrd	r6, r7, [r1, #20]
 4165 01d2 25F4406C 		bic	ip, r5, #3072
 4166 01d6 46EA0705 		orr	r5, r6, r7
ARM GAS  D:\Programs\cygwin64\tmp\cctM4zih.s 			page 72


 4167 01da 22F04002 		bic	r2, r2, #64
 4168 01de 4CEA8505 		orr	r5, ip, r5, lsl #2
 4169 01e2 A2E7     		b	.L555
 4170              	.L559:
 4171 01e4 4E69     		ldr	r6, [r1, #20]
 4172 01e6 25F48045 		bic	r5, r5, #16384
 4173 01ea 45EA8615 		orr	r5, r5, r6, lsl #6
 4174 01ee 70E7     		b	.L560
 4175              	.L556:
 4176 01f0 CE68     		ldr	r6, [r1, #12]
 4177 01f2 22F40062 		bic	r2, r2, #2048
 4178 01f6 42EA0622 		orr	r2, r2, r6, lsl #8
 4179 01fa D1E90567 		ldrd	r6, r7, [r1, #20]
 4180 01fe 25F4405C 		bic	ip, r5, #12288
 4181 0202 46EA0705 		orr	r5, r6, r7
 4182 0206 22F48062 		bic	r2, r2, #1024
 4183 020a 4CEA0515 		orr	r5, ip, r5, lsl #4
 4184 020e B8E7     		b	.L558
 4185              	.L571:
 4186              		.align	2
 4187              	.L570:
 4188 0210 00000140 		.word	1073807360
 4189 0214 00040140 		.word	1073808384
 4191              		.section	.text.HAL_TIM_OnePulse_ConfigChannel,"ax",%progbits
 4192              		.align	1
 4193              		.p2align 2,,3
 4194              		.global	HAL_TIM_OnePulse_ConfigChannel
 4195              		.syntax unified
 4196              		.thumb
 4197              		.thumb_func
 4198              		.fpu fpv4-sp-d16
 4200              	HAL_TIM_OnePulse_ConfigChannel:
 4201              		@ args = 0, pretend = 0, frame = 0
 4202              		@ frame_needed = 0, uses_anonymous_args = 0
 4203 0000 9A42     		cmp	r2, r3
 4204 0002 00F0C580 		beq	.L590
 4205 0006 2DE9F04F 		push	{r4, r5, r6, r7, r8, r9, r10, fp, lr}
 4206 000a 90F83C40 		ldrb	r4, [r0, #60]	@ zero_extendqisi2
 4207 000e 012C     		cmp	r4, #1
 4208 0010 00F0F580 		beq	.L591
 4209 0014 0125     		movs	r5, #1
 4210 0016 0224     		movs	r4, #2
 4211 0018 80F83C50 		strb	r5, [r0, #60]
 4212 001c 80F83D40 		strb	r4, [r0, #61]
 4213 0020 D1E900C7 		ldrd	ip, r7, [r1]
 4214 0024 D1E90248 		ldrd	r4, r8, [r1, #8]
 4215 0028 D1E9045E 		ldrd	r5, lr, [r1, #16]
 4216 002c 002A     		cmp	r2, #0
 4217 002e 00F08C80 		beq	.L574
 4218 0032 042A     		cmp	r2, #4
 4219 0034 3CD0     		beq	.L575
 4220 0036 002B     		cmp	r3, #0
 4221 0038 5CD0     		beq	.L583
 4222              	.L601:
 4223 003a 042B     		cmp	r3, #4
 4224 003c 08D0     		beq	.L584
 4225              	.L585:
ARM GAS  D:\Programs\cygwin64\tmp\cctM4zih.s 			page 73


 4226 003e 0023     		movs	r3, #0
 4227 0040 0122     		movs	r2, #1
 4228 0042 80F83D20 		strb	r2, [r0, #61]
 4229 0046 80F83C30 		strb	r3, [r0, #60]
 4230 004a 1846     		mov	r0, r3
 4231 004c BDE8F08F 		pop	{r4, r5, r6, r7, r8, r9, r10, fp, pc}
 4232              	.L584:
 4233 0050 0368     		ldr	r3, [r0]
 4234 0052 8A69     		ldr	r2, [r1, #24]
 4235 0054 1D6A     		ldr	r5, [r3, #32]
 4236 0056 25F01005 		bic	r5, r5, #16
 4237 005a D1E90761 		ldrd	r6, r1, [r1, #28]
 4238 005e 1D62     		str	r5, [r3, #32]
 4239 0060 9C69     		ldr	r4, [r3, #24]
 4240 0062 1D6A     		ldr	r5, [r3, #32]
 4241 0064 24F44074 		bic	r4, r4, #768
 4242 0068 1201     		lsls	r2, r2, #4
 4243 006a 0903     		lsls	r1, r1, #12
 4244 006c 44EA0624 		orr	r4, r4, r6, lsl #8
 4245 0070 02F0A002 		and	r2, r2, #160
 4246 0074 89B2     		uxth	r1, r1
 4247 0076 24F47044 		bic	r4, r4, #61440
 4248 007a 25F0A005 		bic	r5, r5, #160
 4249 007e 2A43     		orrs	r2, r2, r5
 4250 0080 2143     		orrs	r1, r1, r4
 4251 0082 9961     		str	r1, [r3, #24]
 4252 0084 1A62     		str	r2, [r3, #32]
 4253 0086 9A69     		ldr	r2, [r3, #24]
 4254 0088 22F44062 		bic	r2, r2, #3072
 4255 008c 9A61     		str	r2, [r3, #24]
 4256 008e 9A68     		ldr	r2, [r3, #8]
 4257 0090 22F07002 		bic	r2, r2, #112
 4258 0094 9A60     		str	r2, [r3, #8]
 4259 0096 9A68     		ldr	r2, [r3, #8]
 4260 0098 42F06002 		orr	r2, r2, #96
 4261              	.L600:
 4262 009c 9A60     		str	r2, [r3, #8]
 4263 009e 9A68     		ldr	r2, [r3, #8]
 4264 00a0 22F00702 		bic	r2, r2, #7
 4265 00a4 9A60     		str	r2, [r3, #8]
 4266 00a6 9A68     		ldr	r2, [r3, #8]
 4267 00a8 42F00602 		orr	r2, r2, #6
 4268 00ac 9A60     		str	r2, [r3, #8]
 4269 00ae C6E7     		b	.L585
 4270              	.L575:
 4271 00b0 0268     		ldr	r2, [r0]
 4272 00b2 DFF850A1 		ldr	r10, .L602
 4273 00b6 166A     		ldr	r6, [r2, #32]
 4274 00b8 26F01006 		bic	r6, r6, #16
 4275 00bc 1662     		str	r6, [r2, #32]
 4276 00be D2F820B0 		ldr	fp, [r2, #32]
 4277 00c2 D2F80490 		ldr	r9, [r2, #4]
 4278 00c6 9669     		ldr	r6, [r2, #24]
 4279 00c8 2BF0200B 		bic	fp, fp, #32
 4280 00cc 26F4E646 		bic	r6, r6, #29440
 4281 00d0 5245     		cmp	r2, r10
 4282 00d2 4BEA0414 		orr	r4, fp, r4, lsl #4
ARM GAS  D:\Programs\cygwin64\tmp\cctM4zih.s 			page 74


 4283 00d6 46EA0C26 		orr	r6, r6, ip, lsl #8
 4284 00da 00F08380 		beq	.L580
 4285 00de DFF828C1 		ldr	ip, .L602+4
 4286 00e2 6245     		cmp	r2, ip
 4287 00e4 7ED0     		beq	.L580
 4288              	.L582:
 4289 00e6 C2F80490 		str	r9, [r2, #4]
 4290 00ea 9661     		str	r6, [r2, #24]
 4291 00ec 9763     		str	r7, [r2, #56]
 4292 00ee 1462     		str	r4, [r2, #32]
 4293 00f0 002B     		cmp	r3, #0
 4294 00f2 A2D1     		bne	.L601
 4295              	.L583:
 4296 00f4 0368     		ldr	r3, [r0]
 4297 00f6 434F     		ldr	r7, .L602
 4298 00f8 1E6A     		ldr	r6, [r3, #32]
 4299 00fa 0A6A     		ldr	r2, [r1, #32]
 4300 00fc 26F00106 		bic	r6, r6, #1
 4301 0100 D1E90654 		ldrd	r5, r4, [r1, #24]
 4302 0104 BB42     		cmp	r3, r7
 4303 0106 1E62     		str	r6, [r3, #32]
 4304 0108 9E69     		ldr	r6, [r3, #24]
 4305 010a 196A     		ldr	r1, [r3, #32]
 4306 010c 42D0     		beq	.L586
 4307 010e B3F1804F 		cmp	r3, #1073741824
 4308 0112 3FD0     		beq	.L586
 4309 0114 A7F57C47 		sub	r7, r7, #64512
 4310 0118 BB42     		cmp	r3, r7
 4311 011a 3BD0     		beq	.L586
 4312 011c 07F58067 		add	r7, r7, #1024
 4313 0120 BB42     		cmp	r3, r7
 4314 0122 37D0     		beq	.L586
 4315 0124 07F58067 		add	r7, r7, #1024
 4316 0128 BB42     		cmp	r3, r7
 4317 012a 33D0     		beq	.L586
 4318 012c 07F57847 		add	r7, r7, #63488
 4319 0130 BB42     		cmp	r3, r7
 4320 0132 2FD0     		beq	.L586
 4321 0134 07F57057 		add	r7, r7, #15360
 4322 0138 BB42     		cmp	r3, r7
 4323 013a 2BD0     		beq	.L586
 4324 013c A7F59437 		sub	r7, r7, #75776
 4325 0140 BB42     		cmp	r3, r7
 4326 0142 27D0     		beq	.L586
 4327 0144 46F00104 		orr	r4, r6, #1
 4328 0148 27E0     		b	.L587
 4329              	.L574:
 4330 014a 0268     		ldr	r2, [r0]
 4331 014c DFF8B4A0 		ldr	r10, .L602
 4332 0150 166A     		ldr	r6, [r2, #32]
 4333 0152 26F00106 		bic	r6, r6, #1
 4334 0156 1662     		str	r6, [r2, #32]
 4335 0158 D2F820B0 		ldr	fp, [r2, #32]
 4336 015c D2F80490 		ldr	r9, [r2, #4]
 4337 0160 9669     		ldr	r6, [r2, #24]
 4338 0162 2BF0020B 		bic	fp, fp, #2
 4339 0166 26F07306 		bic	r6, r6, #115
ARM GAS  D:\Programs\cygwin64\tmp\cctM4zih.s 			page 75


 4340 016a 5245     		cmp	r2, r10
 4341 016c 44EA0B04 		orr	r4, r4, fp
 4342 0170 4CEA0606 		orr	r6, ip, r6
 4343 0174 29D0     		beq	.L577
 4344 0176 DFF890C0 		ldr	ip, .L602+4
 4345 017a 6245     		cmp	r2, ip
 4346 017c 25D0     		beq	.L577
 4347              	.L579:
 4348 017e C2F80490 		str	r9, [r2, #4]
 4349 0182 9661     		str	r6, [r2, #24]
 4350 0184 5763     		str	r7, [r2, #52]
 4351 0186 1462     		str	r4, [r2, #32]
 4352 0188 002B     		cmp	r3, #0
 4353 018a 7FF456AF 		bne	.L601
 4354 018e B1E7     		b	.L583
 4355              	.L590:
 4356 0190 0120     		movs	r0, #1
 4357 0192 7047     		bx	lr
 4358              	.L586:
 4359 0194 26F00306 		bic	r6, r6, #3
 4360 0198 3443     		orrs	r4, r4, r6
 4361              	.L587:
 4362 019a 1201     		lsls	r2, r2, #4
 4363 019c 21F00A06 		bic	r6, r1, #10
 4364 01a0 D2B2     		uxtb	r2, r2
 4365 01a2 24F0F004 		bic	r4, r4, #240
 4366 01a6 05F00A01 		and	r1, r5, #10
 4367 01aa 2243     		orrs	r2, r2, r4
 4368 01ac 3143     		orrs	r1, r1, r6
 4369 01ae 9A61     		str	r2, [r3, #24]
 4370 01b0 1962     		str	r1, [r3, #32]
 4371 01b2 9A69     		ldr	r2, [r3, #24]
 4372 01b4 22F00C02 		bic	r2, r2, #12
 4373 01b8 9A61     		str	r2, [r3, #24]
 4374 01ba 9A68     		ldr	r2, [r3, #8]
 4375 01bc 22F07002 		bic	r2, r2, #112
 4376 01c0 9A60     		str	r2, [r3, #8]
 4377 01c2 9A68     		ldr	r2, [r3, #8]
 4378 01c4 42F05002 		orr	r2, r2, #80
 4379 01c8 68E7     		b	.L600
 4380              	.L577:
 4381 01ca 24F00804 		bic	r4, r4, #8
 4382 01ce 48EA0404 		orr	r4, r8, r4
 4383 01d2 29F44079 		bic	r9, r9, #768
 4384 01d6 45EA0E05 		orr	r5, r5, lr
 4385 01da 24F00404 		bic	r4, r4, #4
 4386 01de 45EA0909 		orr	r9, r5, r9
 4387 01e2 CCE7     		b	.L579
 4388              	.L580:
 4389 01e4 24F08004 		bic	r4, r4, #128
 4390 01e8 44EA0814 		orr	r4, r4, r8, lsl #4
 4391 01ec 29F44069 		bic	r9, r9, #3072
 4392 01f0 45EA0E05 		orr	r5, r5, lr
 4393 01f4 24F04004 		bic	r4, r4, #64
 4394 01f8 49EA8509 		orr	r9, r9, r5, lsl #2
 4395 01fc 73E7     		b	.L582
 4396              	.L591:
ARM GAS  D:\Programs\cygwin64\tmp\cctM4zih.s 			page 76


 4397 01fe 0220     		movs	r0, #2
 4398 0200 BDE8F08F 		pop	{r4, r5, r6, r7, r8, r9, r10, fp, pc}
 4399              	.L603:
 4400              		.align	2
 4401              	.L602:
 4402 0204 00000140 		.word	1073807360
 4403 0208 00040140 		.word	1073808384
 4405              		.section	.text.HAL_TIM_DMABurst_WriteStart,"ax",%progbits
 4406              		.align	1
 4407              		.p2align 2,,3
 4408              		.global	HAL_TIM_DMABurst_WriteStart
 4409              		.syntax unified
 4410              		.thumb
 4411              		.thumb_func
 4412              		.fpu fpv4-sp-d16
 4414              	HAL_TIM_DMABurst_WriteStart:
 4415              		@ args = 4, pretend = 0, frame = 0
 4416              		@ frame_needed = 0, uses_anonymous_args = 0
 4417 0000 F8B5     		push	{r3, r4, r5, r6, r7, lr}
 4418 0002 90F83D50 		ldrb	r5, [r0, #61]	@ zero_extendqisi2
 4419 0006 069E     		ldr	r6, [sp, #24]
 4420 0008 EDB2     		uxtb	r5, r5
 4421 000a 022D     		cmp	r5, #2
 4422 000c 51D0     		beq	.L618
 4423 000e 90F83D40 		ldrb	r4, [r0, #61]	@ zero_extendqisi2
 4424 0012 012C     		cmp	r4, #1
 4425 0014 39D0     		beq	.L631
 4426 0016 1446     		mov	r4, r2
 4427 0018 B4F5006F 		cmp	r4, #2048
 4428 001c 0F46     		mov	r7, r1
 4429 001e 0546     		mov	r5, r0
 4430 0020 0268     		ldr	r2, [r0]
 4431 0022 3DD0     		beq	.L608
 4432              	.L635:
 4433 0024 12D9     		bls	.L632
 4434 0026 B4F5005F 		cmp	r4, #8192
 4435 002a 44D0     		beq	.L614
 4436 002c B4F5804F 		cmp	r4, #16384
 4437 0030 46D0     		beq	.L615
 4438 0032 B4F5805F 		cmp	r4, #4096
 4439 0036 48D0     		beq	.L633
 4440              	.L613:
 4441 0038 3E43     		orrs	r6, r6, r7
 4442 003a 9664     		str	r6, [r2, #72]
 4443 003c D368     		ldr	r3, [r2, #12]
 4444 003e 0121     		movs	r1, #1
 4445 0040 1C43     		orrs	r4, r4, r3
 4446 0042 D460     		str	r4, [r2, #12]
 4447 0044 0020     		movs	r0, #0
 4448 0046 85F83D10 		strb	r1, [r5, #61]
 4449 004a F8BD     		pop	{r3, r4, r5, r6, r7, pc}
 4450              	.L632:
 4451 004c B4F5007F 		cmp	r4, #512
 4452 0050 40D0     		beq	.L610
 4453 0052 B4F5806F 		cmp	r4, #1024
 4454 0056 42D0     		beq	.L611
 4455 0058 B4F5807F 		cmp	r4, #256
ARM GAS  D:\Programs\cygwin64\tmp\cctM4zih.s 			page 77


 4456 005c ECD1     		bne	.L613
 4457 005e 006A     		ldr	r0, [r0, #32]
 4458 0060 DFF894C0 		ldr	ip, .L636+16
 4459 0064 2049     		ldr	r1, .L636
 4460              	.L625:
 4461 0066 C0F83CC0 		str	ip, [r0, #60]
 4462 006a DFF890E0 		ldr	lr, .L636+20
 4463 006e 0164     		str	r1, [r0, #64]
 4464 0070 4FEA162C 		lsr	ip, r6, #8
 4465 0074 1946     		mov	r1, r3
 4466 0076 4C32     		adds	r2, r2, #76
 4467 0078 C0F84CE0 		str	lr, [r0, #76]
 4468 007c 0CF10103 		add	r3, ip, #1
 4469 0080 FFF7FEFF 		bl	HAL_DMA_Start_IT
 4470 0084 98B9     		cbnz	r0, .L617
 4471 0086 2A68     		ldr	r2, [r5]
 4472 0088 D6E7     		b	.L613
 4473              	.L631:
 4474 008a 73B1     		cbz	r3, .L634
 4475              	.L607:
 4476 008c 0224     		movs	r4, #2
 4477 008e 80F83D40 		strb	r4, [r0, #61]
 4478 0092 1446     		mov	r4, r2
 4479 0094 B4F5006F 		cmp	r4, #2048
 4480 0098 0F46     		mov	r7, r1
 4481 009a 0546     		mov	r5, r0
 4482 009c 0268     		ldr	r2, [r0]
 4483 009e C1D1     		bne	.L635
 4484              	.L608:
 4485 00a0 C06A     		ldr	r0, [r0, #44]
 4486 00a2 DFF85CC0 		ldr	ip, .L636+24
 4487 00a6 1149     		ldr	r1, .L636+4
 4488 00a8 DDE7     		b	.L625
 4489              	.L634:
 4490 00aa 002E     		cmp	r6, #0
 4491 00ac EED0     		beq	.L607
 4492              	.L617:
 4493 00ae 0120     		movs	r0, #1
 4494 00b0 F8BD     		pop	{r3, r4, r5, r6, r7, pc}
 4495              	.L618:
 4496 00b2 2846     		mov	r0, r5
 4497 00b4 F8BD     		pop	{r3, r4, r5, r6, r7, pc}
 4498              	.L614:
 4499 00b6 406B     		ldr	r0, [r0, #52]
 4500 00b8 DFF848C0 		ldr	ip, .L636+28
 4501 00bc 0C49     		ldr	r1, .L636+8
 4502 00be D2E7     		b	.L625
 4503              	.L615:
 4504 00c0 806B     		ldr	r0, [r0, #56]
 4505 00c2 DFF844C0 		ldr	ip, .L636+32
 4506 00c6 0B49     		ldr	r1, .L636+12
 4507 00c8 CDE7     		b	.L625
 4508              	.L633:
 4509 00ca 006B     		ldr	r0, [r0, #48]
 4510 00cc DFF830C0 		ldr	ip, .L636+24
 4511 00d0 0649     		ldr	r1, .L636+4
 4512 00d2 C8E7     		b	.L625
ARM GAS  D:\Programs\cygwin64\tmp\cctM4zih.s 			page 78


 4513              	.L610:
 4514 00d4 406A     		ldr	r0, [r0, #36]
 4515 00d6 DFF828C0 		ldr	ip, .L636+24
 4516 00da 0449     		ldr	r1, .L636+4
 4517 00dc C3E7     		b	.L625
 4518              	.L611:
 4519 00de 806A     		ldr	r0, [r0, #40]
 4520 00e0 DFF81CC0 		ldr	ip, .L636+24
 4521 00e4 0149     		ldr	r1, .L636+4
 4522 00e6 BEE7     		b	.L625
 4523              	.L637:
 4524              		.align	2
 4525              	.L636:
 4526 00e8 00000000 		.word	TIM_DMAPeriodElapsedHalfCplt
 4527 00ec 00000000 		.word	TIM_DMADelayPulseHalfCplt
 4528 00f0 00000000 		.word	TIMEx_DMACommutationHalfCplt
 4529 00f4 00000000 		.word	TIM_DMATriggerHalfCplt
 4530 00f8 00000000 		.word	TIM_DMAPeriodElapsedCplt
 4531 00fc 00000000 		.word	TIM_DMAError
 4532 0100 00000000 		.word	TIM_DMADelayPulseCplt
 4533 0104 00000000 		.word	TIMEx_DMACommutationCplt
 4534 0108 00000000 		.word	TIM_DMATriggerCplt
 4536              		.section	.text.HAL_TIM_DMABurst_WriteStop,"ax",%progbits
 4537              		.align	1
 4538              		.p2align 2,,3
 4539              		.global	HAL_TIM_DMABurst_WriteStop
 4540              		.syntax unified
 4541              		.thumb
 4542              		.thumb_func
 4543              		.fpu fpv4-sp-d16
 4545              	HAL_TIM_DMABurst_WriteStop:
 4546              		@ args = 0, pretend = 0, frame = 0
 4547              		@ frame_needed = 0, uses_anonymous_args = 0
 4548 0000 B1F5006F 		cmp	r1, #2048
 4549 0004 38B5     		push	{r3, r4, r5, lr}
 4550 0006 0C46     		mov	r4, r1
 4551 0008 0546     		mov	r5, r0
 4552 000a 1FD0     		beq	.L639
 4553 000c 0FD9     		bls	.L652
 4554 000e B1F5005F 		cmp	r1, #8192
 4555 0012 21D0     		beq	.L645
 4556 0014 B1F5804F 		cmp	r1, #16384
 4557 0018 24D0     		beq	.L646
 4558 001a B1F5805F 		cmp	r1, #4096
 4559 001e 27D0     		beq	.L653
 4560              	.L644:
 4561 0020 2B68     		ldr	r3, [r5]
 4562 0022 D968     		ldr	r1, [r3, #12]
 4563 0024 21EA0401 		bic	r1, r1, r4
 4564 0028 D960     		str	r1, [r3, #12]
 4565 002a 0020     		movs	r0, #0
 4566 002c 38BD     		pop	{r3, r4, r5, pc}
 4567              	.L652:
 4568 002e B1F5007F 		cmp	r1, #512
 4569 0032 23D0     		beq	.L641
 4570 0034 B1F5806F 		cmp	r1, #1024
 4571 0038 26D0     		beq	.L642
ARM GAS  D:\Programs\cygwin64\tmp\cctM4zih.s 			page 79


 4572 003a B1F5807F 		cmp	r1, #256
 4573 003e EFD1     		bne	.L644
 4574 0040 006A     		ldr	r0, [r0, #32]
 4575 0042 FFF7FEFF 		bl	HAL_DMA_Abort_IT
 4576 0046 0028     		cmp	r0, #0
 4577 0048 EAD0     		beq	.L644
 4578              	.L651:
 4579 004a 38BD     		pop	{r3, r4, r5, pc}
 4580              	.L639:
 4581 004c C06A     		ldr	r0, [r0, #44]
 4582 004e FFF7FEFF 		bl	HAL_DMA_Abort_IT
 4583 0052 0028     		cmp	r0, #0
 4584 0054 F9D1     		bne	.L651
 4585 0056 E3E7     		b	.L644
 4586              	.L645:
 4587 0058 406B     		ldr	r0, [r0, #52]
 4588 005a FFF7FEFF 		bl	HAL_DMA_Abort_IT
 4589 005e 0028     		cmp	r0, #0
 4590 0060 F3D1     		bne	.L651
 4591 0062 DDE7     		b	.L644
 4592              	.L646:
 4593 0064 806B     		ldr	r0, [r0, #56]
 4594 0066 FFF7FEFF 		bl	HAL_DMA_Abort_IT
 4595 006a 0028     		cmp	r0, #0
 4596 006c EDD1     		bne	.L651
 4597 006e D7E7     		b	.L644
 4598              	.L653:
 4599 0070 006B     		ldr	r0, [r0, #48]
 4600 0072 FFF7FEFF 		bl	HAL_DMA_Abort_IT
 4601 0076 0028     		cmp	r0, #0
 4602 0078 E7D1     		bne	.L651
 4603 007a D1E7     		b	.L644
 4604              	.L641:
 4605 007c 406A     		ldr	r0, [r0, #36]
 4606 007e FFF7FEFF 		bl	HAL_DMA_Abort_IT
 4607 0082 0028     		cmp	r0, #0
 4608 0084 E1D1     		bne	.L651
 4609 0086 CBE7     		b	.L644
 4610              	.L642:
 4611 0088 806A     		ldr	r0, [r0, #40]
 4612 008a FFF7FEFF 		bl	HAL_DMA_Abort_IT
 4613 008e 0028     		cmp	r0, #0
 4614 0090 DBD1     		bne	.L651
 4615 0092 C5E7     		b	.L644
 4617              		.section	.text.HAL_TIM_DMABurst_ReadStart,"ax",%progbits
 4618              		.align	1
 4619              		.p2align 2,,3
 4620              		.global	HAL_TIM_DMABurst_ReadStart
 4621              		.syntax unified
 4622              		.thumb
 4623              		.thumb_func
 4624              		.fpu fpv4-sp-d16
 4626              	HAL_TIM_DMABurst_ReadStart:
 4627              		@ args = 4, pretend = 0, frame = 0
 4628              		@ frame_needed = 0, uses_anonymous_args = 0
 4629 0000 2DE9F041 		push	{r4, r5, r6, r7, r8, lr}
 4630 0004 90F83D50 		ldrb	r5, [r0, #61]	@ zero_extendqisi2
ARM GAS  D:\Programs\cygwin64\tmp\cctM4zih.s 			page 80


 4631 0008 069F     		ldr	r7, [sp, #24]
 4632 000a EDB2     		uxtb	r5, r5
 4633 000c 022D     		cmp	r5, #2
 4634 000e 52D0     		beq	.L668
 4635 0010 90F83D40 		ldrb	r4, [r0, #61]	@ zero_extendqisi2
 4636 0014 012C     		cmp	r4, #1
 4637 0016 3AD0     		beq	.L681
 4638 0018 B2F5006F 		cmp	r2, #2048
 4639 001c 1446     		mov	r4, r2
 4640 001e 8846     		mov	r8, r1
 4641 0020 0546     		mov	r5, r0
 4642 0022 0668     		ldr	r6, [r0]
 4643 0024 3ED0     		beq	.L658
 4644              	.L685:
 4645 0026 14D9     		bls	.L682
 4646 0028 B2F5005F 		cmp	r2, #8192
 4647 002c 46D0     		beq	.L664
 4648 002e B2F5804F 		cmp	r2, #16384
 4649 0032 47D0     		beq	.L665
 4650 0034 B2F5805F 		cmp	r2, #4096
 4651 0038 48D0     		beq	.L683
 4652              	.L663:
 4653 003a 47EA0807 		orr	r7, r7, r8
 4654 003e B764     		str	r7, [r6, #72]
 4655 0040 F268     		ldr	r2, [r6, #12]
 4656 0042 0123     		movs	r3, #1
 4657 0044 1443     		orrs	r4, r4, r2
 4658 0046 F460     		str	r4, [r6, #12]
 4659 0048 0020     		movs	r0, #0
 4660 004a 85F83D30 		strb	r3, [r5, #61]
 4661 004e BDE8F081 		pop	{r4, r5, r6, r7, r8, pc}
 4662              	.L682:
 4663 0052 B2F5007F 		cmp	r2, #512
 4664 0056 3DD0     		beq	.L660
 4665 0058 B2F5806F 		cmp	r2, #1024
 4666 005c 3ED0     		beq	.L661
 4667 005e B2F5807F 		cmp	r2, #256
 4668 0062 EAD1     		bne	.L663
 4669 0064 006A     		ldr	r0, [r0, #32]
 4670 0066 1F49     		ldr	r1, .L686
 4671 0068 1F4A     		ldr	r2, .L686+4
 4672              	.L675:
 4673 006a DFF898E0 		ldr	lr, .L686+32
 4674 006e C163     		str	r1, [r0, #60]
 4675 0070 4FEA172C 		lsr	ip, r7, #8
 4676 0074 0264     		str	r2, [r0, #64]
 4677 0076 06F14C01 		add	r1, r6, #76
 4678 007a 1A46     		mov	r2, r3
 4679 007c C0F84CE0 		str	lr, [r0, #76]
 4680 0080 0CF10103 		add	r3, ip, #1
 4681 0084 FFF7FEFF 		bl	HAL_DMA_Start_IT
 4682 0088 90B9     		cbnz	r0, .L667
 4683 008a 2E68     		ldr	r6, [r5]
 4684 008c D5E7     		b	.L663
 4685              	.L681:
 4686 008e 6BB1     		cbz	r3, .L684
 4687              	.L657:
ARM GAS  D:\Programs\cygwin64\tmp\cctM4zih.s 			page 81


 4688 0090 0224     		movs	r4, #2
 4689 0092 B2F5006F 		cmp	r2, #2048
 4690 0096 80F83D40 		strb	r4, [r0, #61]
 4691 009a 8846     		mov	r8, r1
 4692 009c 1446     		mov	r4, r2
 4693 009e 0546     		mov	r5, r0
 4694 00a0 0668     		ldr	r6, [r0]
 4695 00a2 C0D1     		bne	.L685
 4696              	.L658:
 4697 00a4 C06A     		ldr	r0, [r0, #44]
 4698 00a6 1149     		ldr	r1, .L686+8
 4699 00a8 114A     		ldr	r2, .L686+12
 4700 00aa DEE7     		b	.L675
 4701              	.L684:
 4702 00ac 002F     		cmp	r7, #0
 4703 00ae EFD0     		beq	.L657
 4704              	.L667:
 4705 00b0 0120     		movs	r0, #1
 4706 00b2 BDE8F081 		pop	{r4, r5, r6, r7, r8, pc}
 4707              	.L668:
 4708 00b6 2846     		mov	r0, r5
 4709 00b8 BDE8F081 		pop	{r4, r5, r6, r7, r8, pc}
 4710              	.L664:
 4711 00bc 406B     		ldr	r0, [r0, #52]
 4712 00be 0D49     		ldr	r1, .L686+16
 4713 00c0 0D4A     		ldr	r2, .L686+20
 4714 00c2 D2E7     		b	.L675
 4715              	.L665:
 4716 00c4 806B     		ldr	r0, [r0, #56]
 4717 00c6 0D49     		ldr	r1, .L686+24
 4718 00c8 0D4A     		ldr	r2, .L686+28
 4719 00ca CEE7     		b	.L675
 4720              	.L683:
 4721 00cc 006B     		ldr	r0, [r0, #48]
 4722 00ce 0749     		ldr	r1, .L686+8
 4723 00d0 074A     		ldr	r2, .L686+12
 4724 00d2 CAE7     		b	.L675
 4725              	.L660:
 4726 00d4 406A     		ldr	r0, [r0, #36]
 4727 00d6 0549     		ldr	r1, .L686+8
 4728 00d8 054A     		ldr	r2, .L686+12
 4729 00da C6E7     		b	.L675
 4730              	.L661:
 4731 00dc 806A     		ldr	r0, [r0, #40]
 4732 00de 0349     		ldr	r1, .L686+8
 4733 00e0 034A     		ldr	r2, .L686+12
 4734 00e2 C2E7     		b	.L675
 4735              	.L687:
 4736              		.align	2
 4737              	.L686:
 4738 00e4 00000000 		.word	TIM_DMAPeriodElapsedCplt
 4739 00e8 00000000 		.word	TIM_DMAPeriodElapsedHalfCplt
 4740 00ec 00000000 		.word	TIM_DMACaptureCplt
 4741 00f0 00000000 		.word	TIM_DMACaptureHalfCplt
 4742 00f4 00000000 		.word	TIMEx_DMACommutationCplt
 4743 00f8 00000000 		.word	TIMEx_DMACommutationHalfCplt
 4744 00fc 00000000 		.word	TIM_DMATriggerCplt
ARM GAS  D:\Programs\cygwin64\tmp\cctM4zih.s 			page 82


 4745 0100 00000000 		.word	TIM_DMATriggerHalfCplt
 4746 0104 00000000 		.word	TIM_DMAError
 4748              		.section	.text.HAL_TIM_DMABurst_ReadStop,"ax",%progbits
 4749              		.align	1
 4750              		.p2align 2,,3
 4751              		.global	HAL_TIM_DMABurst_ReadStop
 4752              		.syntax unified
 4753              		.thumb
 4754              		.thumb_func
 4755              		.fpu fpv4-sp-d16
 4757              	HAL_TIM_DMABurst_ReadStop:
 4758              		@ args = 0, pretend = 0, frame = 0
 4759              		@ frame_needed = 0, uses_anonymous_args = 0
 4760 0000 B1F5006F 		cmp	r1, #2048
 4761 0004 38B5     		push	{r3, r4, r5, lr}
 4762 0006 0C46     		mov	r4, r1
 4763 0008 0546     		mov	r5, r0
 4764 000a 1FD0     		beq	.L689
 4765 000c 0FD9     		bls	.L702
 4766 000e B1F5005F 		cmp	r1, #8192
 4767 0012 21D0     		beq	.L695
 4768 0014 B1F5804F 		cmp	r1, #16384
 4769 0018 24D0     		beq	.L696
 4770 001a B1F5805F 		cmp	r1, #4096
 4771 001e 27D0     		beq	.L703
 4772              	.L694:
 4773 0020 2B68     		ldr	r3, [r5]
 4774 0022 D968     		ldr	r1, [r3, #12]
 4775 0024 21EA0401 		bic	r1, r1, r4
 4776 0028 D960     		str	r1, [r3, #12]
 4777 002a 0020     		movs	r0, #0
 4778 002c 38BD     		pop	{r3, r4, r5, pc}
 4779              	.L702:
 4780 002e B1F5007F 		cmp	r1, #512
 4781 0032 23D0     		beq	.L691
 4782 0034 B1F5806F 		cmp	r1, #1024
 4783 0038 26D0     		beq	.L692
 4784 003a B1F5807F 		cmp	r1, #256
 4785 003e EFD1     		bne	.L694
 4786 0040 006A     		ldr	r0, [r0, #32]
 4787 0042 FFF7FEFF 		bl	HAL_DMA_Abort_IT
 4788 0046 0028     		cmp	r0, #0
 4789 0048 EAD0     		beq	.L694
 4790              	.L701:
 4791 004a 38BD     		pop	{r3, r4, r5, pc}
 4792              	.L689:
 4793 004c C06A     		ldr	r0, [r0, #44]
 4794 004e FFF7FEFF 		bl	HAL_DMA_Abort_IT
 4795 0052 0028     		cmp	r0, #0
 4796 0054 F9D1     		bne	.L701
 4797 0056 E3E7     		b	.L694
 4798              	.L695:
 4799 0058 406B     		ldr	r0, [r0, #52]
 4800 005a FFF7FEFF 		bl	HAL_DMA_Abort_IT
 4801 005e 0028     		cmp	r0, #0
 4802 0060 F3D1     		bne	.L701
 4803 0062 DDE7     		b	.L694
ARM GAS  D:\Programs\cygwin64\tmp\cctM4zih.s 			page 83


 4804              	.L696:
 4805 0064 806B     		ldr	r0, [r0, #56]
 4806 0066 FFF7FEFF 		bl	HAL_DMA_Abort_IT
 4807 006a 0028     		cmp	r0, #0
 4808 006c EDD1     		bne	.L701
 4809 006e D7E7     		b	.L694
 4810              	.L703:
 4811 0070 006B     		ldr	r0, [r0, #48]
 4812 0072 FFF7FEFF 		bl	HAL_DMA_Abort_IT
 4813 0076 0028     		cmp	r0, #0
 4814 0078 E7D1     		bne	.L701
 4815 007a D1E7     		b	.L694
 4816              	.L691:
 4817 007c 406A     		ldr	r0, [r0, #36]
 4818 007e FFF7FEFF 		bl	HAL_DMA_Abort_IT
 4819 0082 0028     		cmp	r0, #0
 4820 0084 E1D1     		bne	.L701
 4821 0086 CBE7     		b	.L694
 4822              	.L692:
 4823 0088 806A     		ldr	r0, [r0, #40]
 4824 008a FFF7FEFF 		bl	HAL_DMA_Abort_IT
 4825 008e 0028     		cmp	r0, #0
 4826 0090 DBD1     		bne	.L701
 4827 0092 C5E7     		b	.L694
 4829              		.section	.text.HAL_TIM_GenerateEvent,"ax",%progbits
 4830              		.align	1
 4831              		.p2align 2,,3
 4832              		.global	HAL_TIM_GenerateEvent
 4833              		.syntax unified
 4834              		.thumb
 4835              		.thumb_func
 4836              		.fpu fpv4-sp-d16
 4838              	HAL_TIM_GenerateEvent:
 4839              		@ args = 0, pretend = 0, frame = 0
 4840              		@ frame_needed = 0, uses_anonymous_args = 0
 4841              		@ link register save eliminated.
 4842 0000 90F83C20 		ldrb	r2, [r0, #60]	@ zero_extendqisi2
 4843 0004 012A     		cmp	r2, #1
 4844 0006 0FD0     		beq	.L706
 4845 0008 30B4     		push	{r4, r5}
 4846 000a 0346     		mov	r3, r0
 4847 000c 0068     		ldr	r0, [r0]
 4848 000e 0225     		movs	r5, #2
 4849 0010 0124     		movs	r4, #1
 4850 0012 0022     		movs	r2, #0
 4851 0014 83F83D50 		strb	r5, [r3, #61]
 4852 0018 4161     		str	r1, [r0, #20]
 4853 001a 1046     		mov	r0, r2
 4854 001c 83F83D40 		strb	r4, [r3, #61]
 4855 0020 83F83C20 		strb	r2, [r3, #60]
 4856 0024 30BC     		pop	{r4, r5}
 4857 0026 7047     		bx	lr
 4858              	.L706:
 4859 0028 0220     		movs	r0, #2
 4860 002a 7047     		bx	lr
 4862              		.section	.text.HAL_TIM_ConfigOCrefClear,"ax",%progbits
 4863              		.align	1
ARM GAS  D:\Programs\cygwin64\tmp\cctM4zih.s 			page 84


 4864              		.p2align 2,,3
 4865              		.global	HAL_TIM_ConfigOCrefClear
 4866              		.syntax unified
 4867              		.thumb
 4868              		.thumb_func
 4869              		.fpu fpv4-sp-d16
 4871              	HAL_TIM_ConfigOCrefClear:
 4872              		@ args = 0, pretend = 0, frame = 0
 4873              		@ frame_needed = 0, uses_anonymous_args = 0
 4874              		@ link register save eliminated.
 4875 0000 90F83C30 		ldrb	r3, [r0, #60]	@ zero_extendqisi2
 4876 0004 012B     		cmp	r3, #1
 4877 0006 57D0     		beq	.L727
 4878 0008 4B68     		ldr	r3, [r1, #4]
 4879 000a 70B4     		push	{r4, r5, r6}
 4880 000c 0125     		movs	r5, #1
 4881 000e 0224     		movs	r4, #2
 4882 0010 80F83C50 		strb	r5, [r0, #60]
 4883 0014 80F83D40 		strb	r4, [r0, #61]
 4884 0018 53B3     		cbz	r3, .L713
 4885 001a AB42     		cmp	r3, r5
 4886 001c 1BD0     		beq	.L714
 4887              	.L715:
 4888 001e 0C2A     		cmp	r2, #12
 4889 0020 10D8     		bhi	.L717
 4890 0022 DFE802F0 		tbb	[pc, r2]
 4891              	.L719:
 4892 0026 07       		.byte	(.L722-.L719)/2
 4893 0027 0F       		.byte	(.L717-.L719)/2
 4894 0028 0F       		.byte	(.L717-.L719)/2
 4895 0029 0F       		.byte	(.L717-.L719)/2
 4896 002a 2B       		.byte	(.L721-.L719)/2
 4897 002b 0F       		.byte	(.L717-.L719)/2
 4898 002c 0F       		.byte	(.L717-.L719)/2
 4899 002d 0F       		.byte	(.L717-.L719)/2
 4900 002e 33       		.byte	(.L720-.L719)/2
 4901 002f 0F       		.byte	(.L717-.L719)/2
 4902 0030 0F       		.byte	(.L717-.L719)/2
 4903 0031 0F       		.byte	(.L717-.L719)/2
 4904 0032 3B       		.byte	(.L718-.L719)/2
 4905 0033 00       		.p2align 1
 4906              	.L722:
 4907 0034 0A68     		ldr	r2, [r1]
 4908 0036 0368     		ldr	r3, [r0]
 4909 0038 002A     		cmp	r2, #0
 4910 003a 40D0     		beq	.L723
 4911 003c 9A69     		ldr	r2, [r3, #24]
 4912 003e 42F08002 		orr	r2, r2, #128
 4913 0042 9A61     		str	r2, [r3, #24]
 4914              	.L717:
 4915 0044 0122     		movs	r2, #1
 4916 0046 0023     		movs	r3, #0
 4917 0048 80F83D20 		strb	r2, [r0, #61]
 4918 004c 80F83C30 		strb	r3, [r0, #60]
 4919              	.L712:
 4920 0050 1846     		mov	r0, r3
 4921 0052 70BC     		pop	{r4, r5, r6}
ARM GAS  D:\Programs\cygwin64\tmp\cctM4zih.s 			page 85


 4922 0054 7047     		bx	lr
 4923              	.L714:
 4924 0056 CC68     		ldr	r4, [r1, #12]
 4925 0058 44BB     		cbnz	r4, .L732
 4926 005a 0568     		ldr	r5, [r0]
 4927 005c 0E69     		ldr	r6, [r1, #16]
 4928 005e AC68     		ldr	r4, [r5, #8]
 4929 0060 8B68     		ldr	r3, [r1, #8]
 4930 0062 24F47F44 		bic	r4, r4, #65280
 4931 0066 43EA0623 		orr	r3, r3, r6, lsl #8
 4932 006a 2343     		orrs	r3, r3, r4
 4933 006c AB60     		str	r3, [r5, #8]
 4934 006e D6E7     		b	.L715
 4935              	.L713:
 4936 0070 0468     		ldr	r4, [r0]
 4937 0072 A368     		ldr	r3, [r4, #8]
 4938 0074 23F47F43 		bic	r3, r3, #65280
 4939 0078 A360     		str	r3, [r4, #8]
 4940 007a D0E7     		b	.L715
 4941              	.L721:
 4942 007c 0A68     		ldr	r2, [r1]
 4943 007e 0368     		ldr	r3, [r0]
 4944 0080 3AB3     		cbz	r2, .L724
 4945 0082 9A69     		ldr	r2, [r3, #24]
 4946 0084 42F40042 		orr	r2, r2, #32768
 4947 0088 9A61     		str	r2, [r3, #24]
 4948 008a DBE7     		b	.L717
 4949              	.L720:
 4950 008c 0A68     		ldr	r2, [r1]
 4951 008e 0368     		ldr	r3, [r0]
 4952 0090 22B3     		cbz	r2, .L725
 4953 0092 DA69     		ldr	r2, [r3, #28]
 4954 0094 42F08002 		orr	r2, r2, #128
 4955 0098 DA61     		str	r2, [r3, #28]
 4956 009a D3E7     		b	.L717
 4957              	.L718:
 4958 009c 0A68     		ldr	r2, [r1]
 4959 009e 0368     		ldr	r3, [r0]
 4960 00a0 92B1     		cbz	r2, .L726
 4961 00a2 DA69     		ldr	r2, [r3, #28]
 4962 00a4 42F40042 		orr	r2, r2, #32768
 4963 00a8 DA61     		str	r2, [r3, #28]
 4964 00aa CBE7     		b	.L717
 4965              	.L732:
 4966 00ac 0022     		movs	r2, #0
 4967 00ae 80F83D30 		strb	r3, [r0, #61]
 4968 00b2 80F83C20 		strb	r2, [r0, #60]
 4969 00b6 CBE7     		b	.L712
 4970              	.L727:
 4971 00b8 0223     		movs	r3, #2
 4972 00ba 1846     		mov	r0, r3
 4973 00bc 7047     		bx	lr
 4974              	.L723:
 4975 00be 9A69     		ldr	r2, [r3, #24]
 4976 00c0 22F08002 		bic	r2, r2, #128
 4977 00c4 9A61     		str	r2, [r3, #24]
 4978 00c6 BDE7     		b	.L717
ARM GAS  D:\Programs\cygwin64\tmp\cctM4zih.s 			page 86


 4979              	.L726:
 4980 00c8 DA69     		ldr	r2, [r3, #28]
 4981 00ca 22F40042 		bic	r2, r2, #32768
 4982 00ce DA61     		str	r2, [r3, #28]
 4983 00d0 B8E7     		b	.L717
 4984              	.L724:
 4985 00d2 9A69     		ldr	r2, [r3, #24]
 4986 00d4 22F40042 		bic	r2, r2, #32768
 4987 00d8 9A61     		str	r2, [r3, #24]
 4988 00da B3E7     		b	.L717
 4989              	.L725:
 4990 00dc DA69     		ldr	r2, [r3, #28]
 4991 00de 22F08002 		bic	r2, r2, #128
 4992 00e2 DA61     		str	r2, [r3, #28]
 4993 00e4 AEE7     		b	.L717
 4995 00e6 00BF     		.section	.text.HAL_TIM_ConfigClockSource,"ax",%progbits
 4996              		.align	1
 4997              		.p2align 2,,3
 4998              		.global	HAL_TIM_ConfigClockSource
 4999              		.syntax unified
 5000              		.thumb
 5001              		.thumb_func
 5002              		.fpu fpv4-sp-d16
 5004              	HAL_TIM_ConfigClockSource:
 5005              		@ args = 0, pretend = 0, frame = 0
 5006              		@ frame_needed = 0, uses_anonymous_args = 0
 5007              		@ link register save eliminated.
 5008 0000 90F83C30 		ldrb	r3, [r0, #60]	@ zero_extendqisi2
 5009 0004 012B     		cmp	r3, #1
 5010 0006 00F08780 		beq	.L745
 5011 000a 0223     		movs	r3, #2
 5012 000c 0268     		ldr	r2, [r0]
 5013 000e 70B4     		push	{r4, r5, r6}
 5014 0010 80F83D30 		strb	r3, [r0, #61]
 5015 0014 9468     		ldr	r4, [r2, #8]
 5016 0016 0B68     		ldr	r3, [r1]
 5017 0018 24F47F44 		bic	r4, r4, #65280
 5018 001c 24F07704 		bic	r4, r4, #119
 5019 0020 0125     		movs	r5, #1
 5020 0022 402B     		cmp	r3, #64
 5021 0024 80F83C50 		strb	r5, [r0, #60]
 5022 0028 9460     		str	r4, [r2, #8]
 5023 002a 77D0     		beq	.L735
 5024 002c 39D9     		bls	.L762
 5025 002e 602B     		cmp	r3, #96
 5026 0030 59D0     		beq	.L740
 5027 0032 1CD9     		bls	.L763
 5028 0034 702B     		cmp	r3, #112
 5029 0036 46D0     		beq	.L743
 5030 0038 B3F5005F 		cmp	r3, #8192
 5031 003c 0ED1     		bne	.L739
 5032 003e D1E90153 		ldrd	r5, r3, [r1, #4]
 5033 0042 CC68     		ldr	r4, [r1, #12]
 5034 0044 9168     		ldr	r1, [r2, #8]
 5035 0046 2B43     		orrs	r3, r3, r5
 5036 0048 43EA0423 		orr	r3, r3, r4, lsl #8
 5037 004c 21F47F41 		bic	r1, r1, #65280
ARM GAS  D:\Programs\cygwin64\tmp\cctM4zih.s 			page 87


 5038 0050 0B43     		orrs	r3, r3, r1
 5039 0052 9360     		str	r3, [r2, #8]
 5040 0054 9368     		ldr	r3, [r2, #8]
 5041 0056 43F48043 		orr	r3, r3, #16384
 5042 005a 9360     		str	r3, [r2, #8]
 5043              	.L739:
 5044 005c 0023     		movs	r3, #0
 5045 005e 0122     		movs	r2, #1
 5046 0060 80F83D20 		strb	r2, [r0, #61]
 5047 0064 80F83C30 		strb	r3, [r0, #60]
 5048 0068 70BC     		pop	{r4, r5, r6}
 5049 006a 1846     		mov	r0, r3
 5050 006c 7047     		bx	lr
 5051              	.L763:
 5052 006e 502B     		cmp	r3, #80
 5053 0070 F4D1     		bne	.L739
 5054 0072 156A     		ldr	r5, [r2, #32]
 5055 0074 166A     		ldr	r6, [r2, #32]
 5056 0076 4C68     		ldr	r4, [r1, #4]
 5057 0078 C968     		ldr	r1, [r1, #12]
 5058 007a 26F00106 		bic	r6, r6, #1
 5059 007e 1662     		str	r6, [r2, #32]
 5060 0080 9369     		ldr	r3, [r2, #24]
 5061 0082 25F00A05 		bic	r5, r5, #10
 5062 0086 23F0F003 		bic	r3, r3, #240
 5063 008a 43EA0113 		orr	r3, r3, r1, lsl #4
 5064 008e 2C43     		orrs	r4, r4, r5
 5065 0090 9361     		str	r3, [r2, #24]
 5066 0092 1462     		str	r4, [r2, #32]
 5067 0094 9368     		ldr	r3, [r2, #8]
 5068 0096 23F07003 		bic	r3, r3, #112
 5069 009a 43F05703 		orr	r3, r3, #87
 5070 009e 9360     		str	r3, [r2, #8]
 5071 00a0 DCE7     		b	.L739
 5072              	.L762:
 5073 00a2 102B     		cmp	r3, #16
 5074 00a4 04D0     		beq	.L737
 5075 00a6 0BD9     		bls	.L764
 5076 00a8 202B     		cmp	r3, #32
 5077 00aa 01D0     		beq	.L737
 5078 00ac 302B     		cmp	r3, #48
 5079 00ae D5D1     		bne	.L739
 5080              	.L737:
 5081 00b0 9168     		ldr	r1, [r2, #8]
 5082 00b2 21F07001 		bic	r1, r1, #112
 5083 00b6 0B43     		orrs	r3, r3, r1
 5084 00b8 43F00703 		orr	r3, r3, #7
 5085 00bc 9360     		str	r3, [r2, #8]
 5086 00be CDE7     		b	.L739
 5087              	.L764:
 5088 00c0 002B     		cmp	r3, #0
 5089 00c2 CBD1     		bne	.L739
 5090 00c4 F4E7     		b	.L737
 5091              	.L743:
 5092 00c6 D1E90153 		ldrd	r5, r3, [r1, #4]
 5093 00ca CC68     		ldr	r4, [r1, #12]
 5094 00cc 9168     		ldr	r1, [r2, #8]
ARM GAS  D:\Programs\cygwin64\tmp\cctM4zih.s 			page 88


 5095 00ce 2B43     		orrs	r3, r3, r5
 5096 00d0 43EA0423 		orr	r3, r3, r4, lsl #8
 5097 00d4 21F47F41 		bic	r1, r1, #65280
 5098 00d8 0B43     		orrs	r3, r3, r1
 5099 00da 9360     		str	r3, [r2, #8]
 5100 00dc 9368     		ldr	r3, [r2, #8]
 5101 00de 43F07703 		orr	r3, r3, #119
 5102 00e2 9360     		str	r3, [r2, #8]
 5103 00e4 BAE7     		b	.L739
 5104              	.L740:
 5105 00e6 146A     		ldr	r4, [r2, #32]
 5106 00e8 4D68     		ldr	r5, [r1, #4]
 5107 00ea CE68     		ldr	r6, [r1, #12]
 5108 00ec 24F01004 		bic	r4, r4, #16
 5109 00f0 1462     		str	r4, [r2, #32]
 5110 00f2 9169     		ldr	r1, [r2, #24]
 5111 00f4 136A     		ldr	r3, [r2, #32]
 5112 00f6 21F47041 		bic	r1, r1, #61440
 5113 00fa 23F0A003 		bic	r3, r3, #160
 5114 00fe 43EA0513 		orr	r3, r3, r5, lsl #4
 5115 0102 41EA0631 		orr	r1, r1, r6, lsl #12
 5116 0106 9161     		str	r1, [r2, #24]
 5117 0108 1362     		str	r3, [r2, #32]
 5118 010a 9368     		ldr	r3, [r2, #8]
 5119 010c 23F07003 		bic	r3, r3, #112
 5120 0110 43F06703 		orr	r3, r3, #103
 5121 0114 9360     		str	r3, [r2, #8]
 5122 0116 A1E7     		b	.L739
 5123              	.L745:
 5124 0118 0220     		movs	r0, #2
 5125 011a 7047     		bx	lr
 5126              	.L735:
 5127 011c 156A     		ldr	r5, [r2, #32]
 5128 011e 166A     		ldr	r6, [r2, #32]
 5129 0120 4C68     		ldr	r4, [r1, #4]
 5130 0122 C968     		ldr	r1, [r1, #12]
 5131 0124 26F00106 		bic	r6, r6, #1
 5132 0128 1662     		str	r6, [r2, #32]
 5133 012a 9369     		ldr	r3, [r2, #24]
 5134 012c 25F00A05 		bic	r5, r5, #10
 5135 0130 23F0F003 		bic	r3, r3, #240
 5136 0134 43EA0113 		orr	r3, r3, r1, lsl #4
 5137 0138 2C43     		orrs	r4, r4, r5
 5138 013a 9361     		str	r3, [r2, #24]
 5139 013c 1462     		str	r4, [r2, #32]
 5140 013e 9368     		ldr	r3, [r2, #8]
 5141 0140 23F07003 		bic	r3, r3, #112
 5142 0144 43F04703 		orr	r3, r3, #71
 5143 0148 9360     		str	r3, [r2, #8]
 5144 014a 87E7     		b	.L739
 5146              		.section	.text.HAL_TIM_ConfigTI1Input,"ax",%progbits
 5147              		.align	1
 5148              		.p2align 2,,3
 5149              		.global	HAL_TIM_ConfigTI1Input
 5150              		.syntax unified
 5151              		.thumb
 5152              		.thumb_func
ARM GAS  D:\Programs\cygwin64\tmp\cctM4zih.s 			page 89


 5153              		.fpu fpv4-sp-d16
 5155              	HAL_TIM_ConfigTI1Input:
 5156              		@ args = 0, pretend = 0, frame = 0
 5157              		@ frame_needed = 0, uses_anonymous_args = 0
 5158              		@ link register save eliminated.
 5159 0000 0268     		ldr	r2, [r0]
 5160 0002 5368     		ldr	r3, [r2, #4]
 5161 0004 23F08003 		bic	r3, r3, #128
 5162 0008 1943     		orrs	r1, r1, r3
 5163 000a 5160     		str	r1, [r2, #4]
 5164 000c 0020     		movs	r0, #0
 5165 000e 7047     		bx	lr
 5167              		.section	.text.HAL_TIM_SlaveConfigSynchro,"ax",%progbits
 5168              		.align	1
 5169              		.p2align 2,,3
 5170              		.global	HAL_TIM_SlaveConfigSynchro
 5171              		.syntax unified
 5172              		.thumb
 5173              		.thumb_func
 5174              		.fpu fpv4-sp-d16
 5176              	HAL_TIM_SlaveConfigSynchro:
 5177              		@ args = 0, pretend = 0, frame = 0
 5178              		@ frame_needed = 0, uses_anonymous_args = 0
 5179              		@ link register save eliminated.
 5180 0000 90F83C30 		ldrb	r3, [r0, #60]	@ zero_extendqisi2
 5181 0004 012B     		cmp	r3, #1
 5182 0006 4ED0     		beq	.L774
 5183 0008 0268     		ldr	r2, [r0]
 5184 000a 0223     		movs	r3, #2
 5185 000c 70B4     		push	{r4, r5, r6}
 5186 000e 80F83D30 		strb	r3, [r0, #61]
 5187 0012 D1E90065 		ldrd	r6, r5, [r1]
 5188 0016 9368     		ldr	r3, [r2, #8]
 5189 0018 23F07003 		bic	r3, r3, #112
 5190 001c 2B43     		orrs	r3, r3, r5
 5191 001e 0446     		mov	r4, r0
 5192 0020 23F00703 		bic	r3, r3, #7
 5193 0024 3343     		orrs	r3, r3, r6
 5194 0026 0120     		movs	r0, #1
 5195 0028 502D     		cmp	r5, #80
 5196 002a 84F83C00 		strb	r0, [r4, #60]
 5197 002e 9360     		str	r3, [r2, #8]
 5198 0030 4ED0     		beq	.L768
 5199 0032 1FD9     		bls	.L779
 5200 0034 602D     		cmp	r5, #96
 5201 0036 38D0     		beq	.L772
 5202 0038 702D     		cmp	r5, #112
 5203 003a 0AD1     		bne	.L771
 5204 003c D1E90253 		ldrd	r5, r3, [r1, #8]
 5205 0040 0869     		ldr	r0, [r1, #16]
 5206 0042 9168     		ldr	r1, [r2, #8]
 5207 0044 2B43     		orrs	r3, r3, r5
 5208 0046 43EA0023 		orr	r3, r3, r0, lsl #8
 5209 004a 21F47F41 		bic	r1, r1, #65280
 5210 004e 0B43     		orrs	r3, r3, r1
 5211 0050 9360     		str	r3, [r2, #8]
 5212              	.L771:
ARM GAS  D:\Programs\cygwin64\tmp\cctM4zih.s 			page 90


 5213 0052 D368     		ldr	r3, [r2, #12]
 5214 0054 23F04003 		bic	r3, r3, #64
 5215 0058 D360     		str	r3, [r2, #12]
 5216 005a D368     		ldr	r3, [r2, #12]
 5217 005c 0125     		movs	r5, #1
 5218 005e 0021     		movs	r1, #0
 5219 0060 23F48043 		bic	r3, r3, #16384
 5220 0064 D360     		str	r3, [r2, #12]
 5221 0066 0846     		mov	r0, r1
 5222 0068 84F83D50 		strb	r5, [r4, #61]
 5223 006c 84F83C10 		strb	r1, [r4, #60]
 5224 0070 70BC     		pop	{r4, r5, r6}
 5225 0072 7047     		bx	lr
 5226              	.L779:
 5227 0074 402D     		cmp	r5, #64
 5228 0076 ECD1     		bne	.L771
 5229 0078 052E     		cmp	r6, #5
 5230 007a 0DD0     		beq	.L773
 5231 007c 156A     		ldr	r5, [r2, #32]
 5232 007e 106A     		ldr	r0, [r2, #32]
 5233 0080 0969     		ldr	r1, [r1, #16]
 5234 0082 20F00100 		bic	r0, r0, #1
 5235 0086 1062     		str	r0, [r2, #32]
 5236 0088 9369     		ldr	r3, [r2, #24]
 5237 008a 23F0F003 		bic	r3, r3, #240
 5238 008e 43EA0113 		orr	r3, r3, r1, lsl #4
 5239 0092 9361     		str	r3, [r2, #24]
 5240 0094 1562     		str	r5, [r2, #32]
 5241 0096 DCE7     		b	.L771
 5242              	.L773:
 5243 0098 0023     		movs	r3, #0
 5244 009a 84F83D00 		strb	r0, [r4, #61]
 5245 009e 84F83C30 		strb	r3, [r4, #60]
 5246 00a2 70BC     		pop	{r4, r5, r6}
 5247 00a4 7047     		bx	lr
 5248              	.L774:
 5249 00a6 0220     		movs	r0, #2
 5250 00a8 7047     		bx	lr
 5251              	.L772:
 5252 00aa 106A     		ldr	r0, [r2, #32]
 5253 00ac 8D68     		ldr	r5, [r1, #8]
 5254 00ae 0E69     		ldr	r6, [r1, #16]
 5255 00b0 20F01000 		bic	r0, r0, #16
 5256 00b4 1062     		str	r0, [r2, #32]
 5257 00b6 9169     		ldr	r1, [r2, #24]
 5258 00b8 136A     		ldr	r3, [r2, #32]
 5259 00ba 21F47041 		bic	r1, r1, #61440
 5260 00be 23F0A003 		bic	r3, r3, #160
 5261 00c2 41EA0631 		orr	r1, r1, r6, lsl #12
 5262 00c6 43EA0513 		orr	r3, r3, r5, lsl #4
 5263 00ca 9161     		str	r1, [r2, #24]
 5264 00cc 1362     		str	r3, [r2, #32]
 5265 00ce C0E7     		b	.L771
 5266              	.L768:
 5267 00d0 156A     		ldr	r5, [r2, #32]
 5268 00d2 166A     		ldr	r6, [r2, #32]
 5269 00d4 8868     		ldr	r0, [r1, #8]
ARM GAS  D:\Programs\cygwin64\tmp\cctM4zih.s 			page 91


 5270 00d6 0969     		ldr	r1, [r1, #16]
 5271 00d8 26F00106 		bic	r6, r6, #1
 5272 00dc 1662     		str	r6, [r2, #32]
 5273 00de 9369     		ldr	r3, [r2, #24]
 5274 00e0 25F00A05 		bic	r5, r5, #10
 5275 00e4 23F0F003 		bic	r3, r3, #240
 5276 00e8 2843     		orrs	r0, r0, r5
 5277 00ea 43EA0113 		orr	r3, r3, r1, lsl #4
 5278 00ee 9361     		str	r3, [r2, #24]
 5279 00f0 1062     		str	r0, [r2, #32]
 5280 00f2 AEE7     		b	.L771
 5282              		.section	.text.HAL_TIM_SlaveConfigSynchro_IT,"ax",%progbits
 5283              		.align	1
 5284              		.p2align 2,,3
 5285              		.global	HAL_TIM_SlaveConfigSynchro_IT
 5286              		.syntax unified
 5287              		.thumb
 5288              		.thumb_func
 5289              		.fpu fpv4-sp-d16
 5291              	HAL_TIM_SlaveConfigSynchro_IT:
 5292              		@ args = 0, pretend = 0, frame = 0
 5293              		@ frame_needed = 0, uses_anonymous_args = 0
 5294              		@ link register save eliminated.
 5295 0000 90F83C30 		ldrb	r3, [r0, #60]	@ zero_extendqisi2
 5296 0004 012B     		cmp	r3, #1
 5297 0006 4ED0     		beq	.L788
 5298 0008 0268     		ldr	r2, [r0]
 5299 000a 0223     		movs	r3, #2
 5300 000c 70B4     		push	{r4, r5, r6}
 5301 000e 80F83D30 		strb	r3, [r0, #61]
 5302 0012 D1E90065 		ldrd	r6, r5, [r1]
 5303 0016 9368     		ldr	r3, [r2, #8]
 5304 0018 23F07003 		bic	r3, r3, #112
 5305 001c 2B43     		orrs	r3, r3, r5
 5306 001e 0446     		mov	r4, r0
 5307 0020 23F00703 		bic	r3, r3, #7
 5308 0024 3343     		orrs	r3, r3, r6
 5309 0026 0120     		movs	r0, #1
 5310 0028 502D     		cmp	r5, #80
 5311 002a 84F83C00 		strb	r0, [r4, #60]
 5312 002e 9360     		str	r3, [r2, #8]
 5313 0030 4ED0     		beq	.L782
 5314 0032 1FD9     		bls	.L793
 5315 0034 602D     		cmp	r5, #96
 5316 0036 38D0     		beq	.L786
 5317 0038 702D     		cmp	r5, #112
 5318 003a 0AD1     		bne	.L785
 5319 003c D1E90253 		ldrd	r5, r3, [r1, #8]
 5320 0040 0869     		ldr	r0, [r1, #16]
 5321 0042 9168     		ldr	r1, [r2, #8]
 5322 0044 2B43     		orrs	r3, r3, r5
 5323 0046 43EA0023 		orr	r3, r3, r0, lsl #8
 5324 004a 21F47F41 		bic	r1, r1, #65280
 5325 004e 0B43     		orrs	r3, r3, r1
 5326 0050 9360     		str	r3, [r2, #8]
 5327              	.L785:
 5328 0052 D368     		ldr	r3, [r2, #12]
ARM GAS  D:\Programs\cygwin64\tmp\cctM4zih.s 			page 92


 5329 0054 43F04003 		orr	r3, r3, #64
 5330 0058 D360     		str	r3, [r2, #12]
 5331 005a D368     		ldr	r3, [r2, #12]
 5332 005c 0125     		movs	r5, #1
 5333 005e 0021     		movs	r1, #0
 5334 0060 23F48043 		bic	r3, r3, #16384
 5335 0064 D360     		str	r3, [r2, #12]
 5336 0066 0846     		mov	r0, r1
 5337 0068 84F83D50 		strb	r5, [r4, #61]
 5338 006c 84F83C10 		strb	r1, [r4, #60]
 5339 0070 70BC     		pop	{r4, r5, r6}
 5340 0072 7047     		bx	lr
 5341              	.L793:
 5342 0074 402D     		cmp	r5, #64
 5343 0076 ECD1     		bne	.L785
 5344 0078 052E     		cmp	r6, #5
 5345 007a 0DD0     		beq	.L787
 5346 007c 156A     		ldr	r5, [r2, #32]
 5347 007e 106A     		ldr	r0, [r2, #32]
 5348 0080 0969     		ldr	r1, [r1, #16]
 5349 0082 20F00100 		bic	r0, r0, #1
 5350 0086 1062     		str	r0, [r2, #32]
 5351 0088 9369     		ldr	r3, [r2, #24]
 5352 008a 23F0F003 		bic	r3, r3, #240
 5353 008e 43EA0113 		orr	r3, r3, r1, lsl #4
 5354 0092 9361     		str	r3, [r2, #24]
 5355 0094 1562     		str	r5, [r2, #32]
 5356 0096 DCE7     		b	.L785
 5357              	.L787:
 5358 0098 0023     		movs	r3, #0
 5359 009a 84F83D00 		strb	r0, [r4, #61]
 5360 009e 84F83C30 		strb	r3, [r4, #60]
 5361 00a2 70BC     		pop	{r4, r5, r6}
 5362 00a4 7047     		bx	lr
 5363              	.L788:
 5364 00a6 0220     		movs	r0, #2
 5365 00a8 7047     		bx	lr
 5366              	.L786:
 5367 00aa 106A     		ldr	r0, [r2, #32]
 5368 00ac 8D68     		ldr	r5, [r1, #8]
 5369 00ae 0E69     		ldr	r6, [r1, #16]
 5370 00b0 20F01000 		bic	r0, r0, #16
 5371 00b4 1062     		str	r0, [r2, #32]
 5372 00b6 9169     		ldr	r1, [r2, #24]
 5373 00b8 136A     		ldr	r3, [r2, #32]
 5374 00ba 21F47041 		bic	r1, r1, #61440
 5375 00be 23F0A003 		bic	r3, r3, #160
 5376 00c2 41EA0631 		orr	r1, r1, r6, lsl #12
 5377 00c6 43EA0513 		orr	r3, r3, r5, lsl #4
 5378 00ca 9161     		str	r1, [r2, #24]
 5379 00cc 1362     		str	r3, [r2, #32]
 5380 00ce C0E7     		b	.L785
 5381              	.L782:
 5382 00d0 156A     		ldr	r5, [r2, #32]
 5383 00d2 166A     		ldr	r6, [r2, #32]
 5384 00d4 8868     		ldr	r0, [r1, #8]
 5385 00d6 0969     		ldr	r1, [r1, #16]
ARM GAS  D:\Programs\cygwin64\tmp\cctM4zih.s 			page 93


 5386 00d8 26F00106 		bic	r6, r6, #1
 5387 00dc 1662     		str	r6, [r2, #32]
 5388 00de 9369     		ldr	r3, [r2, #24]
 5389 00e0 25F00A05 		bic	r5, r5, #10
 5390 00e4 23F0F003 		bic	r3, r3, #240
 5391 00e8 2843     		orrs	r0, r0, r5
 5392 00ea 43EA0113 		orr	r3, r3, r1, lsl #4
 5393 00ee 9361     		str	r3, [r2, #24]
 5394 00f0 1062     		str	r0, [r2, #32]
 5395 00f2 AEE7     		b	.L785
 5397              		.section	.text.HAL_TIM_ReadCapturedValue,"ax",%progbits
 5398              		.align	1
 5399              		.p2align 2,,3
 5400              		.global	HAL_TIM_ReadCapturedValue
 5401              		.syntax unified
 5402              		.thumb
 5403              		.thumb_func
 5404              		.fpu fpv4-sp-d16
 5406              	HAL_TIM_ReadCapturedValue:
 5407              		@ args = 0, pretend = 0, frame = 0
 5408              		@ frame_needed = 0, uses_anonymous_args = 0
 5409              		@ link register save eliminated.
 5410 0000 0C29     		cmp	r1, #12
 5411 0002 14D8     		bhi	.L801
 5412 0004 DFE801F0 		tbb	[pc, r1]
 5413              	.L797:
 5414 0008 10       		.byte	(.L800-.L797)/2
 5415 0009 13       		.byte	(.L801-.L797)/2
 5416 000a 13       		.byte	(.L801-.L797)/2
 5417 000b 13       		.byte	(.L801-.L797)/2
 5418 000c 0D       		.byte	(.L799-.L797)/2
 5419 000d 13       		.byte	(.L801-.L797)/2
 5420 000e 13       		.byte	(.L801-.L797)/2
 5421 000f 13       		.byte	(.L801-.L797)/2
 5422 0010 0A       		.byte	(.L798-.L797)/2
 5423 0011 13       		.byte	(.L801-.L797)/2
 5424 0012 13       		.byte	(.L801-.L797)/2
 5425 0013 13       		.byte	(.L801-.L797)/2
 5426 0014 07       		.byte	(.L796-.L797)/2
 5427 0015 00       		.p2align 1
 5428              	.L796:
 5429 0016 0368     		ldr	r3, [r0]
 5430 0018 186C     		ldr	r0, [r3, #64]
 5431 001a 7047     		bx	lr
 5432              	.L798:
 5433 001c 0368     		ldr	r3, [r0]
 5434 001e D86B     		ldr	r0, [r3, #60]
 5435 0020 7047     		bx	lr
 5436              	.L799:
 5437 0022 0368     		ldr	r3, [r0]
 5438 0024 986B     		ldr	r0, [r3, #56]
 5439 0026 7047     		bx	lr
 5440              	.L800:
 5441 0028 0368     		ldr	r3, [r0]
 5442 002a 586B     		ldr	r0, [r3, #52]
 5443 002c 7047     		bx	lr
 5444              	.L801:
ARM GAS  D:\Programs\cygwin64\tmp\cctM4zih.s 			page 94


 5445 002e 0020     		movs	r0, #0
 5446 0030 7047     		bx	lr
 5448 0032 00BF     		.section	.text.HAL_TIM_PeriodElapsedCallback,"ax",%progbits
 5449              		.align	1
 5450              		.p2align 2,,3
 5451              		.weak	HAL_TIM_PeriodElapsedCallback
 5452              		.syntax unified
 5453              		.thumb
 5454              		.thumb_func
 5455              		.fpu fpv4-sp-d16
 5457              	HAL_TIM_PeriodElapsedCallback:
 5458              		@ args = 0, pretend = 0, frame = 0
 5459              		@ frame_needed = 0, uses_anonymous_args = 0
 5460              		@ link register save eliminated.
 5461 0000 7047     		bx	lr
 5463 0002 00BF     		.section	.text.TIM_DMAPeriodElapsedCplt,"ax",%progbits
 5464              		.align	1
 5465              		.p2align 2,,3
 5466              		.syntax unified
 5467              		.thumb
 5468              		.thumb_func
 5469              		.fpu fpv4-sp-d16
 5471              	TIM_DMAPeriodElapsedCplt:
 5472              		@ args = 0, pretend = 0, frame = 0
 5473              		@ frame_needed = 0, uses_anonymous_args = 0
 5474 0000 08B5     		push	{r3, lr}
 5475 0002 806B     		ldr	r0, [r0, #56]
 5476 0004 0123     		movs	r3, #1
 5477 0006 80F83D30 		strb	r3, [r0, #61]
 5478 000a FFF7FEFF 		bl	HAL_TIM_PeriodElapsedCallback
 5479 000e 08BD     		pop	{r3, pc}
 5481              		.section	.text.HAL_TIM_PeriodElapsedHalfCpltCallback,"ax",%progbits
 5482              		.align	1
 5483              		.p2align 2,,3
 5484              		.weak	HAL_TIM_PeriodElapsedHalfCpltCallback
 5485              		.syntax unified
 5486              		.thumb
 5487              		.thumb_func
 5488              		.fpu fpv4-sp-d16
 5490              	HAL_TIM_PeriodElapsedHalfCpltCallback:
 5491              		@ args = 0, pretend = 0, frame = 0
 5492              		@ frame_needed = 0, uses_anonymous_args = 0
 5493              		@ link register save eliminated.
 5494 0000 7047     		bx	lr
 5496 0002 00BF     		.section	.text.TIM_DMAPeriodElapsedHalfCplt,"ax",%progbits
 5497              		.align	1
 5498              		.p2align 2,,3
 5499              		.syntax unified
 5500              		.thumb
 5501              		.thumb_func
 5502              		.fpu fpv4-sp-d16
 5504              	TIM_DMAPeriodElapsedHalfCplt:
 5505              		@ args = 0, pretend = 0, frame = 0
 5506              		@ frame_needed = 0, uses_anonymous_args = 0
 5507 0000 08B5     		push	{r3, lr}
 5508 0002 806B     		ldr	r0, [r0, #56]
 5509 0004 0123     		movs	r3, #1
ARM GAS  D:\Programs\cygwin64\tmp\cctM4zih.s 			page 95


 5510 0006 80F83D30 		strb	r3, [r0, #61]
 5511 000a FFF7FEFF 		bl	HAL_TIM_PeriodElapsedHalfCpltCallback
 5512 000e 08BD     		pop	{r3, pc}
 5514              		.section	.text.HAL_TIM_OC_DelayElapsedCallback,"ax",%progbits
 5515              		.align	1
 5516              		.p2align 2,,3
 5517              		.weak	HAL_TIM_OC_DelayElapsedCallback
 5518              		.syntax unified
 5519              		.thumb
 5520              		.thumb_func
 5521              		.fpu fpv4-sp-d16
 5523              	HAL_TIM_OC_DelayElapsedCallback:
 5524              		@ args = 0, pretend = 0, frame = 0
 5525              		@ frame_needed = 0, uses_anonymous_args = 0
 5526              		@ link register save eliminated.
 5527 0000 7047     		bx	lr
 5529 0002 00BF     		.section	.text.HAL_TIM_IC_CaptureCallback,"ax",%progbits
 5530              		.align	1
 5531              		.p2align 2,,3
 5532              		.weak	HAL_TIM_IC_CaptureCallback
 5533              		.syntax unified
 5534              		.thumb
 5535              		.thumb_func
 5536              		.fpu fpv4-sp-d16
 5538              	HAL_TIM_IC_CaptureCallback:
 5539              		@ args = 0, pretend = 0, frame = 0
 5540              		@ frame_needed = 0, uses_anonymous_args = 0
 5541              		@ link register save eliminated.
 5542 0000 7047     		bx	lr
 5544 0002 00BF     		.section	.text.TIM_DMACaptureCplt,"ax",%progbits
 5545              		.align	1
 5546              		.p2align 2,,3
 5547              		.global	TIM_DMACaptureCplt
 5548              		.syntax unified
 5549              		.thumb
 5550              		.thumb_func
 5551              		.fpu fpv4-sp-d16
 5553              	TIM_DMACaptureCplt:
 5554              		@ args = 0, pretend = 0, frame = 0
 5555              		@ frame_needed = 0, uses_anonymous_args = 0
 5556 0000 10B5     		push	{r4, lr}
 5557 0002 846B     		ldr	r4, [r0, #56]
 5558 0004 626A     		ldr	r2, [r4, #36]
 5559 0006 0123     		movs	r3, #1
 5560 0008 8242     		cmp	r2, r0
 5561 000a 84F83D30 		strb	r3, [r4, #61]
 5562 000e 17D0     		beq	.L816
 5563 0010 A36A     		ldr	r3, [r4, #40]
 5564 0012 8342     		cmp	r3, r0
 5565 0014 0BD0     		beq	.L817
 5566 0016 E36A     		ldr	r3, [r4, #44]
 5567 0018 8342     		cmp	r3, r0
 5568 001a 18D0     		beq	.L818
 5569 001c 236B     		ldr	r3, [r4, #48]
 5570 001e 8342     		cmp	r3, r0
 5571 0020 0DD0     		beq	.L819
 5572 0022 2046     		mov	r0, r4
ARM GAS  D:\Programs\cygwin64\tmp\cctM4zih.s 			page 96


 5573 0024 FFF7FEFF 		bl	HAL_TIM_IC_CaptureCallback
 5574 0028 0023     		movs	r3, #0
 5575 002a 2377     		strb	r3, [r4, #28]
 5576 002c 10BD     		pop	{r4, pc}
 5577              	.L817:
 5578 002e 0223     		movs	r3, #2
 5579 0030 2377     		strb	r3, [r4, #28]
 5580 0032 2046     		mov	r0, r4
 5581 0034 FFF7FEFF 		bl	HAL_TIM_IC_CaptureCallback
 5582 0038 0023     		movs	r3, #0
 5583 003a 2377     		strb	r3, [r4, #28]
 5584 003c 10BD     		pop	{r4, pc}
 5585              	.L819:
 5586 003e 0823     		movs	r3, #8
 5587              	.L816:
 5588 0040 2377     		strb	r3, [r4, #28]
 5589 0042 2046     		mov	r0, r4
 5590 0044 FFF7FEFF 		bl	HAL_TIM_IC_CaptureCallback
 5591 0048 0023     		movs	r3, #0
 5592 004a 2377     		strb	r3, [r4, #28]
 5593 004c 10BD     		pop	{r4, pc}
 5594              	.L818:
 5595 004e 0423     		movs	r3, #4
 5596 0050 2377     		strb	r3, [r4, #28]
 5597 0052 2046     		mov	r0, r4
 5598 0054 FFF7FEFF 		bl	HAL_TIM_IC_CaptureCallback
 5599 0058 0023     		movs	r3, #0
 5600 005a 2377     		strb	r3, [r4, #28]
 5601 005c 10BD     		pop	{r4, pc}
 5603 005e 00BF     		.section	.text.HAL_TIM_IC_CaptureHalfCpltCallback,"ax",%progbits
 5604              		.align	1
 5605              		.p2align 2,,3
 5606              		.weak	HAL_TIM_IC_CaptureHalfCpltCallback
 5607              		.syntax unified
 5608              		.thumb
 5609              		.thumb_func
 5610              		.fpu fpv4-sp-d16
 5612              	HAL_TIM_IC_CaptureHalfCpltCallback:
 5613              		@ args = 0, pretend = 0, frame = 0
 5614              		@ frame_needed = 0, uses_anonymous_args = 0
 5615              		@ link register save eliminated.
 5616 0000 7047     		bx	lr
 5618 0002 00BF     		.section	.text.TIM_DMACaptureHalfCplt,"ax",%progbits
 5619              		.align	1
 5620              		.p2align 2,,3
 5621              		.global	TIM_DMACaptureHalfCplt
 5622              		.syntax unified
 5623              		.thumb
 5624              		.thumb_func
 5625              		.fpu fpv4-sp-d16
 5627              	TIM_DMACaptureHalfCplt:
 5628              		@ args = 0, pretend = 0, frame = 0
 5629              		@ frame_needed = 0, uses_anonymous_args = 0
 5630 0000 10B5     		push	{r4, lr}
 5631 0002 846B     		ldr	r4, [r0, #56]
 5632 0004 626A     		ldr	r2, [r4, #36]
 5633 0006 0123     		movs	r3, #1
ARM GAS  D:\Programs\cygwin64\tmp\cctM4zih.s 			page 97


 5634 0008 8242     		cmp	r2, r0
 5635 000a 84F83D30 		strb	r3, [r4, #61]
 5636 000e 17D0     		beq	.L827
 5637 0010 A36A     		ldr	r3, [r4, #40]
 5638 0012 8342     		cmp	r3, r0
 5639 0014 0BD0     		beq	.L828
 5640 0016 E36A     		ldr	r3, [r4, #44]
 5641 0018 8342     		cmp	r3, r0
 5642 001a 18D0     		beq	.L829
 5643 001c 236B     		ldr	r3, [r4, #48]
 5644 001e 8342     		cmp	r3, r0
 5645 0020 0DD0     		beq	.L830
 5646 0022 2046     		mov	r0, r4
 5647 0024 FFF7FEFF 		bl	HAL_TIM_IC_CaptureHalfCpltCallback
 5648 0028 0023     		movs	r3, #0
 5649 002a 2377     		strb	r3, [r4, #28]
 5650 002c 10BD     		pop	{r4, pc}
 5651              	.L828:
 5652 002e 0223     		movs	r3, #2
 5653 0030 2377     		strb	r3, [r4, #28]
 5654 0032 2046     		mov	r0, r4
 5655 0034 FFF7FEFF 		bl	HAL_TIM_IC_CaptureHalfCpltCallback
 5656 0038 0023     		movs	r3, #0
 5657 003a 2377     		strb	r3, [r4, #28]
 5658 003c 10BD     		pop	{r4, pc}
 5659              	.L830:
 5660 003e 0823     		movs	r3, #8
 5661              	.L827:
 5662 0040 2377     		strb	r3, [r4, #28]
 5663 0042 2046     		mov	r0, r4
 5664 0044 FFF7FEFF 		bl	HAL_TIM_IC_CaptureHalfCpltCallback
 5665 0048 0023     		movs	r3, #0
 5666 004a 2377     		strb	r3, [r4, #28]
 5667 004c 10BD     		pop	{r4, pc}
 5668              	.L829:
 5669 004e 0423     		movs	r3, #4
 5670 0050 2377     		strb	r3, [r4, #28]
 5671 0052 2046     		mov	r0, r4
 5672 0054 FFF7FEFF 		bl	HAL_TIM_IC_CaptureHalfCpltCallback
 5673 0058 0023     		movs	r3, #0
 5674 005a 2377     		strb	r3, [r4, #28]
 5675 005c 10BD     		pop	{r4, pc}
 5677 005e 00BF     		.section	.text.HAL_TIM_PWM_PulseFinishedCallback,"ax",%progbits
 5678              		.align	1
 5679              		.p2align 2,,3
 5680              		.weak	HAL_TIM_PWM_PulseFinishedCallback
 5681              		.syntax unified
 5682              		.thumb
 5683              		.thumb_func
 5684              		.fpu fpv4-sp-d16
 5686              	HAL_TIM_PWM_PulseFinishedCallback:
 5687              		@ args = 0, pretend = 0, frame = 0
 5688              		@ frame_needed = 0, uses_anonymous_args = 0
 5689              		@ link register save eliminated.
 5690 0000 7047     		bx	lr
 5692 0002 00BF     		.section	.text.TIM_DMADelayPulseCplt,"ax",%progbits
 5693              		.align	1
ARM GAS  D:\Programs\cygwin64\tmp\cctM4zih.s 			page 98


 5694              		.p2align 2,,3
 5695              		.global	TIM_DMADelayPulseCplt
 5696              		.syntax unified
 5697              		.thumb
 5698              		.thumb_func
 5699              		.fpu fpv4-sp-d16
 5701              	TIM_DMADelayPulseCplt:
 5702              		@ args = 0, pretend = 0, frame = 0
 5703              		@ frame_needed = 0, uses_anonymous_args = 0
 5704 0000 10B5     		push	{r4, lr}
 5705 0002 846B     		ldr	r4, [r0, #56]
 5706 0004 626A     		ldr	r2, [r4, #36]
 5707 0006 0123     		movs	r3, #1
 5708 0008 8242     		cmp	r2, r0
 5709 000a 84F83D30 		strb	r3, [r4, #61]
 5710 000e 17D0     		beq	.L838
 5711 0010 A36A     		ldr	r3, [r4, #40]
 5712 0012 8342     		cmp	r3, r0
 5713 0014 0BD0     		beq	.L839
 5714 0016 E36A     		ldr	r3, [r4, #44]
 5715 0018 8342     		cmp	r3, r0
 5716 001a 18D0     		beq	.L840
 5717 001c 236B     		ldr	r3, [r4, #48]
 5718 001e 8342     		cmp	r3, r0
 5719 0020 0DD0     		beq	.L841
 5720 0022 2046     		mov	r0, r4
 5721 0024 FFF7FEFF 		bl	HAL_TIM_PWM_PulseFinishedCallback
 5722 0028 0023     		movs	r3, #0
 5723 002a 2377     		strb	r3, [r4, #28]
 5724 002c 10BD     		pop	{r4, pc}
 5725              	.L839:
 5726 002e 0223     		movs	r3, #2
 5727 0030 2377     		strb	r3, [r4, #28]
 5728 0032 2046     		mov	r0, r4
 5729 0034 FFF7FEFF 		bl	HAL_TIM_PWM_PulseFinishedCallback
 5730 0038 0023     		movs	r3, #0
 5731 003a 2377     		strb	r3, [r4, #28]
 5732 003c 10BD     		pop	{r4, pc}
 5733              	.L841:
 5734 003e 0823     		movs	r3, #8
 5735              	.L838:
 5736 0040 2377     		strb	r3, [r4, #28]
 5737 0042 2046     		mov	r0, r4
 5738 0044 FFF7FEFF 		bl	HAL_TIM_PWM_PulseFinishedCallback
 5739 0048 0023     		movs	r3, #0
 5740 004a 2377     		strb	r3, [r4, #28]
 5741 004c 10BD     		pop	{r4, pc}
 5742              	.L840:
 5743 004e 0423     		movs	r3, #4
 5744 0050 2377     		strb	r3, [r4, #28]
 5745 0052 2046     		mov	r0, r4
 5746 0054 FFF7FEFF 		bl	HAL_TIM_PWM_PulseFinishedCallback
 5747 0058 0023     		movs	r3, #0
 5748 005a 2377     		strb	r3, [r4, #28]
 5749 005c 10BD     		pop	{r4, pc}
 5751 005e 00BF     		.section	.text.HAL_TIM_PWM_PulseFinishedHalfCpltCallback,"ax",%progbits
 5752              		.align	1
ARM GAS  D:\Programs\cygwin64\tmp\cctM4zih.s 			page 99


 5753              		.p2align 2,,3
 5754              		.weak	HAL_TIM_PWM_PulseFinishedHalfCpltCallback
 5755              		.syntax unified
 5756              		.thumb
 5757              		.thumb_func
 5758              		.fpu fpv4-sp-d16
 5760              	HAL_TIM_PWM_PulseFinishedHalfCpltCallback:
 5761              		@ args = 0, pretend = 0, frame = 0
 5762              		@ frame_needed = 0, uses_anonymous_args = 0
 5763              		@ link register save eliminated.
 5764 0000 7047     		bx	lr
 5766 0002 00BF     		.section	.text.TIM_DMADelayPulseHalfCplt,"ax",%progbits
 5767              		.align	1
 5768              		.p2align 2,,3
 5769              		.global	TIM_DMADelayPulseHalfCplt
 5770              		.syntax unified
 5771              		.thumb
 5772              		.thumb_func
 5773              		.fpu fpv4-sp-d16
 5775              	TIM_DMADelayPulseHalfCplt:
 5776              		@ args = 0, pretend = 0, frame = 0
 5777              		@ frame_needed = 0, uses_anonymous_args = 0
 5778 0000 10B5     		push	{r4, lr}
 5779 0002 846B     		ldr	r4, [r0, #56]
 5780 0004 626A     		ldr	r2, [r4, #36]
 5781 0006 0123     		movs	r3, #1
 5782 0008 8242     		cmp	r2, r0
 5783 000a 84F83D30 		strb	r3, [r4, #61]
 5784 000e 17D0     		beq	.L849
 5785 0010 A36A     		ldr	r3, [r4, #40]
 5786 0012 8342     		cmp	r3, r0
 5787 0014 0BD0     		beq	.L850
 5788 0016 E36A     		ldr	r3, [r4, #44]
 5789 0018 8342     		cmp	r3, r0
 5790 001a 18D0     		beq	.L851
 5791 001c 236B     		ldr	r3, [r4, #48]
 5792 001e 8342     		cmp	r3, r0
 5793 0020 0DD0     		beq	.L852
 5794 0022 2046     		mov	r0, r4
 5795 0024 FFF7FEFF 		bl	HAL_TIM_PWM_PulseFinishedHalfCpltCallback
 5796 0028 0023     		movs	r3, #0
 5797 002a 2377     		strb	r3, [r4, #28]
 5798 002c 10BD     		pop	{r4, pc}
 5799              	.L850:
 5800 002e 0223     		movs	r3, #2
 5801 0030 2377     		strb	r3, [r4, #28]
 5802 0032 2046     		mov	r0, r4
 5803 0034 FFF7FEFF 		bl	HAL_TIM_PWM_PulseFinishedHalfCpltCallback
 5804 0038 0023     		movs	r3, #0
 5805 003a 2377     		strb	r3, [r4, #28]
 5806 003c 10BD     		pop	{r4, pc}
 5807              	.L852:
 5808 003e 0823     		movs	r3, #8
 5809              	.L849:
 5810 0040 2377     		strb	r3, [r4, #28]
 5811 0042 2046     		mov	r0, r4
 5812 0044 FFF7FEFF 		bl	HAL_TIM_PWM_PulseFinishedHalfCpltCallback
ARM GAS  D:\Programs\cygwin64\tmp\cctM4zih.s 			page 100


 5813 0048 0023     		movs	r3, #0
 5814 004a 2377     		strb	r3, [r4, #28]
 5815 004c 10BD     		pop	{r4, pc}
 5816              	.L851:
 5817 004e 0423     		movs	r3, #4
 5818 0050 2377     		strb	r3, [r4, #28]
 5819 0052 2046     		mov	r0, r4
 5820 0054 FFF7FEFF 		bl	HAL_TIM_PWM_PulseFinishedHalfCpltCallback
 5821 0058 0023     		movs	r3, #0
 5822 005a 2377     		strb	r3, [r4, #28]
 5823 005c 10BD     		pop	{r4, pc}
 5825 005e 00BF     		.section	.text.HAL_TIM_TriggerCallback,"ax",%progbits
 5826              		.align	1
 5827              		.p2align 2,,3
 5828              		.weak	HAL_TIM_TriggerCallback
 5829              		.syntax unified
 5830              		.thumb
 5831              		.thumb_func
 5832              		.fpu fpv4-sp-d16
 5834              	HAL_TIM_TriggerCallback:
 5835              		@ args = 0, pretend = 0, frame = 0
 5836              		@ frame_needed = 0, uses_anonymous_args = 0
 5837              		@ link register save eliminated.
 5838 0000 7047     		bx	lr
 5840 0002 00BF     		.section	.text.HAL_TIM_IRQHandler,"ax",%progbits
 5841              		.align	1
 5842              		.p2align 2,,3
 5843              		.global	HAL_TIM_IRQHandler
 5844              		.syntax unified
 5845              		.thumb
 5846              		.thumb_func
 5847              		.fpu fpv4-sp-d16
 5849              	HAL_TIM_IRQHandler:
 5850              		@ args = 0, pretend = 0, frame = 0
 5851              		@ frame_needed = 0, uses_anonymous_args = 0
 5852 0000 0368     		ldr	r3, [r0]
 5853 0002 1A69     		ldr	r2, [r3, #16]
 5854 0004 9107     		lsls	r1, r2, #30
 5855 0006 10B5     		push	{r4, lr}
 5856 0008 0446     		mov	r4, r0
 5857 000a 02D5     		bpl	.L855
 5858 000c DA68     		ldr	r2, [r3, #12]
 5859 000e 9207     		lsls	r2, r2, #30
 5860 0010 5FD4     		bmi	.L920
 5861              	.L855:
 5862 0012 1A69     		ldr	r2, [r3, #16]
 5863 0014 5007     		lsls	r0, r2, #29
 5864 0016 02D5     		bpl	.L858
 5865 0018 DA68     		ldr	r2, [r3, #12]
 5866 001a 5107     		lsls	r1, r2, #29
 5867 001c 46D4     		bmi	.L921
 5868              	.L858:
 5869 001e 1A69     		ldr	r2, [r3, #16]
 5870 0020 1207     		lsls	r2, r2, #28
 5871 0022 02D5     		bpl	.L861
 5872 0024 DA68     		ldr	r2, [r3, #12]
 5873 0026 1007     		lsls	r0, r2, #28
ARM GAS  D:\Programs\cygwin64\tmp\cctM4zih.s 			page 101


 5874 0028 2ED4     		bmi	.L922
 5875              	.L861:
 5876 002a 1A69     		ldr	r2, [r3, #16]
 5877 002c D206     		lsls	r2, r2, #27
 5878 002e 02D5     		bpl	.L864
 5879 0030 DA68     		ldr	r2, [r3, #12]
 5880 0032 D006     		lsls	r0, r2, #27
 5881 0034 18D4     		bmi	.L923
 5882              	.L864:
 5883 0036 1A69     		ldr	r2, [r3, #16]
 5884 0038 D107     		lsls	r1, r2, #31
 5885 003a 02D5     		bpl	.L867
 5886 003c DA68     		ldr	r2, [r3, #12]
 5887 003e D207     		lsls	r2, r2, #31
 5888 0040 5DD4     		bmi	.L924
 5889              	.L867:
 5890 0042 1A69     		ldr	r2, [r3, #16]
 5891 0044 1006     		lsls	r0, r2, #24
 5892 0046 02D5     		bpl	.L868
 5893 0048 DA68     		ldr	r2, [r3, #12]
 5894 004a 1106     		lsls	r1, r2, #24
 5895 004c 5FD4     		bmi	.L925
 5896              	.L868:
 5897 004e 1A69     		ldr	r2, [r3, #16]
 5898 0050 5206     		lsls	r2, r2, #25
 5899 0052 02D5     		bpl	.L869
 5900 0054 DA68     		ldr	r2, [r3, #12]
 5901 0056 5006     		lsls	r0, r2, #25
 5902 0058 61D4     		bmi	.L926
 5903              	.L869:
 5904 005a 1A69     		ldr	r2, [r3, #16]
 5905 005c 9106     		lsls	r1, r2, #26
 5906 005e 02D5     		bpl	.L854
 5907 0060 DA68     		ldr	r2, [r3, #12]
 5908 0062 9206     		lsls	r2, r2, #26
 5909 0064 43D4     		bmi	.L927
 5910              	.L854:
 5911 0066 10BD     		pop	{r4, pc}
 5912              	.L923:
 5913 0068 6FF01002 		mvn	r2, #16
 5914 006c 1A61     		str	r2, [r3, #16]
 5915 006e DB69     		ldr	r3, [r3, #28]
 5916 0070 0822     		movs	r2, #8
 5917 0072 13F4407F 		tst	r3, #768
 5918 0076 2277     		strb	r2, [r4, #28]
 5919 0078 2046     		mov	r0, r4
 5920 007a 64D0     		beq	.L865
 5921 007c FFF7FEFF 		bl	HAL_TIM_IC_CaptureCallback
 5922              	.L866:
 5923 0080 0022     		movs	r2, #0
 5924 0082 2368     		ldr	r3, [r4]
 5925 0084 2277     		strb	r2, [r4, #28]
 5926 0086 D6E7     		b	.L864
 5927              	.L922:
 5928 0088 6FF00802 		mvn	r2, #8
 5929 008c 1A61     		str	r2, [r3, #16]
 5930 008e DB69     		ldr	r3, [r3, #28]
ARM GAS  D:\Programs\cygwin64\tmp\cctM4zih.s 			page 102


 5931 0090 0422     		movs	r2, #4
 5932 0092 9907     		lsls	r1, r3, #30
 5933 0094 2277     		strb	r2, [r4, #28]
 5934 0096 2046     		mov	r0, r4
 5935 0098 52D1     		bne	.L928
 5936 009a FFF7FEFF 		bl	HAL_TIM_OC_DelayElapsedCallback
 5937 009e 2046     		mov	r0, r4
 5938 00a0 FFF7FEFF 		bl	HAL_TIM_PWM_PulseFinishedCallback
 5939              	.L863:
 5940 00a4 0022     		movs	r2, #0
 5941 00a6 2368     		ldr	r3, [r4]
 5942 00a8 2277     		strb	r2, [r4, #28]
 5943 00aa BEE7     		b	.L861
 5944              	.L921:
 5945 00ac 6FF00402 		mvn	r2, #4
 5946 00b0 1A61     		str	r2, [r3, #16]
 5947 00b2 9B69     		ldr	r3, [r3, #24]
 5948 00b4 0222     		movs	r2, #2
 5949 00b6 13F4407F 		tst	r3, #768
 5950 00ba 2277     		strb	r2, [r4, #28]
 5951 00bc 2046     		mov	r0, r4
 5952 00be 3CD1     		bne	.L929
 5953 00c0 FFF7FEFF 		bl	HAL_TIM_OC_DelayElapsedCallback
 5954 00c4 2046     		mov	r0, r4
 5955 00c6 FFF7FEFF 		bl	HAL_TIM_PWM_PulseFinishedCallback
 5956              	.L860:
 5957 00ca 0022     		movs	r2, #0
 5958 00cc 2368     		ldr	r3, [r4]
 5959 00ce 2277     		strb	r2, [r4, #28]
 5960 00d0 A5E7     		b	.L858
 5961              	.L920:
 5962 00d2 6FF00202 		mvn	r2, #2
 5963 00d6 1A61     		str	r2, [r3, #16]
 5964 00d8 9B69     		ldr	r3, [r3, #24]
 5965 00da 0122     		movs	r2, #1
 5966 00dc 9B07     		lsls	r3, r3, #30
 5967 00de 0277     		strb	r2, [r0, #28]
 5968 00e0 25D0     		beq	.L856
 5969 00e2 FFF7FEFF 		bl	HAL_TIM_IC_CaptureCallback
 5970              	.L857:
 5971 00e6 0022     		movs	r2, #0
 5972 00e8 2368     		ldr	r3, [r4]
 5973 00ea 2277     		strb	r2, [r4, #28]
 5974 00ec 91E7     		b	.L855
 5975              	.L927:
 5976 00ee 6FF02002 		mvn	r2, #32
 5977 00f2 2046     		mov	r0, r4
 5978 00f4 1A61     		str	r2, [r3, #16]
 5979 00f6 BDE81040 		pop	{r4, lr}
 5980 00fa FFF7FEBF 		b	HAL_TIMEx_CommutCallback
 5981              	.L924:
 5982 00fe 6FF00102 		mvn	r2, #1
 5983 0102 1A61     		str	r2, [r3, #16]
 5984 0104 2046     		mov	r0, r4
 5985 0106 FFF7FEFF 		bl	HAL_TIM_PeriodElapsedCallback
 5986 010a 2368     		ldr	r3, [r4]
 5987 010c 99E7     		b	.L867
ARM GAS  D:\Programs\cygwin64\tmp\cctM4zih.s 			page 103


 5988              	.L925:
 5989 010e 6FF08002 		mvn	r2, #128
 5990 0112 1A61     		str	r2, [r3, #16]
 5991 0114 2046     		mov	r0, r4
 5992 0116 FFF7FEFF 		bl	HAL_TIMEx_BreakCallback
 5993 011a 2368     		ldr	r3, [r4]
 5994 011c 97E7     		b	.L868
 5995              	.L926:
 5996 011e 6FF04002 		mvn	r2, #64
 5997 0122 1A61     		str	r2, [r3, #16]
 5998 0124 2046     		mov	r0, r4
 5999 0126 FFF7FEFF 		bl	HAL_TIM_TriggerCallback
 6000 012a 2368     		ldr	r3, [r4]
 6001 012c 95E7     		b	.L869
 6002              	.L856:
 6003 012e FFF7FEFF 		bl	HAL_TIM_OC_DelayElapsedCallback
 6004 0132 2046     		mov	r0, r4
 6005 0134 FFF7FEFF 		bl	HAL_TIM_PWM_PulseFinishedCallback
 6006 0138 D5E7     		b	.L857
 6007              	.L929:
 6008 013a FFF7FEFF 		bl	HAL_TIM_IC_CaptureCallback
 6009 013e C4E7     		b	.L860
 6010              	.L928:
 6011 0140 FFF7FEFF 		bl	HAL_TIM_IC_CaptureCallback
 6012 0144 AEE7     		b	.L863
 6013              	.L865:
 6014 0146 FFF7FEFF 		bl	HAL_TIM_OC_DelayElapsedCallback
 6015 014a 2046     		mov	r0, r4
 6016 014c FFF7FEFF 		bl	HAL_TIM_PWM_PulseFinishedCallback
 6017 0150 96E7     		b	.L866
 6019 0152 00BF     		.section	.text.TIM_DMATriggerCplt,"ax",%progbits
 6020              		.align	1
 6021              		.p2align 2,,3
 6022              		.syntax unified
 6023              		.thumb
 6024              		.thumb_func
 6025              		.fpu fpv4-sp-d16
 6027              	TIM_DMATriggerCplt:
 6028              		@ args = 0, pretend = 0, frame = 0
 6029              		@ frame_needed = 0, uses_anonymous_args = 0
 6030 0000 08B5     		push	{r3, lr}
 6031 0002 806B     		ldr	r0, [r0, #56]
 6032 0004 0123     		movs	r3, #1
 6033 0006 80F83D30 		strb	r3, [r0, #61]
 6034 000a FFF7FEFF 		bl	HAL_TIM_TriggerCallback
 6035 000e 08BD     		pop	{r3, pc}
 6037              		.section	.text.HAL_TIM_TriggerHalfCpltCallback,"ax",%progbits
 6038              		.align	1
 6039              		.p2align 2,,3
 6040              		.weak	HAL_TIM_TriggerHalfCpltCallback
 6041              		.syntax unified
 6042              		.thumb
 6043              		.thumb_func
 6044              		.fpu fpv4-sp-d16
 6046              	HAL_TIM_TriggerHalfCpltCallback:
 6047              		@ args = 0, pretend = 0, frame = 0
 6048              		@ frame_needed = 0, uses_anonymous_args = 0
ARM GAS  D:\Programs\cygwin64\tmp\cctM4zih.s 			page 104


 6049              		@ link register save eliminated.
 6050 0000 7047     		bx	lr
 6052 0002 00BF     		.section	.text.TIM_DMATriggerHalfCplt,"ax",%progbits
 6053              		.align	1
 6054              		.p2align 2,,3
 6055              		.syntax unified
 6056              		.thumb
 6057              		.thumb_func
 6058              		.fpu fpv4-sp-d16
 6060              	TIM_DMATriggerHalfCplt:
 6061              		@ args = 0, pretend = 0, frame = 0
 6062              		@ frame_needed = 0, uses_anonymous_args = 0
 6063 0000 08B5     		push	{r3, lr}
 6064 0002 806B     		ldr	r0, [r0, #56]
 6065 0004 0123     		movs	r3, #1
 6066 0006 80F83D30 		strb	r3, [r0, #61]
 6067 000a FFF7FEFF 		bl	HAL_TIM_TriggerHalfCpltCallback
 6068 000e 08BD     		pop	{r3, pc}
 6070              		.section	.text.HAL_TIM_ErrorCallback,"ax",%progbits
 6071              		.align	1
 6072              		.p2align 2,,3
 6073              		.weak	HAL_TIM_ErrorCallback
 6074              		.syntax unified
 6075              		.thumb
 6076              		.thumb_func
 6077              		.fpu fpv4-sp-d16
 6079              	HAL_TIM_ErrorCallback:
 6080              		@ args = 0, pretend = 0, frame = 0
 6081              		@ frame_needed = 0, uses_anonymous_args = 0
 6082              		@ link register save eliminated.
 6083 0000 7047     		bx	lr
 6085 0002 00BF     		.section	.text.TIM_DMAError,"ax",%progbits
 6086              		.align	1
 6087              		.p2align 2,,3
 6088              		.global	TIM_DMAError
 6089              		.syntax unified
 6090              		.thumb
 6091              		.thumb_func
 6092              		.fpu fpv4-sp-d16
 6094              	TIM_DMAError:
 6095              		@ args = 0, pretend = 0, frame = 0
 6096              		@ frame_needed = 0, uses_anonymous_args = 0
 6097 0000 08B5     		push	{r3, lr}
 6098 0002 806B     		ldr	r0, [r0, #56]
 6099 0004 0123     		movs	r3, #1
 6100 0006 80F83D30 		strb	r3, [r0, #61]
 6101 000a FFF7FEFF 		bl	HAL_TIM_ErrorCallback
 6102 000e 08BD     		pop	{r3, pc}
 6104              		.section	.text.HAL_TIM_Base_GetState,"ax",%progbits
 6105              		.align	1
 6106              		.p2align 2,,3
 6107              		.global	HAL_TIM_Base_GetState
 6108              		.syntax unified
 6109              		.thumb
 6110              		.thumb_func
 6111              		.fpu fpv4-sp-d16
 6113              	HAL_TIM_Base_GetState:
ARM GAS  D:\Programs\cygwin64\tmp\cctM4zih.s 			page 105


 6114              		@ args = 0, pretend = 0, frame = 0
 6115              		@ frame_needed = 0, uses_anonymous_args = 0
 6116              		@ link register save eliminated.
 6117 0000 90F83D00 		ldrb	r0, [r0, #61]	@ zero_extendqisi2
 6118 0004 7047     		bx	lr
 6120 0006 00BF     		.section	.text.HAL_TIM_OC_GetState,"ax",%progbits
 6121              		.align	1
 6122              		.p2align 2,,3
 6123              		.global	HAL_TIM_OC_GetState
 6124              		.syntax unified
 6125              		.thumb
 6126              		.thumb_func
 6127              		.fpu fpv4-sp-d16
 6129              	HAL_TIM_OC_GetState:
 6130              		@ args = 0, pretend = 0, frame = 0
 6131              		@ frame_needed = 0, uses_anonymous_args = 0
 6132              		@ link register save eliminated.
 6133 0000 90F83D00 		ldrb	r0, [r0, #61]	@ zero_extendqisi2
 6134 0004 7047     		bx	lr
 6136 0006 00BF     		.section	.text.HAL_TIM_PWM_GetState,"ax",%progbits
 6137              		.align	1
 6138              		.p2align 2,,3
 6139              		.global	HAL_TIM_PWM_GetState
 6140              		.syntax unified
 6141              		.thumb
 6142              		.thumb_func
 6143              		.fpu fpv4-sp-d16
 6145              	HAL_TIM_PWM_GetState:
 6146              		@ args = 0, pretend = 0, frame = 0
 6147              		@ frame_needed = 0, uses_anonymous_args = 0
 6148              		@ link register save eliminated.
 6149 0000 90F83D00 		ldrb	r0, [r0, #61]	@ zero_extendqisi2
 6150 0004 7047     		bx	lr
 6152 0006 00BF     		.section	.text.HAL_TIM_IC_GetState,"ax",%progbits
 6153              		.align	1
 6154              		.p2align 2,,3
 6155              		.global	HAL_TIM_IC_GetState
 6156              		.syntax unified
 6157              		.thumb
 6158              		.thumb_func
 6159              		.fpu fpv4-sp-d16
 6161              	HAL_TIM_IC_GetState:
 6162              		@ args = 0, pretend = 0, frame = 0
 6163              		@ frame_needed = 0, uses_anonymous_args = 0
 6164              		@ link register save eliminated.
 6165 0000 90F83D00 		ldrb	r0, [r0, #61]	@ zero_extendqisi2
 6166 0004 7047     		bx	lr
 6168 0006 00BF     		.section	.text.HAL_TIM_OnePulse_GetState,"ax",%progbits
 6169              		.align	1
 6170              		.p2align 2,,3
 6171              		.global	HAL_TIM_OnePulse_GetState
 6172              		.syntax unified
 6173              		.thumb
 6174              		.thumb_func
 6175              		.fpu fpv4-sp-d16
 6177              	HAL_TIM_OnePulse_GetState:
 6178              		@ args = 0, pretend = 0, frame = 0
ARM GAS  D:\Programs\cygwin64\tmp\cctM4zih.s 			page 106


 6179              		@ frame_needed = 0, uses_anonymous_args = 0
 6180              		@ link register save eliminated.
 6181 0000 90F83D00 		ldrb	r0, [r0, #61]	@ zero_extendqisi2
 6182 0004 7047     		bx	lr
 6184 0006 00BF     		.section	.text.HAL_TIM_Encoder_GetState,"ax",%progbits
 6185              		.align	1
 6186              		.p2align 2,,3
 6187              		.global	HAL_TIM_Encoder_GetState
 6188              		.syntax unified
 6189              		.thumb
 6190              		.thumb_func
 6191              		.fpu fpv4-sp-d16
 6193              	HAL_TIM_Encoder_GetState:
 6194              		@ args = 0, pretend = 0, frame = 0
 6195              		@ frame_needed = 0, uses_anonymous_args = 0
 6196              		@ link register save eliminated.
 6197 0000 90F83D00 		ldrb	r0, [r0, #61]	@ zero_extendqisi2
 6198 0004 7047     		bx	lr
 6200 0006 00BF     		.section	.text.TIM_Base_SetConfig,"ax",%progbits
 6201              		.align	1
 6202              		.p2align 2,,3
 6203              		.global	TIM_Base_SetConfig
 6204              		.syntax unified
 6205              		.thumb
 6206              		.thumb_func
 6207              		.fpu fpv4-sp-d16
 6209              	TIM_Base_SetConfig:
 6210              		@ args = 0, pretend = 0, frame = 0
 6211              		@ frame_needed = 0, uses_anonymous_args = 0
 6212              		@ link register save eliminated.
 6213 0000 F0B4     		push	{r4, r5, r6, r7}
 6214 0002 2C4D     		ldr	r5, .L959
 6215 0004 0368     		ldr	r3, [r0]
 6216 0006 4E69     		ldr	r6, [r1, #20]
 6217 0008 8C68     		ldr	r4, [r1, #8]
 6218 000a 0A68     		ldr	r2, [r1]
 6219 000c A842     		cmp	r0, r5
 6220 000e 3DD0     		beq	.L950
 6221 0010 B0F1804F 		cmp	r0, #1073741824
 6222 0014 31D0     		beq	.L949
 6223 0016 A5F57C45 		sub	r5, r5, #64512
 6224 001a A842     		cmp	r0, r5
 6225 001c 2DD0     		beq	.L949
 6226 001e 05F58065 		add	r5, r5, #1024
 6227 0022 A842     		cmp	r0, r5
 6228 0024 29D0     		beq	.L949
 6229 0026 05F58065 		add	r5, r5, #1024
 6230 002a A842     		cmp	r0, r5
 6231 002c 25D0     		beq	.L949
 6232 002e 05F57845 		add	r5, r5, #63488
 6233 0032 A842     		cmp	r0, r5
 6234 0034 2AD0     		beq	.L950
 6235 0036 05F57055 		add	r5, r5, #15360
 6236 003a A842     		cmp	r0, r5
 6237 003c 21D0     		beq	.L951
 6238 003e 05F58065 		add	r5, r5, #1024
 6239 0042 A842     		cmp	r0, r5
ARM GAS  D:\Programs\cygwin64\tmp\cctM4zih.s 			page 107


 6240 0044 1DD0     		beq	.L951
 6241 0046 05F58065 		add	r5, r5, #1024
 6242 004a A842     		cmp	r0, r5
 6243 004c 19D0     		beq	.L951
 6244 004e A5F59835 		sub	r5, r5, #77824
 6245 0052 A842     		cmp	r0, r5
 6246 0054 15D0     		beq	.L951
 6247 0056 05F58065 		add	r5, r5, #1024
 6248 005a A842     		cmp	r0, r5
 6249 005c 11D0     		beq	.L951
 6250 005e 05F58065 		add	r5, r5, #1024
 6251 0062 A842     		cmp	r0, r5
 6252 0064 0DD0     		beq	.L951
 6253              	.L958:
 6254 0066 23F08003 		bic	r3, r3, #128
 6255 006a 3343     		orrs	r3, r3, r6
 6256 006c 0360     		str	r3, [r0]
 6257 006e 0123     		movs	r3, #1
 6258 0070 C462     		str	r4, [r0, #44]
 6259 0072 8262     		str	r2, [r0, #40]
 6260 0074 F0BC     		pop	{r4, r5, r6, r7}
 6261 0076 4361     		str	r3, [r0, #20]
 6262 0078 7047     		bx	lr
 6263              	.L949:
 6264 007a 4D68     		ldr	r5, [r1, #4]
 6265 007c 23F07003 		bic	r3, r3, #112
 6266 0080 2B43     		orrs	r3, r3, r5
 6267              	.L951:
 6268 0082 C968     		ldr	r1, [r1, #12]
 6269 0084 23F44073 		bic	r3, r3, #768
 6270 0088 0B43     		orrs	r3, r3, r1
 6271 008a ECE7     		b	.L958
 6272              	.L950:
 6273 008c 4F68     		ldr	r7, [r1, #4]
 6274 008e CD68     		ldr	r5, [r1, #12]
 6275 0090 23F07003 		bic	r3, r3, #112
 6276 0094 3B43     		orrs	r3, r3, r7
 6277 0096 23F44073 		bic	r3, r3, #768
 6278 009a 2B43     		orrs	r3, r3, r5
 6279 009c 23F08003 		bic	r3, r3, #128
 6280 00a0 3343     		orrs	r3, r3, r6
 6281 00a2 0360     		str	r3, [r0]
 6282 00a4 C462     		str	r4, [r0, #44]
 6283 00a6 8262     		str	r2, [r0, #40]
 6284 00a8 0B69     		ldr	r3, [r1, #16]
 6285 00aa 0363     		str	r3, [r0, #48]
 6286 00ac 0123     		movs	r3, #1
 6287 00ae 4361     		str	r3, [r0, #20]
 6288 00b0 F0BC     		pop	{r4, r5, r6, r7}
 6289 00b2 7047     		bx	lr
 6290              	.L960:
 6291              		.align	2
 6292              	.L959:
 6293 00b4 00000140 		.word	1073807360
 6295              		.section	.text.HAL_TIM_Encoder_Init,"ax",%progbits
 6296              		.align	1
 6297              		.p2align 2,,3
ARM GAS  D:\Programs\cygwin64\tmp\cctM4zih.s 			page 108


 6298              		.global	HAL_TIM_Encoder_Init
 6299              		.syntax unified
 6300              		.thumb
 6301              		.thumb_func
 6302              		.fpu fpv4-sp-d16
 6304              	HAL_TIM_Encoder_Init:
 6305              		@ args = 0, pretend = 0, frame = 8
 6306              		@ frame_needed = 0, uses_anonymous_args = 0
 6307 0000 0028     		cmp	r0, #0
 6308 0002 4FD0     		beq	.L964
 6309 0004 F0B5     		push	{r4, r5, r6, r7, lr}
 6310 0006 90F83D30 		ldrb	r3, [r0, #61]	@ zero_extendqisi2
 6311 000a 83B0     		sub	sp, sp, #12
 6312 000c 0546     		mov	r5, r0
 6313 000e 0C46     		mov	r4, r1
 6314 0010 03F0FF02 		and	r2, r3, #255
 6315 0014 002B     		cmp	r3, #0
 6316 0016 40D0     		beq	.L969
 6317              	.L963:
 6318 0018 2946     		mov	r1, r5
 6319 001a 0223     		movs	r3, #2
 6320 001c 51F8040B 		ldr	r0, [r1], #4
 6321 0020 85F83D30 		strb	r3, [r5, #61]
 6322 0024 8368     		ldr	r3, [r0, #8]
 6323 0026 23F48043 		bic	r3, r3, #16384
 6324 002a 23F00703 		bic	r3, r3, #7
 6325 002e 8360     		str	r3, [r0, #8]
 6326 0030 FFF7FEFF 		bl	TIM_Base_SetConfig
 6327 0034 2968     		ldr	r1, [r5]
 6328 0036 2369     		ldr	r3, [r4, #16]
 6329 0038 8868     		ldr	r0, [r1, #8]
 6330 003a 8E69     		ldr	r6, [r1, #24]
 6331 003c A769     		ldr	r7, [r4, #24]
 6332 003e A268     		ldr	r2, [r4, #8]
 6333 0040 D4F800C0 		ldr	ip, [r4]
 6334 0044 26F4407E 		bic	lr, r6, #768
 6335 0048 E669     		ldr	r6, [r4, #28]
 6336 004a 1B01     		lsls	r3, r3, #4
 6337 004c 43EA0623 		orr	r3, r3, r6, lsl #8
 6338 0050 266A     		ldr	r6, [r4, #32]
 6339 0052 0196     		str	r6, [sp, #4]
 6340 0054 E668     		ldr	r6, [r4, #12]
 6341 0056 3343     		orrs	r3, r3, r6
 6342 0058 019E     		ldr	r6, [sp, #4]
 6343 005a 2EF0030E 		bic	lr, lr, #3
 6344 005e 42EA0722 		orr	r2, r2, r7, lsl #8
 6345 0062 42EA0E02 		orr	r2, r2, lr
 6346 0066 0F6A     		ldr	r7, [r1, #32]
 6347 0068 43EA0633 		orr	r3, r3, r6, lsl #12
 6348 006c 6669     		ldr	r6, [r4, #20]
 6349 006e 6468     		ldr	r4, [r4, #4]
 6350 0070 22F47C42 		bic	r2, r2, #64512
 6351 0074 44EA0614 		orr	r4, r4, r6, lsl #4
 6352 0078 40EA0C00 		orr	r0, r0, ip
 6353 007c 22F0FC02 		bic	r2, r2, #252
 6354 0080 27F0AA07 		bic	r7, r7, #170
 6355 0084 8860     		str	r0, [r1, #8]
ARM GAS  D:\Programs\cygwin64\tmp\cctM4zih.s 			page 109


 6356 0086 2743     		orrs	r7, r7, r4
 6357 0088 1343     		orrs	r3, r3, r2
 6358 008a 0124     		movs	r4, #1
 6359 008c 0020     		movs	r0, #0
 6360 008e 8B61     		str	r3, [r1, #24]
 6361 0090 0F62     		str	r7, [r1, #32]
 6362 0092 85F83D40 		strb	r4, [r5, #61]
 6363 0096 03B0     		add	sp, sp, #12
 6364              		@ sp needed
 6365 0098 F0BD     		pop	{r4, r5, r6, r7, pc}
 6366              	.L969:
 6367 009a 80F83C20 		strb	r2, [r0, #60]
 6368 009e FFF7FEFF 		bl	HAL_TIM_Encoder_MspInit
 6369 00a2 B9E7     		b	.L963
 6370              	.L964:
 6371 00a4 0120     		movs	r0, #1
 6372 00a6 7047     		bx	lr
 6374              		.section	.text.TIM_OC2_SetConfig,"ax",%progbits
 6375              		.align	1
 6376              		.p2align 2,,3
 6377              		.global	TIM_OC2_SetConfig
 6378              		.syntax unified
 6379              		.thumb
 6380              		.thumb_func
 6381              		.fpu fpv4-sp-d16
 6383              	TIM_OC2_SetConfig:
 6384              		@ args = 0, pretend = 0, frame = 0
 6385              		@ frame_needed = 0, uses_anonymous_args = 0
 6386              		@ link register save eliminated.
 6387 0000 F0B4     		push	{r4, r5, r6, r7}
 6388 0002 046A     		ldr	r4, [r0, #32]
 6389 0004 8F68     		ldr	r7, [r1, #8]
 6390 0006 0E68     		ldr	r6, [r1]
 6391 0008 154D     		ldr	r5, .L977
 6392 000a 24F01004 		bic	r4, r4, #16
 6393 000e 0462     		str	r4, [r0, #32]
 6394 0010 036A     		ldr	r3, [r0, #32]
 6395 0012 4468     		ldr	r4, [r0, #4]
 6396 0014 8269     		ldr	r2, [r0, #24]
 6397 0016 23F02003 		bic	r3, r3, #32
 6398 001a 22F4E642 		bic	r2, r2, #29440
 6399 001e A842     		cmp	r0, r5
 6400 0020 43EA0713 		orr	r3, r3, r7, lsl #4
 6401 0024 42EA0622 		orr	r2, r2, r6, lsl #8
 6402 0028 0AD0     		beq	.L971
 6403 002a 05F58065 		add	r5, r5, #1024
 6404 002e A842     		cmp	r0, r5
 6405 0030 06D0     		beq	.L971
 6406              	.L973:
 6407 0032 4968     		ldr	r1, [r1, #4]
 6408 0034 4460     		str	r4, [r0, #4]
 6409 0036 8261     		str	r2, [r0, #24]
 6410 0038 F0BC     		pop	{r4, r5, r6, r7}
 6411 003a 8163     		str	r1, [r0, #56]
 6412 003c 0362     		str	r3, [r0, #32]
 6413 003e 7047     		bx	lr
 6414              	.L971:
ARM GAS  D:\Programs\cygwin64\tmp\cctM4zih.s 			page 110


 6415 0040 CD68     		ldr	r5, [r1, #12]
 6416 0042 23F08003 		bic	r3, r3, #128
 6417 0046 43EA0513 		orr	r3, r3, r5, lsl #4
 6418 004a D1E90556 		ldrd	r5, r6, [r1, #20]
 6419 004e 24F44064 		bic	r4, r4, #3072
 6420 0052 3543     		orrs	r5, r5, r6
 6421 0054 23F04003 		bic	r3, r3, #64
 6422 0058 44EA8504 		orr	r4, r4, r5, lsl #2
 6423 005c E9E7     		b	.L973
 6424              	.L978:
 6425 005e 00BF     		.align	2
 6426              	.L977:
 6427 0060 00000140 		.word	1073807360
 6429              		.section	.text.TIM_TI1_SetConfig,"ax",%progbits
 6430              		.align	1
 6431              		.p2align 2,,3
 6432              		.global	TIM_TI1_SetConfig
