ARM GAS  D:\Programs\cygwin64\tmp\ccNUFnFj.s 			page 1


   1              		.cpu cortex-m4
   2              		.eabi_attribute 27, 1
   3              		.eabi_attribute 28, 1
   4              		.eabi_attribute 20, 1
   5              		.eabi_attribute 21, 1
   6              		.eabi_attribute 23, 3
   7              		.eabi_attribute 24, 1
   8              		.eabi_attribute 25, 1
   9              		.eabi_attribute 26, 1
  10              		.eabi_attribute 30, 2
  11              		.eabi_attribute 34, 1
  12              		.eabi_attribute 18, 4
  13              		.file	"stm32f4xx_hal_rtc_ex.c"
  14              		.text
  15              		.section	.text.HAL_RTCEx_SetTimeStamp,"ax",%progbits
  16              		.align	1
  17              		.p2align 2,,3
  18              		.global	HAL_RTCEx_SetTimeStamp
  19              		.arch armv7e-m
  20              		.syntax unified
  21              		.thumb
  22              		.thumb_func
  23              		.fpu fpv4-sp-d16
  25              	HAL_RTCEx_SetTimeStamp:
  26              		@ args = 0, pretend = 0, frame = 0
  27              		@ frame_needed = 0, uses_anonymous_args = 0
  28              		@ link register save eliminated.
  29 0000 037F     		ldrb	r3, [r0, #28]	@ zero_extendqisi2
  30 0002 012B     		cmp	r3, #1
  31 0004 22D0     		beq	.L3
  32 0006 70B4     		push	{r4, r5, r6}
  33 0008 0368     		ldr	r3, [r0]
  34 000a 0224     		movs	r4, #2
  35 000c 4477     		strb	r4, [r0, #29]
  36 000e CA25     		movs	r5, #202
  37 0010 9C68     		ldr	r4, [r3, #8]
  38 0012 5D62     		str	r5, [r3, #36]
  39 0014 5325     		movs	r5, #83
  40 0016 5D62     		str	r5, [r3, #36]
  41 0018 1E6C     		ldr	r6, [r3, #64]
  42 001a 26F40036 		bic	r6, r6, #131072
  43 001e 1E64     		str	r6, [r3, #64]
  44 0020 1D6C     		ldr	r5, [r3, #64]
  45 0022 24F40064 		bic	r4, r4, #2048
  46 0026 24F00804 		bic	r4, r4, #8
  47 002a 0C43     		orrs	r4, r4, r1
  48 002c 1543     		orrs	r5, r5, r2
  49 002e 1D64     		str	r5, [r3, #64]
  50 0030 9C60     		str	r4, [r3, #8]
  51 0032 9A68     		ldr	r2, [r3, #8]
  52 0034 FF25     		movs	r5, #255
  53 0036 0124     		movs	r4, #1
  54 0038 0021     		movs	r1, #0
  55 003a 42F40062 		orr	r2, r2, #2048
  56 003e 9A60     		str	r2, [r3, #8]
  57 0040 5D62     		str	r5, [r3, #36]
  58 0042 4477     		strb	r4, [r0, #29]
ARM GAS  D:\Programs\cygwin64\tmp\ccNUFnFj.s 			page 2


  59 0044 0177     		strb	r1, [r0, #28]
  60 0046 70BC     		pop	{r4, r5, r6}
  61 0048 0846     		mov	r0, r1
  62 004a 7047     		bx	lr
  63              	.L3:
  64 004c 0223     		movs	r3, #2
  65 004e 1846     		mov	r0, r3
  66 0050 7047     		bx	lr
  68 0052 00BF     		.section	.text.HAL_RTCEx_SetTimeStamp_IT,"ax",%progbits
  69              		.align	1
  70              		.p2align 2,,3
  71              		.global	HAL_RTCEx_SetTimeStamp_IT
  72              		.syntax unified
  73              		.thumb
  74              		.thumb_func
  75              		.fpu fpv4-sp-d16
  77              	HAL_RTCEx_SetTimeStamp_IT:
  78              		@ args = 0, pretend = 0, frame = 0
  79              		@ frame_needed = 0, uses_anonymous_args = 0
  80              		@ link register save eliminated.
  81 0000 037F     		ldrb	r3, [r0, #28]	@ zero_extendqisi2
  82 0002 012B     		cmp	r3, #1
  83 0004 34D0     		beq	.L11
  84 0006 0368     		ldr	r3, [r0]
  85 0008 30B4     		push	{r4, r5}
  86 000a 0224     		movs	r4, #2
  87 000c 4477     		strb	r4, [r0, #29]
  88 000e 9C68     		ldr	r4, [r3, #8]
  89 0010 194D     		ldr	r5, .L16
  90 0012 24F40064 		bic	r4, r4, #2048
  91 0016 24F00804 		bic	r4, r4, #8
  92 001a 0C43     		orrs	r4, r4, r1
  93 001c CA21     		movs	r1, #202
  94 001e 5962     		str	r1, [r3, #36]
  95 0020 5321     		movs	r1, #83
  96 0022 5962     		str	r1, [r3, #36]
  97 0024 9C60     		str	r4, [r3, #8]
  98 0026 1C6C     		ldr	r4, [r3, #64]
  99 0028 24F40034 		bic	r4, r4, #131072
 100 002c 1C64     		str	r4, [r3, #64]
 101 002e 196C     		ldr	r1, [r3, #64]
 102 0030 1143     		orrs	r1, r1, r2
 103 0032 1964     		str	r1, [r3, #64]
 104 0034 DA68     		ldr	r2, [r3, #12]
 105 0036 D2B2     		uxtb	r2, r2
 106 0038 62F40862 		orn	r2, r2, #2176
 107 003c DA60     		str	r2, [r3, #12]
 108 003e 9A68     		ldr	r2, [r3, #8]
 109 0040 42F40062 		orr	r2, r2, #2048
 110 0044 9A60     		str	r2, [r3, #8]
 111 0046 9A68     		ldr	r2, [r3, #8]
 112 0048 42F40042 		orr	r2, r2, #32768
 113 004c 9A60     		str	r2, [r3, #8]
 114 004e 2A68     		ldr	r2, [r5]
 115 0050 42F40012 		orr	r2, r2, #2097152
 116 0054 2A60     		str	r2, [r5]
 117 0056 AA68     		ldr	r2, [r5, #8]
ARM GAS  D:\Programs\cygwin64\tmp\ccNUFnFj.s 			page 3


 118 0058 42F40012 		orr	r2, r2, #2097152
 119 005c AA60     		str	r2, [r5, #8]
 120 005e FF24     		movs	r4, #255
 121 0060 0022     		movs	r2, #0
 122 0062 0121     		movs	r1, #1
 123 0064 5C62     		str	r4, [r3, #36]
 124 0066 4177     		strb	r1, [r0, #29]
 125 0068 0277     		strb	r2, [r0, #28]
 126 006a 30BC     		pop	{r4, r5}
 127 006c 1046     		mov	r0, r2
 128 006e 7047     		bx	lr
 129              	.L11:
 130 0070 0223     		movs	r3, #2
 131 0072 1846     		mov	r0, r3
 132 0074 7047     		bx	lr
 133              	.L17:
 134 0076 00BF     		.align	2
 135              	.L16:
 136 0078 003C0140 		.word	1073822720
 138              		.section	.text.HAL_RTCEx_DeactivateTimeStamp,"ax",%progbits
 139              		.align	1
 140              		.p2align 2,,3
 141              		.global	HAL_RTCEx_DeactivateTimeStamp
 142              		.syntax unified
 143              		.thumb
 144              		.thumb_func
 145              		.fpu fpv4-sp-d16
 147              	HAL_RTCEx_DeactivateTimeStamp:
 148              		@ args = 0, pretend = 0, frame = 0
 149              		@ frame_needed = 0, uses_anonymous_args = 0
 150              		@ link register save eliminated.
 151 0000 037F     		ldrb	r3, [r0, #28]	@ zero_extendqisi2
 152 0002 012B     		cmp	r3, #1
 153 0004 1BD0     		beq	.L20
 154 0006 0368     		ldr	r3, [r0]
 155 0008 0246     		mov	r2, r0
 156 000a 30B4     		push	{r4, r5}
 157 000c CA20     		movs	r0, #202
 158 000e 0224     		movs	r4, #2
 159 0010 5321     		movs	r1, #83
 160 0012 5477     		strb	r4, [r2, #29]
 161 0014 5862     		str	r0, [r3, #36]
 162 0016 5962     		str	r1, [r3, #36]
 163 0018 9968     		ldr	r1, [r3, #8]
 164 001a 21F40041 		bic	r1, r1, #32768
 165 001e 9960     		str	r1, [r3, #8]
 166 0020 9968     		ldr	r1, [r3, #8]
 167 0022 21F40061 		bic	r1, r1, #2048
 168 0026 0024     		movs	r4, #0
 169 0028 FF20     		movs	r0, #255
 170 002a 0125     		movs	r5, #1
 171 002c 21F00801 		bic	r1, r1, #8
 172 0030 9960     		str	r1, [r3, #8]
 173 0032 5862     		str	r0, [r3, #36]
 174 0034 2046     		mov	r0, r4
 175 0036 5577     		strb	r5, [r2, #29]
 176 0038 1477     		strb	r4, [r2, #28]
ARM GAS  D:\Programs\cygwin64\tmp\ccNUFnFj.s 			page 4


 177 003a 30BC     		pop	{r4, r5}
 178 003c 7047     		bx	lr
 179              	.L20:
 180 003e 0220     		movs	r0, #2
 181 0040 7047     		bx	lr
 183 0042 00BF     		.section	.text.HAL_RTCEx_GetTimeStamp,"ax",%progbits
 184              		.align	1
 185              		.p2align 2,,3
 186              		.global	HAL_RTCEx_GetTimeStamp
 187              		.syntax unified
 188              		.thumb
 189              		.thumb_func
 190              		.fpu fpv4-sp-d16
 192              	HAL_RTCEx_GetTimeStamp:
 193              		@ args = 0, pretend = 0, frame = 0
 194              		@ frame_needed = 0, uses_anonymous_args = 0
 195 0000 F8B5     		push	{r3, r4, r5, r6, r7, lr}
 196 0002 0668     		ldr	r6, [r0]
 197 0004 356B     		ldr	r5, [r6, #48]
 198 0006 746B     		ldr	r4, [r6, #52]
 199 0008 05F07F35 		and	r5, r5, #2139062143
 200 000c 25F0FE45 		bic	r5, r5, #2130706432
 201 0010 2F0C     		lsrs	r7, r5, #16
 202 0012 4FEA152C 		lsr	ip, r5, #8
 203 0016 81F801C0 		strb	ip, [r1, #1]
 204 001a 07F0400C 		and	ip, r7, #64
 205 001e 07F03F07 		and	r7, r7, #63
 206 0022 81F803C0 		strb	ip, [r1, #3]
 207 0026 8D70     		strb	r5, [r1, #2]
 208 0028 0F70     		strb	r7, [r1]
 209 002a 24F07F44 		bic	r4, r4, #-16777216
 210 002e B56B     		ldr	r5, [r6, #56]
 211 0030 4D60     		str	r5, [r1, #4]
 212 0032 24F0C004 		bic	r4, r4, #192
 213 0036 4FF0000E 		mov	lr, #0
 214 003a C4F3042C 		ubfx	ip, r4, #8, #5
 215 003e C4F34235 		ubfx	r5, r4, #13, #3
 216 0042 9470     		strb	r4, [r2, #2]
 217 0044 82F803E0 		strb	lr, [r2, #3]
 218 0048 82F801C0 		strb	ip, [r2, #1]
 219 004c 1570     		strb	r5, [r2]
 220 004e 33B1     		cbz	r3, .L28
 221              	.L26:
 222 0050 F368     		ldr	r3, [r6, #12]
 223 0052 DBB2     		uxtb	r3, r3
 224 0054 63F40863 		orn	r3, r3, #2176
 225 0058 F360     		str	r3, [r6, #12]
 226 005a 0020     		movs	r0, #0
 227 005c F8BD     		pop	{r3, r4, r5, r6, r7, pc}
 228              	.L28:
 229 005e 0646     		mov	r6, r0
 230 0060 3846     		mov	r0, r7
 231 0062 1546     		mov	r5, r2
 232 0064 0C46     		mov	r4, r1
 233 0066 FFF7FEFF 		bl	RTC_Bcd2ToByte
 234 006a 2070     		strb	r0, [r4]
 235 006c 6078     		ldrb	r0, [r4, #1]	@ zero_extendqisi2
ARM GAS  D:\Programs\cygwin64\tmp\ccNUFnFj.s 			page 5


 236 006e FFF7FEFF 		bl	RTC_Bcd2ToByte
 237 0072 6070     		strb	r0, [r4, #1]
 238 0074 A078     		ldrb	r0, [r4, #2]	@ zero_extendqisi2
 239 0076 FFF7FEFF 		bl	RTC_Bcd2ToByte
 240 007a A070     		strb	r0, [r4, #2]
 241 007c 6878     		ldrb	r0, [r5, #1]	@ zero_extendqisi2
 242 007e FFF7FEFF 		bl	RTC_Bcd2ToByte
 243 0082 6870     		strb	r0, [r5, #1]
 244 0084 A878     		ldrb	r0, [r5, #2]	@ zero_extendqisi2
 245 0086 FFF7FEFF 		bl	RTC_Bcd2ToByte
 246 008a A870     		strb	r0, [r5, #2]
 247 008c 2878     		ldrb	r0, [r5]	@ zero_extendqisi2
 248 008e FFF7FEFF 		bl	RTC_Bcd2ToByte
 249 0092 2870     		strb	r0, [r5]
 250 0094 3668     		ldr	r6, [r6]
 251 0096 DBE7     		b	.L26
 253              		.section	.text.HAL_RTCEx_SetTamper,"ax",%progbits
 254              		.align	1
 255              		.p2align 2,,3
 256              		.global	HAL_RTCEx_SetTamper
 257              		.syntax unified
 258              		.thumb
 259              		.thumb_func
 260              		.fpu fpv4-sp-d16
 262              	HAL_RTCEx_SetTamper:
 263              		@ args = 0, pretend = 0, frame = 0
 264              		@ frame_needed = 0, uses_anonymous_args = 0
 265              		@ link register save eliminated.
 266 0000 037F     		ldrb	r3, [r0, #28]	@ zero_extendqisi2
 267 0002 012B     		cmp	r3, #1
 268 0004 2CD0     		beq	.L32
 269 0006 0B68     		ldr	r3, [r1]
 270 0008 F0B4     		push	{r4, r5, r6, r7}
 271 000a 0124     		movs	r4, #1
 272 000c 8D68     		ldr	r5, [r1, #8]
 273 000e 0477     		strb	r4, [r0, #28]
 274 0010 03FA04F2 		lsl	r2, r3, r4
 275 0014 0224     		movs	r4, #2
 276 0016 4477     		strb	r4, [r0, #29]
 277 0018 0DB1     		cbz	r5, .L31
 278 001a 8A60     		str	r2, [r1, #8]
 279 001c 1546     		mov	r5, r2
 280              	.L31:
 281 001e 0468     		ldr	r4, [r0]
 282 0020 4F68     		ldr	r7, [r1, #4]
 283 0022 266C     		ldr	r6, [r4, #64]
 284 0024 1A43     		orrs	r2, r2, r3
 285 0026 42F4FF32 		orr	r2, r2, #130560
 286 002a 3B43     		orrs	r3, r3, r7
 287 002c 42F4C272 		orr	r2, r2, #388
 288 0030 CF68     		ldr	r7, [r1, #12]
 289 0032 26EA0202 		bic	r2, r6, r2
 290 0036 0E69     		ldr	r6, [r1, #16]
 291 0038 3B43     		orrs	r3, r3, r7
 292 003a 3343     		orrs	r3, r3, r6
 293 003c 4F69     		ldr	r7, [r1, #20]
 294 003e D1E90661 		ldrd	r6, r1, [r1, #24]
ARM GAS  D:\Programs\cygwin64\tmp\ccNUFnFj.s 			page 6


 295 0042 3B43     		orrs	r3, r3, r7
 296 0044 2264     		str	r2, [r4, #64]
 297 0046 226C     		ldr	r2, [r4, #64]
 298 0048 3343     		orrs	r3, r3, r6
 299 004a 0B43     		orrs	r3, r3, r1
 300 004c 1343     		orrs	r3, r3, r2
 301 004e 1D43     		orrs	r5, r5, r3
 302 0050 0121     		movs	r1, #1
 303 0052 0023     		movs	r3, #0
 304 0054 2564     		str	r5, [r4, #64]
 305 0056 4177     		strb	r1, [r0, #29]
 306 0058 0377     		strb	r3, [r0, #28]
 307 005a F0BC     		pop	{r4, r5, r6, r7}
 308 005c 1846     		mov	r0, r3
 309 005e 7047     		bx	lr
 310              	.L32:
 311 0060 0222     		movs	r2, #2
 312 0062 1046     		mov	r0, r2
 313 0064 7047     		bx	lr
 315 0066 00BF     		.section	.text.HAL_RTCEx_SetTamper_IT,"ax",%progbits
 316              		.align	1
 317              		.p2align 2,,3
 318              		.global	HAL_RTCEx_SetTamper_IT
 319              		.syntax unified
 320              		.thumb
 321              		.thumb_func
 322              		.fpu fpv4-sp-d16
 324              	HAL_RTCEx_SetTamper_IT:
 325              		@ args = 0, pretend = 0, frame = 0
 326              		@ frame_needed = 0, uses_anonymous_args = 0
 327 0000 037F     		ldrb	r3, [r0, #28]	@ zero_extendqisi2
 328 0002 012B     		cmp	r3, #1
 329 0004 44D0     		beq	.L45
 330 0006 F0B5     		push	{r4, r5, r6, r7, lr}
 331 0008 0D68     		ldr	r5, [r1]
 332 000a 8F68     		ldr	r7, [r1, #8]
 333 000c 0123     		movs	r3, #1
 334 000e 05FA03F2 		lsl	r2, r5, r3
 335 0012 0377     		strb	r3, [r0, #28]
 336 0014 0223     		movs	r3, #2
 337 0016 4377     		strb	r3, [r0, #29]
 338 0018 0FB1     		cbz	r7, .L42
 339 001a 8A60     		str	r2, [r1, #8]
 340 001c 1746     		mov	r7, r2
 341              	.L42:
 342 001e 4B68     		ldr	r3, [r1, #4]
 343 0020 CE68     		ldr	r6, [r1, #12]
 344 0022 0468     		ldr	r4, [r0]
 345 0024 D1F814E0 		ldr	lr, [r1, #20]
 346 0028 D4F840C0 		ldr	ip, [r4, #64]
 347 002c 2B43     		orrs	r3, r3, r5
 348 002e 2A43     		orrs	r2, r2, r5
 349 0030 3343     		orrs	r3, r3, r6
 350 0032 0E69     		ldr	r6, [r1, #16]
 351 0034 42F4FF32 		orr	r2, r2, #130560
 352 0038 3343     		orrs	r3, r3, r6
 353 003a 42F4C072 		orr	r2, r2, #384
ARM GAS  D:\Programs\cygwin64\tmp\ccNUFnFj.s 			page 7


 354 003e D1E90661 		ldrd	r6, r1, [r1, #24]
 355 0042 2CEA0202 		bic	r2, ip, r2
 356 0046 2264     		str	r2, [r4, #64]
 357 0048 43EA0E03 		orr	r3, r3, lr
 358 004c 226C     		ldr	r2, [r4, #64]
 359 004e 3343     		orrs	r3, r3, r6
 360 0050 0B43     		orrs	r3, r3, r1
 361 0052 1343     		orrs	r3, r3, r2
 362 0054 1F43     		orrs	r7, r7, r3
 363 0056 2764     		str	r7, [r4, #64]
 364 0058 236C     		ldr	r3, [r4, #64]
 365 005a 43F00403 		orr	r3, r3, #4
 366 005e 2364     		str	r3, [r4, #64]
 367 0060 E368     		ldr	r3, [r4, #12]
 368 0062 012D     		cmp	r5, #1
 369 0064 DBB2     		uxtb	r3, r3
 370 0066 0CBF     		ite	eq
 371 0068 63F40253 		orneq	r3, r3, #8320
 372 006c 63F48143 		ornne	r3, r3, #16512
 373 0070 E360     		str	r3, [r4, #12]
 374 0072 094B     		ldr	r3, .L53
 375 0074 1A68     		ldr	r2, [r3]
 376 0076 42F40012 		orr	r2, r2, #2097152
 377 007a 1A60     		str	r2, [r3]
 378 007c 9A68     		ldr	r2, [r3, #8]
 379 007e 0021     		movs	r1, #0
 380 0080 0124     		movs	r4, #1
 381 0082 42F40012 		orr	r2, r2, #2097152
 382 0086 9A60     		str	r2, [r3, #8]
 383 0088 4477     		strb	r4, [r0, #29]
 384 008a 0177     		strb	r1, [r0, #28]
 385 008c 0846     		mov	r0, r1
 386 008e F0BD     		pop	{r4, r5, r6, r7, pc}
 387              	.L45:
 388 0090 0223     		movs	r3, #2
 389 0092 1846     		mov	r0, r3
 390 0094 7047     		bx	lr
 391              	.L54:
 392 0096 00BF     		.align	2
 393              	.L53:
 394 0098 003C0140 		.word	1073822720
 396              		.section	.text.HAL_RTCEx_DeactivateTamper,"ax",%progbits
 397              		.align	1
 398              		.p2align 2,,3
 399              		.global	HAL_RTCEx_DeactivateTamper
 400              		.syntax unified
 401              		.thumb
 402              		.thumb_func
 403              		.fpu fpv4-sp-d16
 405              	HAL_RTCEx_DeactivateTamper:
 406              		@ args = 0, pretend = 0, frame = 0
 407              		@ frame_needed = 0, uses_anonymous_args = 0
 408              		@ link register save eliminated.
 409 0000 0346     		mov	r3, r0
 410 0002 007F     		ldrb	r0, [r0, #28]	@ zero_extendqisi2
 411 0004 0128     		cmp	r0, #1
 412 0006 0FD0     		beq	.L57
ARM GAS  D:\Programs\cygwin64\tmp\ccNUFnFj.s 			page 8


 413 0008 1868     		ldr	r0, [r3]
 414 000a 0222     		movs	r2, #2
 415 000c 10B4     		push	{r4}
 416 000e 5A77     		strb	r2, [r3, #29]
 417 0010 026C     		ldr	r2, [r0, #64]
 418 0012 0124     		movs	r4, #1
 419 0014 22EA0102 		bic	r2, r2, r1
 420 0018 0021     		movs	r1, #0
 421 001a 0264     		str	r2, [r0, #64]
 422 001c 0846     		mov	r0, r1
 423 001e 5C77     		strb	r4, [r3, #29]
 424 0020 1977     		strb	r1, [r3, #28]
 425 0022 5DF8044B 		ldr	r4, [sp], #4
 426 0026 7047     		bx	lr
 427              	.L57:
 428 0028 0220     		movs	r0, #2
 429 002a 7047     		bx	lr
 431              		.section	.text.HAL_RTCEx_TimeStampEventCallback,"ax",%progbits
 432              		.align	1
 433              		.p2align 2,,3
 434              		.weak	HAL_RTCEx_TimeStampEventCallback
 435              		.syntax unified
 436              		.thumb
 437              		.thumb_func
 438              		.fpu fpv4-sp-d16
 440              	HAL_RTCEx_TimeStampEventCallback:
 441              		@ args = 0, pretend = 0, frame = 0
 442              		@ frame_needed = 0, uses_anonymous_args = 0
 443              		@ link register save eliminated.
 444 0000 7047     		bx	lr
 446 0002 00BF     		.section	.text.HAL_RTCEx_Tamper1EventCallback,"ax",%progbits
 447              		.align	1
 448              		.p2align 2,,3
 449              		.weak	HAL_RTCEx_Tamper1EventCallback
 450              		.syntax unified
 451              		.thumb
 452              		.thumb_func
 453              		.fpu fpv4-sp-d16
 455              	HAL_RTCEx_Tamper1EventCallback:
 456              		@ args = 0, pretend = 0, frame = 0
 457              		@ frame_needed = 0, uses_anonymous_args = 0
 458              		@ link register save eliminated.
 459 0000 7047     		bx	lr
 461 0002 00BF     		.section	.text.HAL_RTCEx_Tamper2EventCallback,"ax",%progbits
 462              		.align	1
 463              		.p2align 2,,3
 464              		.weak	HAL_RTCEx_Tamper2EventCallback
 465              		.syntax unified
 466              		.thumb
 467              		.thumb_func
 468              		.fpu fpv4-sp-d16
 470              	HAL_RTCEx_Tamper2EventCallback:
 471              		@ args = 0, pretend = 0, frame = 0
 472              		@ frame_needed = 0, uses_anonymous_args = 0
 473              		@ link register save eliminated.
 474 0000 7047     		bx	lr
 476 0002 00BF     		.section	.text.HAL_RTCEx_TamperTimeStampIRQHandler,"ax",%progbits
ARM GAS  D:\Programs\cygwin64\tmp\ccNUFnFj.s 			page 9


 477              		.align	1
 478              		.p2align 2,,3
 479              		.global	HAL_RTCEx_TamperTimeStampIRQHandler
 480              		.syntax unified
 481              		.thumb
 482              		.thumb_func
 483              		.fpu fpv4-sp-d16
 485              	HAL_RTCEx_TamperTimeStampIRQHandler:
 486              		@ args = 0, pretend = 0, frame = 0
 487              		@ frame_needed = 0, uses_anonymous_args = 0
 488 0000 0368     		ldr	r3, [r0]
 489 0002 DA68     		ldr	r2, [r3, #12]
 490 0004 1105     		lsls	r1, r2, #20
 491 0006 10B5     		push	{r4, lr}
 492 0008 0446     		mov	r4, r0
 493 000a 02D5     		bpl	.L66
 494 000c 9A68     		ldr	r2, [r3, #8]
 495 000e 1204     		lsls	r2, r2, #16
 496 0010 1CD4     		bmi	.L88
 497              	.L66:
 498 0012 DA68     		ldr	r2, [r3, #12]
 499 0014 9004     		lsls	r0, r2, #18
 500 0016 02D5     		bpl	.L67
 501 0018 1A6C     		ldr	r2, [r3, #64]
 502 001a 5107     		lsls	r1, r2, #29
 503 001c 1FD4     		bmi	.L89
 504              	.L67:
 505 001e DA68     		ldr	r2, [r3, #12]
 506 0020 5204     		lsls	r2, r2, #17
 507 0022 02D5     		bpl	.L68
 508 0024 1B6C     		ldr	r3, [r3, #64]
 509 0026 5B07     		lsls	r3, r3, #29
 510 0028 06D4     		bmi	.L90
 511              	.L68:
 512 002a 124A     		ldr	r2, .L91
 513 002c 4FF40011 		mov	r1, #2097152
 514 0030 0123     		movs	r3, #1
 515 0032 5161     		str	r1, [r2, #20]
 516 0034 6377     		strb	r3, [r4, #29]
 517 0036 10BD     		pop	{r4, pc}
 518              	.L90:
 519 0038 2046     		mov	r0, r4
 520 003a FFF7FEFF 		bl	HAL_RTCEx_Tamper2EventCallback
 521 003e 2268     		ldr	r2, [r4]
 522 0040 D368     		ldr	r3, [r2, #12]
 523 0042 DBB2     		uxtb	r3, r3
 524 0044 63F48143 		orn	r3, r3, #16512
 525 0048 D360     		str	r3, [r2, #12]
 526 004a EEE7     		b	.L68
 527              	.L88:
 528 004c FFF7FEFF 		bl	HAL_RTCEx_TimeStampEventCallback
 529 0050 2368     		ldr	r3, [r4]
 530 0052 DA68     		ldr	r2, [r3, #12]
 531 0054 D2B2     		uxtb	r2, r2
 532 0056 62F40862 		orn	r2, r2, #2176
 533 005a DA60     		str	r2, [r3, #12]
 534 005c D9E7     		b	.L66
ARM GAS  D:\Programs\cygwin64\tmp\ccNUFnFj.s 			page 10


 535              	.L89:
 536 005e 2046     		mov	r0, r4
 537 0060 FFF7FEFF 		bl	HAL_RTCEx_Tamper1EventCallback
 538 0064 2368     		ldr	r3, [r4]
 539 0066 DA68     		ldr	r2, [r3, #12]
 540 0068 D2B2     		uxtb	r2, r2
 541 006a 62F40252 		orn	r2, r2, #8320
 542 006e DA60     		str	r2, [r3, #12]
 543 0070 D5E7     		b	.L67
 544              	.L92:
 545 0072 00BF     		.align	2
 546              	.L91:
 547 0074 003C0140 		.word	1073822720
 549              		.section	.text.HAL_RTCEx_PollForTimeStampEvent,"ax",%progbits
 550              		.align	1
 551              		.p2align 2,,3
 552              		.global	HAL_RTCEx_PollForTimeStampEvent
 553              		.syntax unified
 554              		.thumb
 555              		.thumb_func
 556              		.fpu fpv4-sp-d16
 558              	HAL_RTCEx_PollForTimeStampEvent:
 559              		@ args = 0, pretend = 0, frame = 0
 560              		@ frame_needed = 0, uses_anonymous_args = 0
 561 0000 70B5     		push	{r4, r5, r6, lr}
 562 0002 0446     		mov	r4, r0
 563 0004 0D46     		mov	r5, r1
 564 0006 FFF7FEFF 		bl	HAL_GetTick
 565 000a 0646     		mov	r6, r0
 566              	.L94:
 567 000c 6A1C     		adds	r2, r5, #1
 568 000e 2368     		ldr	r3, [r4]
 569 0010 03D0     		beq	.L102
 570 0012 09E0     		b	.L99
 571              	.L105:
 572 0014 DA68     		ldr	r2, [r3, #12]
 573 0016 D104     		lsls	r1, r2, #19
 574 0018 15D4     		bmi	.L101
 575              	.L102:
 576 001a DA68     		ldr	r2, [r3, #12]
 577 001c 1005     		lsls	r0, r2, #20
 578 001e F9D5     		bpl	.L105
 579              	.L100:
 580 0020 0123     		movs	r3, #1
 581 0022 6377     		strb	r3, [r4, #29]
 582 0024 0020     		movs	r0, #0
 583 0026 70BD     		pop	{r4, r5, r6, pc}
 584              	.L99:
 585 0028 DA68     		ldr	r2, [r3, #12]
 586 002a 1205     		lsls	r2, r2, #20
 587 002c F8D4     		bmi	.L100
 588 002e DA68     		ldr	r2, [r3, #12]
 589 0030 D104     		lsls	r1, r2, #19
 590 0032 08D4     		bmi	.L101
 591 0034 25B1     		cbz	r5, .L98
 592 0036 FFF7FEFF 		bl	HAL_GetTick
 593 003a 801B     		subs	r0, r0, r6
ARM GAS  D:\Programs\cygwin64\tmp\ccNUFnFj.s 			page 11


 594 003c A842     		cmp	r0, r5
 595 003e E5D9     		bls	.L94
 596              	.L98:
 597 0040 0320     		movs	r0, #3
 598 0042 6077     		strb	r0, [r4, #29]
 599 0044 70BD     		pop	{r4, r5, r6, pc}
 600              	.L101:
 601 0046 DA68     		ldr	r2, [r3, #12]
 602 0048 D2B2     		uxtb	r2, r2
 603 004a 62F48452 		orn	r2, r2, #4224
 604 004e 0421     		movs	r1, #4
 605 0050 DA60     		str	r2, [r3, #12]
 606 0052 0120     		movs	r0, #1
 607 0054 6177     		strb	r1, [r4, #29]
 608 0056 70BD     		pop	{r4, r5, r6, pc}
 610              		.section	.text.HAL_RTCEx_PollForTamper1Event,"ax",%progbits
 611              		.align	1
 612              		.p2align 2,,3
 613              		.global	HAL_RTCEx_PollForTamper1Event
 614              		.syntax unified
 615              		.thumb
 616              		.thumb_func
 617              		.fpu fpv4-sp-d16
 619              	HAL_RTCEx_PollForTamper1Event:
 620              		@ args = 0, pretend = 0, frame = 0
 621              		@ frame_needed = 0, uses_anonymous_args = 0
 622 0000 70B5     		push	{r4, r5, r6, lr}
 623 0002 0546     		mov	r5, r0
 624 0004 0C46     		mov	r4, r1
 625 0006 FFF7FEFF 		bl	HAL_GetTick
 626 000a 0646     		mov	r6, r0
 627              	.L107:
 628 000c 601C     		adds	r0, r4, #1
 629 000e 2A68     		ldr	r2, [r5]
 630 0010 0BD1     		bne	.L111
 631              	.L112:
 632 0012 D368     		ldr	r3, [r2, #12]
 633 0014 9904     		lsls	r1, r3, #18
 634 0016 FCD5     		bpl	.L112
 635              	.L113:
 636 0018 D368     		ldr	r3, [r2, #12]
 637 001a DBB2     		uxtb	r3, r3
 638 001c 63F40253 		orn	r3, r3, #8320
 639 0020 0121     		movs	r1, #1
 640 0022 D360     		str	r3, [r2, #12]
 641 0024 0020     		movs	r0, #0
 642 0026 6977     		strb	r1, [r5, #29]
 643 0028 70BD     		pop	{r4, r5, r6, pc}
 644              	.L111:
 645 002a D368     		ldr	r3, [r2, #12]
 646 002c 9B04     		lsls	r3, r3, #18
 647 002e F3D4     		bmi	.L113
 648 0030 24B1     		cbz	r4, .L110
 649 0032 FFF7FEFF 		bl	HAL_GetTick
 650 0036 801B     		subs	r0, r0, r6
 651 0038 A042     		cmp	r0, r4
 652 003a E7D9     		bls	.L107
ARM GAS  D:\Programs\cygwin64\tmp\ccNUFnFj.s 			page 12


 653              	.L110:
 654 003c 0320     		movs	r0, #3
 655 003e 6877     		strb	r0, [r5, #29]
 656 0040 70BD     		pop	{r4, r5, r6, pc}
 658 0042 00BF     		.section	.text.HAL_RTCEx_PollForTamper2Event,"ax",%progbits
 659              		.align	1
 660              		.p2align 2,,3
 661              		.global	HAL_RTCEx_PollForTamper2Event
 662              		.syntax unified
 663              		.thumb
 664              		.thumb_func
 665              		.fpu fpv4-sp-d16
 667              	HAL_RTCEx_PollForTamper2Event:
 668              		@ args = 0, pretend = 0, frame = 0
 669              		@ frame_needed = 0, uses_anonymous_args = 0
 670 0000 70B5     		push	{r4, r5, r6, lr}
 671 0002 0546     		mov	r5, r0
 672 0004 0C46     		mov	r4, r1
 673 0006 FFF7FEFF 		bl	HAL_GetTick
 674 000a 0646     		mov	r6, r0
 675              	.L119:
 676 000c 601C     		adds	r0, r4, #1
 677 000e 2A68     		ldr	r2, [r5]
 678 0010 0BD1     		bne	.L123
 679              	.L124:
 680 0012 D368     		ldr	r3, [r2, #12]
 681 0014 5904     		lsls	r1, r3, #17
 682 0016 FCD5     		bpl	.L124
 683              	.L125:
 684 0018 D368     		ldr	r3, [r2, #12]
 685 001a DBB2     		uxtb	r3, r3
 686 001c 63F48143 		orn	r3, r3, #16512
 687 0020 0121     		movs	r1, #1
 688 0022 D360     		str	r3, [r2, #12]
 689 0024 0020     		movs	r0, #0
 690 0026 6977     		strb	r1, [r5, #29]
 691 0028 70BD     		pop	{r4, r5, r6, pc}
 692              	.L123:
 693 002a D368     		ldr	r3, [r2, #12]
 694 002c 5B04     		lsls	r3, r3, #17
 695 002e F3D4     		bmi	.L125
 696 0030 24B1     		cbz	r4, .L122
 697 0032 FFF7FEFF 		bl	HAL_GetTick
 698 0036 801B     		subs	r0, r0, r6
 699 0038 A042     		cmp	r0, r4
 700 003a E7D9     		bls	.L119
 701              	.L122:
 702 003c 0320     		movs	r0, #3
 703 003e 6877     		strb	r0, [r5, #29]
 704 0040 70BD     		pop	{r4, r5, r6, pc}
 706 0042 00BF     		.section	.text.HAL_RTCEx_SetWakeUpTimer,"ax",%progbits
 707              		.align	1
 708              		.p2align 2,,3
 709              		.global	HAL_RTCEx_SetWakeUpTimer
 710              		.syntax unified
 711              		.thumb
 712              		.thumb_func
ARM GAS  D:\Programs\cygwin64\tmp\ccNUFnFj.s 			page 13


 713              		.fpu fpv4-sp-d16
 715              	HAL_RTCEx_SetWakeUpTimer:
 716              		@ args = 0, pretend = 0, frame = 0
 717              		@ frame_needed = 0, uses_anonymous_args = 0
 718 0000 037F     		ldrb	r3, [r0, #28]	@ zero_extendqisi2
 719 0002 012B     		cmp	r3, #1
 720 0004 5AD0     		beq	.L137
 721 0006 2DE9F041 		push	{r4, r5, r6, r7, r8, lr}
 722 000a 0368     		ldr	r3, [r0]
 723 000c 1746     		mov	r7, r2
 724 000e 0E46     		mov	r6, r1
 725 0010 0222     		movs	r2, #2
 726 0012 0121     		movs	r1, #1
 727 0014 4277     		strb	r2, [r0, #29]
 728 0016 0177     		strb	r1, [r0, #28]
 729 0018 5322     		movs	r2, #83
 730 001a CA21     		movs	r1, #202
 731 001c 5962     		str	r1, [r3, #36]
 732 001e 5A62     		str	r2, [r3, #36]
 733 0020 9A68     		ldr	r2, [r3, #8]
 734 0022 5105     		lsls	r1, r2, #21
 735 0024 0546     		mov	r5, r0
 736 0026 0DD5     		bpl	.L132
 737 0028 FFF7FEFF 		bl	HAL_GetTick
 738 002c 0446     		mov	r4, r0
 739 002e 05E0     		b	.L133
 740              	.L134:
 741 0030 FFF7FEFF 		bl	HAL_GetTick
 742 0034 001B     		subs	r0, r0, r4
 743 0036 B0F57A7F 		cmp	r0, #1000
 744 003a 35D8     		bhi	.L147
 745              	.L133:
 746 003c 2B68     		ldr	r3, [r5]
 747 003e DA68     		ldr	r2, [r3, #12]
 748 0040 5207     		lsls	r2, r2, #29
 749 0042 F5D4     		bmi	.L134
 750              	.L132:
 751 0044 9A68     		ldr	r2, [r3, #8]
 752 0046 22F48062 		bic	r2, r2, #1024
 753 004a 9A60     		str	r2, [r3, #8]
 754 004c FFF7FEFF 		bl	HAL_GetTick
 755 0050 8046     		mov	r8, r0
 756 0052 06E0     		b	.L135
 757              	.L136:
 758 0054 FFF7FEFF 		bl	HAL_GetTick
 759 0058 A0EB0800 		sub	r0, r0, r8
 760 005c B0F57A7F 		cmp	r0, #1000
 761 0060 19D8     		bhi	.L148
 762              	.L135:
 763 0062 2868     		ldr	r0, [r5]
 764 0064 C468     		ldr	r4, [r0, #12]
 765 0066 14F00404 		ands	r4, r4, #4
 766 006a F3D0     		beq	.L136
 767 006c 8368     		ldr	r3, [r0, #8]
 768 006e 23F00703 		bic	r3, r3, #7
 769 0072 8360     		str	r3, [r0, #8]
 770 0074 8368     		ldr	r3, [r0, #8]
ARM GAS  D:\Programs\cygwin64\tmp\ccNUFnFj.s 			page 14


 771 0076 1F43     		orrs	r7, r7, r3
 772 0078 8760     		str	r7, [r0, #8]
 773 007a 4661     		str	r6, [r0, #20]
 774 007c 8368     		ldr	r3, [r0, #8]
 775 007e 0022     		movs	r2, #0
 776 0080 FF24     		movs	r4, #255
 777 0082 43F48063 		orr	r3, r3, #1024
 778 0086 0121     		movs	r1, #1
 779 0088 8360     		str	r3, [r0, #8]
 780 008a 4462     		str	r4, [r0, #36]
 781 008c 1046     		mov	r0, r2
 782 008e 6977     		strb	r1, [r5, #29]
 783 0090 2A77     		strb	r2, [r5, #28]
 784 0092 BDE8F081 		pop	{r4, r5, r6, r7, r8, pc}
 785              	.L148:
 786 0096 2A68     		ldr	r2, [r5]
 787 0098 0323     		movs	r3, #3
 788 009a FF21     		movs	r1, #255
 789 009c 5162     		str	r1, [r2, #36]
 790 009e 1846     		mov	r0, r3
 791 00a0 2C77     		strb	r4, [r5, #28]
 792 00a2 6B77     		strb	r3, [r5, #29]
 793 00a4 BDE8F081 		pop	{r4, r5, r6, r7, r8, pc}
 794              	.L147:
 795 00a8 2968     		ldr	r1, [r5]
 796 00aa 0323     		movs	r3, #3
 797 00ac FF20     		movs	r0, #255
 798 00ae 0022     		movs	r2, #0
 799 00b0 4862     		str	r0, [r1, #36]
 800 00b2 1846     		mov	r0, r3
 801 00b4 6B77     		strb	r3, [r5, #29]
 802 00b6 2A77     		strb	r2, [r5, #28]
 803 00b8 BDE8F081 		pop	{r4, r5, r6, r7, r8, pc}
 804              	.L137:
 805 00bc 0220     		movs	r0, #2
 806 00be 7047     		bx	lr
 808              		.section	.text.HAL_RTCEx_SetWakeUpTimer_IT,"ax",%progbits
 809              		.align	1
 810              		.p2align 2,,3
 811              		.global	HAL_RTCEx_SetWakeUpTimer_IT
 812              		.syntax unified
 813              		.thumb
 814              		.thumb_func
 815              		.fpu fpv4-sp-d16
 817              	HAL_RTCEx_SetWakeUpTimer_IT:
 818              		@ args = 0, pretend = 0, frame = 8
 819              		@ frame_needed = 0, uses_anonymous_args = 0
 820              		@ link register save eliminated.
 821 0000 037F     		ldrb	r3, [r0, #28]	@ zero_extendqisi2
 822 0002 012B     		cmp	r3, #1
 823 0004 63D0     		beq	.L157
 824 0006 70B4     		push	{r4, r5, r6}
 825 0008 0126     		movs	r6, #1
 826 000a 0368     		ldr	r3, [r0]
 827 000c 0677     		strb	r6, [r0, #28]
 828 000e 314C     		ldr	r4, .L167
 829 0010 314D     		ldr	r5, .L167+4
ARM GAS  D:\Programs\cygwin64\tmp\ccNUFnFj.s 			page 15


 830 0012 2468     		ldr	r4, [r4]
 831 0014 0226     		movs	r6, #2
 832 0016 4677     		strb	r6, [r0, #29]
 833 0018 CA26     		movs	r6, #202
 834 001a 5E62     		str	r6, [r3, #36]
 835 001c 5326     		movs	r6, #83
 836 001e 5E62     		str	r6, [r3, #36]
 837 0020 A5FB0454 		umull	r5, r4, r5, r4
 838 0024 9D68     		ldr	r5, [r3, #8]
 839 0026 E40A     		lsrs	r4, r4, #11
 840 0028 4FF47A76 		mov	r6, #1000
 841 002c 06FB04F6 		mul	r6, r6, r4
 842 0030 6C05     		lsls	r4, r5, #21
 843 0032 83B0     		sub	sp, sp, #12
 844 0034 13D5     		bpl	.L155
 845 0036 0196     		str	r6, [sp, #4]
 846 0038 02E0     		b	.L154
 847              	.L153:
 848 003a DC68     		ldr	r4, [r3, #12]
 849 003c 6507     		lsls	r5, r4, #29
 850 003e 0ED5     		bpl	.L155
 851              	.L154:
 852 0040 019C     		ldr	r4, [sp, #4]
 853 0042 651E     		subs	r5, r4, #1
 854 0044 0195     		str	r5, [sp, #4]
 855 0046 002C     		cmp	r4, #0
 856 0048 F7D1     		bne	.L153
 857              	.L165:
 858 004a 0322     		movs	r2, #3
 859 004c FF21     		movs	r1, #255
 860 004e 5962     		str	r1, [r3, #36]
 861 0050 1346     		mov	r3, r2
 862 0052 0477     		strb	r4, [r0, #28]
 863 0054 4277     		strb	r2, [r0, #29]
 864 0056 1846     		mov	r0, r3
 865 0058 03B0     		add	sp, sp, #12
 866              		@ sp needed
 867 005a 70BC     		pop	{r4, r5, r6}
 868 005c 7047     		bx	lr
 869              	.L155:
 870 005e 9C68     		ldr	r4, [r3, #8]
 871 0060 24F48064 		bic	r4, r4, #1024
 872 0064 9C60     		str	r4, [r3, #8]
 873 0066 0196     		str	r6, [sp, #4]
 874 0068 02E0     		b	.L152
 875              	.L156:
 876 006a DC68     		ldr	r4, [r3, #12]
 877 006c 6407     		lsls	r4, r4, #29
 878 006e 05D4     		bmi	.L166
 879              	.L152:
 880 0070 019C     		ldr	r4, [sp, #4]
 881 0072 651E     		subs	r5, r4, #1
 882 0074 0195     		str	r5, [sp, #4]
 883 0076 002C     		cmp	r4, #0
 884 0078 F7D1     		bne	.L156
 885 007a E6E7     		b	.L165
 886              	.L166:
ARM GAS  D:\Programs\cygwin64\tmp\ccNUFnFj.s 			page 16


 887 007c 5961     		str	r1, [r3, #20]
 888 007e 9C68     		ldr	r4, [r3, #8]
 889 0080 1649     		ldr	r1, .L167+8
 890 0082 24F00704 		bic	r4, r4, #7
 891 0086 9C60     		str	r4, [r3, #8]
 892 0088 9C68     		ldr	r4, [r3, #8]
 893 008a 2243     		orrs	r2, r2, r4
 894 008c 9A60     		str	r2, [r3, #8]
 895 008e 0A68     		ldr	r2, [r1]
 896 0090 42F48002 		orr	r2, r2, #4194304
 897 0094 0A60     		str	r2, [r1]
 898 0096 8A68     		ldr	r2, [r1, #8]
 899 0098 42F48002 		orr	r2, r2, #4194304
 900 009c 8A60     		str	r2, [r1, #8]
 901 009e DA68     		ldr	r2, [r3, #12]
 902 00a0 D2B2     		uxtb	r2, r2
 903 00a2 62F49062 		orn	r2, r2, #1152
 904 00a6 DA60     		str	r2, [r3, #12]
 905 00a8 9A68     		ldr	r2, [r3, #8]
 906 00aa 42F48042 		orr	r2, r2, #16384
 907 00ae 9A60     		str	r2, [r3, #8]
 908 00b0 9A68     		ldr	r2, [r3, #8]
 909 00b2 0021     		movs	r1, #0
 910 00b4 FF25     		movs	r5, #255
 911 00b6 42F48062 		orr	r2, r2, #1024
 912 00ba 9A60     		str	r2, [r3, #8]
 913 00bc 0124     		movs	r4, #1
 914 00be 5D62     		str	r5, [r3, #36]
 915 00c0 0B46     		mov	r3, r1
 916 00c2 4477     		strb	r4, [r0, #29]
 917 00c4 0177     		strb	r1, [r0, #28]
 918 00c6 1846     		mov	r0, r3
 919 00c8 03B0     		add	sp, sp, #12
 920              		@ sp needed
 921 00ca 70BC     		pop	{r4, r5, r6}
 922 00cc 7047     		bx	lr
 923              	.L157:
 924 00ce 0223     		movs	r3, #2
 925 00d0 1846     		mov	r0, r3
 926 00d2 7047     		bx	lr
 927              	.L168:
 928              		.align	2
 929              	.L167:
 930 00d4 00000000 		.word	SystemCoreClock
 931 00d8 D34D6210 		.word	274877907
 932 00dc 003C0140 		.word	1073822720
 934              		.section	.text.HAL_RTCEx_DeactivateWakeUpTimer,"ax",%progbits
 935              		.align	1
 936              		.p2align 2,,3
 937              		.global	HAL_RTCEx_DeactivateWakeUpTimer
 938              		.syntax unified
 939              		.thumb
 940              		.thumb_func
 941              		.fpu fpv4-sp-d16
 943              	HAL_RTCEx_DeactivateWakeUpTimer:
 944              		@ args = 0, pretend = 0, frame = 0
 945              		@ frame_needed = 0, uses_anonymous_args = 0
ARM GAS  D:\Programs\cygwin64\tmp\ccNUFnFj.s 			page 17


 946 0000 037F     		ldrb	r3, [r0, #28]	@ zero_extendqisi2
 947 0002 012B     		cmp	r3, #1
 948 0004 31D0     		beq	.L173
 949 0006 70B5     		push	{r4, r5, r6, lr}
 950 0008 0368     		ldr	r3, [r0]
 951 000a 0546     		mov	r5, r0
 952 000c CA21     		movs	r1, #202
 953 000e 0220     		movs	r0, #2
 954 0010 5322     		movs	r2, #83
 955 0012 0124     		movs	r4, #1
 956 0014 6877     		strb	r0, [r5, #29]
 957 0016 2C77     		strb	r4, [r5, #28]
 958 0018 5962     		str	r1, [r3, #36]
 959 001a 5A62     		str	r2, [r3, #36]
 960 001c 9A68     		ldr	r2, [r3, #8]
 961 001e 22F48062 		bic	r2, r2, #1024
 962 0022 9A60     		str	r2, [r3, #8]
 963 0024 9A68     		ldr	r2, [r3, #8]
 964 0026 22F48042 		bic	r2, r2, #16384
 965 002a 9A60     		str	r2, [r3, #8]
 966 002c FFF7FEFF 		bl	HAL_GetTick
 967 0030 0646     		mov	r6, r0
 968 0032 05E0     		b	.L171
 969              	.L172:
 970 0034 FFF7FEFF 		bl	HAL_GetTick
 971 0038 801B     		subs	r0, r0, r6
 972 003a B0F57A7F 		cmp	r0, #1000
 973 003e 0CD8     		bhi	.L179
 974              	.L171:
 975 0040 2A68     		ldr	r2, [r5]
 976 0042 D468     		ldr	r4, [r2, #12]
 977 0044 14F00404 		ands	r4, r4, #4
 978 0048 F4D0     		beq	.L172
 979 004a 0023     		movs	r3, #0
 980 004c FF20     		movs	r0, #255
 981 004e 0121     		movs	r1, #1
 982 0050 5062     		str	r0, [r2, #36]
 983 0052 1846     		mov	r0, r3
 984 0054 6977     		strb	r1, [r5, #29]
 985 0056 2B77     		strb	r3, [r5, #28]
 986 0058 70BD     		pop	{r4, r5, r6, pc}
 987              	.L179:
 988 005a 2A68     		ldr	r2, [r5]
 989 005c 0323     		movs	r3, #3
 990 005e FF21     		movs	r1, #255
 991 0060 5162     		str	r1, [r2, #36]
 992 0062 1846     		mov	r0, r3
 993 0064 2C77     		strb	r4, [r5, #28]
 994 0066 6B77     		strb	r3, [r5, #29]
 995 0068 70BD     		pop	{r4, r5, r6, pc}
 996              	.L173:
 997 006a 0220     		movs	r0, #2
 998 006c 7047     		bx	lr
 1000 006e 00BF     		.section	.text.HAL_RTCEx_GetWakeUpTimer,"ax",%progbits
 1001              		.align	1
 1002              		.p2align 2,,3
 1003              		.global	HAL_RTCEx_GetWakeUpTimer
ARM GAS  D:\Programs\cygwin64\tmp\ccNUFnFj.s 			page 18


 1004              		.syntax unified
 1005              		.thumb
 1006              		.thumb_func
 1007              		.fpu fpv4-sp-d16
 1009              	HAL_RTCEx_GetWakeUpTimer:
 1010              		@ args = 0, pretend = 0, frame = 0
 1011              		@ frame_needed = 0, uses_anonymous_args = 0
 1012              		@ link register save eliminated.
 1013 0000 0368     		ldr	r3, [r0]
 1014 0002 5869     		ldr	r0, [r3, #20]
 1015 0004 80B2     		uxth	r0, r0
 1016 0006 7047     		bx	lr
 1018              		.section	.text.HAL_RTCEx_WakeUpTimerEventCallback,"ax",%progbits
 1019              		.align	1
 1020              		.p2align 2,,3
 1021              		.weak	HAL_RTCEx_WakeUpTimerEventCallback
 1022              		.syntax unified
 1023              		.thumb
 1024              		.thumb_func
 1025              		.fpu fpv4-sp-d16
 1027              	HAL_RTCEx_WakeUpTimerEventCallback:
 1028              		@ args = 0, pretend = 0, frame = 0
 1029              		@ frame_needed = 0, uses_anonymous_args = 0
 1030              		@ link register save eliminated.
 1031 0000 7047     		bx	lr
 1033 0002 00BF     		.section	.text.HAL_RTCEx_WakeUpTimerIRQHandler,"ax",%progbits
 1034              		.align	1
 1035              		.p2align 2,,3
 1036              		.global	HAL_RTCEx_WakeUpTimerIRQHandler
 1037              		.syntax unified
 1038              		.thumb
 1039              		.thumb_func
 1040              		.fpu fpv4-sp-d16
 1042              	HAL_RTCEx_WakeUpTimerIRQHandler:
 1043              		@ args = 0, pretend = 0, frame = 0
 1044              		@ frame_needed = 0, uses_anonymous_args = 0
 1045 0000 0368     		ldr	r3, [r0]
 1046 0002 DA68     		ldr	r2, [r3, #12]
 1047 0004 5205     		lsls	r2, r2, #21
 1048 0006 10B5     		push	{r4, lr}
 1049 0008 0446     		mov	r4, r0
 1050 000a 02D5     		bpl	.L183
 1051 000c 9B68     		ldr	r3, [r3, #8]
 1052 000e 5B04     		lsls	r3, r3, #17
 1053 0010 06D4     		bmi	.L191
 1054              	.L183:
 1055 0012 084A     		ldr	r2, .L192
 1056 0014 4FF48001 		mov	r1, #4194304
 1057 0018 0123     		movs	r3, #1
 1058 001a 5161     		str	r1, [r2, #20]
 1059 001c 6377     		strb	r3, [r4, #29]
 1060 001e 10BD     		pop	{r4, pc}
 1061              	.L191:
 1062 0020 FFF7FEFF 		bl	HAL_RTCEx_WakeUpTimerEventCallback
 1063 0024 2268     		ldr	r2, [r4]
 1064 0026 D368     		ldr	r3, [r2, #12]
 1065 0028 DBB2     		uxtb	r3, r3
ARM GAS  D:\Programs\cygwin64\tmp\ccNUFnFj.s 			page 19


 1066 002a 63F49063 		orn	r3, r3, #1152
 1067 002e D360     		str	r3, [r2, #12]
 1068 0030 EFE7     		b	.L183
 1069              	.L193:
 1070 0032 00BF     		.align	2
 1071              	.L192:
 1072 0034 003C0140 		.word	1073822720
 1074              		.section	.text.HAL_RTCEx_PollForWakeUpTimerEvent,"ax",%progbits
 1075              		.align	1
 1076              		.p2align 2,,3
 1077              		.global	HAL_RTCEx_PollForWakeUpTimerEvent
 1078              		.syntax unified
 1079              		.thumb
 1080              		.thumb_func
 1081              		.fpu fpv4-sp-d16
 1083              	HAL_RTCEx_PollForWakeUpTimerEvent:
 1084              		@ args = 0, pretend = 0, frame = 0
 1085              		@ frame_needed = 0, uses_anonymous_args = 0
 1086 0000 70B5     		push	{r4, r5, r6, lr}
 1087 0002 0546     		mov	r5, r0
 1088 0004 0C46     		mov	r4, r1
 1089 0006 FFF7FEFF 		bl	HAL_GetTick
 1090 000a 0646     		mov	r6, r0
 1091              	.L195:
 1092 000c 601C     		adds	r0, r4, #1
 1093 000e 2A68     		ldr	r2, [r5]
 1094 0010 0BD1     		bne	.L199
 1095              	.L200:
 1096 0012 D368     		ldr	r3, [r2, #12]
 1097 0014 5905     		lsls	r1, r3, #21
 1098 0016 FCD5     		bpl	.L200
 1099              	.L201:
 1100 0018 D368     		ldr	r3, [r2, #12]
 1101 001a DBB2     		uxtb	r3, r3
 1102 001c 63F49063 		orn	r3, r3, #1152
 1103 0020 0121     		movs	r1, #1
 1104 0022 D360     		str	r3, [r2, #12]
 1105 0024 0020     		movs	r0, #0
 1106 0026 6977     		strb	r1, [r5, #29]
 1107 0028 70BD     		pop	{r4, r5, r6, pc}
 1108              	.L199:
 1109 002a D368     		ldr	r3, [r2, #12]
 1110 002c 5B05     		lsls	r3, r3, #21
 1111 002e F3D4     		bmi	.L201
 1112 0030 24B1     		cbz	r4, .L198
 1113 0032 FFF7FEFF 		bl	HAL_GetTick
 1114 0036 801B     		subs	r0, r0, r6
 1115 0038 A042     		cmp	r0, r4
 1116 003a E7D9     		bls	.L195
 1117              	.L198:
 1118 003c 0320     		movs	r0, #3
 1119 003e 6877     		strb	r0, [r5, #29]
 1120 0040 70BD     		pop	{r4, r5, r6, pc}
 1122 0042 00BF     		.section	.text.HAL_RTCEx_BKUPWrite,"ax",%progbits
 1123              		.align	1
 1124              		.p2align 2,,3
 1125              		.global	HAL_RTCEx_BKUPWrite
ARM GAS  D:\Programs\cygwin64\tmp\ccNUFnFj.s 			page 20


 1126              		.syntax unified
 1127              		.thumb
 1128              		.thumb_func
 1129              		.fpu fpv4-sp-d16
 1131              	HAL_RTCEx_BKUPWrite:
 1132              		@ args = 0, pretend = 0, frame = 0
 1133              		@ frame_needed = 0, uses_anonymous_args = 0
 1134              		@ link register save eliminated.
 1135 0000 0368     		ldr	r3, [r0]
 1136 0002 5033     		adds	r3, r3, #80
 1137 0004 43F82120 		str	r2, [r3, r1, lsl #2]
 1138 0008 7047     		bx	lr
 1140 000a 00BF     		.section	.text.HAL_RTCEx_BKUPRead,"ax",%progbits
 1141              		.align	1
 1142              		.p2align 2,,3
 1143              		.global	HAL_RTCEx_BKUPRead
 1144              		.syntax unified
 1145              		.thumb
 1146              		.thumb_func
 1147              		.fpu fpv4-sp-d16
 1149              	HAL_RTCEx_BKUPRead:
 1150              		@ args = 0, pretend = 0, frame = 0
 1151              		@ frame_needed = 0, uses_anonymous_args = 0
 1152              		@ link register save eliminated.
 1153 0000 0368     		ldr	r3, [r0]
 1154 0002 5033     		adds	r3, r3, #80
 1155 0004 53F82100 		ldr	r0, [r3, r1, lsl #2]
 1156 0008 7047     		bx	lr
 1158 000a 00BF     		.section	.text.HAL_RTCEx_SetCoarseCalib,"ax",%progbits
 1159              		.align	1
 1160              		.p2align 2,,3
 1161              		.global	HAL_RTCEx_SetCoarseCalib
 1162              		.syntax unified
 1163              		.thumb
 1164              		.thumb_func
 1165              		.fpu fpv4-sp-d16
 1167              	HAL_RTCEx_SetCoarseCalib:
 1168              		@ args = 0, pretend = 0, frame = 0
 1169              		@ frame_needed = 0, uses_anonymous_args = 0
 1170 0000 F8B5     		push	{r3, r4, r5, r6, r7, lr}
 1171 0002 037F     		ldrb	r3, [r0, #28]	@ zero_extendqisi2
 1172 0004 012B     		cmp	r3, #1
 1173 0006 27D0     		beq	.L211
 1174 0008 0368     		ldr	r3, [r0]
 1175 000a 1746     		mov	r7, r2
 1176 000c 0222     		movs	r2, #2
 1177 000e 4277     		strb	r2, [r0, #29]
 1178 0010 0D46     		mov	r5, r1
 1179 0012 0126     		movs	r6, #1
 1180 0014 CA21     		movs	r1, #202
 1181 0016 5322     		movs	r2, #83
 1182 0018 0677     		strb	r6, [r0, #28]
 1183 001a 5962     		str	r1, [r3, #36]
 1184 001c 5A62     		str	r2, [r3, #36]
 1185 001e 0446     		mov	r4, r0
 1186 0020 FFF7FEFF 		bl	RTC_EnterInitMode
 1187 0024 78B9     		cbnz	r0, .L213
ARM GAS  D:\Programs\cygwin64\tmp\ccNUFnFj.s 			page 21


 1188 0026 2368     		ldr	r3, [r4]
 1189 0028 9A68     		ldr	r2, [r3, #8]
 1190 002a 3D43     		orrs	r5, r5, r7
 1191 002c 42F08002 		orr	r2, r2, #128
 1192 0030 9A60     		str	r2, [r3, #8]
 1193 0032 9D61     		str	r5, [r3, #24]
 1194 0034 DA68     		ldr	r2, [r3, #12]
 1195 0036 FF21     		movs	r1, #255
 1196 0038 22F08002 		bic	r2, r2, #128
 1197 003c DA60     		str	r2, [r3, #12]
 1198 003e 5962     		str	r1, [r3, #36]
 1199 0040 6677     		strb	r6, [r4, #29]
 1200 0042 2077     		strb	r0, [r4, #28]
 1201 0044 F8BD     		pop	{r3, r4, r5, r6, r7, pc}
 1202              	.L213:
 1203 0046 2168     		ldr	r1, [r4]
 1204 0048 FF25     		movs	r5, #255
 1205 004a 0422     		movs	r2, #4
 1206 004c 0023     		movs	r3, #0
 1207 004e 4D62     		str	r5, [r1, #36]
 1208 0050 3046     		mov	r0, r6
 1209 0052 6277     		strb	r2, [r4, #29]
 1210 0054 2377     		strb	r3, [r4, #28]
 1211 0056 F8BD     		pop	{r3, r4, r5, r6, r7, pc}
 1212              	.L211:
 1213 0058 0220     		movs	r0, #2
 1214 005a F8BD     		pop	{r3, r4, r5, r6, r7, pc}
 1216              		.section	.text.HAL_RTCEx_DeactivateCoarseCalib,"ax",%progbits
 1217              		.align	1
 1218              		.p2align 2,,3
 1219              		.global	HAL_RTCEx_DeactivateCoarseCalib
 1220              		.syntax unified
 1221              		.thumb
 1222              		.thumb_func
 1223              		.fpu fpv4-sp-d16
 1225              	HAL_RTCEx_DeactivateCoarseCalib:
 1226              		@ args = 0, pretend = 0, frame = 0
 1227              		@ frame_needed = 0, uses_anonymous_args = 0
 1228 0000 037F     		ldrb	r3, [r0, #28]	@ zero_extendqisi2
 1229 0002 012B     		cmp	r3, #1
 1230 0004 24D0     		beq	.L217
 1231 0006 0368     		ldr	r3, [r0]
 1232 0008 0222     		movs	r2, #2
 1233 000a 70B5     		push	{r4, r5, r6, lr}
 1234 000c CA21     		movs	r1, #202
 1235 000e 4277     		strb	r2, [r0, #29]
 1236 0010 0125     		movs	r5, #1
 1237 0012 5322     		movs	r2, #83
 1238 0014 0577     		strb	r5, [r0, #28]
 1239 0016 5962     		str	r1, [r3, #36]
 1240 0018 5A62     		str	r2, [r3, #36]
 1241 001a 0446     		mov	r4, r0
 1242 001c FFF7FEFF 		bl	RTC_EnterInitMode
 1243 0020 68B9     		cbnz	r0, .L222
 1244 0022 2368     		ldr	r3, [r4]
 1245 0024 9A68     		ldr	r2, [r3, #8]
 1246 0026 22F08002 		bic	r2, r2, #128
ARM GAS  D:\Programs\cygwin64\tmp\ccNUFnFj.s 			page 22


 1247 002a 9A60     		str	r2, [r3, #8]
 1248 002c DA68     		ldr	r2, [r3, #12]
 1249 002e FF21     		movs	r1, #255
 1250 0030 22F08002 		bic	r2, r2, #128
 1251 0034 DA60     		str	r2, [r3, #12]
 1252 0036 5962     		str	r1, [r3, #36]
 1253 0038 6577     		strb	r5, [r4, #29]
 1254 003a 2077     		strb	r0, [r4, #28]
 1255 003c 70BD     		pop	{r4, r5, r6, pc}
 1256              	.L222:
 1257 003e 2168     		ldr	r1, [r4]
 1258 0040 FF26     		movs	r6, #255
 1259 0042 0422     		movs	r2, #4
 1260 0044 0023     		movs	r3, #0
 1261 0046 4E62     		str	r6, [r1, #36]
 1262 0048 2846     		mov	r0, r5
 1263 004a 6277     		strb	r2, [r4, #29]
 1264 004c 2377     		strb	r3, [r4, #28]
 1265 004e 70BD     		pop	{r4, r5, r6, pc}
 1266              	.L217:
 1267 0050 0220     		movs	r0, #2
 1268 0052 7047     		bx	lr
 1270              		.section	.text.HAL_RTCEx_SetSmoothCalib,"ax",%progbits
 1271              		.align	1
 1272              		.p2align 2,,3
 1273              		.global	HAL_RTCEx_SetSmoothCalib
 1274              		.syntax unified
 1275              		.thumb
 1276              		.thumb_func
 1277              		.fpu fpv4-sp-d16
 1279              	HAL_RTCEx_SetSmoothCalib:
 1280              		@ args = 0, pretend = 0, frame = 0
 1281              		@ frame_needed = 0, uses_anonymous_args = 0
 1282 0000 2DE9F843 		push	{r3, r4, r5, r6, r7, r8, r9, lr}
 1283 0004 047F     		ldrb	r4, [r0, #28]	@ zero_extendqisi2
 1284 0006 012C     		cmp	r4, #1
 1285 0008 34D0     		beq	.L228
 1286 000a 0446     		mov	r4, r0
 1287 000c 9846     		mov	r8, r3
 1288 000e 0068     		ldr	r0, [r0]
 1289 0010 0223     		movs	r3, #2
 1290 0012 1646     		mov	r6, r2
 1291 0014 0122     		movs	r2, #1
 1292 0016 6377     		strb	r3, [r4, #29]
 1293 0018 2277     		strb	r2, [r4, #28]
 1294 001a 5323     		movs	r3, #83
 1295 001c CA22     		movs	r2, #202
 1296 001e 4262     		str	r2, [r0, #36]
 1297 0020 4362     		str	r3, [r0, #36]
 1298 0022 C368     		ldr	r3, [r0, #12]
 1299 0024 DA03     		lsls	r2, r3, #15
 1300 0026 0F46     		mov	r7, r1
 1301 0028 0CD4     		bmi	.L234
 1302              	.L225:
 1303 002a 46EA0803 		orr	r3, r6, r8
 1304 002e 1F43     		orrs	r7, r7, r3
 1305 0030 FF25     		movs	r5, #255
ARM GAS  D:\Programs\cygwin64\tmp\ccNUFnFj.s 			page 23


 1306 0032 0023     		movs	r3, #0
 1307 0034 0122     		movs	r2, #1
 1308 0036 C763     		str	r7, [r0, #60]
 1309 0038 4562     		str	r5, [r0, #36]
 1310 003a 1846     		mov	r0, r3
 1311 003c 6277     		strb	r2, [r4, #29]
 1312 003e 2377     		strb	r3, [r4, #28]
 1313 0040 BDE8F883 		pop	{r3, r4, r5, r6, r7, r8, r9, pc}
 1314              	.L234:
 1315 0044 FFF7FEFF 		bl	HAL_GetTick
 1316 0048 8146     		mov	r9, r0
 1317              	.L226:
 1318 004a 2068     		ldr	r0, [r4]
 1319 004c C568     		ldr	r5, [r0, #12]
 1320 004e EB03     		lsls	r3, r5, #15
 1321 0050 EBD5     		bpl	.L225
 1322 0052 FFF7FEFF 		bl	HAL_GetTick
 1323 0056 A0EB0900 		sub	r0, r0, r9
 1324 005a B0F57A7F 		cmp	r0, #1000
 1325 005e F4D9     		bls	.L226
 1326 0060 2168     		ldr	r1, [r4]
 1327 0062 0323     		movs	r3, #3
 1328 0064 FF20     		movs	r0, #255
 1329 0066 0022     		movs	r2, #0
 1330 0068 4862     		str	r0, [r1, #36]
 1331 006a 1846     		mov	r0, r3
 1332 006c 6377     		strb	r3, [r4, #29]
 1333 006e 2277     		strb	r2, [r4, #28]
 1334 0070 BDE8F883 		pop	{r3, r4, r5, r6, r7, r8, r9, pc}
 1335              	.L228:
 1336 0074 0220     		movs	r0, #2
 1337 0076 BDE8F883 		pop	{r3, r4, r5, r6, r7, r8, r9, pc}
 1339 007a 00BF     		.section	.text.HAL_RTCEx_SetSynchroShift,"ax",%progbits
 1340              		.align	1
 1341              		.p2align 2,,3
 1342              		.global	HAL_RTCEx_SetSynchroShift
 1343              		.syntax unified
 1344              		.thumb
 1345              		.thumb_func
 1346              		.fpu fpv4-sp-d16
 1348              	HAL_RTCEx_SetSynchroShift:
 1349              		@ args = 0, pretend = 0, frame = 0
 1350              		@ frame_needed = 0, uses_anonymous_args = 0
 1351 0000 037F     		ldrb	r3, [r0, #28]	@ zero_extendqisi2
 1352 0002 012B     		cmp	r3, #1
 1353 0004 39D0     		beq	.L242
 1354 0006 2DE9F041 		push	{r4, r5, r6, r7, r8, lr}
 1355 000a 0368     		ldr	r3, [r0]
 1356 000c 1746     		mov	r7, r2
 1357 000e 8846     		mov	r8, r1
 1358 0010 0222     		movs	r2, #2
 1359 0012 0121     		movs	r1, #1
 1360 0014 0177     		strb	r1, [r0, #28]
 1361 0016 4277     		strb	r2, [r0, #29]
 1362 0018 CA21     		movs	r1, #202
 1363 001a 5322     		movs	r2, #83
 1364 001c 5962     		str	r1, [r3, #36]
ARM GAS  D:\Programs\cygwin64\tmp\ccNUFnFj.s 			page 24


 1365 001e 5A62     		str	r2, [r3, #36]
 1366 0020 0546     		mov	r5, r0
 1367 0022 FFF7FEFF 		bl	HAL_GetTick
 1368 0026 0646     		mov	r6, r0
 1369 0028 05E0     		b	.L237
 1370              	.L238:
 1371 002a FFF7FEFF 		bl	HAL_GetTick
 1372 002e 801B     		subs	r0, r0, r6
 1373 0030 B0F57A7F 		cmp	r0, #1000
 1374 0034 17D8     		bhi	.L248
 1375              	.L237:
 1376 0036 2C68     		ldr	r4, [r5]
 1377 0038 E368     		ldr	r3, [r4, #12]
 1378 003a 13F00803 		ands	r3, r3, #8
 1379 003e F4D1     		bne	.L238
 1380 0040 A268     		ldr	r2, [r4, #8]
 1381 0042 D206     		lsls	r2, r2, #27
 1382 0044 21D4     		bmi	.L239
 1383 0046 47EA0807 		orr	r7, r7, r8
 1384 004a E762     		str	r7, [r4, #44]
 1385 004c A668     		ldr	r6, [r4, #8]
 1386 004e 16F02006 		ands	r6, r6, #32
 1387 0052 14D0     		beq	.L249
 1388              	.L240:
 1389 0054 0023     		movs	r3, #0
 1390 0056 FF21     		movs	r1, #255
 1391 0058 0122     		movs	r2, #1
 1392 005a 6162     		str	r1, [r4, #36]
 1393 005c 1846     		mov	r0, r3
 1394 005e 6A77     		strb	r2, [r5, #29]
 1395 0060 2B77     		strb	r3, [r5, #28]
 1396              	.L236:
 1397 0062 BDE8F081 		pop	{r4, r5, r6, r7, r8, pc}
 1398              	.L248:
 1399 0066 2968     		ldr	r1, [r5]
 1400 0068 0323     		movs	r3, #3
 1401 006a FF20     		movs	r0, #255
 1402 006c 0022     		movs	r2, #0
 1403 006e 4862     		str	r0, [r1, #36]
 1404 0070 1846     		mov	r0, r3
 1405 0072 6B77     		strb	r3, [r5, #29]
 1406 0074 2A77     		strb	r2, [r5, #28]
 1407 0076 BDE8F081 		pop	{r4, r5, r6, r7, r8, pc}
 1408              	.L242:
 1409 007a 0220     		movs	r0, #2
 1410 007c 7047     		bx	lr
 1411              	.L249:
 1412 007e 2846     		mov	r0, r5
 1413 0080 FFF7FEFF 		bl	HAL_RTC_WaitForSynchro
 1414 0084 48B9     		cbnz	r0, .L241
 1415 0086 2C68     		ldr	r4, [r5]
 1416 0088 E4E7     		b	.L240
 1417              	.L239:
 1418 008a FF21     		movs	r1, #255
 1419 008c 0422     		movs	r2, #4
 1420 008e 6162     		str	r1, [r4, #36]
 1421 0090 0120     		movs	r0, #1
ARM GAS  D:\Programs\cygwin64\tmp\ccNUFnFj.s 			page 25


 1422 0092 2B77     		strb	r3, [r5, #28]
 1423 0094 6A77     		strb	r2, [r5, #29]
 1424 0096 BDE8F081 		pop	{r4, r5, r6, r7, r8, pc}
 1425              	.L241:
 1426 009a 2A68     		ldr	r2, [r5]
 1427 009c FF21     		movs	r1, #255
 1428 009e 0423     		movs	r3, #4
 1429 00a0 5162     		str	r1, [r2, #36]
 1430 00a2 0120     		movs	r0, #1
 1431 00a4 2E77     		strb	r6, [r5, #28]
 1432 00a6 6B77     		strb	r3, [r5, #29]
 1433 00a8 DBE7     		b	.L236
 1435 00aa 00BF     		.section	.text.HAL_RTCEx_SetCalibrationOutPut,"ax",%progbits
 1436              		.align	1
 1437              		.p2align 2,,3
 1438              		.global	HAL_RTCEx_SetCalibrationOutPut
 1439              		.syntax unified
 1440              		.thumb
 1441              		.thumb_func
 1442              		.fpu fpv4-sp-d16
 1444              	HAL_RTCEx_SetCalibrationOutPut:
 1445              		@ args = 0, pretend = 0, frame = 0
 1446              		@ frame_needed = 0, uses_anonymous_args = 0
 1447              		@ link register save eliminated.
 1448 0000 037F     		ldrb	r3, [r0, #28]	@ zero_extendqisi2
 1449 0002 012B     		cmp	r3, #1
 1450 0004 1CD0     		beq	.L252
 1451 0006 0368     		ldr	r3, [r0]
 1452 0008 0246     		mov	r2, r0
 1453 000a 30B4     		push	{r4, r5}
 1454 000c 5320     		movs	r0, #83
 1455 000e 0225     		movs	r5, #2
 1456 0010 CA24     		movs	r4, #202
 1457 0012 5577     		strb	r5, [r2, #29]
 1458 0014 5C62     		str	r4, [r3, #36]
 1459 0016 5862     		str	r0, [r3, #36]
 1460 0018 9C68     		ldr	r4, [r3, #8]
 1461 001a 24F40024 		bic	r4, r4, #524288
 1462 001e 9C60     		str	r4, [r3, #8]
 1463 0020 9868     		ldr	r0, [r3, #8]
 1464 0022 0843     		orrs	r0, r0, r1
 1465 0024 9860     		str	r0, [r3, #8]
 1466 0026 9968     		ldr	r1, [r3, #8]
 1467 0028 0024     		movs	r4, #0
 1468 002a FF20     		movs	r0, #255
 1469 002c 0125     		movs	r5, #1
 1470 002e 41F40001 		orr	r1, r1, #8388608
 1471 0032 9960     		str	r1, [r3, #8]
 1472 0034 5862     		str	r0, [r3, #36]
 1473 0036 2046     		mov	r0, r4
 1474 0038 5577     		strb	r5, [r2, #29]
 1475 003a 1477     		strb	r4, [r2, #28]
 1476 003c 30BC     		pop	{r4, r5}
 1477 003e 7047     		bx	lr
 1478              	.L252:
 1479 0040 0220     		movs	r0, #2
 1480 0042 7047     		bx	lr
ARM GAS  D:\Programs\cygwin64\tmp\ccNUFnFj.s 			page 26


 1482              		.section	.text.HAL_RTCEx_DeactivateCalibrationOutPut,"ax",%progbits
 1483              		.align	1
 1484              		.p2align 2,,3
 1485              		.global	HAL_RTCEx_DeactivateCalibrationOutPut
 1486              		.syntax unified
 1487              		.thumb
 1488              		.thumb_func
 1489              		.fpu fpv4-sp-d16
 1491              	HAL_RTCEx_DeactivateCalibrationOutPut:
 1492              		@ args = 0, pretend = 0, frame = 0
 1493              		@ frame_needed = 0, uses_anonymous_args = 0
 1494              		@ link register save eliminated.
 1495 0000 027F     		ldrb	r2, [r0, #28]	@ zero_extendqisi2
 1496 0002 012A     		cmp	r2, #1
 1497 0004 15D0     		beq	.L259
 1498 0006 0268     		ldr	r2, [r0]
 1499 0008 0346     		mov	r3, r0
 1500 000a 30B4     		push	{r4, r5}
 1501 000c CA20     		movs	r0, #202
 1502 000e 0224     		movs	r4, #2
 1503 0010 5321     		movs	r1, #83
 1504 0012 5C77     		strb	r4, [r3, #29]
 1505 0014 5062     		str	r0, [r2, #36]
 1506 0016 5162     		str	r1, [r2, #36]
 1507 0018 9168     		ldr	r1, [r2, #8]
 1508 001a 0024     		movs	r4, #0
 1509 001c FF20     		movs	r0, #255
 1510 001e 0125     		movs	r5, #1
 1511 0020 21F40001 		bic	r1, r1, #8388608
 1512 0024 9160     		str	r1, [r2, #8]
 1513 0026 5062     		str	r0, [r2, #36]
 1514 0028 2046     		mov	r0, r4
 1515 002a 5D77     		strb	r5, [r3, #29]
 1516 002c 1C77     		strb	r4, [r3, #28]
 1517 002e 30BC     		pop	{r4, r5}
 1518 0030 7047     		bx	lr
 1519              	.L259:
 1520 0032 0220     		movs	r0, #2
 1521 0034 7047     		bx	lr
 1523 0036 00BF     		.section	.text.HAL_RTCEx_SetRefClock,"ax",%progbits
 1524              		.align	1
 1525              		.p2align 2,,3
 1526              		.global	HAL_RTCEx_SetRefClock
 1527              		.syntax unified
 1528              		.thumb
 1529              		.thumb_func
 1530              		.fpu fpv4-sp-d16
 1532              	HAL_RTCEx_SetRefClock:
 1533              		@ args = 0, pretend = 0, frame = 0
 1534              		@ frame_needed = 0, uses_anonymous_args = 0
 1535 0000 037F     		ldrb	r3, [r0, #28]	@ zero_extendqisi2
 1536 0002 012B     		cmp	r3, #1
 1537 0004 24D0     		beq	.L267
 1538 0006 0368     		ldr	r3, [r0]
 1539 0008 0222     		movs	r2, #2
 1540 000a 70B5     		push	{r4, r5, r6, lr}
 1541 000c CA21     		movs	r1, #202
ARM GAS  D:\Programs\cygwin64\tmp\ccNUFnFj.s 			page 27


 1542 000e 4277     		strb	r2, [r0, #29]
 1543 0010 0125     		movs	r5, #1
 1544 0012 5322     		movs	r2, #83
 1545 0014 0577     		strb	r5, [r0, #28]
 1546 0016 5962     		str	r1, [r3, #36]
 1547 0018 5A62     		str	r2, [r3, #36]
 1548 001a 0446     		mov	r4, r0
 1549 001c FFF7FEFF 		bl	RTC_EnterInitMode
 1550 0020 68B9     		cbnz	r0, .L272
 1551 0022 2368     		ldr	r3, [r4]
 1552 0024 9A68     		ldr	r2, [r3, #8]
 1553 0026 42F01002 		orr	r2, r2, #16
 1554 002a 9A60     		str	r2, [r3, #8]
 1555 002c DA68     		ldr	r2, [r3, #12]
 1556 002e FF21     		movs	r1, #255
 1557 0030 22F08002 		bic	r2, r2, #128
 1558 0034 DA60     		str	r2, [r3, #12]
 1559 0036 5962     		str	r1, [r3, #36]
 1560 0038 6577     		strb	r5, [r4, #29]
 1561 003a 2077     		strb	r0, [r4, #28]
 1562 003c 70BD     		pop	{r4, r5, r6, pc}
 1563              	.L272:
 1564 003e 2168     		ldr	r1, [r4]
 1565 0040 FF26     		movs	r6, #255
 1566 0042 0422     		movs	r2, #4
 1567 0044 0023     		movs	r3, #0
 1568 0046 4E62     		str	r6, [r1, #36]
 1569 0048 2846     		mov	r0, r5
 1570 004a 6277     		strb	r2, [r4, #29]
 1571 004c 2377     		strb	r3, [r4, #28]
 1572 004e 70BD     		pop	{r4, r5, r6, pc}
 1573              	.L267:
 1574 0050 0220     		movs	r0, #2
 1575 0052 7047     		bx	lr
 1577              		.section	.text.HAL_RTCEx_DeactivateRefClock,"ax",%progbits
 1578              		.align	1
 1579              		.p2align 2,,3
 1580              		.global	HAL_RTCEx_DeactivateRefClock
 1581              		.syntax unified
 1582              		.thumb
 1583              		.thumb_func
 1584              		.fpu fpv4-sp-d16
 1586              	HAL_RTCEx_DeactivateRefClock:
 1587              		@ args = 0, pretend = 0, frame = 0
 1588              		@ frame_needed = 0, uses_anonymous_args = 0
 1589 0000 037F     		ldrb	r3, [r0, #28]	@ zero_extendqisi2
 1590 0002 012B     		cmp	r3, #1
 1591 0004 24D0     		beq	.L276
 1592 0006 0368     		ldr	r3, [r0]
 1593 0008 0222     		movs	r2, #2
 1594 000a 70B5     		push	{r4, r5, r6, lr}
 1595 000c CA21     		movs	r1, #202
 1596 000e 4277     		strb	r2, [r0, #29]
 1597 0010 0125     		movs	r5, #1
 1598 0012 5322     		movs	r2, #83
 1599 0014 0577     		strb	r5, [r0, #28]
 1600 0016 5962     		str	r1, [r3, #36]
ARM GAS  D:\Programs\cygwin64\tmp\ccNUFnFj.s 			page 28


 1601 0018 5A62     		str	r2, [r3, #36]
 1602 001a 0446     		mov	r4, r0
 1603 001c FFF7FEFF 		bl	RTC_EnterInitMode
 1604 0020 68B9     		cbnz	r0, .L281
 1605 0022 2368     		ldr	r3, [r4]
 1606 0024 9A68     		ldr	r2, [r3, #8]
 1607 0026 22F01002 		bic	r2, r2, #16
 1608 002a 9A60     		str	r2, [r3, #8]
 1609 002c DA68     		ldr	r2, [r3, #12]
 1610 002e FF21     		movs	r1, #255
 1611 0030 22F08002 		bic	r2, r2, #128
 1612 0034 DA60     		str	r2, [r3, #12]
 1613 0036 5962     		str	r1, [r3, #36]
 1614 0038 6577     		strb	r5, [r4, #29]
 1615 003a 2077     		strb	r0, [r4, #28]
 1616 003c 70BD     		pop	{r4, r5, r6, pc}
 1617              	.L281:
 1618 003e 2168     		ldr	r1, [r4]
 1619 0040 FF26     		movs	r6, #255
 1620 0042 0422     		movs	r2, #4
 1621 0044 0023     		movs	r3, #0
 1622 0046 4E62     		str	r6, [r1, #36]
 1623 0048 2846     		mov	r0, r5
 1624 004a 6277     		strb	r2, [r4, #29]
 1625 004c 2377     		strb	r3, [r4, #28]
 1626 004e 70BD     		pop	{r4, r5, r6, pc}
 1627              	.L276:
 1628 0050 0220     		movs	r0, #2
 1629 0052 7047     		bx	lr
 1631              		.section	.text.HAL_RTCEx_EnableBypassShadow,"ax",%progbits
 1632              		.align	1
 1633              		.p2align 2,,3
 1634              		.global	HAL_RTCEx_EnableBypassShadow
 1635              		.syntax unified
 1636              		.thumb
 1637              		.thumb_func
 1638              		.fpu fpv4-sp-d16
 1640              	HAL_RTCEx_EnableBypassShadow:
 1641              		@ args = 0, pretend = 0, frame = 0
 1642              		@ frame_needed = 0, uses_anonymous_args = 0
 1643              		@ link register save eliminated.
 1644 0000 027F     		ldrb	r2, [r0, #28]	@ zero_extendqisi2
 1645 0002 012A     		cmp	r2, #1
 1646 0004 15D0     		beq	.L284
 1647 0006 0268     		ldr	r2, [r0]
 1648 0008 0346     		mov	r3, r0
 1649 000a 30B4     		push	{r4, r5}
 1650 000c CA20     		movs	r0, #202
 1651 000e 0224     		movs	r4, #2
 1652 0010 5321     		movs	r1, #83
 1653 0012 5C77     		strb	r4, [r3, #29]
 1654 0014 5062     		str	r0, [r2, #36]
 1655 0016 5162     		str	r1, [r2, #36]
 1656 0018 9168     		ldr	r1, [r2, #8]
 1657 001a 0024     		movs	r4, #0
 1658 001c FF20     		movs	r0, #255
 1659 001e 0125     		movs	r5, #1
ARM GAS  D:\Programs\cygwin64\tmp\ccNUFnFj.s 			page 29


 1660 0020 41F02001 		orr	r1, r1, #32
 1661 0024 9160     		str	r1, [r2, #8]
 1662 0026 5062     		str	r0, [r2, #36]
 1663 0028 2046     		mov	r0, r4
 1664 002a 5D77     		strb	r5, [r3, #29]
 1665 002c 1C77     		strb	r4, [r3, #28]
 1666 002e 30BC     		pop	{r4, r5}
 1667 0030 7047     		bx	lr
 1668              	.L284:
 1669 0032 0220     		movs	r0, #2
 1670 0034 7047     		bx	lr
 1672 0036 00BF     		.section	.text.HAL_RTCEx_DisableBypassShadow,"ax",%progbits
 1673              		.align	1
 1674              		.p2align 2,,3
 1675              		.global	HAL_RTCEx_DisableBypassShadow
 1676              		.syntax unified
 1677              		.thumb
 1678              		.thumb_func
 1679              		.fpu fpv4-sp-d16
 1681              	HAL_RTCEx_DisableBypassShadow:
 1682              		@ args = 0, pretend = 0, frame = 0
 1683              		@ frame_needed = 0, uses_anonymous_args = 0
 1684              		@ link register save eliminated.
 1685 0000 027F     		ldrb	r2, [r0, #28]	@ zero_extendqisi2
 1686 0002 012A     		cmp	r2, #1
 1687 0004 15D0     		beq	.L291
 1688 0006 0268     		ldr	r2, [r0]
 1689 0008 0346     		mov	r3, r0
 1690 000a 30B4     		push	{r4, r5}
 1691 000c CA20     		movs	r0, #202
 1692 000e 0224     		movs	r4, #2
 1693 0010 5321     		movs	r1, #83
 1694 0012 5C77     		strb	r4, [r3, #29]
 1695 0014 5062     		str	r0, [r2, #36]
 1696 0016 5162     		str	r1, [r2, #36]
 1697 0018 9168     		ldr	r1, [r2, #8]
 1698 001a 0024     		movs	r4, #0
 1699 001c FF20     		movs	r0, #255
 1700 001e 0125     		movs	r5, #1
 1701 0020 01F0DF01 		and	r1, r1, #223
 1702 0024 9160     		str	r1, [r2, #8]
 1703 0026 5062     		str	r0, [r2, #36]
 1704 0028 2046     		mov	r0, r4
 1705 002a 5D77     		strb	r5, [r3, #29]
 1706 002c 1C77     		strb	r4, [r3, #28]
 1707 002e 30BC     		pop	{r4, r5}
 1708 0030 7047     		bx	lr
 1709              	.L291:
 1710 0032 0220     		movs	r0, #2
 1711 0034 7047     		bx	lr
 1713 0036 00BF     		.section	.text.HAL_RTCEx_AlarmBEventCallback,"ax",%progbits
 1714              		.align	1
 1715              		.p2align 2,,3
 1716              		.weak	HAL_RTCEx_AlarmBEventCallback
 1717              		.syntax unified
 1718              		.thumb
 1719              		.thumb_func
ARM GAS  D:\Programs\cygwin64\tmp\ccNUFnFj.s 			page 30


 1720              		.fpu fpv4-sp-d16
 1722              	HAL_RTCEx_AlarmBEventCallback:
 1723              		@ args = 0, pretend = 0, frame = 0
 1724              		@ frame_needed = 0, uses_anonymous_args = 0
 1725              		@ link register save eliminated.
 1726 0000 7047     		bx	lr
 1728 0002 00BF     		.section	.text.HAL_RTCEx_PollForAlarmBEvent,"ax",%progbits
 1729              		.align	1
 1730              		.p2align 2,,3
 1731              		.global	HAL_RTCEx_PollForAlarmBEvent
 1732              		.syntax unified
 1733              		.thumb
 1734              		.thumb_func
 1735              		.fpu fpv4-sp-d16
 1737              	HAL_RTCEx_PollForAlarmBEvent:
 1738              		@ args = 0, pretend = 0, frame = 0
 1739              		@ frame_needed = 0, uses_anonymous_args = 0
 1740 0000 70B5     		push	{r4, r5, r6, lr}
 1741 0002 0546     		mov	r5, r0
 1742 0004 0C46     		mov	r4, r1
 1743 0006 FFF7FEFF 		bl	HAL_GetTick
 1744 000a 0646     		mov	r6, r0
 1745              	.L298:
 1746 000c 601C     		adds	r0, r4, #1
 1747 000e 2A68     		ldr	r2, [r5]
 1748 0010 0BD1     		bne	.L302
 1749              	.L303:
 1750 0012 D368     		ldr	r3, [r2, #12]
 1751 0014 9905     		lsls	r1, r3, #22
 1752 0016 FCD5     		bpl	.L303
 1753              	.L304:
 1754 0018 D368     		ldr	r3, [r2, #12]
 1755 001a DBB2     		uxtb	r3, r3
 1756 001c 63F42073 		orn	r3, r3, #640
 1757 0020 0121     		movs	r1, #1
 1758 0022 D360     		str	r3, [r2, #12]
 1759 0024 0020     		movs	r0, #0
 1760 0026 6977     		strb	r1, [r5, #29]
 1761 0028 70BD     		pop	{r4, r5, r6, pc}
 1762              	.L302:
 1763 002a D368     		ldr	r3, [r2, #12]
 1764 002c 9B05     		lsls	r3, r3, #22
 1765 002e F3D4     		bmi	.L304
 1766 0030 24B1     		cbz	r4, .L301
 1767 0032 FFF7FEFF 		bl	HAL_GetTick
 1768 0036 801B     		subs	r0, r0, r6
 1769 0038 A042     		cmp	r0, r4
 1770 003a E7D9     		bls	.L298
 1771              	.L301:
 1772 003c 0320     		movs	r0, #3
 1773 003e 6877     		strb	r0, [r5, #29]
 1774 0040 70BD     		pop	{r4, r5, r6, pc}
 1776 0042 00BF     		.ident	"GCC: (GNU Tools for Arm Embedded Processors 8-2018-q4-major) 8.2.1 20181213 (release) [gcc
ARM GAS  D:\Programs\cygwin64\tmp\ccNUFnFj.s 			page 31

