ARM GAS  D:\Programs\cygwin64\tmp\ccq4zhgw.s 			page 1


   1              		.cpu cortex-m4
   2              		.eabi_attribute 27, 1
   3              		.eabi_attribute 28, 1
   4              		.eabi_attribute 20, 1
   5              		.eabi_attribute 21, 1
   6              		.eabi_attribute 23, 3
   7              		.eabi_attribute 24, 1
   8              		.eabi_attribute 25, 1
   9              		.eabi_attribute 26, 1
  10              		.eabi_attribute 30, 2
  11              		.eabi_attribute 34, 1
  12              		.eabi_attribute 18, 4
  13              		.file	"stm32f4xx_hal_uart.c"
  14              		.text
  15              		.section	.text.UART_SetConfig,"ax",%progbits
  16              		.align	1
  17              		.p2align 2,,3
  18              		.arch armv7e-m
  19              		.syntax unified
  20              		.thumb
  21              		.thumb_func
  22              		.fpu fpv4-sp-d16
  24              	UART_SetConfig:
  25              		@ args = 0, pretend = 0, frame = 0
  26              		@ frame_needed = 0, uses_anonymous_args = 0
  27 0000 0268     		ldr	r2, [r0]
  28 0002 1169     		ldr	r1, [r2, #16]
  29 0004 2DE9F843 		push	{r3, r4, r5, r6, r7, r8, r9, lr}
  30 0008 C568     		ldr	r5, [r0, #12]
  31 000a 8368     		ldr	r3, [r0, #8]
  32 000c 21F44051 		bic	r1, r1, #12288
  33 0010 0446     		mov	r4, r0
  34 0012 2943     		orrs	r1, r1, r5
  35 0014 0069     		ldr	r0, [r0, #16]
  36 0016 1161     		str	r1, [r2, #16]
  37 0018 D168     		ldr	r1, [r2, #12]
  38 001a 6569     		ldr	r5, [r4, #20]
  39 001c 0343     		orrs	r3, r3, r0
  40 001e E069     		ldr	r0, [r4, #28]
  41 0020 21F41641 		bic	r1, r1, #38400
  42 0024 2B43     		orrs	r3, r3, r5
  43 0026 21F00C01 		bic	r1, r1, #12
  44 002a 0343     		orrs	r3, r3, r0
  45 002c 0B43     		orrs	r3, r3, r1
  46 002e D360     		str	r3, [r2, #12]
  47 0030 5369     		ldr	r3, [r2, #20]
  48 0032 A169     		ldr	r1, [r4, #24]
  49 0034 23F44073 		bic	r3, r3, #768
  50 0038 0B43     		orrs	r3, r3, r1
  51 003a B0F5004F 		cmp	r0, #32768
  52 003e 5361     		str	r3, [r2, #20]
  53 0040 9B4B     		ldr	r3, .L13
  54 0042 00F09A80 		beq	.L12
  55 0046 9A42     		cmp	r2, r3
  56 0048 59D0     		beq	.L6
  57 004a 03F58063 		add	r3, r3, #1024
  58 004e 9A42     		cmp	r2, r3
ARM GAS  D:\Programs\cygwin64\tmp\ccq4zhgw.s 			page 2


  59 0050 55D0     		beq	.L6
  60 0052 FFF7FEFF 		bl	HAL_RCC_GetPCLK1Freq
  61 0056 974F     		ldr	r7, .L13+4
  62 0058 6368     		ldr	r3, [r4, #4]
  63 005a 00EB8000 		add	r0, r0, r0, lsl #2
  64 005e 00EB8000 		add	r0, r0, r0, lsl #2
  65 0062 9B00     		lsls	r3, r3, #2
  66 0064 B0FBF3F3 		udiv	r3, r0, r3
  67 0068 A7FB0323 		umull	r2, r3, r7, r3
  68 006c 5B09     		lsrs	r3, r3, #5
  69 006e 1D01     		lsls	r5, r3, #4
  70 0070 FFF7FEFF 		bl	HAL_RCC_GetPCLK1Freq
  71 0074 6668     		ldr	r6, [r4, #4]
  72 0076 00EB8000 		add	r0, r0, r0, lsl #2
  73 007a 00EB8000 		add	r0, r0, r0, lsl #2
  74 007e B600     		lsls	r6, r6, #2
  75 0080 B0FBF6F6 		udiv	r6, r0, r6
  76 0084 FFF7FEFF 		bl	HAL_RCC_GetPCLK1Freq
  77 0088 6368     		ldr	r3, [r4, #4]
  78 008a 00EB8000 		add	r0, r0, r0, lsl #2
  79 008e 00EB8000 		add	r0, r0, r0, lsl #2
  80 0092 9B00     		lsls	r3, r3, #2
  81 0094 B0FBF3F3 		udiv	r3, r0, r3
  82 0098 A7FB0323 		umull	r2, r3, r7, r3
  83 009c 5B09     		lsrs	r3, r3, #5
  84 009e 4FF06409 		mov	r9, #100
  85 00a2 09FB1363 		mls	r3, r9, r3, r6
  86 00a6 1B01     		lsls	r3, r3, #4
  87 00a8 3233     		adds	r3, r3, #50
  88 00aa A7FB0323 		umull	r2, r3, r7, r3
  89 00ae 5B09     		lsrs	r3, r3, #5
  90 00b0 03F0F006 		and	r6, r3, #240
  91 00b4 FFF7FEFF 		bl	HAL_RCC_GetPCLK1Freq
  92 00b8 6268     		ldr	r2, [r4, #4]
  93 00ba 00EB8000 		add	r0, r0, r0, lsl #2
  94 00be 00EB8000 		add	r0, r0, r0, lsl #2
  95 00c2 9300     		lsls	r3, r2, #2
  96 00c4 B0FBF3F8 		udiv	r8, r0, r3
  97 00c8 FFF7FEFF 		bl	HAL_RCC_GetPCLK1Freq
  98              	.L10:
  99 00cc D4E90023 		ldrd	r2, r3, [r4]
 100 00d0 00EB8000 		add	r0, r0, r0, lsl #2
 101 00d4 9B00     		lsls	r3, r3, #2
 102 00d6 00EB8000 		add	r0, r0, r0, lsl #2
 103 00da B0FBF3F0 		udiv	r0, r0, r3
 104 00de A7FB0030 		umull	r3, r0, r7, r0
 105 00e2 4309     		lsrs	r3, r0, #5
 106 00e4 09FB1383 		mls	r3, r9, r3, r8
 107 00e8 1B01     		lsls	r3, r3, #4
 108 00ea 3233     		adds	r3, r3, #50
 109 00ec A7FB0313 		umull	r1, r3, r7, r3
 110 00f0 C3F34313 		ubfx	r3, r3, #5, #4
 111 00f4 3343     		orrs	r3, r3, r6
 112 00f6 2B44     		add	r3, r3, r5
 113 00f8 9360     		str	r3, [r2, #8]
 114 00fa BDE8F883 		pop	{r3, r4, r5, r6, r7, r8, r9, pc}
 115              	.L6:
ARM GAS  D:\Programs\cygwin64\tmp\ccq4zhgw.s 			page 3


 116 00fe FFF7FEFF 		bl	HAL_RCC_GetPCLK2Freq
 117 0102 6C4F     		ldr	r7, .L13+4
 118 0104 6368     		ldr	r3, [r4, #4]
 119 0106 00EB8000 		add	r0, r0, r0, lsl #2
 120 010a 00EB8000 		add	r0, r0, r0, lsl #2
 121 010e 9B00     		lsls	r3, r3, #2
 122 0110 B0FBF3F3 		udiv	r3, r0, r3
 123 0114 A7FB0323 		umull	r2, r3, r7, r3
 124 0118 5B09     		lsrs	r3, r3, #5
 125 011a 1D01     		lsls	r5, r3, #4
 126 011c FFF7FEFF 		bl	HAL_RCC_GetPCLK2Freq
 127 0120 6668     		ldr	r6, [r4, #4]
 128 0122 00EB8000 		add	r0, r0, r0, lsl #2
 129 0126 00EB8000 		add	r0, r0, r0, lsl #2
 130 012a B600     		lsls	r6, r6, #2
 131 012c B0FBF6F6 		udiv	r6, r0, r6
 132 0130 FFF7FEFF 		bl	HAL_RCC_GetPCLK2Freq
 133 0134 6368     		ldr	r3, [r4, #4]
 134 0136 00EB8000 		add	r0, r0, r0, lsl #2
 135 013a 00EB8000 		add	r0, r0, r0, lsl #2
 136 013e 9B00     		lsls	r3, r3, #2
 137 0140 B0FBF3F3 		udiv	r3, r0, r3
 138 0144 A7FB0323 		umull	r2, r3, r7, r3
 139 0148 4FF06409 		mov	r9, #100
 140 014c 5B09     		lsrs	r3, r3, #5
 141 014e 09FB1363 		mls	r3, r9, r3, r6
 142 0152 1B01     		lsls	r3, r3, #4
 143 0154 3233     		adds	r3, r3, #50
 144 0156 A7FB0323 		umull	r2, r3, r7, r3
 145 015a 5B09     		lsrs	r3, r3, #5
 146 015c 03F0F006 		and	r6, r3, #240
 147 0160 FFF7FEFF 		bl	HAL_RCC_GetPCLK2Freq
 148 0164 6268     		ldr	r2, [r4, #4]
 149 0166 00EB8000 		add	r0, r0, r0, lsl #2
 150 016a 9300     		lsls	r3, r2, #2
 151 016c 00EB8000 		add	r0, r0, r0, lsl #2
 152 0170 B0FBF3F8 		udiv	r8, r0, r3
 153 0174 FFF7FEFF 		bl	HAL_RCC_GetPCLK2Freq
 154 0178 A8E7     		b	.L10
 155              	.L12:
 156 017a 9A42     		cmp	r2, r3
 157 017c 59D0     		beq	.L3
 158 017e 03F58063 		add	r3, r3, #1024
 159 0182 9A42     		cmp	r2, r3
 160 0184 55D0     		beq	.L3
 161 0186 FFF7FEFF 		bl	HAL_RCC_GetPCLK1Freq
 162 018a 4A4F     		ldr	r7, .L13+4
 163 018c 6368     		ldr	r3, [r4, #4]
 164 018e 00EB8000 		add	r0, r0, r0, lsl #2
 165 0192 00EB8000 		add	r0, r0, r0, lsl #2
 166 0196 5B00     		lsls	r3, r3, #1
 167 0198 B0FBF3F3 		udiv	r3, r0, r3
 168 019c A7FB0323 		umull	r2, r3, r7, r3
 169 01a0 5B09     		lsrs	r3, r3, #5
 170 01a2 1E01     		lsls	r6, r3, #4
 171 01a4 FFF7FEFF 		bl	HAL_RCC_GetPCLK1Freq
 172 01a8 6568     		ldr	r5, [r4, #4]
ARM GAS  D:\Programs\cygwin64\tmp\ccq4zhgw.s 			page 4


 173 01aa 00EB8000 		add	r0, r0, r0, lsl #2
 174 01ae 00EB8000 		add	r0, r0, r0, lsl #2
 175 01b2 6D00     		lsls	r5, r5, #1
 176 01b4 B0FBF5F5 		udiv	r5, r0, r5
 177 01b8 FFF7FEFF 		bl	HAL_RCC_GetPCLK1Freq
 178 01bc 6368     		ldr	r3, [r4, #4]
 179 01be 00EB8000 		add	r0, r0, r0, lsl #2
 180 01c2 00EB8000 		add	r0, r0, r0, lsl #2
 181 01c6 5B00     		lsls	r3, r3, #1
 182 01c8 B0FBF3F3 		udiv	r3, r0, r3
 183 01cc A7FB0323 		umull	r2, r3, r7, r3
 184 01d0 5B09     		lsrs	r3, r3, #5
 185 01d2 4FF06409 		mov	r9, #100
 186 01d6 09FB1353 		mls	r3, r9, r3, r5
 187 01da DB00     		lsls	r3, r3, #3
 188 01dc 3233     		adds	r3, r3, #50
 189 01de A7FB0323 		umull	r2, r3, r7, r3
 190 01e2 1B09     		lsrs	r3, r3, #4
 191 01e4 03F4F875 		and	r5, r3, #496
 192 01e8 FFF7FEFF 		bl	HAL_RCC_GetPCLK1Freq
 193 01ec 6268     		ldr	r2, [r4, #4]
 194 01ee 00EB8000 		add	r0, r0, r0, lsl #2
 195 01f2 00EB8000 		add	r0, r0, r0, lsl #2
 196 01f6 5300     		lsls	r3, r2, #1
 197 01f8 B0FBF3F8 		udiv	r8, r0, r3
 198 01fc FFF7FEFF 		bl	HAL_RCC_GetPCLK1Freq
 199              	.L9:
 200 0200 D4E90023 		ldrd	r2, r3, [r4]
 201 0204 00EB8000 		add	r0, r0, r0, lsl #2
 202 0208 00EB8000 		add	r0, r0, r0, lsl #2
 203 020c 5B00     		lsls	r3, r3, #1
 204 020e B0FBF3F3 		udiv	r3, r0, r3
 205 0212 A7FB0313 		umull	r1, r3, r7, r3
 206 0216 5B09     		lsrs	r3, r3, #5
 207 0218 09FB1383 		mls	r3, r9, r3, r8
 208 021c DB00     		lsls	r3, r3, #3
 209 021e 3233     		adds	r3, r3, #50
 210 0220 A7FB0313 		umull	r1, r3, r7, r3
 211 0224 C3F34213 		ubfx	r3, r3, #5, #3
 212 0228 3344     		add	r3, r3, r6
 213 022a 2B44     		add	r3, r3, r5
 214 022c 9360     		str	r3, [r2, #8]
 215 022e BDE8F883 		pop	{r3, r4, r5, r6, r7, r8, r9, pc}
 216              	.L3:
 217 0232 FFF7FEFF 		bl	HAL_RCC_GetPCLK2Freq
 218 0236 1F4F     		ldr	r7, .L13+4
 219 0238 6368     		ldr	r3, [r4, #4]
 220 023a 00EB8000 		add	r0, r0, r0, lsl #2
 221 023e 00EB8000 		add	r0, r0, r0, lsl #2
 222 0242 5B00     		lsls	r3, r3, #1
 223 0244 B0FBF3F3 		udiv	r3, r0, r3
 224 0248 A7FB0323 		umull	r2, r3, r7, r3
 225 024c 5B09     		lsrs	r3, r3, #5
 226 024e 1E01     		lsls	r6, r3, #4
 227 0250 FFF7FEFF 		bl	HAL_RCC_GetPCLK2Freq
 228 0254 6568     		ldr	r5, [r4, #4]
 229 0256 00EB8000 		add	r0, r0, r0, lsl #2
ARM GAS  D:\Programs\cygwin64\tmp\ccq4zhgw.s 			page 5


 230 025a 00EB8000 		add	r0, r0, r0, lsl #2
 231 025e 6D00     		lsls	r5, r5, #1
 232 0260 B0FBF5F5 		udiv	r5, r0, r5
 233 0264 FFF7FEFF 		bl	HAL_RCC_GetPCLK2Freq
 234 0268 6368     		ldr	r3, [r4, #4]
 235 026a 00EB8000 		add	r0, r0, r0, lsl #2
 236 026e 00EB8000 		add	r0, r0, r0, lsl #2
 237 0272 5B00     		lsls	r3, r3, #1
 238 0274 B0FBF3F3 		udiv	r3, r0, r3
 239 0278 A7FB0323 		umull	r2, r3, r7, r3
 240 027c 4FF06409 		mov	r9, #100
 241 0280 5B09     		lsrs	r3, r3, #5
 242 0282 09FB1353 		mls	r3, r9, r3, r5
 243 0286 DB00     		lsls	r3, r3, #3
 244 0288 3233     		adds	r3, r3, #50
 245 028a A7FB0323 		umull	r2, r3, r7, r3
 246 028e 1B09     		lsrs	r3, r3, #4
 247 0290 03F4F875 		and	r5, r3, #496
 248 0294 FFF7FEFF 		bl	HAL_RCC_GetPCLK2Freq
 249 0298 6268     		ldr	r2, [r4, #4]
 250 029a 00EB8000 		add	r0, r0, r0, lsl #2
 251 029e 5300     		lsls	r3, r2, #1
 252 02a0 00EB8000 		add	r0, r0, r0, lsl #2
 253 02a4 B0FBF3F8 		udiv	r8, r0, r3
 254 02a8 FFF7FEFF 		bl	HAL_RCC_GetPCLK2Freq
 255 02ac A8E7     		b	.L9
 256              	.L14:
 257 02ae 00BF     		.align	2
 258              	.L13:
 259 02b0 00100140 		.word	1073811456
 260 02b4 1F85EB51 		.word	1374389535
 262              		.section	.text.HAL_UART_MspInit,"ax",%progbits
 263              		.align	1
 264              		.p2align 2,,3
 265              		.weak	HAL_UART_MspInit
 266              		.syntax unified
 267              		.thumb
 268              		.thumb_func
 269              		.fpu fpv4-sp-d16
 271              	HAL_UART_MspInit:
 272              		@ args = 0, pretend = 0, frame = 0
 273              		@ frame_needed = 0, uses_anonymous_args = 0
 274              		@ link register save eliminated.
 275 0000 7047     		bx	lr
 277 0002 00BF     		.section	.text.HAL_UART_Init,"ax",%progbits
 278              		.align	1
 279              		.p2align 2,,3
 280              		.global	HAL_UART_Init
 281              		.syntax unified
 282              		.thumb
 283              		.thumb_func
 284              		.fpu fpv4-sp-d16
 286              	HAL_UART_Init:
 287              		@ args = 0, pretend = 0, frame = 0
 288              		@ frame_needed = 0, uses_anonymous_args = 0
 289 0000 60B3     		cbz	r0, .L19
 290 0002 38B5     		push	{r3, r4, r5, lr}
ARM GAS  D:\Programs\cygwin64\tmp\ccq4zhgw.s 			page 6


 291 0004 90F83930 		ldrb	r3, [r0, #57]	@ zero_extendqisi2
 292 0008 0446     		mov	r4, r0
 293 000a 03F0FF02 		and	r2, r3, #255
 294 000e 03B3     		cbz	r3, .L24
 295              	.L18:
 296 0010 2268     		ldr	r2, [r4]
 297 0012 2423     		movs	r3, #36
 298 0014 84F83930 		strb	r3, [r4, #57]
 299 0018 D368     		ldr	r3, [r2, #12]
 300 001a 23F40053 		bic	r3, r3, #8192
 301 001e D360     		str	r3, [r2, #12]
 302 0020 2046     		mov	r0, r4
 303 0022 FFF7FEFF 		bl	UART_SetConfig
 304 0026 2368     		ldr	r3, [r4]
 305 0028 1A69     		ldr	r2, [r3, #16]
 306 002a 22F49042 		bic	r2, r2, #18432
 307 002e 1A61     		str	r2, [r3, #16]
 308 0030 5A69     		ldr	r2, [r3, #20]
 309 0032 22F02A02 		bic	r2, r2, #42
 310 0036 5A61     		str	r2, [r3, #20]
 311 0038 DA68     		ldr	r2, [r3, #12]
 312 003a 0025     		movs	r5, #0
 313 003c 2021     		movs	r1, #32
 314 003e 42F40052 		orr	r2, r2, #8192
 315 0042 DA60     		str	r2, [r3, #12]
 316 0044 2846     		mov	r0, r5
 317 0046 E563     		str	r5, [r4, #60]
 318 0048 84F83910 		strb	r1, [r4, #57]
 319 004c 84F83A10 		strb	r1, [r4, #58]
 320 0050 38BD     		pop	{r3, r4, r5, pc}
 321              	.L24:
 322 0052 80F83820 		strb	r2, [r0, #56]
 323 0056 FFF7FEFF 		bl	HAL_UART_MspInit
 324 005a D9E7     		b	.L18
 325              	.L19:
 326 005c 0120     		movs	r0, #1
 327 005e 7047     		bx	lr
 329              		.section	.text.HAL_HalfDuplex_Init,"ax",%progbits
 330              		.align	1
 331              		.p2align 2,,3
 332              		.global	HAL_HalfDuplex_Init
 333              		.syntax unified
 334              		.thumb
 335              		.thumb_func
 336              		.fpu fpv4-sp-d16
 338              	HAL_HalfDuplex_Init:
 339              		@ args = 0, pretend = 0, frame = 0
 340              		@ frame_needed = 0, uses_anonymous_args = 0
 341 0000 80B3     		cbz	r0, .L28
 342 0002 38B5     		push	{r3, r4, r5, lr}
 343 0004 90F83930 		ldrb	r3, [r0, #57]	@ zero_extendqisi2
 344 0008 0446     		mov	r4, r0
 345 000a 03F0FF02 		and	r2, r3, #255
 346 000e 23B3     		cbz	r3, .L33
 347              	.L27:
 348 0010 2268     		ldr	r2, [r4]
 349 0012 2423     		movs	r3, #36
ARM GAS  D:\Programs\cygwin64\tmp\ccq4zhgw.s 			page 7


 350 0014 84F83930 		strb	r3, [r4, #57]
 351 0018 D368     		ldr	r3, [r2, #12]
 352 001a 23F40053 		bic	r3, r3, #8192
 353 001e D360     		str	r3, [r2, #12]
 354 0020 2046     		mov	r0, r4
 355 0022 FFF7FEFF 		bl	UART_SetConfig
 356 0026 2368     		ldr	r3, [r4]
 357 0028 1A69     		ldr	r2, [r3, #16]
 358 002a 22F49042 		bic	r2, r2, #18432
 359 002e 1A61     		str	r2, [r3, #16]
 360 0030 5A69     		ldr	r2, [r3, #20]
 361 0032 22F02202 		bic	r2, r2, #34
 362 0036 5A61     		str	r2, [r3, #20]
 363 0038 5A69     		ldr	r2, [r3, #20]
 364 003a 42F00802 		orr	r2, r2, #8
 365 003e 5A61     		str	r2, [r3, #20]
 366 0040 DA68     		ldr	r2, [r3, #12]
 367 0042 0025     		movs	r5, #0
 368 0044 2021     		movs	r1, #32
 369 0046 42F40052 		orr	r2, r2, #8192
 370 004a DA60     		str	r2, [r3, #12]
 371 004c 2846     		mov	r0, r5
 372 004e E563     		str	r5, [r4, #60]
 373 0050 84F83910 		strb	r1, [r4, #57]
 374 0054 84F83A10 		strb	r1, [r4, #58]
 375 0058 38BD     		pop	{r3, r4, r5, pc}
 376              	.L33:
 377 005a 80F83820 		strb	r2, [r0, #56]
 378 005e FFF7FEFF 		bl	HAL_UART_MspInit
 379 0062 D5E7     		b	.L27
 380              	.L28:
 381 0064 0120     		movs	r0, #1
 382 0066 7047     		bx	lr
 384              		.section	.text.HAL_LIN_Init,"ax",%progbits
 385              		.align	1
 386              		.p2align 2,,3
 387              		.global	HAL_LIN_Init
 388              		.syntax unified
 389              		.thumb
 390              		.thumb_func
 391              		.fpu fpv4-sp-d16
 393              	HAL_LIN_Init:
 394              		@ args = 0, pretend = 0, frame = 0
 395              		@ frame_needed = 0, uses_anonymous_args = 0
 396 0000 0028     		cmp	r0, #0
 397 0002 38D0     		beq	.L37
 398 0004 38B5     		push	{r3, r4, r5, lr}
 399 0006 90F83930 		ldrb	r3, [r0, #57]	@ zero_extendqisi2
 400 000a 0446     		mov	r4, r0
 401 000c 0D46     		mov	r5, r1
 402 000e 03F0FF02 		and	r2, r3, #255
 403 0012 5BB3     		cbz	r3, .L42
 404              	.L36:
 405 0014 2268     		ldr	r2, [r4]
 406 0016 2423     		movs	r3, #36
 407 0018 84F83930 		strb	r3, [r4, #57]
 408 001c D368     		ldr	r3, [r2, #12]
ARM GAS  D:\Programs\cygwin64\tmp\ccq4zhgw.s 			page 8


 409 001e 23F40053 		bic	r3, r3, #8192
 410 0022 D360     		str	r3, [r2, #12]
 411 0024 2046     		mov	r0, r4
 412 0026 FFF7FEFF 		bl	UART_SetConfig
 413 002a 2368     		ldr	r3, [r4]
 414 002c 1A69     		ldr	r2, [r3, #16]
 415 002e 22F40062 		bic	r2, r2, #2048
 416 0032 1A61     		str	r2, [r3, #16]
 417 0034 5A69     		ldr	r2, [r3, #20]
 418 0036 22F02A02 		bic	r2, r2, #42
 419 003a 5A61     		str	r2, [r3, #20]
 420 003c 1A69     		ldr	r2, [r3, #16]
 421 003e 42F48042 		orr	r2, r2, #16384
 422 0042 1A61     		str	r2, [r3, #16]
 423 0044 1A69     		ldr	r2, [r3, #16]
 424 0046 22F02002 		bic	r2, r2, #32
 425 004a 1A61     		str	r2, [r3, #16]
 426 004c 1969     		ldr	r1, [r3, #16]
 427 004e 0D43     		orrs	r5, r5, r1
 428 0050 1D61     		str	r5, [r3, #16]
 429 0052 DA68     		ldr	r2, [r3, #12]
 430 0054 0025     		movs	r5, #0
 431 0056 2021     		movs	r1, #32
 432 0058 42F40052 		orr	r2, r2, #8192
 433 005c DA60     		str	r2, [r3, #12]
 434 005e 2846     		mov	r0, r5
 435 0060 E563     		str	r5, [r4, #60]
 436 0062 84F83910 		strb	r1, [r4, #57]
 437 0066 84F83A10 		strb	r1, [r4, #58]
 438 006a 38BD     		pop	{r3, r4, r5, pc}
 439              	.L42:
 440 006c 80F83820 		strb	r2, [r0, #56]
 441 0070 FFF7FEFF 		bl	HAL_UART_MspInit
 442 0074 CEE7     		b	.L36
 443              	.L37:
 444 0076 0120     		movs	r0, #1
 445 0078 7047     		bx	lr
 447 007a 00BF     		.section	.text.HAL_MultiProcessor_Init,"ax",%progbits
 448              		.align	1
 449              		.p2align 2,,3
 450              		.global	HAL_MultiProcessor_Init
 451              		.syntax unified
 452              		.thumb
 453              		.thumb_func
 454              		.fpu fpv4-sp-d16
 456              	HAL_MultiProcessor_Init:
 457              		@ args = 0, pretend = 0, frame = 0
 458              		@ frame_needed = 0, uses_anonymous_args = 0
 459 0000 0028     		cmp	r0, #0
 460 0002 3DD0     		beq	.L46
 461 0004 90F83930 		ldrb	r3, [r0, #57]	@ zero_extendqisi2
 462 0008 70B5     		push	{r4, r5, r6, lr}
 463 000a 1646     		mov	r6, r2
 464 000c 0446     		mov	r4, r0
 465 000e 0D46     		mov	r5, r1
 466 0010 03F0FF02 		and	r2, r3, #255
 467 0014 002B     		cmp	r3, #0
ARM GAS  D:\Programs\cygwin64\tmp\ccq4zhgw.s 			page 9


 468 0016 2ED0     		beq	.L51
 469              	.L45:
 470 0018 2268     		ldr	r2, [r4]
 471 001a 2423     		movs	r3, #36
 472 001c 84F83930 		strb	r3, [r4, #57]
 473 0020 D368     		ldr	r3, [r2, #12]
 474 0022 23F40053 		bic	r3, r3, #8192
 475 0026 D360     		str	r3, [r2, #12]
 476 0028 2046     		mov	r0, r4
 477 002a FFF7FEFF 		bl	UART_SetConfig
 478 002e 2368     		ldr	r3, [r4]
 479 0030 1A69     		ldr	r2, [r3, #16]
 480 0032 22F49042 		bic	r2, r2, #18432
 481 0036 1A61     		str	r2, [r3, #16]
 482 0038 5A69     		ldr	r2, [r3, #20]
 483 003a 22F02A02 		bic	r2, r2, #42
 484 003e 5A61     		str	r2, [r3, #20]
 485 0040 1A69     		ldr	r2, [r3, #16]
 486 0042 22F00F02 		bic	r2, r2, #15
 487 0046 1A61     		str	r2, [r3, #16]
 488 0048 1969     		ldr	r1, [r3, #16]
 489 004a 0D43     		orrs	r5, r5, r1
 490 004c 1D61     		str	r5, [r3, #16]
 491 004e D968     		ldr	r1, [r3, #12]
 492 0050 21F40061 		bic	r1, r1, #2048
 493 0054 D960     		str	r1, [r3, #12]
 494 0056 D968     		ldr	r1, [r3, #12]
 495 0058 3143     		orrs	r1, r1, r6
 496 005a D960     		str	r1, [r3, #12]
 497 005c DA68     		ldr	r2, [r3, #12]
 498 005e 0025     		movs	r5, #0
 499 0060 2021     		movs	r1, #32
 500 0062 42F40052 		orr	r2, r2, #8192
 501 0066 DA60     		str	r2, [r3, #12]
 502 0068 2846     		mov	r0, r5
 503 006a E563     		str	r5, [r4, #60]
 504 006c 84F83910 		strb	r1, [r4, #57]
 505 0070 84F83A10 		strb	r1, [r4, #58]
 506 0074 70BD     		pop	{r4, r5, r6, pc}
 507              	.L51:
 508 0076 80F83820 		strb	r2, [r0, #56]
 509 007a FFF7FEFF 		bl	HAL_UART_MspInit
 510 007e CBE7     		b	.L45
 511              	.L46:
 512 0080 0120     		movs	r0, #1
 513 0082 7047     		bx	lr
 515              		.section	.text.HAL_UART_MspDeInit,"ax",%progbits
 516              		.align	1
 517              		.p2align 2,,3
 518              		.weak	HAL_UART_MspDeInit
 519              		.syntax unified
 520              		.thumb
 521              		.thumb_func
 522              		.fpu fpv4-sp-d16
 524              	HAL_UART_MspDeInit:
 525              		@ args = 0, pretend = 0, frame = 0
 526              		@ frame_needed = 0, uses_anonymous_args = 0
ARM GAS  D:\Programs\cygwin64\tmp\ccq4zhgw.s 			page 10


 527              		@ link register save eliminated.
 528 0000 7047     		bx	lr
 530 0002 00BF     		.section	.text.HAL_UART_DeInit,"ax",%progbits
 531              		.align	1
 532              		.p2align 2,,3
 533              		.global	HAL_UART_DeInit
 534              		.syntax unified
 535              		.thumb
 536              		.thumb_func
 537              		.fpu fpv4-sp-d16
 539              	HAL_UART_DeInit:
 540              		@ args = 0, pretend = 0, frame = 0
 541              		@ frame_needed = 0, uses_anonymous_args = 0
 542 0000 A8B1     		cbz	r0, .L55
 543 0002 0268     		ldr	r2, [r0]
 544 0004 2423     		movs	r3, #36
 545 0006 10B5     		push	{r4, lr}
 546 0008 80F83930 		strb	r3, [r0, #57]
 547 000c D368     		ldr	r3, [r2, #12]
 548 000e 23F40053 		bic	r3, r3, #8192
 549 0012 0446     		mov	r4, r0
 550 0014 D360     		str	r3, [r2, #12]
 551 0016 FFF7FEFF 		bl	HAL_UART_MspDeInit
 552 001a 0023     		movs	r3, #0
 553 001c E363     		str	r3, [r4, #60]
 554 001e 84F83830 		strb	r3, [r4, #56]
 555 0022 84F83930 		strb	r3, [r4, #57]
 556 0026 1846     		mov	r0, r3
 557 0028 84F83A30 		strb	r3, [r4, #58]
 558 002c 10BD     		pop	{r4, pc}
 559              	.L55:
 560 002e 0120     		movs	r0, #1
 561 0030 7047     		bx	lr
 563 0032 00BF     		.section	.text.HAL_UART_Transmit,"ax",%progbits
 564              		.align	1
 565              		.p2align 2,,3
 566              		.global	HAL_UART_Transmit
 567              		.syntax unified
 568              		.thumb
 569              		.thumb_func
 570              		.fpu fpv4-sp-d16
 572              	HAL_UART_Transmit:
 573              		@ args = 0, pretend = 0, frame = 0
 574              		@ frame_needed = 0, uses_anonymous_args = 0
 575 0000 2DE9F041 		push	{r4, r5, r6, r7, r8, lr}
 576 0004 0D46     		mov	r5, r1
 577 0006 90F83910 		ldrb	r1, [r0, #57]	@ zero_extendqisi2
 578 000a 2029     		cmp	r1, #32
 579 000c 6FD1     		bne	.L87
 580 000e 002D     		cmp	r5, #0
 581 0010 3CD0     		beq	.L86
 582 0012 9046     		mov	r8, r2
 583 0014 002A     		cmp	r2, #0
 584 0016 39D0     		beq	.L86
 585 0018 1F46     		mov	r7, r3
 586 001a 90F83830 		ldrb	r3, [r0, #56]	@ zero_extendqisi2
 587 001e 012B     		cmp	r3, #1
ARM GAS  D:\Programs\cygwin64\tmp\ccq4zhgw.s 			page 11


 588 0020 0446     		mov	r4, r0
 589 0022 64D0     		beq	.L87
 590 0024 0023     		movs	r3, #0
 591 0026 0122     		movs	r2, #1
 592 0028 C363     		str	r3, [r0, #60]
 593 002a 2123     		movs	r3, #33
 594 002c 80F83820 		strb	r2, [r0, #56]
 595 0030 80F83930 		strb	r3, [r0, #57]
 596 0034 FFF7FEFF 		bl	HAL_GetTick
 597 0038 2268     		ldr	r2, [r4]
 598 003a A4F82480 		strh	r8, [r4, #36]	@ movhi
 599 003e 0646     		mov	r6, r0
 600 0040 A4F82680 		strh	r8, [r4, #38]	@ movhi
 601              	.L62:
 602 0044 E18C     		ldrh	r1, [r4, #38]
 603 0046 89B2     		uxth	r1, r1
 604 0048 99B1     		cbz	r1, .L115
 605              	.L77:
 606 004a E08C     		ldrh	r0, [r4, #38]
 607 004c A168     		ldr	r1, [r4, #8]
 608 004e 0138     		subs	r0, r0, #1
 609 0050 80B2     		uxth	r0, r0
 610 0052 B1F5805F 		cmp	r1, #4096
 611 0056 E084     		strh	r0, [r4, #38]	@ movhi
 612 0058 1BD0     		beq	.L116
 613 005a 781C     		adds	r0, r7, #1
 614 005c 26D1     		bne	.L117
 615              	.L76:
 616 005e 1368     		ldr	r3, [r2]
 617 0060 1B06     		lsls	r3, r3, #24
 618 0062 FCD5     		bpl	.L76
 619              	.L75:
 620 0064 15F8013B 		ldrb	r3, [r5], #1	@ zero_extendqisi2
 621 0068 5360     		str	r3, [r2, #4]
 622              	.L120:
 623 006a E18C     		ldrh	r1, [r4, #38]
 624 006c 89B2     		uxth	r1, r1
 625 006e 0029     		cmp	r1, #0
 626 0070 EBD1     		bne	.L77
 627              	.L115:
 628 0072 7D1C     		adds	r5, r7, #1
 629 0074 52D1     		bne	.L118
 630              	.L79:
 631 0076 1368     		ldr	r3, [r2]
 632 0078 5B06     		lsls	r3, r3, #25
 633 007a FCD5     		bpl	.L79
 634              	.L83:
 635 007c 2023     		movs	r3, #32
 636 007e 0020     		movs	r0, #0
 637 0080 84F83930 		strb	r3, [r4, #57]
 638 0084 84F83800 		strb	r0, [r4, #56]
 639 0088 BDE8F081 		pop	{r4, r5, r6, r7, r8, pc}
 640              	.L86:
 641 008c 0120     		movs	r0, #1
 642 008e BDE8F081 		pop	{r4, r5, r6, r7, r8, pc}
 643              	.L116:
 644 0092 7B1C     		adds	r3, r7, #1
ARM GAS  D:\Programs\cygwin64\tmp\ccq4zhgw.s 			page 12


 645 0094 1BD1     		bne	.L119
 646              	.L69:
 647 0096 1368     		ldr	r3, [r2]
 648 0098 1906     		lsls	r1, r3, #24
 649 009a FCD5     		bpl	.L69
 650              	.L68:
 651 009c 2B88     		ldrh	r3, [r5]
 652 009e 2169     		ldr	r1, [r4, #16]
 653 00a0 C3F30803 		ubfx	r3, r3, #0, #9
 654 00a4 5360     		str	r3, [r2, #4]
 655 00a6 01BB     		cbnz	r1, .L70
 656 00a8 0235     		adds	r5, r5, #2
 657 00aa CBE7     		b	.L62
 658              	.L117:
 659 00ac 1368     		ldr	r3, [r2]
 660 00ae 1906     		lsls	r1, r3, #24
 661 00b0 D8D4     		bmi	.L75
 662 00b2 07B3     		cbz	r7, .L81
 663              	.L74:
 664 00b4 FFF7FEFF 		bl	HAL_GetTick
 665 00b8 801B     		subs	r0, r0, r6
 666 00ba 8742     		cmp	r7, r0
 667 00bc 2268     		ldr	r2, [r4]
 668 00be 1AD3     		bcc	.L81
 669 00c0 1368     		ldr	r3, [r2]
 670 00c2 1B06     		lsls	r3, r3, #24
 671 00c4 F6D5     		bpl	.L74
 672 00c6 15F8013B 		ldrb	r3, [r5], #1	@ zero_extendqisi2
 673 00ca 5360     		str	r3, [r2, #4]
 674 00cc CDE7     		b	.L120
 675              	.L119:
 676 00ce 1368     		ldr	r3, [r2]
 677 00d0 1806     		lsls	r0, r3, #24
 678 00d2 E3D4     		bmi	.L68
 679 00d4 7FB1     		cbz	r7, .L81
 680              	.L67:
 681 00d6 FFF7FEFF 		bl	HAL_GetTick
 682 00da 801B     		subs	r0, r0, r6
 683 00dc 8742     		cmp	r7, r0
 684 00de 2268     		ldr	r2, [r4]
 685 00e0 09D3     		bcc	.L81
 686 00e2 1368     		ldr	r3, [r2]
 687 00e4 1906     		lsls	r1, r3, #24
 688 00e6 F6D5     		bpl	.L67
 689 00e8 D8E7     		b	.L68
 690              	.L70:
 691 00ea 0135     		adds	r5, r5, #1
 692 00ec AAE7     		b	.L62
 693              	.L87:
 694 00ee 0220     		movs	r0, #2
 695 00f0 BDE8F081 		pop	{r4, r5, r6, r7, r8, pc}
 696              	.L121:
 697 00f4 2268     		ldr	r2, [r4]
 698              	.L81:
 699 00f6 D368     		ldr	r3, [r2, #12]
 700 00f8 23F4D073 		bic	r3, r3, #416
 701 00fc D360     		str	r3, [r2, #12]
ARM GAS  D:\Programs\cygwin64\tmp\ccq4zhgw.s 			page 13


 702 00fe 5369     		ldr	r3, [r2, #20]
 703 0100 2021     		movs	r1, #32
 704 0102 23F00103 		bic	r3, r3, #1
 705 0106 0025     		movs	r5, #0
 706 0108 5361     		str	r3, [r2, #20]
 707 010a 0320     		movs	r0, #3
 708 010c 84F83910 		strb	r1, [r4, #57]
 709 0110 84F83850 		strb	r5, [r4, #56]
 710 0114 84F83A10 		strb	r1, [r4, #58]
 711 0118 BDE8F081 		pop	{r4, r5, r6, r7, r8, pc}
 712              	.L118:
 713 011c 1368     		ldr	r3, [r2]
 714 011e 5906     		lsls	r1, r3, #25
 715 0120 ACD4     		bmi	.L83
 716 0122 002F     		cmp	r7, #0
 717 0124 E7D0     		beq	.L81
 718              	.L82:
 719 0126 FFF7FEFF 		bl	HAL_GetTick
 720 012a 801B     		subs	r0, r0, r6
 721 012c 8742     		cmp	r7, r0
 722 012e E1D3     		bcc	.L121
 723 0130 2368     		ldr	r3, [r4]
 724 0132 1B68     		ldr	r3, [r3]
 725 0134 5806     		lsls	r0, r3, #25
 726 0136 F6D5     		bpl	.L82
 727 0138 A0E7     		b	.L83
 729 013a 00BF     		.section	.text.HAL_UART_Receive,"ax",%progbits
 730              		.align	1
 731              		.p2align 2,,3
 732              		.global	HAL_UART_Receive
 733              		.syntax unified
 734              		.thumb
 735              		.thumb_func
 736              		.fpu fpv4-sp-d16
 738              	HAL_UART_Receive:
 739              		@ args = 0, pretend = 0, frame = 0
 740              		@ frame_needed = 0, uses_anonymous_args = 0
 741 0000 2DE9F041 		push	{r4, r5, r6, r7, r8, lr}
 742 0004 0F46     		mov	r7, r1
 743 0006 90F83A10 		ldrb	r1, [r0, #58]	@ zero_extendqisi2
 744 000a 2029     		cmp	r1, #32
 745 000c 78D1     		bne	.L144
 746 000e 002F     		cmp	r7, #0
 747 0010 52D0     		beq	.L143
 748 0012 9046     		mov	r8, r2
 749 0014 002A     		cmp	r2, #0
 750 0016 4FD0     		beq	.L143
 751 0018 1D46     		mov	r5, r3
 752 001a 90F83830 		ldrb	r3, [r0, #56]	@ zero_extendqisi2
 753 001e 012B     		cmp	r3, #1
 754 0020 0446     		mov	r4, r0
 755 0022 6DD0     		beq	.L144
 756 0024 0023     		movs	r3, #0
 757 0026 C363     		str	r3, [r0, #60]
 758 0028 0122     		movs	r2, #1
 759 002a 2223     		movs	r3, #34
 760 002c 80F83820 		strb	r2, [r0, #56]
ARM GAS  D:\Programs\cygwin64\tmp\ccq4zhgw.s 			page 14


 761 0030 80F83A30 		strb	r3, [r0, #58]
 762 0034 FFF7FEFF 		bl	HAL_GetTick
 763 0038 A4F82C80 		strh	r8, [r4, #44]	@ movhi
 764 003c 0646     		mov	r6, r0
 765 003e A4F82E80 		strh	r8, [r4, #46]	@ movhi
 766              	.L124:
 767 0042 E08D     		ldrh	r0, [r4, #46]
 768 0044 80B2     		uxth	r0, r0
 769 0046 C8B1     		cbz	r0, .L162
 770              	.L140:
 771 0048 E28D     		ldrh	r2, [r4, #46]
 772 004a A368     		ldr	r3, [r4, #8]
 773 004c 013A     		subs	r2, r2, #1
 774 004e 92B2     		uxth	r2, r2
 775 0050 B3F5805F 		cmp	r3, #4096
 776 0054 E285     		strh	r2, [r4, #46]	@ movhi
 777 0056 21D0     		beq	.L125
 778              	.L126:
 779 0058 681C     		adds	r0, r5, #1
 780 005a 2368     		ldr	r3, [r4]
 781 005c 2FD1     		bne	.L135
 782              	.L136:
 783 005e 1A68     		ldr	r2, [r3]
 784 0060 9106     		lsls	r1, r2, #26
 785 0062 FCD5     		bpl	.L136
 786              	.L137:
 787 0064 2169     		ldr	r1, [r4, #16]
 788 0066 5B68     		ldr	r3, [r3, #4]
 789 0068 7A1C     		adds	r2, r7, #1
 790 006a 09B1     		cbz	r1, .L160
 791 006c 03F07F03 		and	r3, r3, #127
 792              	.L160:
 793 0070 3B70     		strb	r3, [r7]
 794 0072 E08D     		ldrh	r0, [r4, #46]
 795 0074 80B2     		uxth	r0, r0
 796 0076 1746     		mov	r7, r2
 797 0078 0028     		cmp	r0, #0
 798 007a E5D1     		bne	.L140
 799              	.L162:
 800 007c 2023     		movs	r3, #32
 801 007e 84F83800 		strb	r0, [r4, #56]
 802 0082 84F83A30 		strb	r3, [r4, #58]
 803 0086 BDE8F081 		pop	{r4, r5, r6, r7, r8, pc}
 804              	.L128:
 805 008a 1A68     		ldr	r2, [r3]
 806 008c 9206     		lsls	r2, r2, #26
 807 008e 0BD4     		bmi	.L130
 808 0090 FDB1     		cbz	r5, .L134
 809 0092 FFF7FEFF 		bl	HAL_GetTick
 810 0096 801B     		subs	r0, r0, r6
 811 0098 8542     		cmp	r5, r0
 812 009a 19D3     		bcc	.L161
 813              	.L125:
 814 009c 681C     		adds	r0, r5, #1
 815 009e 2368     		ldr	r3, [r4]
 816 00a0 F3D1     		bne	.L128
 817              	.L129:
ARM GAS  D:\Programs\cygwin64\tmp\ccq4zhgw.s 			page 15


 818 00a2 1A68     		ldr	r2, [r3]
 819 00a4 9106     		lsls	r1, r2, #26
 820 00a6 FCD5     		bpl	.L129
 821              	.L130:
 822 00a8 2269     		ldr	r2, [r4, #16]
 823 00aa 5B68     		ldr	r3, [r3, #4]
 824 00ac 22BB     		cbnz	r2, .L132
 825 00ae C3F30803 		ubfx	r3, r3, #0, #9
 826 00b2 27F8023B 		strh	r3, [r7], #2	@ movhi
 827 00b6 C4E7     		b	.L124
 828              	.L143:
 829 00b8 0120     		movs	r0, #1
 830 00ba BDE8F081 		pop	{r4, r5, r6, r7, r8, pc}
 831              	.L135:
 832 00be 1A68     		ldr	r2, [r3]
 833 00c0 9206     		lsls	r2, r2, #26
 834 00c2 CFD4     		bmi	.L137
 835 00c4 2DB1     		cbz	r5, .L134
 836 00c6 FFF7FEFF 		bl	HAL_GetTick
 837 00ca 801B     		subs	r0, r0, r6
 838 00cc 8542     		cmp	r5, r0
 839 00ce C3D2     		bcs	.L126
 840              	.L161:
 841 00d0 2368     		ldr	r3, [r4]
 842              	.L134:
 843 00d2 DA68     		ldr	r2, [r3, #12]
 844 00d4 22F4D072 		bic	r2, r2, #416
 845 00d8 DA60     		str	r2, [r3, #12]
 846 00da 5A69     		ldr	r2, [r3, #20]
 847 00dc 2021     		movs	r1, #32
 848 00de 22F00102 		bic	r2, r2, #1
 849 00e2 0025     		movs	r5, #0
 850 00e4 5A61     		str	r2, [r3, #20]
 851 00e6 0320     		movs	r0, #3
 852 00e8 84F83910 		strb	r1, [r4, #57]
 853 00ec 84F83850 		strb	r5, [r4, #56]
 854 00f0 84F83A10 		strb	r1, [r4, #58]
 855 00f4 BDE8F081 		pop	{r4, r5, r6, r7, r8, pc}
 856              	.L132:
 857 00f8 DBB2     		uxtb	r3, r3
 858 00fa 27F8013B 		strh	r3, [r7], #1	@ movhi
 859 00fe A0E7     		b	.L124
 860              	.L144:
 861 0100 0220     		movs	r0, #2
 862 0102 BDE8F081 		pop	{r4, r5, r6, r7, r8, pc}
 864 0106 00BF     		.section	.text.HAL_UART_Transmit_IT,"ax",%progbits
 865              		.align	1
 866              		.p2align 2,,3
 867              		.global	HAL_UART_Transmit_IT
 868              		.syntax unified
 869              		.thumb
 870              		.thumb_func
 871              		.fpu fpv4-sp-d16
 873              	HAL_UART_Transmit_IT:
 874              		@ args = 0, pretend = 0, frame = 0
 875              		@ frame_needed = 0, uses_anonymous_args = 0
 876              		@ link register save eliminated.
ARM GAS  D:\Programs\cygwin64\tmp\ccq4zhgw.s 			page 16


 877 0000 90F83930 		ldrb	r3, [r0, #57]	@ zero_extendqisi2
 878 0004 202B     		cmp	r3, #32
 879 0006 1AD1     		bne	.L168
 880 0008 B9B1     		cbz	r1, .L167
 881 000a B2B1     		cbz	r2, .L167
 882 000c 90F83830 		ldrb	r3, [r0, #56]	@ zero_extendqisi2
 883 0010 012B     		cmp	r3, #1
 884 0012 14D0     		beq	.L168
 885 0014 30B4     		push	{r4, r5}
 886 0016 0023     		movs	r3, #0
 887 0018 0568     		ldr	r5, [r0]
 888 001a C284     		strh	r2, [r0, #38]	@ movhi
 889 001c 2124     		movs	r4, #33
 890 001e C363     		str	r3, [r0, #60]
 891 0020 80F83940 		strb	r4, [r0, #57]
 892 0024 EC68     		ldr	r4, [r5, #12]
 893 0026 0162     		str	r1, [r0, #32]
 894 0028 44F08004 		orr	r4, r4, #128
 895 002c 8284     		strh	r2, [r0, #36]	@ movhi
 896 002e 80F83830 		strb	r3, [r0, #56]
 897 0032 1846     		mov	r0, r3
 898 0034 EC60     		str	r4, [r5, #12]
 899 0036 30BC     		pop	{r4, r5}
 900 0038 7047     		bx	lr
 901              	.L167:
 902 003a 0120     		movs	r0, #1
 903 003c 7047     		bx	lr
 904              	.L168:
 905 003e 0220     		movs	r0, #2
 906 0040 7047     		bx	lr
 908 0042 00BF     		.section	.text.HAL_UART_Receive_IT,"ax",%progbits
 909              		.align	1
 910              		.p2align 2,,3
 911              		.global	HAL_UART_Receive_IT
 912              		.syntax unified
 913              		.thumb
 914              		.thumb_func
 915              		.fpu fpv4-sp-d16
 917              	HAL_UART_Receive_IT:
 918              		@ args = 0, pretend = 0, frame = 0
 919              		@ frame_needed = 0, uses_anonymous_args = 0
 920              		@ link register save eliminated.
 921 0000 90F83A30 		ldrb	r3, [r0, #58]	@ zero_extendqisi2
 922 0004 202B     		cmp	r3, #32
 923 0006 22D1     		bne	.L178
 924 0008 F9B1     		cbz	r1, .L177
 925 000a F2B1     		cbz	r2, .L177
 926 000c 90F83830 		ldrb	r3, [r0, #56]	@ zero_extendqisi2
 927 0010 012B     		cmp	r3, #1
 928 0012 1CD0     		beq	.L178
 929 0014 30B4     		push	{r4, r5}
 930 0016 0023     		movs	r3, #0
 931 0018 0468     		ldr	r4, [r0]
 932 001a C285     		strh	r2, [r0, #46]	@ movhi
 933 001c 2225     		movs	r5, #34
 934 001e C363     		str	r3, [r0, #60]
 935 0020 80F83A50 		strb	r5, [r0, #58]
ARM GAS  D:\Programs\cygwin64\tmp\ccq4zhgw.s 			page 17


 936 0024 E568     		ldr	r5, [r4, #12]
 937 0026 8285     		strh	r2, [r0, #44]	@ movhi
 938 0028 45F48075 		orr	r5, r5, #256
 939 002c 8162     		str	r1, [r0, #40]
 940 002e 80F83830 		strb	r3, [r0, #56]
 941 0032 E560     		str	r5, [r4, #12]
 942 0034 6269     		ldr	r2, [r4, #20]
 943 0036 42F00102 		orr	r2, r2, #1
 944 003a 6261     		str	r2, [r4, #20]
 945 003c E268     		ldr	r2, [r4, #12]
 946 003e 42F02002 		orr	r2, r2, #32
 947 0042 1846     		mov	r0, r3
 948 0044 E260     		str	r2, [r4, #12]
 949 0046 30BC     		pop	{r4, r5}
 950 0048 7047     		bx	lr
 951              	.L177:
 952 004a 0120     		movs	r0, #1
 953 004c 7047     		bx	lr
 954              	.L178:
 955 004e 0220     		movs	r0, #2
 956 0050 7047     		bx	lr
 958 0052 00BF     		.section	.text.HAL_UART_Transmit_DMA,"ax",%progbits
 959              		.align	1
 960              		.p2align 2,,3
 961              		.global	HAL_UART_Transmit_DMA
 962              		.syntax unified
 963              		.thumb
 964              		.thumb_func
 965              		.fpu fpv4-sp-d16
 967              	HAL_UART_Transmit_DMA:
 968              		@ args = 0, pretend = 0, frame = 0
 969              		@ frame_needed = 0, uses_anonymous_args = 0
 970 0000 70B5     		push	{r4, r5, r6, lr}
 971 0002 90F83940 		ldrb	r4, [r0, #57]	@ zero_extendqisi2
 972 0006 202C     		cmp	r4, #32
 973 0008 2CD1     		bne	.L188
 974 000a 49B3     		cbz	r1, .L187
 975 000c 42B3     		cbz	r2, .L187
 976 000e 90F83840 		ldrb	r4, [r0, #56]	@ zero_extendqisi2
 977 0012 012C     		cmp	r4, #1
 978 0014 26D0     		beq	.L188
 979 0016 0446     		mov	r4, r0
 980 0018 0126     		movs	r6, #1
 981 001a 006B     		ldr	r0, [r0, #48]
 982 001c 84F83860 		strb	r6, [r4, #56]
 983 0020 1346     		mov	r3, r2
 984 0022 0025     		movs	r5, #0
 985 0024 2126     		movs	r6, #33
 986 0026 E384     		strh	r3, [r4, #38]	@ movhi
 987 0028 E563     		str	r5, [r4, #60]
 988 002a 84F83960 		strb	r6, [r4, #57]
 989 002e 0E4E     		ldr	r6, .L190
 990 0030 2268     		ldr	r2, [r4]
 991 0032 A384     		strh	r3, [r4, #36]	@ movhi
 992 0034 2162     		str	r1, [r4, #32]
 993 0036 C663     		str	r6, [r0, #60]
 994 0038 0C4E     		ldr	r6, .L190+4
ARM GAS  D:\Programs\cygwin64\tmp\ccq4zhgw.s 			page 18


 995 003a 0664     		str	r6, [r0, #64]
 996 003c 0C4E     		ldr	r6, .L190+8
 997 003e 0565     		str	r5, [r0, #80]
 998 0040 C664     		str	r6, [r0, #76]
 999 0042 0432     		adds	r2, r2, #4
 1000 0044 FFF7FEFF 		bl	HAL_DMA_Start_IT
 1001 0048 2368     		ldr	r3, [r4]
 1002 004a 6FF04002 		mvn	r2, #64
 1003 004e 1A60     		str	r2, [r3]
 1004 0050 5A69     		ldr	r2, [r3, #20]
 1005 0052 84F83850 		strb	r5, [r4, #56]
 1006 0056 42F08002 		orr	r2, r2, #128
 1007 005a 2846     		mov	r0, r5
 1008 005c 5A61     		str	r2, [r3, #20]
 1009 005e 70BD     		pop	{r4, r5, r6, pc}
 1010              	.L187:
 1011 0060 0120     		movs	r0, #1
 1012 0062 70BD     		pop	{r4, r5, r6, pc}
 1013              	.L188:
 1014 0064 0220     		movs	r0, #2
 1015 0066 70BD     		pop	{r4, r5, r6, pc}
 1016              	.L191:
 1017              		.align	2
 1018              	.L190:
 1019 0068 00000000 		.word	UART_DMATransmitCplt
 1020 006c 00000000 		.word	UART_DMATxHalfCplt
 1021 0070 00000000 		.word	UART_DMAError
 1023              		.section	.text.HAL_UART_Receive_DMA,"ax",%progbits
 1024              		.align	1
 1025              		.p2align 2,,3
 1026              		.global	HAL_UART_Receive_DMA
 1027              		.syntax unified
 1028              		.thumb
 1029              		.thumb_func
 1030              		.fpu fpv4-sp-d16
 1032              	HAL_UART_Receive_DMA:
 1033              		@ args = 0, pretend = 0, frame = 8
 1034              		@ frame_needed = 0, uses_anonymous_args = 0
 1035 0000 90F83A30 		ldrb	r3, [r0, #58]	@ zero_extendqisi2
 1036 0004 202B     		cmp	r3, #32
 1037 0006 3CD1     		bne	.L197
 1038 0008 0029     		cmp	r1, #0
 1039 000a 38D0     		beq	.L196
 1040 000c 002A     		cmp	r2, #0
 1041 000e 36D0     		beq	.L196
 1042 0010 90F83830 		ldrb	r3, [r0, #56]	@ zero_extendqisi2
 1043 0014 012B     		cmp	r3, #1
 1044 0016 34D0     		beq	.L197
 1045 0018 70B5     		push	{r4, r5, r6, lr}
 1046 001a 0446     		mov	r4, r0
 1047 001c 0126     		movs	r6, #1
 1048 001e 406B     		ldr	r0, [r0, #52]
 1049 0020 84F83860 		strb	r6, [r4, #56]
 1050 0024 0025     		movs	r5, #0
 1051 0026 2226     		movs	r6, #34
 1052 0028 E563     		str	r5, [r4, #60]
 1053 002a 1346     		mov	r3, r2
ARM GAS  D:\Programs\cygwin64\tmp\ccq4zhgw.s 			page 19


 1054 002c 84F83A60 		strb	r6, [r4, #58]
 1055 0030 0A46     		mov	r2, r1
 1056 0032 154E     		ldr	r6, .L202
 1057 0034 2168     		ldr	r1, [r4]
 1058 0036 A262     		str	r2, [r4, #40]
 1059 0038 A385     		strh	r3, [r4, #44]	@ movhi
 1060 003a C663     		str	r6, [r0, #60]
 1061 003c 134E     		ldr	r6, .L202+4
 1062 003e 0664     		str	r6, [r0, #64]
 1063 0040 134E     		ldr	r6, .L202+8
 1064 0042 0565     		str	r5, [r0, #80]
 1065 0044 82B0     		sub	sp, sp, #8
 1066 0046 C664     		str	r6, [r0, #76]
 1067 0048 0431     		adds	r1, r1, #4
 1068 004a FFF7FEFF 		bl	HAL_DMA_Start_IT
 1069 004e 2368     		ldr	r3, [r4]
 1070 0050 0195     		str	r5, [sp, #4]
 1071 0052 1A68     		ldr	r2, [r3]
 1072 0054 0192     		str	r2, [sp, #4]
 1073 0056 5A68     		ldr	r2, [r3, #4]
 1074 0058 0192     		str	r2, [sp, #4]
 1075 005a 019A     		ldr	r2, [sp, #4]
 1076 005c DA68     		ldr	r2, [r3, #12]
 1077 005e 84F83850 		strb	r5, [r4, #56]
 1078 0062 42F48072 		orr	r2, r2, #256
 1079 0066 DA60     		str	r2, [r3, #12]
 1080 0068 5A69     		ldr	r2, [r3, #20]
 1081 006a 42F00102 		orr	r2, r2, #1
 1082 006e 5A61     		str	r2, [r3, #20]
 1083 0070 5A69     		ldr	r2, [r3, #20]
 1084 0072 2846     		mov	r0, r5
 1085 0074 42F04002 		orr	r2, r2, #64
 1086 0078 5A61     		str	r2, [r3, #20]
 1087 007a 02B0     		add	sp, sp, #8
 1088              		@ sp needed
 1089 007c 70BD     		pop	{r4, r5, r6, pc}
 1090              	.L196:
 1091 007e 0120     		movs	r0, #1
 1092 0080 7047     		bx	lr
 1093              	.L197:
 1094 0082 0220     		movs	r0, #2
 1095 0084 7047     		bx	lr
 1096              	.L203:
 1097 0086 00BF     		.align	2
 1098              	.L202:
 1099 0088 00000000 		.word	UART_DMAReceiveCplt
 1100 008c 00000000 		.word	UART_DMARxHalfCplt
 1101 0090 00000000 		.word	UART_DMAError
 1103              		.section	.text.HAL_UART_DMAPause,"ax",%progbits
 1104              		.align	1
 1105              		.p2align 2,,3
 1106              		.global	HAL_UART_DMAPause
 1107              		.syntax unified
 1108              		.thumb
 1109              		.thumb_func
 1110              		.fpu fpv4-sp-d16
 1112              	HAL_UART_DMAPause:
ARM GAS  D:\Programs\cygwin64\tmp\ccq4zhgw.s 			page 20


 1113              		@ args = 0, pretend = 0, frame = 0
 1114              		@ frame_needed = 0, uses_anonymous_args = 0
 1115              		@ link register save eliminated.
 1116 0000 90F83830 		ldrb	r3, [r0, #56]	@ zero_extendqisi2
 1117 0004 012B     		cmp	r3, #1
 1118 0006 2FD0     		beq	.L208
 1119 0008 0368     		ldr	r3, [r0]
 1120 000a 10B4     		push	{r4}
 1121 000c 5C69     		ldr	r4, [r3, #20]
 1122 000e 90F83920 		ldrb	r2, [r0, #57]	@ zero_extendqisi2
 1123 0012 0121     		movs	r1, #1
 1124 0014 212A     		cmp	r2, #33
 1125 0016 80F83810 		strb	r1, [r0, #56]
 1126 001a 0BD0     		beq	.L219
 1127              	.L206:
 1128 001c 5969     		ldr	r1, [r3, #20]
 1129 001e 90F83A20 		ldrb	r2, [r0, #58]	@ zero_extendqisi2
 1130 0022 222A     		cmp	r2, #34
 1131 0024 11D0     		beq	.L220
 1132              	.L207:
 1133 0026 0023     		movs	r3, #0
 1134 0028 80F83830 		strb	r3, [r0, #56]
 1135 002c 5DF8044B 		ldr	r4, [sp], #4
 1136 0030 1846     		mov	r0, r3
 1137 0032 7047     		bx	lr
 1138              	.L219:
 1139 0034 2106     		lsls	r1, r4, #24
 1140 0036 F1D5     		bpl	.L206
 1141 0038 5A69     		ldr	r2, [r3, #20]
 1142 003a 22F08002 		bic	r2, r2, #128
 1143 003e 5A61     		str	r2, [r3, #20]
 1144 0040 5969     		ldr	r1, [r3, #20]
 1145 0042 90F83A20 		ldrb	r2, [r0, #58]	@ zero_extendqisi2
 1146 0046 222A     		cmp	r2, #34
 1147 0048 EDD1     		bne	.L207
 1148              	.L220:
 1149 004a 4A06     		lsls	r2, r1, #25
 1150 004c EBD5     		bpl	.L207
 1151 004e DA68     		ldr	r2, [r3, #12]
 1152 0050 22F48072 		bic	r2, r2, #256
 1153 0054 DA60     		str	r2, [r3, #12]
 1154 0056 5A69     		ldr	r2, [r3, #20]
 1155 0058 22F00102 		bic	r2, r2, #1
 1156 005c 5A61     		str	r2, [r3, #20]
 1157 005e 5A69     		ldr	r2, [r3, #20]
 1158 0060 22F04002 		bic	r2, r2, #64
 1159 0064 5A61     		str	r2, [r3, #20]
 1160 0066 DEE7     		b	.L207
 1161              	.L208:
 1162 0068 0220     		movs	r0, #2
 1163 006a 7047     		bx	lr
 1165              		.section	.text.HAL_UART_DMAResume,"ax",%progbits
 1166              		.align	1
 1167              		.p2align 2,,3
 1168              		.global	HAL_UART_DMAResume
 1169              		.syntax unified
 1170              		.thumb
ARM GAS  D:\Programs\cygwin64\tmp\ccq4zhgw.s 			page 21


 1171              		.thumb_func
 1172              		.fpu fpv4-sp-d16
 1174              	HAL_UART_DMAResume:
 1175              		@ args = 0, pretend = 0, frame = 8
 1176              		@ frame_needed = 0, uses_anonymous_args = 0
 1177              		@ link register save eliminated.
 1178 0000 90F83830 		ldrb	r3, [r0, #56]	@ zero_extendqisi2
 1179 0004 012B     		cmp	r3, #1
 1180 0006 2FD0     		beq	.L225
 1181 0008 90F83930 		ldrb	r3, [r0, #57]	@ zero_extendqisi2
 1182 000c 0122     		movs	r2, #1
 1183 000e 212B     		cmp	r3, #33
 1184 0010 80F83820 		strb	r2, [r0, #56]
 1185 0014 04D1     		bne	.L223
 1186 0016 0268     		ldr	r2, [r0]
 1187 0018 5369     		ldr	r3, [r2, #20]
 1188 001a 43F08003 		orr	r3, r3, #128
 1189 001e 5361     		str	r3, [r2, #20]
 1190              	.L223:
 1191 0020 90F83A30 		ldrb	r3, [r0, #58]	@ zero_extendqisi2
 1192 0024 222B     		cmp	r3, #34
 1193 0026 04D0     		beq	.L231
 1194 0028 0023     		movs	r3, #0
 1195 002a 80F83830 		strb	r3, [r0, #56]
 1196 002e 1846     		mov	r0, r3
 1197 0030 7047     		bx	lr
 1198              	.L231:
 1199 0032 82B0     		sub	sp, sp, #8
 1200 0034 0368     		ldr	r3, [r0]
 1201 0036 0022     		movs	r2, #0
 1202 0038 0192     		str	r2, [sp, #4]
 1203 003a 1A68     		ldr	r2, [r3]
 1204 003c 0192     		str	r2, [sp, #4]
 1205 003e 5A68     		ldr	r2, [r3, #4]
 1206 0040 0192     		str	r2, [sp, #4]
 1207 0042 019A     		ldr	r2, [sp, #4]
 1208 0044 DA68     		ldr	r2, [r3, #12]
 1209 0046 42F48072 		orr	r2, r2, #256
 1210 004a DA60     		str	r2, [r3, #12]
 1211 004c 5A69     		ldr	r2, [r3, #20]
 1212 004e 42F00102 		orr	r2, r2, #1
 1213 0052 5A61     		str	r2, [r3, #20]
 1214 0054 5A69     		ldr	r2, [r3, #20]
 1215 0056 42F04002 		orr	r2, r2, #64
 1216 005a 5A61     		str	r2, [r3, #20]
 1217 005c 0023     		movs	r3, #0
 1218 005e 80F83830 		strb	r3, [r0, #56]
 1219 0062 1846     		mov	r0, r3
 1220 0064 02B0     		add	sp, sp, #8
 1221              		@ sp needed
 1222 0066 7047     		bx	lr
 1223              	.L225:
 1224 0068 0220     		movs	r0, #2
 1225 006a 7047     		bx	lr
 1227              		.section	.text.HAL_UART_DMAStop,"ax",%progbits
 1228              		.align	1
 1229              		.p2align 2,,3
ARM GAS  D:\Programs\cygwin64\tmp\ccq4zhgw.s 			page 22


 1230              		.global	HAL_UART_DMAStop
 1231              		.syntax unified
 1232              		.thumb
 1233              		.thumb_func
 1234              		.fpu fpv4-sp-d16
 1236              	HAL_UART_DMAStop:
 1237              		@ args = 0, pretend = 0, frame = 0
 1238              		@ frame_needed = 0, uses_anonymous_args = 0
 1239 0000 0368     		ldr	r3, [r0]
 1240 0002 5969     		ldr	r1, [r3, #20]
 1241 0004 90F83920 		ldrb	r2, [r0, #57]	@ zero_extendqisi2
 1242 0008 212A     		cmp	r2, #33
 1243 000a 10B5     		push	{r4, lr}
 1244 000c 0446     		mov	r4, r0
 1245 000e 06D0     		beq	.L250
 1246              	.L233:
 1247 0010 5969     		ldr	r1, [r3, #20]
 1248 0012 94F83A20 		ldrb	r2, [r4, #58]	@ zero_extendqisi2
 1249 0016 222A     		cmp	r2, #34
 1250 0018 18D0     		beq	.L251
 1251              	.L235:
 1252 001a 0020     		movs	r0, #0
 1253 001c 10BD     		pop	{r4, pc}
 1254              	.L250:
 1255 001e 0906     		lsls	r1, r1, #24
 1256 0020 F6D5     		bpl	.L233
 1257 0022 5A69     		ldr	r2, [r3, #20]
 1258 0024 006B     		ldr	r0, [r0, #48]
 1259 0026 22F08002 		bic	r2, r2, #128
 1260 002a 5A61     		str	r2, [r3, #20]
 1261 002c 10B1     		cbz	r0, .L234
 1262 002e FFF7FEFF 		bl	HAL_DMA_Abort
 1263 0032 2368     		ldr	r3, [r4]
 1264              	.L234:
 1265 0034 DA68     		ldr	r2, [r3, #12]
 1266 0036 2021     		movs	r1, #32
 1267 0038 22F0C002 		bic	r2, r2, #192
 1268 003c DA60     		str	r2, [r3, #12]
 1269 003e 84F83910 		strb	r1, [r4, #57]
 1270 0042 5969     		ldr	r1, [r3, #20]
 1271 0044 94F83A20 		ldrb	r2, [r4, #58]	@ zero_extendqisi2
 1272 0048 222A     		cmp	r2, #34
 1273 004a E6D1     		bne	.L235
 1274              	.L251:
 1275 004c 4A06     		lsls	r2, r1, #25
 1276 004e E4D5     		bpl	.L235
 1277 0050 5A69     		ldr	r2, [r3, #20]
 1278 0052 606B     		ldr	r0, [r4, #52]
 1279 0054 22F04002 		bic	r2, r2, #64
 1280 0058 5A61     		str	r2, [r3, #20]
 1281 005a 10B1     		cbz	r0, .L236
 1282 005c FFF7FEFF 		bl	HAL_DMA_Abort
 1283 0060 2368     		ldr	r3, [r4]
 1284              	.L236:
 1285 0062 DA68     		ldr	r2, [r3, #12]
 1286 0064 22F49072 		bic	r2, r2, #288
 1287 0068 DA60     		str	r2, [r3, #12]
ARM GAS  D:\Programs\cygwin64\tmp\ccq4zhgw.s 			page 23


 1288 006a 5A69     		ldr	r2, [r3, #20]
 1289 006c 2021     		movs	r1, #32
 1290 006e 22F00102 		bic	r2, r2, #1
 1291 0072 5A61     		str	r2, [r3, #20]
 1292 0074 0020     		movs	r0, #0
 1293 0076 84F83A10 		strb	r1, [r4, #58]
 1294 007a 10BD     		pop	{r4, pc}
 1296              		.section	.text.HAL_UART_Abort,"ax",%progbits
 1297              		.align	1
 1298              		.p2align 2,,3
 1299              		.global	HAL_UART_Abort
 1300              		.syntax unified
 1301              		.thumb
 1302              		.thumb_func
 1303              		.fpu fpv4-sp-d16
 1305              	HAL_UART_Abort:
 1306              		@ args = 0, pretend = 0, frame = 0
 1307              		@ frame_needed = 0, uses_anonymous_args = 0
 1308 0000 0368     		ldr	r3, [r0]
 1309 0002 DA68     		ldr	r2, [r3, #12]
 1310 0004 22F4F072 		bic	r2, r2, #480
 1311 0008 10B5     		push	{r4, lr}
 1312 000a DA60     		str	r2, [r3, #12]
 1313 000c 5A69     		ldr	r2, [r3, #20]
 1314 000e 22F00102 		bic	r2, r2, #1
 1315 0012 5A61     		str	r2, [r3, #20]
 1316 0014 5A69     		ldr	r2, [r3, #20]
 1317 0016 1106     		lsls	r1, r2, #24
 1318 0018 0446     		mov	r4, r0
 1319 001a 0BD5     		bpl	.L253
 1320 001c 5A69     		ldr	r2, [r3, #20]
 1321 001e 006B     		ldr	r0, [r0, #48]
 1322 0020 22F08002 		bic	r2, r2, #128
 1323 0024 5A61     		str	r2, [r3, #20]
 1324 0026 28B1     		cbz	r0, .L253
 1325 0028 0023     		movs	r3, #0
 1326 002a 0365     		str	r3, [r0, #80]
 1327 002c FFF7FEFF 		bl	HAL_DMA_Abort
 1328 0030 C8B9     		cbnz	r0, .L254
 1329              	.L274:
 1330 0032 2368     		ldr	r3, [r4]
 1331              	.L253:
 1332 0034 5A69     		ldr	r2, [r3, #20]
 1333 0036 5206     		lsls	r2, r2, #25
 1334 0038 0AD5     		bpl	.L257
 1335 003a 5A69     		ldr	r2, [r3, #20]
 1336 003c 606B     		ldr	r0, [r4, #52]
 1337 003e 22F04002 		bic	r2, r2, #64
 1338 0042 5A61     		str	r2, [r3, #20]
 1339 0044 20B1     		cbz	r0, .L257
 1340 0046 0023     		movs	r3, #0
 1341 0048 0365     		str	r3, [r0, #80]
 1342 004a FFF7FEFF 		bl	HAL_DMA_Abort
 1343 004e 98B9     		cbnz	r0, .L276
 1344              	.L257:
 1345 0050 0023     		movs	r3, #0
 1346 0052 2022     		movs	r2, #32
ARM GAS  D:\Programs\cygwin64\tmp\ccq4zhgw.s 			page 24


 1347 0054 E384     		strh	r3, [r4, #38]	@ movhi
 1348 0056 1846     		mov	r0, r3
 1349 0058 E385     		strh	r3, [r4, #46]	@ movhi
 1350 005a E363     		str	r3, [r4, #60]
 1351 005c 84F83A20 		strb	r2, [r4, #58]
 1352 0060 84F83920 		strb	r2, [r4, #57]
 1353 0064 10BD     		pop	{r4, pc}
 1354              	.L254:
 1355 0066 206B     		ldr	r0, [r4, #48]
 1356 0068 FFF7FEFF 		bl	HAL_DMA_GetError
 1357 006c 2028     		cmp	r0, #32
 1358 006e E0D1     		bne	.L274
 1359              	.L275:
 1360 0070 1023     		movs	r3, #16
 1361 0072 E363     		str	r3, [r4, #60]
 1362 0074 0320     		movs	r0, #3
 1363 0076 10BD     		pop	{r4, pc}
 1364              	.L276:
 1365 0078 606B     		ldr	r0, [r4, #52]
 1366 007a FFF7FEFF 		bl	HAL_DMA_GetError
 1367 007e 2028     		cmp	r0, #32
 1368 0080 E6D1     		bne	.L257
 1369 0082 F5E7     		b	.L275
 1371              		.section	.text.HAL_UART_AbortTransmit,"ax",%progbits
 1372              		.align	1
 1373              		.p2align 2,,3
 1374              		.global	HAL_UART_AbortTransmit
 1375              		.syntax unified
 1376              		.thumb
 1377              		.thumb_func
 1378              		.fpu fpv4-sp-d16
 1380              	HAL_UART_AbortTransmit:
 1381              		@ args = 0, pretend = 0, frame = 0
 1382              		@ frame_needed = 0, uses_anonymous_args = 0
 1383 0000 0368     		ldr	r3, [r0]
 1384 0002 DA68     		ldr	r2, [r3, #12]
 1385 0004 22F0C002 		bic	r2, r2, #192
 1386 0008 10B5     		push	{r4, lr}
 1387 000a DA60     		str	r2, [r3, #12]
 1388 000c 5A69     		ldr	r2, [r3, #20]
 1389 000e 1206     		lsls	r2, r2, #24
 1390 0010 0446     		mov	r4, r0
 1391 0012 0AD5     		bpl	.L278
 1392 0014 5A69     		ldr	r2, [r3, #20]
 1393 0016 006B     		ldr	r0, [r0, #48]
 1394 0018 22F08002 		bic	r2, r2, #128
 1395 001c 5A61     		str	r2, [r3, #20]
 1396 001e 20B1     		cbz	r0, .L278
 1397 0020 0023     		movs	r3, #0
 1398 0022 0365     		str	r3, [r0, #80]
 1399 0024 FFF7FEFF 		bl	HAL_DMA_Abort
 1400 0028 28B9     		cbnz	r0, .L290
 1401              	.L278:
 1402 002a 0020     		movs	r0, #0
 1403 002c 2023     		movs	r3, #32
 1404 002e E084     		strh	r0, [r4, #38]	@ movhi
 1405 0030 84F83930 		strb	r3, [r4, #57]
ARM GAS  D:\Programs\cygwin64\tmp\ccq4zhgw.s 			page 25


 1406 0034 10BD     		pop	{r4, pc}
 1407              	.L290:
 1408 0036 206B     		ldr	r0, [r4, #48]
 1409 0038 FFF7FEFF 		bl	HAL_DMA_GetError
 1410 003c 2028     		cmp	r0, #32
 1411 003e F4D1     		bne	.L278
 1412 0040 1023     		movs	r3, #16
 1413 0042 E363     		str	r3, [r4, #60]
 1414 0044 0320     		movs	r0, #3
 1415 0046 10BD     		pop	{r4, pc}
 1417              		.section	.text.HAL_UART_AbortReceive,"ax",%progbits
 1418              		.align	1
 1419              		.p2align 2,,3
 1420              		.global	HAL_UART_AbortReceive
 1421              		.syntax unified
 1422              		.thumb
 1423              		.thumb_func
 1424              		.fpu fpv4-sp-d16
 1426              	HAL_UART_AbortReceive:
 1427              		@ args = 0, pretend = 0, frame = 0
 1428              		@ frame_needed = 0, uses_anonymous_args = 0
 1429 0000 0368     		ldr	r3, [r0]
 1430 0002 DA68     		ldr	r2, [r3, #12]
 1431 0004 22F49072 		bic	r2, r2, #288
 1432 0008 10B5     		push	{r4, lr}
 1433 000a DA60     		str	r2, [r3, #12]
 1434 000c 5A69     		ldr	r2, [r3, #20]
 1435 000e 22F00102 		bic	r2, r2, #1
 1436 0012 5A61     		str	r2, [r3, #20]
 1437 0014 5A69     		ldr	r2, [r3, #20]
 1438 0016 5206     		lsls	r2, r2, #25
 1439 0018 0446     		mov	r4, r0
 1440 001a 0AD5     		bpl	.L292
 1441 001c 5A69     		ldr	r2, [r3, #20]
 1442 001e 406B     		ldr	r0, [r0, #52]
 1443 0020 22F04002 		bic	r2, r2, #64
 1444 0024 5A61     		str	r2, [r3, #20]
 1445 0026 20B1     		cbz	r0, .L292
 1446 0028 0023     		movs	r3, #0
 1447 002a 0365     		str	r3, [r0, #80]
 1448 002c FFF7FEFF 		bl	HAL_DMA_Abort
 1449 0030 28B9     		cbnz	r0, .L304
 1450              	.L292:
 1451 0032 0020     		movs	r0, #0
 1452 0034 2023     		movs	r3, #32
 1453 0036 E085     		strh	r0, [r4, #46]	@ movhi
 1454 0038 84F83A30 		strb	r3, [r4, #58]
 1455 003c 10BD     		pop	{r4, pc}
 1456              	.L304:
 1457 003e 606B     		ldr	r0, [r4, #52]
 1458 0040 FFF7FEFF 		bl	HAL_DMA_GetError
 1459 0044 2028     		cmp	r0, #32
 1460 0046 F4D1     		bne	.L292
 1461 0048 1023     		movs	r3, #16
 1462 004a E363     		str	r3, [r4, #60]
 1463 004c 0320     		movs	r0, #3
 1464 004e 10BD     		pop	{r4, pc}
ARM GAS  D:\Programs\cygwin64\tmp\ccq4zhgw.s 			page 26


 1466              		.section	.text.HAL_UART_TxCpltCallback,"ax",%progbits
 1467              		.align	1
 1468              		.p2align 2,,3
 1469              		.weak	HAL_UART_TxCpltCallback
 1470              		.syntax unified
 1471              		.thumb
 1472              		.thumb_func
 1473              		.fpu fpv4-sp-d16
 1475              	HAL_UART_TxCpltCallback:
 1476              		@ args = 0, pretend = 0, frame = 0
 1477              		@ frame_needed = 0, uses_anonymous_args = 0
 1478              		@ link register save eliminated.
 1479 0000 7047     		bx	lr
 1481 0002 00BF     		.section	.text.UART_DMATransmitCplt,"ax",%progbits
 1482              		.align	1
 1483              		.p2align 2,,3
 1484              		.syntax unified
 1485              		.thumb
 1486              		.thumb_func
 1487              		.fpu fpv4-sp-d16
 1489              	UART_DMATransmitCplt:
 1490              		@ args = 0, pretend = 0, frame = 0
 1491              		@ frame_needed = 0, uses_anonymous_args = 0
 1492 0000 08B5     		push	{r3, lr}
 1493 0002 0368     		ldr	r3, [r0]
 1494 0004 806B     		ldr	r0, [r0, #56]
 1495 0006 1B68     		ldr	r3, [r3]
 1496 0008 13F48073 		ands	r3, r3, #256
 1497 000c 0AD1     		bne	.L307
 1498 000e 0268     		ldr	r2, [r0]
 1499 0010 C384     		strh	r3, [r0, #38]	@ movhi
 1500 0012 5369     		ldr	r3, [r2, #20]
 1501 0014 23F08003 		bic	r3, r3, #128
 1502 0018 5361     		str	r3, [r2, #20]
 1503 001a D368     		ldr	r3, [r2, #12]
 1504 001c 43F04003 		orr	r3, r3, #64
 1505 0020 D360     		str	r3, [r2, #12]
 1506 0022 08BD     		pop	{r3, pc}
 1507              	.L307:
 1508 0024 FFF7FEFF 		bl	HAL_UART_TxCpltCallback
 1509 0028 08BD     		pop	{r3, pc}
 1511 002a 00BF     		.section	.text.HAL_UART_TxHalfCpltCallback,"ax",%progbits
 1512              		.align	1
 1513              		.p2align 2,,3
 1514              		.weak	HAL_UART_TxHalfCpltCallback
 1515              		.syntax unified
 1516              		.thumb
 1517              		.thumb_func
 1518              		.fpu fpv4-sp-d16
 1520              	HAL_UART_TxHalfCpltCallback:
 1521              		@ args = 0, pretend = 0, frame = 0
 1522              		@ frame_needed = 0, uses_anonymous_args = 0
 1523              		@ link register save eliminated.
 1524 0000 7047     		bx	lr
 1526 0002 00BF     		.section	.text.UART_DMATxHalfCplt,"ax",%progbits
 1527              		.align	1
 1528              		.p2align 2,,3
ARM GAS  D:\Programs\cygwin64\tmp\ccq4zhgw.s 			page 27


 1529              		.syntax unified
 1530              		.thumb
 1531              		.thumb_func
 1532              		.fpu fpv4-sp-d16
 1534              	UART_DMATxHalfCplt:
 1535              		@ args = 0, pretend = 0, frame = 0
 1536              		@ frame_needed = 0, uses_anonymous_args = 0
 1537 0000 08B5     		push	{r3, lr}
 1538 0002 806B     		ldr	r0, [r0, #56]
 1539 0004 FFF7FEFF 		bl	HAL_UART_TxHalfCpltCallback
 1540 0008 08BD     		pop	{r3, pc}
 1542 000a 00BF     		.section	.text.HAL_UART_RxCpltCallback,"ax",%progbits
 1543              		.align	1
 1544              		.p2align 2,,3
 1545              		.weak	HAL_UART_RxCpltCallback
 1546              		.syntax unified
 1547              		.thumb
 1548              		.thumb_func
 1549              		.fpu fpv4-sp-d16
 1551              	HAL_UART_RxCpltCallback:
 1552              		@ args = 0, pretend = 0, frame = 0
 1553              		@ frame_needed = 0, uses_anonymous_args = 0
 1554              		@ link register save eliminated.
 1555 0000 7047     		bx	lr
 1557 0002 00BF     		.section	.text.UART_DMAReceiveCplt,"ax",%progbits
 1558              		.align	1
 1559              		.p2align 2,,3
 1560              		.syntax unified
 1561              		.thumb
 1562              		.thumb_func
 1563              		.fpu fpv4-sp-d16
 1565              	UART_DMAReceiveCplt:
 1566              		@ args = 0, pretend = 0, frame = 0
 1567              		@ frame_needed = 0, uses_anonymous_args = 0
 1568 0000 08B5     		push	{r3, lr}
 1569 0002 0368     		ldr	r3, [r0]
 1570 0004 806B     		ldr	r0, [r0, #56]
 1571 0006 1B68     		ldr	r3, [r3]
 1572 0008 13F48073 		ands	r3, r3, #256
 1573 000c 10D1     		bne	.L315
 1574 000e 0268     		ldr	r2, [r0]
 1575 0010 C385     		strh	r3, [r0, #46]	@ movhi
 1576 0012 D368     		ldr	r3, [r2, #12]
 1577 0014 23F48073 		bic	r3, r3, #256
 1578 0018 D360     		str	r3, [r2, #12]
 1579 001a 5369     		ldr	r3, [r2, #20]
 1580 001c 23F00103 		bic	r3, r3, #1
 1581 0020 5361     		str	r3, [r2, #20]
 1582 0022 5369     		ldr	r3, [r2, #20]
 1583 0024 2021     		movs	r1, #32
 1584 0026 23F04003 		bic	r3, r3, #64
 1585 002a 5361     		str	r3, [r2, #20]
 1586 002c 80F83A10 		strb	r1, [r0, #58]
 1587              	.L315:
 1588 0030 FFF7FEFF 		bl	HAL_UART_RxCpltCallback
 1589 0034 08BD     		pop	{r3, pc}
 1591 0036 00BF     		.section	.text.UART_Receive_IT.part.1,"ax",%progbits
ARM GAS  D:\Programs\cygwin64\tmp\ccq4zhgw.s 			page 28


 1592              		.align	1
 1593              		.p2align 2,,3
 1594              		.syntax unified
 1595              		.thumb
 1596              		.thumb_func
 1597              		.fpu fpv4-sp-d16
 1599              	UART_Receive_IT.part.1:
 1600              		@ args = 0, pretend = 0, frame = 0
 1601              		@ frame_needed = 0, uses_anonymous_args = 0
 1602 0000 10B5     		push	{r4, lr}
 1603 0002 8468     		ldr	r4, [r0, #8]
 1604 0004 0169     		ldr	r1, [r0, #16]
 1605 0006 836A     		ldr	r3, [r0, #40]
 1606 0008 0268     		ldr	r2, [r0]
 1607 000a B4F5805F 		cmp	r4, #4096
 1608 000e 0ED0     		beq	.L325
 1609 0010 5C1C     		adds	r4, r3, #1
 1610 0012 5268     		ldr	r2, [r2, #4]
 1611 0014 8462     		str	r4, [r0, #40]
 1612 0016 39B9     		cbnz	r1, .L321
 1613              	.L324:
 1614 0018 1A70     		strb	r2, [r3]
 1615              	.L320:
 1616 001a C38D     		ldrh	r3, [r0, #46]
 1617 001c 013B     		subs	r3, r3, #1
 1618 001e 9BB2     		uxth	r3, r3
 1619 0020 C385     		strh	r3, [r0, #46]	@ movhi
 1620 0022 63B1     		cbz	r3, .L326
 1621 0024 0020     		movs	r0, #0
 1622 0026 10BD     		pop	{r4, pc}
 1623              	.L321:
 1624 0028 02F07F02 		and	r2, r2, #127
 1625 002c F4E7     		b	.L324
 1626              	.L325:
 1627 002e 5268     		ldr	r2, [r2, #4]
 1628 0030 C9B9     		cbnz	r1, .L319
 1629 0032 C2F30802 		ubfx	r2, r2, #0, #9
 1630 0036 23F8022B 		strh	r2, [r3], #2	@ movhi
 1631 003a 8362     		str	r3, [r0, #40]
 1632 003c EDE7     		b	.L320
 1633              	.L326:
 1634 003e 0268     		ldr	r2, [r0]
 1635 0040 D168     		ldr	r1, [r2, #12]
 1636 0042 21F02001 		bic	r1, r1, #32
 1637 0046 D160     		str	r1, [r2, #12]
 1638 0048 D168     		ldr	r1, [r2, #12]
 1639 004a 21F48071 		bic	r1, r1, #256
 1640 004e D160     		str	r1, [r2, #12]
 1641 0050 5169     		ldr	r1, [r2, #20]
 1642 0052 2024     		movs	r4, #32
 1643 0054 21F00101 		bic	r1, r1, #1
 1644 0058 5161     		str	r1, [r2, #20]
 1645 005a 80F83A40 		strb	r4, [r0, #58]
 1646 005e FFF7FEFF 		bl	HAL_UART_RxCpltCallback
 1647 0062 0020     		movs	r0, #0
 1648 0064 10BD     		pop	{r4, pc}
 1649              	.L319:
ARM GAS  D:\Programs\cygwin64\tmp\ccq4zhgw.s 			page 29


 1650 0066 D2B2     		uxtb	r2, r2
 1651 0068 23F8012B 		strh	r2, [r3], #1	@ movhi
 1652 006c 8362     		str	r3, [r0, #40]
 1653 006e D4E7     		b	.L320
 1655              		.section	.text.HAL_UART_RxHalfCpltCallback,"ax",%progbits
 1656              		.align	1
 1657              		.p2align 2,,3
 1658              		.weak	HAL_UART_RxHalfCpltCallback
 1659              		.syntax unified
 1660              		.thumb
 1661              		.thumb_func
 1662              		.fpu fpv4-sp-d16
 1664              	HAL_UART_RxHalfCpltCallback:
 1665              		@ args = 0, pretend = 0, frame = 0
 1666              		@ frame_needed = 0, uses_anonymous_args = 0
 1667              		@ link register save eliminated.
 1668 0000 7047     		bx	lr
 1670 0002 00BF     		.section	.text.UART_DMARxHalfCplt,"ax",%progbits
 1671              		.align	1
 1672              		.p2align 2,,3
 1673              		.syntax unified
 1674              		.thumb
 1675              		.thumb_func
 1676              		.fpu fpv4-sp-d16
 1678              	UART_DMARxHalfCplt:
 1679              		@ args = 0, pretend = 0, frame = 0
 1680              		@ frame_needed = 0, uses_anonymous_args = 0
 1681 0000 08B5     		push	{r3, lr}
 1682 0002 806B     		ldr	r0, [r0, #56]
 1683 0004 FFF7FEFF 		bl	HAL_UART_RxHalfCpltCallback
 1684 0008 08BD     		pop	{r3, pc}
 1686 000a 00BF     		.section	.text.HAL_UART_ErrorCallback,"ax",%progbits
 1687              		.align	1
 1688              		.p2align 2,,3
 1689              		.weak	HAL_UART_ErrorCallback
 1690              		.syntax unified
 1691              		.thumb
 1692              		.thumb_func
 1693              		.fpu fpv4-sp-d16
 1695              	HAL_UART_ErrorCallback:
 1696              		@ args = 0, pretend = 0, frame = 0
 1697              		@ frame_needed = 0, uses_anonymous_args = 0
 1698              		@ link register save eliminated.
 1699 0000 7047     		bx	lr
 1701 0002 00BF     		.section	.text.UART_DMAError,"ax",%progbits
 1702              		.align	1
 1703              		.p2align 2,,3
 1704              		.syntax unified
 1705              		.thumb
 1706              		.thumb_func
 1707              		.fpu fpv4-sp-d16
 1709              	UART_DMAError:
 1710              		@ args = 0, pretend = 0, frame = 0
 1711              		@ frame_needed = 0, uses_anonymous_args = 0
 1712 0000 806B     		ldr	r0, [r0, #56]
 1713 0002 08B5     		push	{r3, lr}
 1714 0004 0368     		ldr	r3, [r0]
ARM GAS  D:\Programs\cygwin64\tmp\ccq4zhgw.s 			page 30


 1715 0006 5969     		ldr	r1, [r3, #20]
 1716 0008 90F83920 		ldrb	r2, [r0, #57]	@ zero_extendqisi2
 1717 000c 212A     		cmp	r2, #33
 1718 000e 0BD0     		beq	.L341
 1719              	.L332:
 1720 0010 5969     		ldr	r1, [r3, #20]
 1721 0012 90F83A20 		ldrb	r2, [r0, #58]	@ zero_extendqisi2
 1722 0016 222A     		cmp	r2, #34
 1723 0018 16D0     		beq	.L342
 1724              	.L333:
 1725 001a C36B     		ldr	r3, [r0, #60]
 1726 001c 43F01003 		orr	r3, r3, #16
 1727 0020 C363     		str	r3, [r0, #60]
 1728 0022 FFF7FEFF 		bl	HAL_UART_ErrorCallback
 1729 0026 08BD     		pop	{r3, pc}
 1730              	.L341:
 1731 0028 0906     		lsls	r1, r1, #24
 1732 002a F1D5     		bpl	.L332
 1733 002c 0022     		movs	r2, #0
 1734 002e C284     		strh	r2, [r0, #38]	@ movhi
 1735 0030 DA68     		ldr	r2, [r3, #12]
 1736 0032 2021     		movs	r1, #32
 1737 0034 22F0C002 		bic	r2, r2, #192
 1738 0038 DA60     		str	r2, [r3, #12]
 1739 003a 80F83910 		strb	r1, [r0, #57]
 1740 003e 5969     		ldr	r1, [r3, #20]
 1741 0040 90F83A20 		ldrb	r2, [r0, #58]	@ zero_extendqisi2
 1742 0044 222A     		cmp	r2, #34
 1743 0046 E8D1     		bne	.L333
 1744              	.L342:
 1745 0048 4A06     		lsls	r2, r1, #25
 1746 004a E6D5     		bpl	.L333
 1747 004c 0022     		movs	r2, #0
 1748 004e C285     		strh	r2, [r0, #46]	@ movhi
 1749 0050 DA68     		ldr	r2, [r3, #12]
 1750 0052 22F49072 		bic	r2, r2, #288
 1751 0056 DA60     		str	r2, [r3, #12]
 1752 0058 5A69     		ldr	r2, [r3, #20]
 1753 005a 2021     		movs	r1, #32
 1754 005c 22F00102 		bic	r2, r2, #1
 1755 0060 5A61     		str	r2, [r3, #20]
 1756 0062 80F83A10 		strb	r1, [r0, #58]
 1757 0066 D8E7     		b	.L333
 1759              		.section	.text.HAL_UART_IRQHandler,"ax",%progbits
 1760              		.align	1
 1761              		.p2align 2,,3
 1762              		.global	HAL_UART_IRQHandler
 1763              		.syntax unified
 1764              		.thumb
 1765              		.thumb_func
 1766              		.fpu fpv4-sp-d16
 1768              	HAL_UART_IRQHandler:
 1769              		@ args = 0, pretend = 0, frame = 0
 1770              		@ frame_needed = 0, uses_anonymous_args = 0
 1771 0000 0368     		ldr	r3, [r0]
 1772 0002 1A68     		ldr	r2, [r3]
 1773 0004 70B5     		push	{r4, r5, r6, lr}
ARM GAS  D:\Programs\cygwin64\tmp\ccq4zhgw.s 			page 31


 1774 0006 1607     		lsls	r6, r2, #28
 1775 0008 DD68     		ldr	r5, [r3, #12]
 1776 000a 5969     		ldr	r1, [r3, #20]
 1777 000c 0446     		mov	r4, r0
 1778 000e 0CD1     		bne	.L344
 1779 0010 9606     		lsls	r6, r2, #26
 1780 0012 01D5     		bpl	.L345
 1781 0014 A906     		lsls	r1, r5, #26
 1782 0016 4BD4     		bmi	.L422
 1783              	.L345:
 1784 0018 1606     		lsls	r6, r2, #24
 1785 001a 01D5     		bpl	.L361
 1786 001c 2806     		lsls	r0, r5, #24
 1787 001e 4FD4     		bmi	.L423
 1788              	.L361:
 1789 0020 5106     		lsls	r1, r2, #25
 1790 0022 01D5     		bpl	.L343
 1791 0024 6A06     		lsls	r2, r5, #25
 1792 0026 67D4     		bmi	.L424
 1793              	.L343:
 1794 0028 70BD     		pop	{r4, r5, r6, pc}
 1795              	.L344:
 1796 002a 01F00101 		and	r1, r1, #1
 1797 002e 05F49070 		and	r0, r5, #288
 1798 0032 0843     		orrs	r0, r0, r1
 1799 0034 F0D0     		beq	.L345
 1800 0036 D607     		lsls	r6, r2, #31
 1801 0038 05D5     		bpl	.L348
 1802 003a E805     		lsls	r0, r5, #23
 1803 003c 03D5     		bpl	.L348
 1804 003e E06B     		ldr	r0, [r4, #60]
 1805 0040 40F00100 		orr	r0, r0, #1
 1806 0044 E063     		str	r0, [r4, #60]
 1807              	.L348:
 1808 0046 5607     		lsls	r6, r2, #29
 1809 0048 02F00200 		and	r0, r2, #2
 1810 004c 29D5     		bpl	.L349
 1811 004e 61B1     		cbz	r1, .L351
 1812 0050 E16B     		ldr	r1, [r4, #60]
 1813 0052 41F00201 		orr	r1, r1, #2
 1814 0056 E163     		str	r1, [r4, #60]
 1815 0058 02F00806 		and	r6, r2, #8
 1816 005c 18B1     		cbz	r0, .L421
 1817              	.L352:
 1818 005e E16B     		ldr	r1, [r4, #60]
 1819 0060 41F00401 		orr	r1, r1, #4
 1820 0064 E163     		str	r1, [r4, #60]
 1821              	.L421:
 1822 0066 002E     		cmp	r6, #0
 1823 0068 55D1     		bne	.L356
 1824              	.L351:
 1825 006a E16B     		ldr	r1, [r4, #60]
 1826 006c 0029     		cmp	r1, #0
 1827 006e DBD0     		beq	.L343
 1828 0070 9006     		lsls	r0, r2, #26
 1829 0072 09D5     		bpl	.L358
 1830 0074 A906     		lsls	r1, r5, #26
ARM GAS  D:\Programs\cygwin64\tmp\ccq4zhgw.s 			page 32


 1831 0076 07D5     		bpl	.L358
 1832 0078 94F83A20 		ldrb	r2, [r4, #58]	@ zero_extendqisi2
 1833 007c 222A     		cmp	r2, #34
 1834 007e 03D1     		bne	.L358
 1835 0080 2046     		mov	r0, r4
 1836 0082 FFF7FEFF 		bl	UART_Receive_IT.part.1
 1837 0086 2368     		ldr	r3, [r4]
 1838              	.L358:
 1839 0088 5A69     		ldr	r2, [r3, #20]
 1840 008a E56B     		ldr	r5, [r4, #60]
 1841 008c 02F04002 		and	r2, r2, #64
 1842 0090 05F00805 		and	r5, r5, #8
 1843 0094 1543     		orrs	r5, r2, r5
 1844 0096 43D1     		bne	.L425
 1845 0098 2046     		mov	r0, r4
 1846 009a FFF7FEFF 		bl	HAL_UART_ErrorCallback
 1847 009e E563     		str	r5, [r4, #60]
 1848 00a0 70BD     		pop	{r4, r5, r6, pc}
 1849              	.L349:
 1850 00a2 0028     		cmp	r0, #0
 1851 00a4 33D0     		beq	.L354
 1852 00a6 0029     		cmp	r1, #0
 1853 00a8 DFD0     		beq	.L351
 1854 00aa 02F00806 		and	r6, r2, #8
 1855 00ae D6E7     		b	.L352
 1856              	.L422:
 1857 00b0 90F83A30 		ldrb	r3, [r0, #58]	@ zero_extendqisi2
 1858 00b4 222B     		cmp	r3, #34
 1859 00b6 B7D1     		bne	.L343
 1860 00b8 BDE87040 		pop	{r4, r5, r6, lr}
 1861 00bc FFF7FEBF 		b	UART_Receive_IT.part.1
 1862              	.L423:
 1863 00c0 94F83920 		ldrb	r2, [r4, #57]	@ zero_extendqisi2
 1864 00c4 212A     		cmp	r2, #33
 1865 00c6 AFD1     		bne	.L343
 1866 00c8 A168     		ldr	r1, [r4, #8]
 1867 00ca 226A     		ldr	r2, [r4, #32]
 1868 00cc B1F5805F 		cmp	r1, #4096
 1869 00d0 4AD0     		beq	.L426
 1870 00d2 511C     		adds	r1, r2, #1
 1871 00d4 2162     		str	r1, [r4, #32]
 1872 00d6 1278     		ldrb	r2, [r2]	@ zero_extendqisi2
 1873 00d8 5A60     		str	r2, [r3, #4]
 1874              	.L364:
 1875 00da E28C     		ldrh	r2, [r4, #38]
 1876 00dc 013A     		subs	r2, r2, #1
 1877 00de 92B2     		uxth	r2, r2
 1878 00e0 E284     		strh	r2, [r4, #38]	@ movhi
 1879 00e2 002A     		cmp	r2, #0
 1880 00e4 A0D1     		bne	.L343
 1881 00e6 DA68     		ldr	r2, [r3, #12]
 1882 00e8 22F08002 		bic	r2, r2, #128
 1883 00ec DA60     		str	r2, [r3, #12]
 1884 00ee DA68     		ldr	r2, [r3, #12]
 1885 00f0 42F04002 		orr	r2, r2, #64
 1886 00f4 DA60     		str	r2, [r3, #12]
 1887 00f6 70BD     		pop	{r4, r5, r6, pc}
ARM GAS  D:\Programs\cygwin64\tmp\ccq4zhgw.s 			page 33


 1888              	.L424:
 1889 00f8 DA68     		ldr	r2, [r3, #12]
 1890 00fa 2021     		movs	r1, #32
 1891 00fc 22F04002 		bic	r2, r2, #64
 1892 0100 DA60     		str	r2, [r3, #12]
 1893 0102 2046     		mov	r0, r4
 1894 0104 84F83910 		strb	r1, [r4, #57]
 1895 0108 FFF7FEFF 		bl	HAL_UART_TxCpltCallback
 1896 010c 70BD     		pop	{r4, r5, r6, pc}
 1897              	.L354:
 1898 010e 1607     		lsls	r6, r2, #28
 1899 0110 ABD5     		bpl	.L351
 1900 0112 0029     		cmp	r1, #0
 1901 0114 A9D0     		beq	.L351
 1902              	.L356:
 1903 0116 E16B     		ldr	r1, [r4, #60]
 1904 0118 41F00801 		orr	r1, r1, #8
 1905 011c E163     		str	r1, [r4, #60]
 1906 011e A4E7     		b	.L351
 1907              	.L425:
 1908 0120 DA68     		ldr	r2, [r3, #12]
 1909 0122 22F49072 		bic	r2, r2, #288
 1910 0126 DA60     		str	r2, [r3, #12]
 1911 0128 5A69     		ldr	r2, [r3, #20]
 1912 012a 2021     		movs	r1, #32
 1913 012c 22F00102 		bic	r2, r2, #1
 1914 0130 5A61     		str	r2, [r3, #20]
 1915 0132 84F83A10 		strb	r1, [r4, #58]
 1916 0136 5A69     		ldr	r2, [r3, #20]
 1917 0138 5206     		lsls	r2, r2, #25
 1918 013a 11D5     		bpl	.L360
 1919 013c 5A69     		ldr	r2, [r3, #20]
 1920 013e 606B     		ldr	r0, [r4, #52]
 1921 0140 22F04002 		bic	r2, r2, #64
 1922 0144 5A61     		str	r2, [r3, #20]
 1923 0146 58B1     		cbz	r0, .L360
 1924 0148 0D4B     		ldr	r3, .L427
 1925 014a 0365     		str	r3, [r0, #80]
 1926 014c FFF7FEFF 		bl	HAL_DMA_Abort_IT
 1927 0150 0028     		cmp	r0, #0
 1928 0152 3FF469AF 		beq	.L343
 1929 0156 606B     		ldr	r0, [r4, #52]
 1930 0158 BDE87040 		pop	{r4, r5, r6, lr}
 1931 015c 036D     		ldr	r3, [r0, #80]
 1932 015e 1847     		bx	r3	@ indirect register sibling call
 1933              	.L360:
 1934 0160 2046     		mov	r0, r4
 1935 0162 FFF7FEFF 		bl	HAL_UART_ErrorCallback
 1936 0166 70BD     		pop	{r4, r5, r6, pc}
 1937              	.L426:
 1938 0168 1188     		ldrh	r1, [r2]
 1939 016a 2069     		ldr	r0, [r4, #16]
 1940 016c C1F30801 		ubfx	r1, r1, #0, #9
 1941 0170 5960     		str	r1, [r3, #4]
 1942 0172 10B9     		cbnz	r0, .L363
 1943 0174 0232     		adds	r2, r2, #2
 1944 0176 2262     		str	r2, [r4, #32]
ARM GAS  D:\Programs\cygwin64\tmp\ccq4zhgw.s 			page 34


 1945 0178 AFE7     		b	.L364
 1946              	.L363:
 1947 017a 0132     		adds	r2, r2, #1
 1948 017c 2262     		str	r2, [r4, #32]
 1949 017e ACE7     		b	.L364
 1950              	.L428:
 1951              		.align	2
 1952              	.L427:
 1953 0180 00000000 		.word	UART_DMAAbortOnError
 1955              		.section	.text.UART_DMAAbortOnError,"ax",%progbits
 1956              		.align	1
 1957              		.p2align 2,,3
 1958              		.syntax unified
 1959              		.thumb
 1960              		.thumb_func
 1961              		.fpu fpv4-sp-d16
 1963              	UART_DMAAbortOnError:
 1964              		@ args = 0, pretend = 0, frame = 0
 1965              		@ frame_needed = 0, uses_anonymous_args = 0
 1966 0000 08B5     		push	{r3, lr}
 1967 0002 836B     		ldr	r3, [r0, #56]
 1968 0004 0022     		movs	r2, #0
 1969 0006 DA85     		strh	r2, [r3, #46]	@ movhi
 1970 0008 1846     		mov	r0, r3
 1971 000a DA84     		strh	r2, [r3, #38]	@ movhi
 1972 000c FFF7FEFF 		bl	HAL_UART_ErrorCallback
 1973 0010 08BD     		pop	{r3, pc}
 1975 0012 00BF     		.section	.text.HAL_UART_AbortCpltCallback,"ax",%progbits
 1976              		.align	1
 1977              		.p2align 2,,3
 1978              		.weak	HAL_UART_AbortCpltCallback
 1979              		.syntax unified
 1980              		.thumb
 1981              		.thumb_func
 1982              		.fpu fpv4-sp-d16
 1984              	HAL_UART_AbortCpltCallback:
 1985              		@ args = 0, pretend = 0, frame = 0
 1986              		@ frame_needed = 0, uses_anonymous_args = 0
 1987              		@ link register save eliminated.
 1988 0000 7047     		bx	lr
 1990 0002 00BF     		.section	.text.HAL_UART_Abort_IT,"ax",%progbits
 1991              		.align	1
 1992              		.p2align 2,,3
 1993              		.global	HAL_UART_Abort_IT
 1994              		.syntax unified
 1995              		.thumb
 1996              		.thumb_func
 1997              		.fpu fpv4-sp-d16
 1999              	HAL_UART_Abort_IT:
 2000              		@ args = 0, pretend = 0, frame = 0
 2001              		@ frame_needed = 0, uses_anonymous_args = 0
 2002 0000 0368     		ldr	r3, [r0]
 2003 0002 DA68     		ldr	r2, [r3, #12]
 2004 0004 22F4F072 		bic	r2, r2, #480
 2005 0008 10B5     		push	{r4, lr}
 2006 000a 0446     		mov	r4, r0
 2007 000c 006B     		ldr	r0, [r0, #48]
ARM GAS  D:\Programs\cygwin64\tmp\ccq4zhgw.s 			page 35


 2008 000e DA60     		str	r2, [r3, #12]
 2009 0010 5A69     		ldr	r2, [r3, #20]
 2010 0012 22F00102 		bic	r2, r2, #1
 2011 0016 5A61     		str	r2, [r3, #20]
 2012 0018 28B1     		cbz	r0, .L433
 2013 001a 5A69     		ldr	r2, [r3, #20]
 2014 001c 12F08002 		ands	r2, r2, #128
 2015 0020 18BF     		it	ne
 2016 0022 214A     		ldrne	r2, .L463
 2017 0024 0265     		str	r2, [r0, #80]
 2018              	.L433:
 2019 0026 616B     		ldr	r1, [r4, #52]
 2020 0028 29B1     		cbz	r1, .L435
 2021 002a 5A69     		ldr	r2, [r3, #20]
 2022 002c 12F04002 		ands	r2, r2, #64
 2023 0030 18BF     		it	ne
 2024 0032 1E4A     		ldrne	r2, .L463+4
 2025 0034 0A65     		str	r2, [r1, #80]
 2026              	.L435:
 2027 0036 5A69     		ldr	r2, [r3, #20]
 2028 0038 1206     		lsls	r2, r2, #24
 2029 003a 0BD5     		bpl	.L437
 2030 003c 5A69     		ldr	r2, [r3, #20]
 2031 003e 22F08002 		bic	r2, r2, #128
 2032 0042 5A61     		str	r2, [r3, #20]
 2033 0044 30B1     		cbz	r0, .L437
 2034 0046 FFF7FEFF 		bl	HAL_DMA_Abort_IT
 2035 004a 00B3     		cbz	r0, .L438
 2036 004c 226B     		ldr	r2, [r4, #48]
 2037 004e 2368     		ldr	r3, [r4]
 2038 0050 0021     		movs	r1, #0
 2039 0052 1165     		str	r1, [r2, #80]
 2040              	.L437:
 2041 0054 5A69     		ldr	r2, [r3, #20]
 2042 0056 5206     		lsls	r2, r2, #25
 2043 0058 0BD5     		bpl	.L440
 2044 005a 5A69     		ldr	r2, [r3, #20]
 2045 005c 606B     		ldr	r0, [r4, #52]
 2046 005e 22F04002 		bic	r2, r2, #64
 2047 0062 5A61     		str	r2, [r3, #20]
 2048 0064 28B1     		cbz	r0, .L440
 2049              	.L439:
 2050 0066 FFF7FEFF 		bl	HAL_DMA_Abort_IT
 2051 006a 70B1     		cbz	r0, .L456
 2052 006c 636B     		ldr	r3, [r4, #52]
 2053 006e 0022     		movs	r2, #0
 2054 0070 1A65     		str	r2, [r3, #80]
 2055              	.L440:
 2056 0072 0023     		movs	r3, #0
 2057 0074 2022     		movs	r2, #32
 2058 0076 E384     		strh	r3, [r4, #38]	@ movhi
 2059 0078 2046     		mov	r0, r4
 2060 007a E385     		strh	r3, [r4, #46]	@ movhi
 2061 007c E363     		str	r3, [r4, #60]
 2062 007e 84F83920 		strb	r2, [r4, #57]
 2063 0082 84F83A20 		strb	r2, [r4, #58]
 2064 0086 FFF7FEFF 		bl	HAL_UART_AbortCpltCallback
ARM GAS  D:\Programs\cygwin64\tmp\ccq4zhgw.s 			page 36


 2065              	.L456:
 2066 008a 0020     		movs	r0, #0
 2067 008c 10BD     		pop	{r4, pc}
 2068              	.L438:
 2069 008e 2368     		ldr	r3, [r4]
 2070 0090 5A69     		ldr	r2, [r3, #20]
 2071 0092 5106     		lsls	r1, r2, #25
 2072 0094 F9D5     		bpl	.L456
 2073 0096 5A69     		ldr	r2, [r3, #20]
 2074 0098 606B     		ldr	r0, [r4, #52]
 2075 009a 22F04002 		bic	r2, r2, #64
 2076 009e 5A61     		str	r2, [r3, #20]
 2077 00a0 0028     		cmp	r0, #0
 2078 00a2 E0D1     		bne	.L439
 2079 00a4 F1E7     		b	.L456
 2080              	.L464:
 2081 00a6 00BF     		.align	2
 2082              	.L463:
 2083 00a8 00000000 		.word	UART_DMATxAbortCallback
 2084 00ac 00000000 		.word	UART_DMARxAbortCallback
 2086              		.section	.text.UART_DMARxAbortCallback,"ax",%progbits
 2087              		.align	1
 2088              		.p2align 2,,3
 2089              		.syntax unified
 2090              		.thumb
 2091              		.thumb_func
 2092              		.fpu fpv4-sp-d16
 2094              	UART_DMARxAbortCallback:
 2095              		@ args = 0, pretend = 0, frame = 0
 2096              		@ frame_needed = 0, uses_anonymous_args = 0
 2097 0000 08B5     		push	{r3, lr}
 2098 0002 836B     		ldr	r3, [r0, #56]
 2099 0004 D3E90C21 		ldrd	r2, r1, [r3, #48]
 2100 0008 0020     		movs	r0, #0
 2101 000a 0865     		str	r0, [r1, #80]
 2102 000c 12B1     		cbz	r2, .L466
 2103 000e 126D     		ldr	r2, [r2, #80]
 2104 0010 02B1     		cbz	r2, .L466
 2105 0012 08BD     		pop	{r3, pc}
 2106              	.L466:
 2107 0014 0022     		movs	r2, #0
 2108 0016 2021     		movs	r1, #32
 2109 0018 DA84     		strh	r2, [r3, #38]	@ movhi
 2110 001a 1846     		mov	r0, r3
 2111 001c DA85     		strh	r2, [r3, #46]	@ movhi
 2112 001e DA63     		str	r2, [r3, #60]
 2113 0020 83F83910 		strb	r1, [r3, #57]
 2114 0024 83F83A10 		strb	r1, [r3, #58]
 2115 0028 FFF7FEFF 		bl	HAL_UART_AbortCpltCallback
 2116 002c 08BD     		pop	{r3, pc}
 2118 002e 00BF     		.section	.text.UART_DMATxAbortCallback,"ax",%progbits
 2119              		.align	1
 2120              		.p2align 2,,3
 2121              		.syntax unified
 2122              		.thumb
 2123              		.thumb_func
 2124              		.fpu fpv4-sp-d16
ARM GAS  D:\Programs\cygwin64\tmp\ccq4zhgw.s 			page 37


 2126              	UART_DMATxAbortCallback:
 2127              		@ args = 0, pretend = 0, frame = 0
 2128              		@ frame_needed = 0, uses_anonymous_args = 0
 2129 0000 08B5     		push	{r3, lr}
 2130 0002 836B     		ldr	r3, [r0, #56]
 2131 0004 D3E90C12 		ldrd	r1, r2, [r3, #48]
 2132 0008 0020     		movs	r0, #0
 2133 000a 0865     		str	r0, [r1, #80]
 2134 000c 12B1     		cbz	r2, .L473
 2135 000e 126D     		ldr	r2, [r2, #80]
 2136 0010 02B1     		cbz	r2, .L473
 2137 0012 08BD     		pop	{r3, pc}
 2138              	.L473:
 2139 0014 0022     		movs	r2, #0
 2140 0016 2021     		movs	r1, #32
 2141 0018 DA84     		strh	r2, [r3, #38]	@ movhi
 2142 001a 1846     		mov	r0, r3
 2143 001c DA85     		strh	r2, [r3, #46]	@ movhi
 2144 001e DA63     		str	r2, [r3, #60]
 2145 0020 83F83910 		strb	r1, [r3, #57]
 2146 0024 83F83A10 		strb	r1, [r3, #58]
 2147 0028 FFF7FEFF 		bl	HAL_UART_AbortCpltCallback
 2148 002c 08BD     		pop	{r3, pc}
 2150 002e 00BF     		.section	.text.HAL_UART_AbortTransmitCpltCallback,"ax",%progbits
 2151              		.align	1
 2152              		.p2align 2,,3
 2153              		.weak	HAL_UART_AbortTransmitCpltCallback
 2154              		.syntax unified
 2155              		.thumb
 2156              		.thumb_func
 2157              		.fpu fpv4-sp-d16
 2159              	HAL_UART_AbortTransmitCpltCallback:
 2160              		@ args = 0, pretend = 0, frame = 0
 2161              		@ frame_needed = 0, uses_anonymous_args = 0
 2162              		@ link register save eliminated.
 2163 0000 7047     		bx	lr
 2165 0002 00BF     		.section	.text.HAL_UART_AbortTransmit_IT,"ax",%progbits
 2166              		.align	1
 2167              		.p2align 2,,3
 2168              		.global	HAL_UART_AbortTransmit_IT
 2169              		.syntax unified
 2170              		.thumb
 2171              		.thumb_func
 2172              		.fpu fpv4-sp-d16
 2174              	HAL_UART_AbortTransmit_IT:
 2175              		@ args = 0, pretend = 0, frame = 0
 2176              		@ frame_needed = 0, uses_anonymous_args = 0
 2177 0000 0368     		ldr	r3, [r0]
 2178 0002 DA68     		ldr	r2, [r3, #12]
 2179 0004 22F0C002 		bic	r2, r2, #192
 2180 0008 10B5     		push	{r4, lr}
 2181 000a DA60     		str	r2, [r3, #12]
 2182 000c 5A69     		ldr	r2, [r3, #20]
 2183 000e 12F08002 		ands	r2, r2, #128
 2184 0012 0446     		mov	r4, r0
 2185 0014 18D0     		beq	.L481
 2186 0016 5A69     		ldr	r2, [r3, #20]
ARM GAS  D:\Programs\cygwin64\tmp\ccq4zhgw.s 			page 38


 2187 0018 016B     		ldr	r1, [r0, #48]
 2188 001a 22F08002 		bic	r2, r2, #128
 2189 001e 5A61     		str	r2, [r3, #20]
 2190 0020 51B1     		cbz	r1, .L482
 2191 0022 0D4B     		ldr	r3, .L488
 2192 0024 0B65     		str	r3, [r1, #80]
 2193 0026 0846     		mov	r0, r1
 2194 0028 FFF7FEFF 		bl	HAL_DMA_Abort_IT
 2195 002c 10B1     		cbz	r0, .L483
 2196 002e 206B     		ldr	r0, [r4, #48]
 2197 0030 036D     		ldr	r3, [r0, #80]
 2198 0032 9847     		blx	r3
 2199              	.L483:
 2200 0034 0020     		movs	r0, #0
 2201 0036 10BD     		pop	{r4, pc}
 2202              	.L482:
 2203 0038 2023     		movs	r3, #32
 2204 003a C184     		strh	r1, [r0, #38]	@ movhi
 2205 003c 80F83930 		strb	r3, [r0, #57]
 2206 0040 FFF7FEFF 		bl	HAL_UART_AbortTransmitCpltCallback
 2207 0044 0020     		movs	r0, #0
 2208 0046 10BD     		pop	{r4, pc}
 2209              	.L481:
 2210 0048 2023     		movs	r3, #32
 2211 004a C284     		strh	r2, [r0, #38]	@ movhi
 2212 004c 80F83930 		strb	r3, [r0, #57]
 2213 0050 FFF7FEFF 		bl	HAL_UART_AbortTransmitCpltCallback
 2214 0054 0020     		movs	r0, #0
 2215 0056 10BD     		pop	{r4, pc}
 2216              	.L489:
 2217              		.align	2
 2218              	.L488:
 2219 0058 00000000 		.word	UART_DMATxOnlyAbortCallback
 2221              		.section	.text.UART_DMATxOnlyAbortCallback,"ax",%progbits
 2222              		.align	1
 2223              		.p2align 2,,3
 2224              		.syntax unified
 2225              		.thumb
 2226              		.thumb_func
 2227              		.fpu fpv4-sp-d16
 2229              	UART_DMATxOnlyAbortCallback:
 2230              		@ args = 0, pretend = 0, frame = 0
 2231              		@ frame_needed = 0, uses_anonymous_args = 0
 2232 0000 08B5     		push	{r3, lr}
 2233 0002 836B     		ldr	r3, [r0, #56]
 2234 0004 0021     		movs	r1, #0
 2235 0006 2022     		movs	r2, #32
 2236 0008 D984     		strh	r1, [r3, #38]	@ movhi
 2237 000a 1846     		mov	r0, r3
 2238 000c 83F83920 		strb	r2, [r3, #57]
 2239 0010 FFF7FEFF 		bl	HAL_UART_AbortTransmitCpltCallback
 2240 0014 08BD     		pop	{r3, pc}
 2242 0016 00BF     		.section	.text.HAL_UART_AbortReceiveCpltCallback,"ax",%progbits
 2243              		.align	1
 2244              		.p2align 2,,3
 2245              		.weak	HAL_UART_AbortReceiveCpltCallback
 2246              		.syntax unified
ARM GAS  D:\Programs\cygwin64\tmp\ccq4zhgw.s 			page 39


 2247              		.thumb
 2248              		.thumb_func
 2249              		.fpu fpv4-sp-d16
 2251              	HAL_UART_AbortReceiveCpltCallback:
 2252              		@ args = 0, pretend = 0, frame = 0
 2253              		@ frame_needed = 0, uses_anonymous_args = 0
 2254              		@ link register save eliminated.
 2255 0000 7047     		bx	lr
 2257 0002 00BF     		.section	.text.HAL_UART_AbortReceive_IT,"ax",%progbits
 2258              		.align	1
 2259              		.p2align 2,,3
 2260              		.global	HAL_UART_AbortReceive_IT
 2261              		.syntax unified
 2262              		.thumb
 2263              		.thumb_func
 2264              		.fpu fpv4-sp-d16
 2266              	HAL_UART_AbortReceive_IT:
 2267              		@ args = 0, pretend = 0, frame = 0
 2268              		@ frame_needed = 0, uses_anonymous_args = 0
 2269 0000 0368     		ldr	r3, [r0]
 2270 0002 DA68     		ldr	r2, [r3, #12]
 2271 0004 22F49072 		bic	r2, r2, #288
 2272 0008 10B5     		push	{r4, lr}
 2273 000a DA60     		str	r2, [r3, #12]
 2274 000c 5A69     		ldr	r2, [r3, #20]
 2275 000e 22F00102 		bic	r2, r2, #1
 2276 0012 5A61     		str	r2, [r3, #20]
 2277 0014 5A69     		ldr	r2, [r3, #20]
 2278 0016 12F04002 		ands	r2, r2, #64
 2279 001a 0446     		mov	r4, r0
 2280 001c 18D0     		beq	.L494
 2281 001e 5A69     		ldr	r2, [r3, #20]
 2282 0020 416B     		ldr	r1, [r0, #52]
 2283 0022 22F04002 		bic	r2, r2, #64
 2284 0026 5A61     		str	r2, [r3, #20]
 2285 0028 51B1     		cbz	r1, .L495
 2286 002a 0D4B     		ldr	r3, .L501
 2287 002c 0B65     		str	r3, [r1, #80]
 2288 002e 0846     		mov	r0, r1
 2289 0030 FFF7FEFF 		bl	HAL_DMA_Abort_IT
 2290 0034 10B1     		cbz	r0, .L496
 2291 0036 606B     		ldr	r0, [r4, #52]
 2292 0038 036D     		ldr	r3, [r0, #80]
 2293 003a 9847     		blx	r3
 2294              	.L496:
 2295 003c 0020     		movs	r0, #0
 2296 003e 10BD     		pop	{r4, pc}
 2297              	.L495:
 2298 0040 2023     		movs	r3, #32
 2299 0042 C185     		strh	r1, [r0, #46]	@ movhi
 2300 0044 80F83A30 		strb	r3, [r0, #58]
 2301 0048 FFF7FEFF 		bl	HAL_UART_AbortReceiveCpltCallback
 2302 004c 0020     		movs	r0, #0
 2303 004e 10BD     		pop	{r4, pc}
 2304              	.L494:
 2305 0050 2023     		movs	r3, #32
 2306 0052 C285     		strh	r2, [r0, #46]	@ movhi
ARM GAS  D:\Programs\cygwin64\tmp\ccq4zhgw.s 			page 40


 2307 0054 80F83A30 		strb	r3, [r0, #58]
 2308 0058 FFF7FEFF 		bl	HAL_UART_AbortReceiveCpltCallback
 2309 005c 0020     		movs	r0, #0
 2310 005e 10BD     		pop	{r4, pc}
 2311              	.L502:
 2312              		.align	2
 2313              	.L501:
 2314 0060 00000000 		.word	UART_DMARxOnlyAbortCallback
 2316              		.section	.text.UART_DMARxOnlyAbortCallback,"ax",%progbits
 2317              		.align	1
 2318              		.p2align 2,,3
 2319              		.syntax unified
 2320              		.thumb
 2321              		.thumb_func
 2322              		.fpu fpv4-sp-d16
 2324              	UART_DMARxOnlyAbortCallback:
 2325              		@ args = 0, pretend = 0, frame = 0
 2326              		@ frame_needed = 0, uses_anonymous_args = 0
 2327 0000 08B5     		push	{r3, lr}
 2328 0002 836B     		ldr	r3, [r0, #56]
 2329 0004 0021     		movs	r1, #0
 2330 0006 2022     		movs	r2, #32
 2331 0008 D985     		strh	r1, [r3, #46]	@ movhi
 2332 000a 1846     		mov	r0, r3
 2333 000c 83F83A20 		strb	r2, [r3, #58]
 2334 0010 FFF7FEFF 		bl	HAL_UART_AbortReceiveCpltCallback
 2335 0014 08BD     		pop	{r3, pc}
 2337 0016 00BF     		.section	.text.HAL_LIN_SendBreak,"ax",%progbits
 2338              		.align	1
 2339              		.p2align 2,,3
 2340              		.global	HAL_LIN_SendBreak
 2341              		.syntax unified
 2342              		.thumb
 2343              		.thumb_func
 2344              		.fpu fpv4-sp-d16
 2346              	HAL_LIN_SendBreak:
 2347              		@ args = 0, pretend = 0, frame = 0
 2348              		@ frame_needed = 0, uses_anonymous_args = 0
 2349              		@ link register save eliminated.
 2350 0000 90F83820 		ldrb	r2, [r0, #56]	@ zero_extendqisi2
 2351 0004 012A     		cmp	r2, #1
 2352 0006 13D0     		beq	.L507
 2353 0008 0346     		mov	r3, r0
 2354 000a 2422     		movs	r2, #36
 2355 000c 0068     		ldr	r0, [r0]
 2356 000e 10B4     		push	{r4}
 2357 0010 83F83920 		strb	r2, [r3, #57]
 2358 0014 C268     		ldr	r2, [r0, #12]
 2359 0016 2024     		movs	r4, #32
 2360 0018 0021     		movs	r1, #0
 2361 001a 42F00102 		orr	r2, r2, #1
 2362 001e C260     		str	r2, [r0, #12]
 2363 0020 0846     		mov	r0, r1
 2364 0022 83F83940 		strb	r4, [r3, #57]
 2365 0026 83F83810 		strb	r1, [r3, #56]
 2366 002a 5DF8044B 		ldr	r4, [sp], #4
 2367 002e 7047     		bx	lr
ARM GAS  D:\Programs\cygwin64\tmp\ccq4zhgw.s 			page 41


 2368              	.L507:
 2369 0030 0220     		movs	r0, #2
 2370 0032 7047     		bx	lr
 2372              		.section	.text.HAL_MultiProcessor_EnterMuteMode,"ax",%progbits
 2373              		.align	1
 2374              		.p2align 2,,3
 2375              		.global	HAL_MultiProcessor_EnterMuteMode
 2376              		.syntax unified
 2377              		.thumb
 2378              		.thumb_func
 2379              		.fpu fpv4-sp-d16
 2381              	HAL_MultiProcessor_EnterMuteMode:
 2382              		@ args = 0, pretend = 0, frame = 0
 2383              		@ frame_needed = 0, uses_anonymous_args = 0
 2384              		@ link register save eliminated.
 2385 0000 90F83820 		ldrb	r2, [r0, #56]	@ zero_extendqisi2
 2386 0004 012A     		cmp	r2, #1
 2387 0006 13D0     		beq	.L514
 2388 0008 0346     		mov	r3, r0
 2389 000a 2422     		movs	r2, #36
 2390 000c 0068     		ldr	r0, [r0]
 2391 000e 10B4     		push	{r4}
 2392 0010 83F83920 		strb	r2, [r3, #57]
 2393 0014 C268     		ldr	r2, [r0, #12]
 2394 0016 2024     		movs	r4, #32
 2395 0018 0021     		movs	r1, #0
 2396 001a 42F00202 		orr	r2, r2, #2
 2397 001e C260     		str	r2, [r0, #12]
 2398 0020 0846     		mov	r0, r1
 2399 0022 83F83940 		strb	r4, [r3, #57]
 2400 0026 83F83810 		strb	r1, [r3, #56]
 2401 002a 5DF8044B 		ldr	r4, [sp], #4
 2402 002e 7047     		bx	lr
 2403              	.L514:
 2404 0030 0220     		movs	r0, #2
 2405 0032 7047     		bx	lr
 2407              		.section	.text.HAL_MultiProcessor_ExitMuteMode,"ax",%progbits
 2408              		.align	1
 2409              		.p2align 2,,3
 2410              		.global	HAL_MultiProcessor_ExitMuteMode
 2411              		.syntax unified
 2412              		.thumb
 2413              		.thumb_func
 2414              		.fpu fpv4-sp-d16
 2416              	HAL_MultiProcessor_ExitMuteMode:
 2417              		@ args = 0, pretend = 0, frame = 0
 2418              		@ frame_needed = 0, uses_anonymous_args = 0
 2419              		@ link register save eliminated.
 2420 0000 90F83820 		ldrb	r2, [r0, #56]	@ zero_extendqisi2
 2421 0004 012A     		cmp	r2, #1
 2422 0006 13D0     		beq	.L521
 2423 0008 0346     		mov	r3, r0
 2424 000a 2422     		movs	r2, #36
 2425 000c 0068     		ldr	r0, [r0]
 2426 000e 10B4     		push	{r4}
 2427 0010 83F83920 		strb	r2, [r3, #57]
 2428 0014 C268     		ldr	r2, [r0, #12]
ARM GAS  D:\Programs\cygwin64\tmp\ccq4zhgw.s 			page 42


 2429 0016 2024     		movs	r4, #32
 2430 0018 0021     		movs	r1, #0
 2431 001a 22F00202 		bic	r2, r2, #2
 2432 001e C260     		str	r2, [r0, #12]
 2433 0020 0846     		mov	r0, r1
 2434 0022 83F83940 		strb	r4, [r3, #57]
 2435 0026 83F83810 		strb	r1, [r3, #56]
 2436 002a 5DF8044B 		ldr	r4, [sp], #4
 2437 002e 7047     		bx	lr
 2438              	.L521:
 2439 0030 0220     		movs	r0, #2
 2440 0032 7047     		bx	lr
 2442              		.section	.text.HAL_HalfDuplex_EnableTransmitter,"ax",%progbits
 2443              		.align	1
 2444              		.p2align 2,,3
 2445              		.global	HAL_HalfDuplex_EnableTransmitter
 2446              		.syntax unified
 2447              		.thumb
 2448              		.thumb_func
 2449              		.fpu fpv4-sp-d16
 2451              	HAL_HalfDuplex_EnableTransmitter:
 2452              		@ args = 0, pretend = 0, frame = 0
 2453              		@ frame_needed = 0, uses_anonymous_args = 0
 2454              		@ link register save eliminated.
 2455 0000 90F83820 		ldrb	r2, [r0, #56]	@ zero_extendqisi2
 2456 0004 012A     		cmp	r2, #1
 2457 0006 15D0     		beq	.L528
 2458 0008 0346     		mov	r3, r0
 2459 000a 2422     		movs	r2, #36
 2460 000c 0068     		ldr	r0, [r0]
 2461 000e 10B4     		push	{r4}
 2462 0010 83F83920 		strb	r2, [r3, #57]
 2463 0014 C268     		ldr	r2, [r0, #12]
 2464 0016 22F00C02 		bic	r2, r2, #12
 2465 001a 2024     		movs	r4, #32
 2466 001c 0021     		movs	r1, #0
 2467 001e 42F00802 		orr	r2, r2, #8
 2468 0022 C260     		str	r2, [r0, #12]
 2469 0024 0846     		mov	r0, r1
 2470 0026 83F83940 		strb	r4, [r3, #57]
 2471 002a 83F83810 		strb	r1, [r3, #56]
 2472 002e 5DF8044B 		ldr	r4, [sp], #4
 2473 0032 7047     		bx	lr
 2474              	.L528:
 2475 0034 0220     		movs	r0, #2
 2476 0036 7047     		bx	lr
 2478              		.section	.text.HAL_HalfDuplex_EnableReceiver,"ax",%progbits
 2479              		.align	1
 2480              		.p2align 2,,3
 2481              		.global	HAL_HalfDuplex_EnableReceiver
 2482              		.syntax unified
 2483              		.thumb
 2484              		.thumb_func
 2485              		.fpu fpv4-sp-d16
 2487              	HAL_HalfDuplex_EnableReceiver:
 2488              		@ args = 0, pretend = 0, frame = 0
 2489              		@ frame_needed = 0, uses_anonymous_args = 0
ARM GAS  D:\Programs\cygwin64\tmp\ccq4zhgw.s 			page 43


 2490              		@ link register save eliminated.
 2491 0000 90F83820 		ldrb	r2, [r0, #56]	@ zero_extendqisi2
 2492 0004 012A     		cmp	r2, #1
 2493 0006 15D0     		beq	.L535
 2494 0008 0346     		mov	r3, r0
 2495 000a 2422     		movs	r2, #36
 2496 000c 0068     		ldr	r0, [r0]
 2497 000e 10B4     		push	{r4}
 2498 0010 83F83920 		strb	r2, [r3, #57]
 2499 0014 C268     		ldr	r2, [r0, #12]
 2500 0016 22F00C02 		bic	r2, r2, #12
 2501 001a 2024     		movs	r4, #32
 2502 001c 0021     		movs	r1, #0
 2503 001e 42F00402 		orr	r2, r2, #4
 2504 0022 C260     		str	r2, [r0, #12]
 2505 0024 0846     		mov	r0, r1
 2506 0026 83F83940 		strb	r4, [r3, #57]
 2507 002a 83F83810 		strb	r1, [r3, #56]
 2508 002e 5DF8044B 		ldr	r4, [sp], #4
 2509 0032 7047     		bx	lr
 2510              	.L535:
 2511 0034 0220     		movs	r0, #2
 2512 0036 7047     		bx	lr
 2514              		.section	.text.HAL_UART_GetState,"ax",%progbits
 2515              		.align	1
 2516              		.p2align 2,,3
 2517              		.global	HAL_UART_GetState
 2518              		.syntax unified
 2519              		.thumb
 2520              		.thumb_func
 2521              		.fpu fpv4-sp-d16
 2523              	HAL_UART_GetState:
 2524              		@ args = 0, pretend = 0, frame = 0
 2525              		@ frame_needed = 0, uses_anonymous_args = 0
 2526              		@ link register save eliminated.
 2527 0000 90F83920 		ldrb	r2, [r0, #57]	@ zero_extendqisi2
 2528 0004 90F83A00 		ldrb	r0, [r0, #58]	@ zero_extendqisi2
 2529 0008 1043     		orrs	r0, r0, r2
 2530 000a 7047     		bx	lr
 2532              		.section	.text.HAL_UART_GetError,"ax",%progbits
 2533              		.align	1
 2534              		.p2align 2,,3
 2535              		.global	HAL_UART_GetError
 2536              		.syntax unified
 2537              		.thumb
 2538              		.thumb_func
 2539              		.fpu fpv4-sp-d16
 2541              	HAL_UART_GetError:
 2542              		@ args = 0, pretend = 0, frame = 0
 2543              		@ frame_needed = 0, uses_anonymous_args = 0
 2544              		@ link register save eliminated.
 2545 0000 C06B     		ldr	r0, [r0, #60]
 2546 0002 7047     		bx	lr
 2548              		.ident	"GCC: (GNU Tools for Arm Embedded Processors 8-2018-q4-major) 8.2.1 20181213 (release) [gcc
ARM GAS  D:\Programs\cygwin64\tmp\ccq4zhgw.s 			page 44

