ARM GAS  D:\Programs\cygwin64\tmp\cc9ZD7rb.s 			page 1


   1              		.cpu cortex-m4
   2              		.eabi_attribute 27, 1
   3              		.eabi_attribute 28, 1
   4              		.eabi_attribute 20, 1
   5              		.eabi_attribute 21, 1
   6              		.eabi_attribute 23, 3
   7              		.eabi_attribute 24, 1
   8              		.eabi_attribute 25, 1
   9              		.eabi_attribute 26, 1
  10              		.eabi_attribute 30, 2
  11              		.eabi_attribute 34, 1
  12              		.eabi_attribute 18, 4
  13              		.file	"stm32f4xx_hal_sdram.c"
  14              		.text
  15              		.section	.text.HAL_SDRAM_DMA_XferErrorCallback,"ax",%progbits
  16              		.align	1
  17              		.p2align 2,,3
  18              		.weak	HAL_SDRAM_DMA_XferErrorCallback
  19              		.arch armv7e-m
  20              		.syntax unified
  21              		.thumb
  22              		.thumb_func
  23              		.fpu fpv4-sp-d16
  25              	HAL_SDRAM_DMA_XferErrorCallback:
  26              		@ args = 0, pretend = 0, frame = 0
  27              		@ frame_needed = 0, uses_anonymous_args = 0
  28              		@ link register save eliminated.
  29 0000 7047     		bx	lr
  31 0002 00BF     		.section	.text.HAL_SDRAM_DMA_XferCpltCallback,"ax",%progbits
  32              		.align	1
  33              		.p2align 2,,3
  34              		.weak	HAL_SDRAM_DMA_XferCpltCallback
  35              		.syntax unified
  36              		.thumb
  37              		.thumb_func
  38              		.fpu fpv4-sp-d16
  40              	HAL_SDRAM_DMA_XferCpltCallback:
  41              		@ args = 0, pretend = 0, frame = 0
  42              		@ frame_needed = 0, uses_anonymous_args = 0
  43              		@ link register save eliminated.
  44 0000 7047     		bx	lr
  46 0002 00BF     		.section	.text.HAL_SDRAM_MspInit,"ax",%progbits
  47              		.align	1
  48              		.p2align 2,,3
  49              		.weak	HAL_SDRAM_MspInit
  50              		.syntax unified
  51              		.thumb
  52              		.thumb_func
  53              		.fpu fpv4-sp-d16
  55              	HAL_SDRAM_MspInit:
  56              		@ args = 0, pretend = 0, frame = 0
  57              		@ frame_needed = 0, uses_anonymous_args = 0
  58              		@ link register save eliminated.
  59 0000 7047     		bx	lr
  61 0002 00BF     		.section	.text.HAL_SDRAM_Init,"ax",%progbits
  62              		.align	1
  63              		.p2align 2,,3
ARM GAS  D:\Programs\cygwin64\tmp\cc9ZD7rb.s 			page 2


  64              		.global	HAL_SDRAM_Init
  65              		.syntax unified
  66              		.thumb
  67              		.thumb_func
  68              		.fpu fpv4-sp-d16
  70              	HAL_SDRAM_Init:
  71              		@ args = 0, pretend = 0, frame = 0
  72              		@ frame_needed = 0, uses_anonymous_args = 0
  73 0000 F0B1     		cbz	r0, .L8
  74 0002 38B5     		push	{r3, r4, r5, lr}
  75 0004 90F82C30 		ldrb	r3, [r0, #44]	@ zero_extendqisi2
  76 0008 0446     		mov	r4, r0
  77 000a 0D46     		mov	r5, r1
  78 000c 03F0FF02 		and	r2, r3, #255
  79 0010 8BB1     		cbz	r3, .L13
  80              	.L7:
  81 0012 2146     		mov	r1, r4
  82 0014 0223     		movs	r3, #2
  83 0016 51F8040B 		ldr	r0, [r1], #4
  84 001a 84F82C30 		strb	r3, [r4, #44]
  85 001e FFF7FEFF 		bl	FMC_SDRAM_Init
  86 0022 2946     		mov	r1, r5
  87 0024 D4E90002 		ldrd	r0, r2, [r4]
  88 0028 FFF7FEFF 		bl	FMC_SDRAM_Timing_Init
  89 002c 0123     		movs	r3, #1
  90 002e 84F82C30 		strb	r3, [r4, #44]
  91 0032 0020     		movs	r0, #0
  92 0034 38BD     		pop	{r3, r4, r5, pc}
  93              	.L13:
  94 0036 80F82D20 		strb	r2, [r0, #45]
  95 003a FFF7FEFF 		bl	HAL_SDRAM_MspInit
  96 003e E8E7     		b	.L7
  97              	.L8:
  98 0040 0120     		movs	r0, #1
  99 0042 7047     		bx	lr
 101              		.section	.text.HAL_SDRAM_MspDeInit,"ax",%progbits
 102              		.align	1
 103              		.p2align 2,,3
 104              		.weak	HAL_SDRAM_MspDeInit
 105              		.syntax unified
 106              		.thumb
 107              		.thumb_func
 108              		.fpu fpv4-sp-d16
 110              	HAL_SDRAM_MspDeInit:
 111              		@ args = 0, pretend = 0, frame = 0
 112              		@ frame_needed = 0, uses_anonymous_args = 0
 113              		@ link register save eliminated.
 114 0000 7047     		bx	lr
 116 0002 00BF     		.section	.text.HAL_SDRAM_DeInit,"ax",%progbits
 117              		.align	1
 118              		.p2align 2,,3
 119              		.global	HAL_SDRAM_DeInit
 120              		.syntax unified
 121              		.thumb
 122              		.thumb_func
 123              		.fpu fpv4-sp-d16
 125              	HAL_SDRAM_DeInit:
ARM GAS  D:\Programs\cygwin64\tmp\cc9ZD7rb.s 			page 3


 126              		@ args = 0, pretend = 0, frame = 0
 127              		@ frame_needed = 0, uses_anonymous_args = 0
 128 0000 10B5     		push	{r4, lr}
 129 0002 0446     		mov	r4, r0
 130 0004 FFF7FEFF 		bl	HAL_SDRAM_MspDeInit
 131 0008 D4E90001 		ldrd	r0, r1, [r4]
 132 000c FFF7FEFF 		bl	FMC_SDRAM_DeInit
 133 0010 0020     		movs	r0, #0
 134 0012 84F82C00 		strb	r0, [r4, #44]
 135 0016 84F82D00 		strb	r0, [r4, #45]
 136 001a 10BD     		pop	{r4, pc}
 138              		.section	.text.HAL_SDRAM_RefreshErrorCallback,"ax",%progbits
 139              		.align	1
 140              		.p2align 2,,3
 141              		.weak	HAL_SDRAM_RefreshErrorCallback
 142              		.syntax unified
 143              		.thumb
 144              		.thumb_func
 145              		.fpu fpv4-sp-d16
 147              	HAL_SDRAM_RefreshErrorCallback:
 148              		@ args = 0, pretend = 0, frame = 0
 149              		@ frame_needed = 0, uses_anonymous_args = 0
 150              		@ link register save eliminated.
 151 0000 7047     		bx	lr
 153 0002 00BF     		.section	.text.HAL_SDRAM_IRQHandler,"ax",%progbits
 154              		.align	1
 155              		.p2align 2,,3
 156              		.global	HAL_SDRAM_IRQHandler
 157              		.syntax unified
 158              		.thumb
 159              		.thumb_func
 160              		.fpu fpv4-sp-d16
 162              	HAL_SDRAM_IRQHandler:
 163              		@ args = 0, pretend = 0, frame = 0
 164              		@ frame_needed = 0, uses_anonymous_args = 0
 165 0000 0268     		ldr	r2, [r0]
 166 0002 9269     		ldr	r2, [r2, #24]
 167 0004 D307     		lsls	r3, r2, #31
 168 0006 00D4     		bmi	.L27
 169 0008 7047     		bx	lr
 170              	.L27:
 171 000a 10B5     		push	{r4, lr}
 172 000c 0446     		mov	r4, r0
 173 000e FFF7FEFF 		bl	HAL_SDRAM_RefreshErrorCallback
 174 0012 2268     		ldr	r2, [r4]
 175 0014 5369     		ldr	r3, [r2, #20]
 176 0016 43F00103 		orr	r3, r3, #1
 177 001a 5361     		str	r3, [r2, #20]
 178 001c 10BD     		pop	{r4, pc}
 180 001e 00BF     		.section	.text.HAL_SDRAM_Read_8b,"ax",%progbits
 181              		.align	1
 182              		.p2align 2,,3
 183              		.global	HAL_SDRAM_Read_8b
 184              		.syntax unified
 185              		.thumb
 186              		.thumb_func
 187              		.fpu fpv4-sp-d16
ARM GAS  D:\Programs\cygwin64\tmp\cc9ZD7rb.s 			page 4


 189              	HAL_SDRAM_Read_8b:
 190              		@ args = 0, pretend = 0, frame = 0
 191              		@ frame_needed = 0, uses_anonymous_args = 0
 192              		@ link register save eliminated.
 193 0000 30B4     		push	{r4, r5}
 194 0002 90F82D40 		ldrb	r4, [r0, #45]	@ zero_extendqisi2
 195 0006 012C     		cmp	r4, #1
 196 0008 18D0     		beq	.L31
 197 000a 90F82C50 		ldrb	r5, [r0, #44]	@ zero_extendqisi2
 198 000e 0124     		movs	r4, #1
 199 0010 022D     		cmp	r5, #2
 200 0012 80F82D40 		strb	r4, [r0, #45]
 201 0016 11D0     		beq	.L31
 202 0018 90F82C50 		ldrb	r5, [r0, #44]	@ zero_extendqisi2
 203 001c 052D     		cmp	r5, #5
 204 001e 10D0     		beq	.L34
 205 0020 33B1     		cbz	r3, .L32
 206 0022 1344     		add	r3, r3, r2
 207              	.L33:
 208 0024 11F8014B 		ldrb	r4, [r1], #1	@ zero_extendqisi2
 209 0028 02F8014B 		strb	r4, [r2], #1
 210 002c 9A42     		cmp	r2, r3
 211 002e F9D1     		bne	.L33
 212              	.L32:
 213 0030 0023     		movs	r3, #0
 214 0032 80F82D30 		strb	r3, [r0, #45]
 215 0036 30BC     		pop	{r4, r5}
 216 0038 1846     		mov	r0, r3
 217 003a 7047     		bx	lr
 218              	.L31:
 219 003c 0220     		movs	r0, #2
 220 003e 30BC     		pop	{r4, r5}
 221 0040 7047     		bx	lr
 222              	.L34:
 223 0042 2046     		mov	r0, r4
 224 0044 30BC     		pop	{r4, r5}
 225 0046 7047     		bx	lr
 227              		.section	.text.HAL_SDRAM_Write_8b,"ax",%progbits
 228              		.align	1
 229              		.p2align 2,,3
 230              		.global	HAL_SDRAM_Write_8b
 231              		.syntax unified
 232              		.thumb
 233              		.thumb_func
 234              		.fpu fpv4-sp-d16
 236              	HAL_SDRAM_Write_8b:
 237              		@ args = 0, pretend = 0, frame = 0
 238              		@ frame_needed = 0, uses_anonymous_args = 0
 239              		@ link register save eliminated.
 240 0000 30B4     		push	{r4, r5}
 241 0002 90F82D40 		ldrb	r4, [r0, #45]	@ zero_extendqisi2
 242 0006 012C     		cmp	r4, #1
 243 0008 18D0     		beq	.L46
 244 000a 90F82C40 		ldrb	r4, [r0, #44]	@ zero_extendqisi2
 245 000e E4B2     		uxtb	r4, r4
 246 0010 0125     		movs	r5, #1
 247 0012 022C     		cmp	r4, #2
ARM GAS  D:\Programs\cygwin64\tmp\cc9ZD7rb.s 			page 5


 248 0014 80F82D50 		strb	r5, [r0, #45]
 249 0018 10D0     		beq	.L46
 250 001a 043C     		subs	r4, r4, #4
 251 001c AC42     		cmp	r4, r5
 252 001e 10D9     		bls	.L49
 253 0020 33B1     		cbz	r3, .L47
 254 0022 1344     		add	r3, r3, r2
 255              	.L48:
 256 0024 12F8014B 		ldrb	r4, [r2], #1	@ zero_extendqisi2
 257 0028 01F8014B 		strb	r4, [r1], #1
 258 002c 9A42     		cmp	r2, r3
 259 002e F9D1     		bne	.L48
 260              	.L47:
 261 0030 0023     		movs	r3, #0
 262 0032 80F82D30 		strb	r3, [r0, #45]
 263 0036 30BC     		pop	{r4, r5}
 264 0038 1846     		mov	r0, r3
 265 003a 7047     		bx	lr
 266              	.L46:
 267 003c 0220     		movs	r0, #2
 268 003e 30BC     		pop	{r4, r5}
 269 0040 7047     		bx	lr
 270              	.L49:
 271 0042 2846     		mov	r0, r5
 272 0044 30BC     		pop	{r4, r5}
 273 0046 7047     		bx	lr
 275              		.section	.text.HAL_SDRAM_Read_16b,"ax",%progbits
 276              		.align	1
 277              		.p2align 2,,3
 278              		.global	HAL_SDRAM_Read_16b
 279              		.syntax unified
 280              		.thumb
 281              		.thumb_func
 282              		.fpu fpv4-sp-d16
 284              	HAL_SDRAM_Read_16b:
 285              		@ args = 0, pretend = 0, frame = 0
 286              		@ frame_needed = 0, uses_anonymous_args = 0
 287              		@ link register save eliminated.
 288 0000 30B4     		push	{r4, r5}
 289 0002 90F82D40 		ldrb	r4, [r0, #45]	@ zero_extendqisi2
 290 0006 012C     		cmp	r4, #1
 291 0008 17D0     		beq	.L61
 292 000a 90F82C50 		ldrb	r5, [r0, #44]	@ zero_extendqisi2
 293 000e 0124     		movs	r4, #1
 294 0010 022D     		cmp	r5, #2
 295 0012 80F82D40 		strb	r4, [r0, #45]
 296 0016 10D0     		beq	.L61
 297 0018 90F82C50 		ldrb	r5, [r0, #44]	@ zero_extendqisi2
 298 001c 052D     		cmp	r5, #5
 299 001e 0FD0     		beq	.L64
 300 0020 2BB1     		cbz	r3, .L62
 301              	.L63:
 302 0022 31F8024B 		ldrh	r4, [r1], #2
 303 0026 22F8024B 		strh	r4, [r2], #2	@ movhi
 304 002a 013B     		subs	r3, r3, #1
 305 002c F9D1     		bne	.L63
 306              	.L62:
ARM GAS  D:\Programs\cygwin64\tmp\cc9ZD7rb.s 			page 6


 307 002e 0023     		movs	r3, #0
 308 0030 80F82D30 		strb	r3, [r0, #45]
 309 0034 30BC     		pop	{r4, r5}
 310 0036 1846     		mov	r0, r3
 311 0038 7047     		bx	lr
 312              	.L61:
 313 003a 0220     		movs	r0, #2
 314 003c 30BC     		pop	{r4, r5}
 315 003e 7047     		bx	lr
 316              	.L64:
 317 0040 2046     		mov	r0, r4
 318 0042 30BC     		pop	{r4, r5}
 319 0044 7047     		bx	lr
 321 0046 00BF     		.section	.text.HAL_SDRAM_Write_16b,"ax",%progbits
 322              		.align	1
 323              		.p2align 2,,3
 324              		.global	HAL_SDRAM_Write_16b
 325              		.syntax unified
 326              		.thumb
 327              		.thumb_func
 328              		.fpu fpv4-sp-d16
 330              	HAL_SDRAM_Write_16b:
 331              		@ args = 0, pretend = 0, frame = 0
 332              		@ frame_needed = 0, uses_anonymous_args = 0
 333              		@ link register save eliminated.
 334 0000 30B4     		push	{r4, r5}
 335 0002 90F82D40 		ldrb	r4, [r0, #45]	@ zero_extendqisi2
 336 0006 012C     		cmp	r4, #1
 337 0008 17D0     		beq	.L76
 338 000a 90F82C40 		ldrb	r4, [r0, #44]	@ zero_extendqisi2
 339 000e E4B2     		uxtb	r4, r4
 340 0010 0125     		movs	r5, #1
 341 0012 022C     		cmp	r4, #2
 342 0014 80F82D50 		strb	r5, [r0, #45]
 343 0018 0FD0     		beq	.L76
 344 001a 043C     		subs	r4, r4, #4
 345 001c AC42     		cmp	r4, r5
 346 001e 0FD9     		bls	.L79
 347 0020 2BB1     		cbz	r3, .L77
 348              	.L78:
 349 0022 32F8024B 		ldrh	r4, [r2], #2
 350 0026 21F8024B 		strh	r4, [r1], #2	@ movhi
 351 002a 013B     		subs	r3, r3, #1
 352 002c F9D1     		bne	.L78
 353              	.L77:
 354 002e 0023     		movs	r3, #0
 355 0030 80F82D30 		strb	r3, [r0, #45]
 356 0034 30BC     		pop	{r4, r5}
 357 0036 1846     		mov	r0, r3
 358 0038 7047     		bx	lr
 359              	.L76:
 360 003a 0220     		movs	r0, #2
 361 003c 30BC     		pop	{r4, r5}
 362 003e 7047     		bx	lr
 363              	.L79:
 364 0040 2846     		mov	r0, r5
 365 0042 30BC     		pop	{r4, r5}
ARM GAS  D:\Programs\cygwin64\tmp\cc9ZD7rb.s 			page 7


 366 0044 7047     		bx	lr
 368 0046 00BF     		.section	.text.HAL_SDRAM_Read_32b,"ax",%progbits
 369              		.align	1
 370              		.p2align 2,,3
 371              		.global	HAL_SDRAM_Read_32b
 372              		.syntax unified
 373              		.thumb
 374              		.thumb_func
 375              		.fpu fpv4-sp-d16
 377              	HAL_SDRAM_Read_32b:
 378              		@ args = 0, pretend = 0, frame = 0
 379              		@ frame_needed = 0, uses_anonymous_args = 0
 380              		@ link register save eliminated.
 381 0000 30B4     		push	{r4, r5}
 382 0002 90F82D40 		ldrb	r4, [r0, #45]	@ zero_extendqisi2
 383 0006 012C     		cmp	r4, #1
 384 0008 17D0     		beq	.L91
 385 000a 90F82C50 		ldrb	r5, [r0, #44]	@ zero_extendqisi2
 386 000e 0124     		movs	r4, #1
 387 0010 022D     		cmp	r5, #2
 388 0012 80F82D40 		strb	r4, [r0, #45]
 389 0016 10D0     		beq	.L91
 390 0018 90F82C50 		ldrb	r5, [r0, #44]	@ zero_extendqisi2
 391 001c 052D     		cmp	r5, #5
 392 001e 0FD0     		beq	.L94
 393 0020 2BB1     		cbz	r3, .L92
 394              	.L93:
 395 0022 51F8044B 		ldr	r4, [r1], #4
 396 0026 42F8044B 		str	r4, [r2], #4
 397 002a 013B     		subs	r3, r3, #1
 398 002c F9D1     		bne	.L93
 399              	.L92:
 400 002e 0023     		movs	r3, #0
 401 0030 80F82D30 		strb	r3, [r0, #45]
 402 0034 30BC     		pop	{r4, r5}
 403 0036 1846     		mov	r0, r3
 404 0038 7047     		bx	lr
 405              	.L91:
 406 003a 0220     		movs	r0, #2
 407 003c 30BC     		pop	{r4, r5}
 408 003e 7047     		bx	lr
 409              	.L94:
 410 0040 2046     		mov	r0, r4
 411 0042 30BC     		pop	{r4, r5}
 412 0044 7047     		bx	lr
 414 0046 00BF     		.section	.text.HAL_SDRAM_Write_32b,"ax",%progbits
 415              		.align	1
 416              		.p2align 2,,3
 417              		.global	HAL_SDRAM_Write_32b
 418              		.syntax unified
 419              		.thumb
 420              		.thumb_func
 421              		.fpu fpv4-sp-d16
 423              	HAL_SDRAM_Write_32b:
 424              		@ args = 0, pretend = 0, frame = 0
 425              		@ frame_needed = 0, uses_anonymous_args = 0
 426              		@ link register save eliminated.
ARM GAS  D:\Programs\cygwin64\tmp\cc9ZD7rb.s 			page 8


 427 0000 30B4     		push	{r4, r5}
 428 0002 90F82D40 		ldrb	r4, [r0, #45]	@ zero_extendqisi2
 429 0006 012C     		cmp	r4, #1
 430 0008 17D0     		beq	.L106
 431 000a 90F82C40 		ldrb	r4, [r0, #44]	@ zero_extendqisi2
 432 000e E4B2     		uxtb	r4, r4
 433 0010 0125     		movs	r5, #1
 434 0012 022C     		cmp	r4, #2
 435 0014 80F82D50 		strb	r5, [r0, #45]
 436 0018 0FD0     		beq	.L106
 437 001a 043C     		subs	r4, r4, #4
 438 001c AC42     		cmp	r4, r5
 439 001e 0FD9     		bls	.L109
 440 0020 2BB1     		cbz	r3, .L107
 441              	.L108:
 442 0022 52F8044B 		ldr	r4, [r2], #4
 443 0026 41F8044B 		str	r4, [r1], #4
 444 002a 013B     		subs	r3, r3, #1
 445 002c F9D1     		bne	.L108
 446              	.L107:
 447 002e 0023     		movs	r3, #0
 448 0030 80F82D30 		strb	r3, [r0, #45]
 449 0034 30BC     		pop	{r4, r5}
 450 0036 1846     		mov	r0, r3
 451 0038 7047     		bx	lr
 452              	.L106:
 453 003a 0220     		movs	r0, #2
 454 003c 30BC     		pop	{r4, r5}
 455 003e 7047     		bx	lr
 456              	.L109:
 457 0040 2846     		mov	r0, r5
 458 0042 30BC     		pop	{r4, r5}
 459 0044 7047     		bx	lr
 461 0046 00BF     		.section	.text.HAL_SDRAM_Read_DMA,"ax",%progbits
 462              		.align	1
 463              		.p2align 2,,3
 464              		.global	HAL_SDRAM_Read_DMA
 465              		.syntax unified
 466              		.thumb
 467              		.thumb_func
 468              		.fpu fpv4-sp-d16
 470              	HAL_SDRAM_Read_DMA:
 471              		@ args = 0, pretend = 0, frame = 0
 472              		@ frame_needed = 0, uses_anonymous_args = 0
 473 0000 70B5     		push	{r4, r5, r6, lr}
 474 0002 90F82D40 		ldrb	r4, [r0, #45]	@ zero_extendqisi2
 475 0006 012C     		cmp	r4, #1
 476 0008 17D0     		beq	.L121
 477 000a 90F82C50 		ldrb	r5, [r0, #44]	@ zero_extendqisi2
 478 000e EDB2     		uxtb	r5, r5
 479 0010 0124     		movs	r4, #1
 480 0012 022D     		cmp	r5, #2
 481 0014 80F82D40 		strb	r4, [r0, #45]
 482 0018 0FD0     		beq	.L121
 483 001a 052D     		cmp	r5, #5
 484 001c 0BD0     		beq	.L122
 485 001e 0446     		mov	r4, r0
ARM GAS  D:\Programs\cygwin64\tmp\cc9ZD7rb.s 			page 9


 486 0020 006B     		ldr	r0, [r0, #48]
 487 0022 074E     		ldr	r6, .L127
 488 0024 074D     		ldr	r5, .L127+4
 489 0026 C663     		str	r6, [r0, #60]
 490 0028 C564     		str	r5, [r0, #76]
 491 002a FFF7FEFF 		bl	HAL_DMA_Start_IT
 492 002e 0020     		movs	r0, #0
 493 0030 84F82D00 		strb	r0, [r4, #45]
 494 0034 70BD     		pop	{r4, r5, r6, pc}
 495              	.L122:
 496 0036 2046     		mov	r0, r4
 497 0038 70BD     		pop	{r4, r5, r6, pc}
 498              	.L121:
 499 003a 0220     		movs	r0, #2
 500 003c 70BD     		pop	{r4, r5, r6, pc}
 501              	.L128:
 502 003e 00BF     		.align	2
 503              	.L127:
 504 0040 00000000 		.word	HAL_SDRAM_DMA_XferCpltCallback
 505 0044 00000000 		.word	HAL_SDRAM_DMA_XferErrorCallback
 507              		.section	.text.HAL_SDRAM_Write_DMA,"ax",%progbits
 508              		.align	1
 509              		.p2align 2,,3
 510              		.global	HAL_SDRAM_Write_DMA
 511              		.syntax unified
 512              		.thumb
 513              		.thumb_func
 514              		.fpu fpv4-sp-d16
 516              	HAL_SDRAM_Write_DMA:
 517              		@ args = 0, pretend = 0, frame = 0
 518              		@ frame_needed = 0, uses_anonymous_args = 0
 519 0000 70B5     		push	{r4, r5, r6, lr}
 520 0002 90F82D40 		ldrb	r4, [r0, #45]	@ zero_extendqisi2
 521 0006 012C     		cmp	r4, #1
 522 0008 1BD0     		beq	.L132
 523 000a 90F82C40 		ldrb	r4, [r0, #44]	@ zero_extendqisi2
 524 000e E4B2     		uxtb	r4, r4
 525 0010 0125     		movs	r5, #1
 526 0012 022C     		cmp	r4, #2
 527 0014 80F82D50 		strb	r5, [r0, #45]
 528 0018 13D0     		beq	.L132
 529 001a 043C     		subs	r4, r4, #4
 530 001c AC42     		cmp	r4, r5
 531 001e 0ED9     		bls	.L133
 532 0020 0446     		mov	r4, r0
 533 0022 006B     		ldr	r0, [r0, #48]
 534 0024 084E     		ldr	r6, .L138
 535 0026 C664     		str	r6, [r0, #76]
 536 0028 1546     		mov	r5, r2
 537 002a 0A46     		mov	r2, r1
 538 002c 0749     		ldr	r1, .L138+4
 539 002e C163     		str	r1, [r0, #60]
 540 0030 2946     		mov	r1, r5
 541 0032 FFF7FEFF 		bl	HAL_DMA_Start_IT
 542 0036 0020     		movs	r0, #0
 543 0038 84F82D00 		strb	r0, [r4, #45]
 544 003c 70BD     		pop	{r4, r5, r6, pc}
ARM GAS  D:\Programs\cygwin64\tmp\cc9ZD7rb.s 			page 10


 545              	.L133:
 546 003e 2846     		mov	r0, r5
 547 0040 70BD     		pop	{r4, r5, r6, pc}
 548              	.L132:
 549 0042 0220     		movs	r0, #2
 550 0044 70BD     		pop	{r4, r5, r6, pc}
 551              	.L139:
 552 0046 00BF     		.align	2
 553              	.L138:
 554 0048 00000000 		.word	HAL_SDRAM_DMA_XferErrorCallback
 555 004c 00000000 		.word	HAL_SDRAM_DMA_XferCpltCallback
 557              		.section	.text.HAL_SDRAM_WriteProtection_Enable,"ax",%progbits
 558              		.align	1
 559              		.p2align 2,,3
 560              		.global	HAL_SDRAM_WriteProtection_Enable
 561              		.syntax unified
 562              		.thumb
 563              		.thumb_func
 564              		.fpu fpv4-sp-d16
 566              	HAL_SDRAM_WriteProtection_Enable:
 567              		@ args = 0, pretend = 0, frame = 0
 568              		@ frame_needed = 0, uses_anonymous_args = 0
 569 0000 90F82C30 		ldrb	r3, [r0, #44]	@ zero_extendqisi2
 570 0004 DBB2     		uxtb	r3, r3
 571 0006 022B     		cmp	r3, #2
 572 0008 0DD0     		beq	.L142
 573 000a 10B5     		push	{r4, lr}
 574 000c 0223     		movs	r3, #2
 575 000e 0446     		mov	r4, r0
 576 0010 80F82C30 		strb	r3, [r0, #44]
 577 0014 D0E90001 		ldrd	r0, r1, [r0]
 578 0018 FFF7FEFF 		bl	FMC_SDRAM_WriteProtection_Enable
 579 001c 0423     		movs	r3, #4
 580 001e 84F82C30 		strb	r3, [r4, #44]
 581 0022 0020     		movs	r0, #0
 582 0024 10BD     		pop	{r4, pc}
 583              	.L142:
 584 0026 1846     		mov	r0, r3
 585 0028 7047     		bx	lr
 587 002a 00BF     		.section	.text.HAL_SDRAM_WriteProtection_Disable,"ax",%progbits
 588              		.align	1
 589              		.p2align 2,,3
 590              		.global	HAL_SDRAM_WriteProtection_Disable
 591              		.syntax unified
 592              		.thumb
 593              		.thumb_func
 594              		.fpu fpv4-sp-d16
 596              	HAL_SDRAM_WriteProtection_Disable:
 597              		@ args = 0, pretend = 0, frame = 0
 598              		@ frame_needed = 0, uses_anonymous_args = 0
 599 0000 90F82C30 		ldrb	r3, [r0, #44]	@ zero_extendqisi2
 600 0004 DBB2     		uxtb	r3, r3
 601 0006 022B     		cmp	r3, #2
 602 0008 0DD0     		beq	.L149
 603 000a 10B5     		push	{r4, lr}
 604 000c 0223     		movs	r3, #2
 605 000e 0446     		mov	r4, r0
ARM GAS  D:\Programs\cygwin64\tmp\cc9ZD7rb.s 			page 11


 606 0010 80F82C30 		strb	r3, [r0, #44]
 607 0014 D0E90001 		ldrd	r0, r1, [r0]
 608 0018 FFF7FEFF 		bl	FMC_SDRAM_WriteProtection_Disable
 609 001c 0123     		movs	r3, #1
 610 001e 84F82C30 		strb	r3, [r4, #44]
 611 0022 0020     		movs	r0, #0
 612 0024 10BD     		pop	{r4, pc}
 613              	.L149:
 614 0026 1846     		mov	r0, r3
 615 0028 7047     		bx	lr
 617 002a 00BF     		.section	.text.HAL_SDRAM_SendCommand,"ax",%progbits
 618              		.align	1
 619              		.p2align 2,,3
 620              		.global	HAL_SDRAM_SendCommand
 621              		.syntax unified
 622              		.thumb
 623              		.thumb_func
 624              		.fpu fpv4-sp-d16
 626              	HAL_SDRAM_SendCommand:
 627              		@ args = 0, pretend = 0, frame = 0
 628              		@ frame_needed = 0, uses_anonymous_args = 0
 629 0000 38B5     		push	{r3, r4, r5, lr}
 630 0002 90F82C30 		ldrb	r3, [r0, #44]	@ zero_extendqisi2
 631 0006 DBB2     		uxtb	r3, r3
 632 0008 022B     		cmp	r3, #2
 633 000a 10D0     		beq	.L157
 634 000c 0D46     		mov	r5, r1
 635 000e 0223     		movs	r3, #2
 636 0010 0446     		mov	r4, r0
 637 0012 80F82C30 		strb	r3, [r0, #44]
 638 0016 0068     		ldr	r0, [r0]
 639 0018 FFF7FEFF 		bl	FMC_SDRAM_SendCommand
 640 001c 2B68     		ldr	r3, [r5]
 641 001e 022B     		cmp	r3, #2
 642 0020 0CBF     		ite	eq
 643 0022 0523     		moveq	r3, #5
 644 0024 0123     		movne	r3, #1
 645 0026 84F82C30 		strb	r3, [r4, #44]
 646 002a 0020     		movs	r0, #0
 647 002c 38BD     		pop	{r3, r4, r5, pc}
 648              	.L157:
 649 002e 1846     		mov	r0, r3
 650 0030 38BD     		pop	{r3, r4, r5, pc}
 652 0032 00BF     		.section	.text.HAL_SDRAM_ProgramRefreshRate,"ax",%progbits
 653              		.align	1
 654              		.p2align 2,,3
 655              		.global	HAL_SDRAM_ProgramRefreshRate
 656              		.syntax unified
 657              		.thumb
 658              		.thumb_func
 659              		.fpu fpv4-sp-d16
 661              	HAL_SDRAM_ProgramRefreshRate:
 662              		@ args = 0, pretend = 0, frame = 0
 663              		@ frame_needed = 0, uses_anonymous_args = 0
 664 0000 90F82C30 		ldrb	r3, [r0, #44]	@ zero_extendqisi2
 665 0004 DBB2     		uxtb	r3, r3
 666 0006 022B     		cmp	r3, #2
ARM GAS  D:\Programs\cygwin64\tmp\cc9ZD7rb.s 			page 12


 667 0008 0CD0     		beq	.L161
 668 000a 10B5     		push	{r4, lr}
 669 000c 0223     		movs	r3, #2
 670 000e 0446     		mov	r4, r0
 671 0010 80F82C30 		strb	r3, [r0, #44]
 672 0014 0068     		ldr	r0, [r0]
 673 0016 FFF7FEFF 		bl	FMC_SDRAM_ProgramRefreshRate
 674 001a 0123     		movs	r3, #1
 675 001c 84F82C30 		strb	r3, [r4, #44]
 676 0020 0020     		movs	r0, #0
 677 0022 10BD     		pop	{r4, pc}
 678              	.L161:
 679 0024 1846     		mov	r0, r3
 680 0026 7047     		bx	lr
 682              		.section	.text.HAL_SDRAM_SetAutoRefreshNumber,"ax",%progbits
 683              		.align	1
 684              		.p2align 2,,3
 685              		.global	HAL_SDRAM_SetAutoRefreshNumber
 686              		.syntax unified
 687              		.thumb
 688              		.thumb_func
 689              		.fpu fpv4-sp-d16
 691              	HAL_SDRAM_SetAutoRefreshNumber:
 692              		@ args = 0, pretend = 0, frame = 0
 693              		@ frame_needed = 0, uses_anonymous_args = 0
 694 0000 90F82C30 		ldrb	r3, [r0, #44]	@ zero_extendqisi2
 695 0004 DBB2     		uxtb	r3, r3
 696 0006 022B     		cmp	r3, #2
 697 0008 0CD0     		beq	.L168
 698 000a 10B5     		push	{r4, lr}
 699 000c 0223     		movs	r3, #2
 700 000e 0446     		mov	r4, r0
 701 0010 80F82C30 		strb	r3, [r0, #44]
 702 0014 0068     		ldr	r0, [r0]
 703 0016 FFF7FEFF 		bl	FMC_SDRAM_SetAutoRefreshNumber
 704 001a 0123     		movs	r3, #1
 705 001c 84F82C30 		strb	r3, [r4, #44]
 706 0020 0020     		movs	r0, #0
 707 0022 10BD     		pop	{r4, pc}
 708              	.L168:
 709 0024 1846     		mov	r0, r3
 710 0026 7047     		bx	lr
 712              		.section	.text.HAL_SDRAM_GetModeStatus,"ax",%progbits
 713              		.align	1
 714              		.p2align 2,,3
 715              		.global	HAL_SDRAM_GetModeStatus
 716              		.syntax unified
 717              		.thumb
 718              		.thumb_func
 719              		.fpu fpv4-sp-d16
 721              	HAL_SDRAM_GetModeStatus:
 722              		@ args = 0, pretend = 0, frame = 0
 723              		@ frame_needed = 0, uses_anonymous_args = 0
 724              		@ link register save eliminated.
 725 0000 D0E90001 		ldrd	r0, r1, [r0]
 726 0004 FFF7FEBF 		b	FMC_SDRAM_GetModeStatus
 728              		.section	.text.HAL_SDRAM_GetState,"ax",%progbits
ARM GAS  D:\Programs\cygwin64\tmp\cc9ZD7rb.s 			page 13


 729              		.align	1
 730              		.p2align 2,,3
 731              		.global	HAL_SDRAM_GetState
 732              		.syntax unified
 733              		.thumb
 734              		.thumb_func
 735              		.fpu fpv4-sp-d16
 737              	HAL_SDRAM_GetState:
 738              		@ args = 0, pretend = 0, frame = 0
 739              		@ frame_needed = 0, uses_anonymous_args = 0
 740              		@ link register save eliminated.
 741 0000 90F82C00 		ldrb	r0, [r0, #44]	@ zero_extendqisi2
 742 0004 7047     		bx	lr
 744 0006 00BF     		.ident	"GCC: (GNU Tools for Arm Embedded Processors 8-2018-q4-major) 8.2.1 20181213 (release) [gcc
ARM GAS  D:\Programs\cygwin64\tmp\cc9ZD7rb.s 			page 14

