ARM GAS  D:\Programs\cygwin64\tmp\ccroHHhp.s 			page 1


   1              		.cpu cortex-m4
   2              		.eabi_attribute 27, 1
   3              		.eabi_attribute 28, 1
   4              		.eabi_attribute 20, 1
   5              		.eabi_attribute 21, 1
   6              		.eabi_attribute 23, 3
   7              		.eabi_attribute 24, 1
   8              		.eabi_attribute 25, 1
   9              		.eabi_attribute 26, 1
  10              		.eabi_attribute 30, 2
  11              		.eabi_attribute 34, 1
  12              		.eabi_attribute 18, 4
  13              		.file	"stm32f4xx_hal_pwr.c"
  14              		.text
  15              		.section	.text.HAL_PWR_DeInit,"ax",%progbits
  16              		.align	1
  17              		.p2align 2,,3
  18              		.global	HAL_PWR_DeInit
  19              		.arch armv7e-m
  20              		.syntax unified
  21              		.thumb
  22              		.thumb_func
  23              		.fpu fpv4-sp-d16
  25              	HAL_PWR_DeInit:
  26              		@ args = 0, pretend = 0, frame = 0
  27              		@ frame_needed = 0, uses_anonymous_args = 0
  28              		@ link register save eliminated.
  29 0000 044B     		ldr	r3, .L3
  30 0002 1A6A     		ldr	r2, [r3, #32]
  31 0004 42F08052 		orr	r2, r2, #268435456
  32 0008 1A62     		str	r2, [r3, #32]
  33 000a 1A6A     		ldr	r2, [r3, #32]
  34 000c 22F08052 		bic	r2, r2, #268435456
  35 0010 1A62     		str	r2, [r3, #32]
  36 0012 7047     		bx	lr
  37              	.L4:
  38              		.align	2
  39              	.L3:
  40 0014 00380240 		.word	1073887232
  42              		.section	.text.HAL_PWR_EnableBkUpAccess,"ax",%progbits
  43              		.align	1
  44              		.p2align 2,,3
  45              		.global	HAL_PWR_EnableBkUpAccess
  46              		.syntax unified
  47              		.thumb
  48              		.thumb_func
  49              		.fpu fpv4-sp-d16
  51              	HAL_PWR_EnableBkUpAccess:
  52              		@ args = 0, pretend = 0, frame = 0
  53              		@ frame_needed = 0, uses_anonymous_args = 0
  54              		@ link register save eliminated.
  55 0000 014B     		ldr	r3, .L6
  56 0002 0122     		movs	r2, #1
  57 0004 1A60     		str	r2, [r3]
  58 0006 7047     		bx	lr
  59              	.L7:
  60              		.align	2
ARM GAS  D:\Programs\cygwin64\tmp\ccroHHhp.s 			page 2


  61              	.L6:
  62 0008 20000E42 		.word	1108213792
  64              		.section	.text.HAL_PWR_DisableBkUpAccess,"ax",%progbits
  65              		.align	1
  66              		.p2align 2,,3
  67              		.global	HAL_PWR_DisableBkUpAccess
  68              		.syntax unified
  69              		.thumb
  70              		.thumb_func
  71              		.fpu fpv4-sp-d16
  73              	HAL_PWR_DisableBkUpAccess:
  74              		@ args = 0, pretend = 0, frame = 0
  75              		@ frame_needed = 0, uses_anonymous_args = 0
  76              		@ link register save eliminated.
  77 0000 014B     		ldr	r3, .L9
  78 0002 0022     		movs	r2, #0
  79 0004 1A60     		str	r2, [r3]
  80 0006 7047     		bx	lr
  81              	.L10:
  82              		.align	2
  83              	.L9:
  84 0008 20000E42 		.word	1108213792
  86              		.section	.text.HAL_PWR_ConfigPVD,"ax",%progbits
  87              		.align	1
  88              		.p2align 2,,3
  89              		.global	HAL_PWR_ConfigPVD
  90              		.syntax unified
  91              		.thumb
  92              		.thumb_func
  93              		.fpu fpv4-sp-d16
  95              	HAL_PWR_ConfigPVD:
  96              		@ args = 0, pretend = 0, frame = 0
  97              		@ frame_needed = 0, uses_anonymous_args = 0
  98              		@ link register save eliminated.
  99 0000 1B49     		ldr	r1, .L29
 100 0002 1C4B     		ldr	r3, .L29+4
 101 0004 0A68     		ldr	r2, [r1]
 102 0006 10B4     		push	{r4}
 103 0008 0468     		ldr	r4, [r0]
 104 000a 22F0E002 		bic	r2, r2, #224
 105 000e 2243     		orrs	r2, r2, r4
 106 0010 0A60     		str	r2, [r1]
 107 0012 5A68     		ldr	r2, [r3, #4]
 108 0014 22F48032 		bic	r2, r2, #65536
 109 0018 5A60     		str	r2, [r3, #4]
 110 001a 1A68     		ldr	r2, [r3]
 111 001c 22F48032 		bic	r2, r2, #65536
 112 0020 1A60     		str	r2, [r3]
 113 0022 9A68     		ldr	r2, [r3, #8]
 114 0024 22F48032 		bic	r2, r2, #65536
 115 0028 9A60     		str	r2, [r3, #8]
 116 002a DA68     		ldr	r2, [r3, #12]
 117 002c 22F48032 		bic	r2, r2, #65536
 118 0030 DA60     		str	r2, [r3, #12]
 119 0032 4268     		ldr	r2, [r0, #4]
 120 0034 D403     		lsls	r4, r2, #15
 121 0036 03D5     		bpl	.L12
ARM GAS  D:\Programs\cygwin64\tmp\ccroHHhp.s 			page 3


 122 0038 1968     		ldr	r1, [r3]
 123 003a 41F48031 		orr	r1, r1, #65536
 124 003e 1960     		str	r1, [r3]
 125              	.L12:
 126 0040 9003     		lsls	r0, r2, #14
 127 0042 04D5     		bpl	.L13
 128 0044 0B49     		ldr	r1, .L29+4
 129 0046 4B68     		ldr	r3, [r1, #4]
 130 0048 43F48033 		orr	r3, r3, #65536
 131 004c 4B60     		str	r3, [r1, #4]
 132              	.L13:
 133 004e D107     		lsls	r1, r2, #31
 134 0050 04D5     		bpl	.L14
 135 0052 0849     		ldr	r1, .L29+4
 136 0054 8B68     		ldr	r3, [r1, #8]
 137 0056 43F48033 		orr	r3, r3, #65536
 138 005a 8B60     		str	r3, [r1, #8]
 139              	.L14:
 140 005c 9307     		lsls	r3, r2, #30
 141 005e 04D5     		bpl	.L11
 142 0060 044A     		ldr	r2, .L29+4
 143 0062 D368     		ldr	r3, [r2, #12]
 144 0064 43F48033 		orr	r3, r3, #65536
 145 0068 D360     		str	r3, [r2, #12]
 146              	.L11:
 147 006a 5DF8044B 		ldr	r4, [sp], #4
 148 006e 7047     		bx	lr
 149              	.L30:
 150              		.align	2
 151              	.L29:
 152 0070 00700040 		.word	1073770496
 153 0074 003C0140 		.word	1073822720
 155              		.section	.text.HAL_PWR_EnablePVD,"ax",%progbits
 156              		.align	1
 157              		.p2align 2,,3
 158              		.global	HAL_PWR_EnablePVD
 159              		.syntax unified
 160              		.thumb
 161              		.thumb_func
 162              		.fpu fpv4-sp-d16
 164              	HAL_PWR_EnablePVD:
 165              		@ args = 0, pretend = 0, frame = 0
 166              		@ frame_needed = 0, uses_anonymous_args = 0
 167              		@ link register save eliminated.
 168 0000 014B     		ldr	r3, .L32
 169 0002 0122     		movs	r2, #1
 170 0004 1A60     		str	r2, [r3]
 171 0006 7047     		bx	lr
 172              	.L33:
 173              		.align	2
 174              	.L32:
 175 0008 10000E42 		.word	1108213776
 177              		.section	.text.HAL_PWR_DisablePVD,"ax",%progbits
 178              		.align	1
 179              		.p2align 2,,3
 180              		.global	HAL_PWR_DisablePVD
 181              		.syntax unified
ARM GAS  D:\Programs\cygwin64\tmp\ccroHHhp.s 			page 4


 182              		.thumb
 183              		.thumb_func
 184              		.fpu fpv4-sp-d16
 186              	HAL_PWR_DisablePVD:
 187              		@ args = 0, pretend = 0, frame = 0
 188              		@ frame_needed = 0, uses_anonymous_args = 0
 189              		@ link register save eliminated.
 190 0000 014B     		ldr	r3, .L35
 191 0002 0022     		movs	r2, #0
 192 0004 1A60     		str	r2, [r3]
 193 0006 7047     		bx	lr
 194              	.L36:
 195              		.align	2
 196              	.L35:
 197 0008 10000E42 		.word	1108213776
 199              		.section	.text.HAL_PWR_EnableWakeUpPin,"ax",%progbits
 200              		.align	1
 201              		.p2align 2,,3
 202              		.global	HAL_PWR_EnableWakeUpPin
 203              		.syntax unified
 204              		.thumb
 205              		.thumb_func
 206              		.fpu fpv4-sp-d16
 208              	HAL_PWR_EnableWakeUpPin:
 209              		@ args = 0, pretend = 0, frame = 0
 210              		@ frame_needed = 0, uses_anonymous_args = 0
 211              		@ link register save eliminated.
 212 0000 024A     		ldr	r2, .L38
 213 0002 5368     		ldr	r3, [r2, #4]
 214 0004 1843     		orrs	r0, r0, r3
 215 0006 5060     		str	r0, [r2, #4]
 216 0008 7047     		bx	lr
 217              	.L39:
 218 000a 00BF     		.align	2
 219              	.L38:
 220 000c 00700040 		.word	1073770496
 222              		.section	.text.HAL_PWR_DisableWakeUpPin,"ax",%progbits
 223              		.align	1
 224              		.p2align 2,,3
 225              		.global	HAL_PWR_DisableWakeUpPin
 226              		.syntax unified
 227              		.thumb
 228              		.thumb_func
 229              		.fpu fpv4-sp-d16
 231              	HAL_PWR_DisableWakeUpPin:
 232              		@ args = 0, pretend = 0, frame = 0
 233              		@ frame_needed = 0, uses_anonymous_args = 0
 234              		@ link register save eliminated.
 235 0000 024A     		ldr	r2, .L41
 236 0002 5368     		ldr	r3, [r2, #4]
 237 0004 23EA0000 		bic	r0, r3, r0
 238 0008 5060     		str	r0, [r2, #4]
 239 000a 7047     		bx	lr
 240              	.L42:
 241              		.align	2
 242              	.L41:
 243 000c 00700040 		.word	1073770496
ARM GAS  D:\Programs\cygwin64\tmp\ccroHHhp.s 			page 5


 245              		.section	.text.HAL_PWR_EnterSLEEPMode,"ax",%progbits
 246              		.align	1
 247              		.p2align 2,,3
 248              		.global	HAL_PWR_EnterSLEEPMode
 249              		.syntax unified
 250              		.thumb
 251              		.thumb_func
 252              		.fpu fpv4-sp-d16
 254              	HAL_PWR_EnterSLEEPMode:
 255              		@ args = 0, pretend = 0, frame = 0
 256              		@ frame_needed = 0, uses_anonymous_args = 0
 257              		@ link register save eliminated.
 258 0000 064A     		ldr	r2, .L47
 259 0002 1369     		ldr	r3, [r2, #16]
 260 0004 0129     		cmp	r1, #1
 261 0006 23F00403 		bic	r3, r3, #4
 262 000a 1361     		str	r3, [r2, #16]
 263 000c 03D0     		beq	.L46
 264              		.syntax unified
 265              	@ 383 "../Drivers/STM32F4xx_HAL_Driver/Src/stm32f4xx_hal_pwr.c" 1
 266 000e 40BF     		sev
 267              	@ 0 "" 2
 268              	@ 384 "../Drivers/STM32F4xx_HAL_Driver/Src/stm32f4xx_hal_pwr.c" 1
 269 0010 20BF     		wfe
 270              	@ 0 "" 2
 271              	@ 385 "../Drivers/STM32F4xx_HAL_Driver/Src/stm32f4xx_hal_pwr.c" 1
 272 0012 20BF     		wfe
 273              	@ 0 "" 2
 274              		.thumb
 275              		.syntax unified
 276 0014 7047     		bx	lr
 277              	.L46:
 278              		.syntax unified
 279              	@ 378 "../Drivers/STM32F4xx_HAL_Driver/Src/stm32f4xx_hal_pwr.c" 1
 280 0016 30BF     		wfi
 281              	@ 0 "" 2
 282              		.thumb
 283              		.syntax unified
 284 0018 7047     		bx	lr
 285              	.L48:
 286 001a 00BF     		.align	2
 287              	.L47:
 288 001c 00ED00E0 		.word	-536810240
 290              		.section	.text.HAL_PWR_EnterSTOPMode,"ax",%progbits
 291              		.align	1
 292              		.p2align 2,,3
 293              		.global	HAL_PWR_EnterSTOPMode
 294              		.syntax unified
 295              		.thumb
 296              		.thumb_func
 297              		.fpu fpv4-sp-d16
 299              	HAL_PWR_EnterSTOPMode:
 300              		@ args = 0, pretend = 0, frame = 0
 301              		@ frame_needed = 0, uses_anonymous_args = 0
 302              		@ link register save eliminated.
 303 0000 10B4     		push	{r4}
 304 0002 0D4C     		ldr	r4, .L54
ARM GAS  D:\Programs\cygwin64\tmp\ccroHHhp.s 			page 6


 305 0004 0D4A     		ldr	r2, .L54+4
 306 0006 2368     		ldr	r3, [r4]
 307 0008 23F00303 		bic	r3, r3, #3
 308 000c 1843     		orrs	r0, r0, r3
 309 000e 2060     		str	r0, [r4]
 310 0010 1369     		ldr	r3, [r2, #16]
 311 0012 0129     		cmp	r1, #1
 312 0014 43F00403 		orr	r3, r3, #4
 313 0018 1361     		str	r3, [r2, #16]
 314 001a 0AD0     		beq	.L53
 315              		.syntax unified
 316              	@ 429 "../Drivers/STM32F4xx_HAL_Driver/Src/stm32f4xx_hal_pwr.c" 1
 317 001c 40BF     		sev
 318              	@ 0 "" 2
 319              	@ 430 "../Drivers/STM32F4xx_HAL_Driver/Src/stm32f4xx_hal_pwr.c" 1
 320 001e 20BF     		wfe
 321              	@ 0 "" 2
 322              	@ 431 "../Drivers/STM32F4xx_HAL_Driver/Src/stm32f4xx_hal_pwr.c" 1
 323 0020 20BF     		wfe
 324              	@ 0 "" 2
 325              		.thumb
 326              		.syntax unified
 327              	.L51:
 328 0022 064A     		ldr	r2, .L54+4
 329 0024 5DF8044B 		ldr	r4, [sp], #4
 330 0028 1369     		ldr	r3, [r2, #16]
 331 002a 23F00403 		bic	r3, r3, #4
 332 002e 1361     		str	r3, [r2, #16]
 333 0030 7047     		bx	lr
 334              	.L53:
 335              		.syntax unified
 336              	@ 424 "../Drivers/STM32F4xx_HAL_Driver/Src/stm32f4xx_hal_pwr.c" 1
 337 0032 30BF     		wfi
 338              	@ 0 "" 2
 339              		.thumb
 340              		.syntax unified
 341 0034 F5E7     		b	.L51
 342              	.L55:
 343 0036 00BF     		.align	2
 344              	.L54:
 345 0038 00700040 		.word	1073770496
 346 003c 00ED00E0 		.word	-536810240
 348              		.section	.text.HAL_PWR_EnterSTANDBYMode,"ax",%progbits
 349              		.align	1
 350              		.p2align 2,,3
 351              		.global	HAL_PWR_EnterSTANDBYMode
 352              		.syntax unified
 353              		.thumb
 354              		.thumb_func
 355              		.fpu fpv4-sp-d16
 357              	HAL_PWR_EnterSTANDBYMode:
 358              		@ args = 0, pretend = 0, frame = 0
 359              		@ frame_needed = 0, uses_anonymous_args = 0
 360              		@ link register save eliminated.
 361 0000 0549     		ldr	r1, .L57
 362 0002 064A     		ldr	r2, .L57+4
 363 0004 0B68     		ldr	r3, [r1]
ARM GAS  D:\Programs\cygwin64\tmp\ccroHHhp.s 			page 7


 364 0006 43F00203 		orr	r3, r3, #2
 365 000a 0B60     		str	r3, [r1]
 366 000c 1369     		ldr	r3, [r2, #16]
 367 000e 43F00403 		orr	r3, r3, #4
 368 0012 1361     		str	r3, [r2, #16]
 369              		.syntax unified
 370              	@ 460 "../Drivers/STM32F4xx_HAL_Driver/Src/stm32f4xx_hal_pwr.c" 1
 371 0014 30BF     		wfi
 372              	@ 0 "" 2
 373              		.thumb
 374              		.syntax unified
 375 0016 7047     		bx	lr
 376              	.L58:
 377              		.align	2
 378              	.L57:
 379 0018 00700040 		.word	1073770496
 380 001c 00ED00E0 		.word	-536810240
 382              		.section	.text.HAL_PWR_PVDCallback,"ax",%progbits
 383              		.align	1
 384              		.p2align 2,,3
 385              		.weak	HAL_PWR_PVDCallback
 386              		.syntax unified
 387              		.thumb
 388              		.thumb_func
 389              		.fpu fpv4-sp-d16
 391              	HAL_PWR_PVDCallback:
 392              		@ args = 0, pretend = 0, frame = 0
 393              		@ frame_needed = 0, uses_anonymous_args = 0
 394              		@ link register save eliminated.
 395 0000 7047     		bx	lr
 397 0002 00BF     		.section	.text.HAL_PWR_PVD_IRQHandler,"ax",%progbits
 398              		.align	1
 399              		.p2align 2,,3
 400              		.global	HAL_PWR_PVD_IRQHandler
 401              		.syntax unified
 402              		.thumb
 403              		.thumb_func
 404              		.fpu fpv4-sp-d16
 406              	HAL_PWR_PVD_IRQHandler:
 407              		@ args = 0, pretend = 0, frame = 0
 408              		@ frame_needed = 0, uses_anonymous_args = 0
 409 0000 10B5     		push	{r4, lr}
 410 0002 054C     		ldr	r4, .L67
 411 0004 6369     		ldr	r3, [r4, #20]
 412 0006 DB03     		lsls	r3, r3, #15
 413 0008 00D4     		bmi	.L66
 414 000a 10BD     		pop	{r4, pc}
 415              	.L66:
 416 000c FFF7FEFF 		bl	HAL_PWR_PVDCallback
 417 0010 4FF48033 		mov	r3, #65536
 418 0014 6361     		str	r3, [r4, #20]
 419 0016 10BD     		pop	{r4, pc}
 420              	.L68:
 421              		.align	2
 422              	.L67:
 423 0018 003C0140 		.word	1073822720
 425              		.section	.text.HAL_PWR_EnableSleepOnExit,"ax",%progbits
ARM GAS  D:\Programs\cygwin64\tmp\ccroHHhp.s 			page 8


 426              		.align	1
 427              		.p2align 2,,3
 428              		.global	HAL_PWR_EnableSleepOnExit
 429              		.syntax unified
 430              		.thumb
 431              		.thumb_func
 432              		.fpu fpv4-sp-d16
 434              	HAL_PWR_EnableSleepOnExit:
 435              		@ args = 0, pretend = 0, frame = 0
 436              		@ frame_needed = 0, uses_anonymous_args = 0
 437              		@ link register save eliminated.
 438 0000 024A     		ldr	r2, .L70
 439 0002 1369     		ldr	r3, [r2, #16]
 440 0004 43F00203 		orr	r3, r3, #2
 441 0008 1361     		str	r3, [r2, #16]
 442 000a 7047     		bx	lr
 443              	.L71:
 444              		.align	2
 445              	.L70:
 446 000c 00ED00E0 		.word	-536810240
 448              		.section	.text.HAL_PWR_DisableSleepOnExit,"ax",%progbits
 449              		.align	1
 450              		.p2align 2,,3
 451              		.global	HAL_PWR_DisableSleepOnExit
 452              		.syntax unified
 453              		.thumb
 454              		.thumb_func
 455              		.fpu fpv4-sp-d16
 457              	HAL_PWR_DisableSleepOnExit:
 458              		@ args = 0, pretend = 0, frame = 0
 459              		@ frame_needed = 0, uses_anonymous_args = 0
 460              		@ link register save eliminated.
 461 0000 024A     		ldr	r2, .L73
 462 0002 1369     		ldr	r3, [r2, #16]
 463 0004 23F00203 		bic	r3, r3, #2
 464 0008 1361     		str	r3, [r2, #16]
 465 000a 7047     		bx	lr
 466              	.L74:
 467              		.align	2
 468              	.L73:
 469 000c 00ED00E0 		.word	-536810240
 471              		.section	.text.HAL_PWR_EnableSEVOnPend,"ax",%progbits
 472              		.align	1
 473              		.p2align 2,,3
 474              		.global	HAL_PWR_EnableSEVOnPend
 475              		.syntax unified
 476              		.thumb
 477              		.thumb_func
 478              		.fpu fpv4-sp-d16
 480              	HAL_PWR_EnableSEVOnPend:
 481              		@ args = 0, pretend = 0, frame = 0
 482              		@ frame_needed = 0, uses_anonymous_args = 0
 483              		@ link register save eliminated.
 484 0000 024A     		ldr	r2, .L76
 485 0002 1369     		ldr	r3, [r2, #16]
 486 0004 43F01003 		orr	r3, r3, #16
 487 0008 1361     		str	r3, [r2, #16]
ARM GAS  D:\Programs\cygwin64\tmp\ccroHHhp.s 			page 9


 488 000a 7047     		bx	lr
 489              	.L77:
 490              		.align	2
 491              	.L76:
 492 000c 00ED00E0 		.word	-536810240
 494              		.section	.text.HAL_PWR_DisableSEVOnPend,"ax",%progbits
 495              		.align	1
 496              		.p2align 2,,3
 497              		.global	HAL_PWR_DisableSEVOnPend
 498              		.syntax unified
 499              		.thumb
 500              		.thumb_func
 501              		.fpu fpv4-sp-d16
 503              	HAL_PWR_DisableSEVOnPend:
 504              		@ args = 0, pretend = 0, frame = 0
 505              		@ frame_needed = 0, uses_anonymous_args = 0
 506              		@ link register save eliminated.
 507 0000 024A     		ldr	r2, .L79
 508 0002 1369     		ldr	r3, [r2, #16]
 509 0004 23F01003 		bic	r3, r3, #16
 510 0008 1361     		str	r3, [r2, #16]
 511 000a 7047     		bx	lr
 512              	.L80:
 513              		.align	2
 514              	.L79:
 515 000c 00ED00E0 		.word	-536810240
 517              		.ident	"GCC: (GNU Tools for Arm Embedded Processors 8-2018-q4-major) 8.2.1 20181213 (release) [gcc
ARM GAS  D:\Programs\cygwin64\tmp\ccroHHhp.s 			page 10

