ARM GAS  D:\Programs\cygwin64\tmp\ccb1T3l6.s 			page 1


   1              		.cpu cortex-m4
   2              		.eabi_attribute 27, 1
   3              		.eabi_attribute 28, 1
   4              		.eabi_attribute 20, 1
   5              		.eabi_attribute 21, 1
   6              		.eabi_attribute 23, 3
   7              		.eabi_attribute 24, 1
   8              		.eabi_attribute 25, 1
   9              		.eabi_attribute 26, 1
  10              		.eabi_attribute 30, 2
  11              		.eabi_attribute 34, 1
  12              		.eabi_attribute 18, 4
  13              		.file	"stm32f4xx_hal_usart.c"
  14              		.text
  15              		.section	.text.HAL_USART_MspInit,"ax",%progbits
  16              		.align	1
  17              		.p2align 2,,3
  18              		.weak	HAL_USART_MspInit
  19              		.arch armv7e-m
  20              		.syntax unified
  21              		.thumb
  22              		.thumb_func
  23              		.fpu fpv4-sp-d16
  25              	HAL_USART_MspInit:
  26              		@ args = 0, pretend = 0, frame = 0
  27              		@ frame_needed = 0, uses_anonymous_args = 0
  28              		@ link register save eliminated.
  29 0000 7047     		bx	lr
  31 0002 00BF     		.section	.text.HAL_USART_Init,"ax",%progbits
  32              		.align	1
  33              		.p2align 2,,3
  34              		.global	HAL_USART_Init
  35              		.syntax unified
  36              		.thumb
  37              		.thumb_func
  38              		.fpu fpv4-sp-d16
  40              	HAL_USART_Init:
  41              		@ args = 0, pretend = 0, frame = 0
  42              		@ frame_needed = 0, uses_anonymous_args = 0
  43 0000 0028     		cmp	r0, #0
  44 0002 00F0E380 		beq	.L9
  45 0006 2DE9F843 		push	{r3, r4, r5, r6, r7, r8, r9, lr}
  46 000a 90F83D30 		ldrb	r3, [r0, #61]	@ zero_extendqisi2
  47 000e 0446     		mov	r4, r0
  48 0010 03F0FF02 		and	r2, r3, #255
  49 0014 002B     		cmp	r3, #0
  50 0016 00F0D480 		beq	.L15
  51              	.L5:
  52 001a 2268     		ldr	r2, [r4]
  53 001c 256A     		ldr	r5, [r4, #32]
  54 001e 0223     		movs	r3, #2
  55 0020 84F83D30 		strb	r3, [r4, #61]
  56 0024 D168     		ldr	r1, [r2, #12]
  57 0026 21F00C01 		bic	r1, r1, #12
  58 002a D4E90630 		ldrd	r3, r0, [r4, #24]
  59 002e D160     		str	r1, [r2, #12]
  60 0030 1169     		ldr	r1, [r2, #16]
ARM GAS  D:\Programs\cygwin64\tmp\ccb1T3l6.s 			page 2


  61 0032 0343     		orrs	r3, r3, r0
  62 0034 21F47C51 		bic	r1, r1, #16128
  63 0038 0B43     		orrs	r3, r3, r1
  64 003a D4E90210 		ldrd	r1, r0, [r4, #8]
  65 003e 2B43     		orrs	r3, r3, r5
  66 0040 0343     		orrs	r3, r3, r0
  67 0042 43F40063 		orr	r3, r3, #2048
  68 0046 1361     		str	r3, [r2, #16]
  69 0048 D068     		ldr	r0, [r2, #12]
  70 004a D4E90435 		ldrd	r3, r5, [r4, #16]
  71 004e 20F41640 		bic	r0, r0, #38400
  72 0052 0B43     		orrs	r3, r3, r1
  73 0054 20F00C00 		bic	r0, r0, #12
  74 0058 0343     		orrs	r3, r3, r0
  75 005a 2B43     		orrs	r3, r3, r5
  76 005c 43F40043 		orr	r3, r3, #32768
  77 0060 D360     		str	r3, [r2, #12]
  78 0062 5369     		ldr	r3, [r2, #20]
  79 0064 5A49     		ldr	r1, .L16
  80 0066 23F44073 		bic	r3, r3, #768
  81 006a 8A42     		cmp	r2, r1
  82 006c 5361     		str	r3, [r2, #20]
  83 006e 6AD0     		beq	.L6
  84 0070 584B     		ldr	r3, .L16+4
  85 0072 9A42     		cmp	r2, r3
  86 0074 67D0     		beq	.L6
  87 0076 FFF7FEFF 		bl	HAL_RCC_GetPCLK1Freq
  88 007a 574F     		ldr	r7, .L16+8
  89 007c 6368     		ldr	r3, [r4, #4]
  90 007e 00EB8000 		add	r0, r0, r0, lsl #2
  91 0082 00EB8000 		add	r0, r0, r0, lsl #2
  92 0086 5B00     		lsls	r3, r3, #1
  93 0088 B0FBF3F3 		udiv	r3, r0, r3
  94 008c A7FB0323 		umull	r2, r3, r7, r3
  95 0090 5B09     		lsrs	r3, r3, #5
  96 0092 1E01     		lsls	r6, r3, #4
  97 0094 FFF7FEFF 		bl	HAL_RCC_GetPCLK1Freq
  98 0098 6568     		ldr	r5, [r4, #4]
  99 009a 00EB8000 		add	r0, r0, r0, lsl #2
 100 009e 00EB8000 		add	r0, r0, r0, lsl #2
 101 00a2 6D00     		lsls	r5, r5, #1
 102 00a4 B0FBF5F5 		udiv	r5, r0, r5
 103 00a8 FFF7FEFF 		bl	HAL_RCC_GetPCLK1Freq
 104 00ac 6368     		ldr	r3, [r4, #4]
 105 00ae 00EB8000 		add	r0, r0, r0, lsl #2
 106 00b2 00EB8000 		add	r0, r0, r0, lsl #2
 107 00b6 5B00     		lsls	r3, r3, #1
 108 00b8 B0FBF3F3 		udiv	r3, r0, r3
 109 00bc A7FB0323 		umull	r2, r3, r7, r3
 110 00c0 5B09     		lsrs	r3, r3, #5
 111 00c2 4FF06409 		mov	r9, #100
 112 00c6 09FB1353 		mls	r3, r9, r3, r5
 113 00ca DB00     		lsls	r3, r3, #3
 114 00cc 3233     		adds	r3, r3, #50
 115 00ce A7FB0323 		umull	r2, r3, r7, r3
 116 00d2 1B09     		lsrs	r3, r3, #4
 117 00d4 03F4F875 		and	r5, r3, #496
ARM GAS  D:\Programs\cygwin64\tmp\ccb1T3l6.s 			page 3


 118 00d8 FFF7FEFF 		bl	HAL_RCC_GetPCLK1Freq
 119 00dc 6268     		ldr	r2, [r4, #4]
 120 00de 00EB8000 		add	r0, r0, r0, lsl #2
 121 00e2 00EB8000 		add	r0, r0, r0, lsl #2
 122 00e6 5300     		lsls	r3, r2, #1
 123 00e8 B0FBF3F8 		udiv	r8, r0, r3
 124 00ec FFF7FEFF 		bl	HAL_RCC_GetPCLK1Freq
 125              	.L14:
 126 00f0 D4E90021 		ldrd	r2, r1, [r4]
 127 00f4 00EB8000 		add	r0, r0, r0, lsl #2
 128 00f8 4B00     		lsls	r3, r1, #1
 129 00fa 00EB8000 		add	r0, r0, r0, lsl #2
 130 00fe B0FBF3F3 		udiv	r3, r0, r3
 131 0102 A7FB0313 		umull	r1, r3, r7, r3
 132 0106 5B09     		lsrs	r3, r3, #5
 133 0108 09FB1383 		mls	r3, r9, r3, r8
 134 010c DB00     		lsls	r3, r3, #3
 135 010e 3233     		adds	r3, r3, #50
 136 0110 A7FB0313 		umull	r1, r3, r7, r3
 137 0114 C3F34213 		ubfx	r3, r3, #5, #3
 138 0118 3344     		add	r3, r3, r6
 139 011a 2B44     		add	r3, r3, r5
 140 011c 9360     		str	r3, [r2, #8]
 141 011e 1369     		ldr	r3, [r2, #16]
 142 0120 23F48043 		bic	r3, r3, #16384
 143 0124 1361     		str	r3, [r2, #16]
 144 0126 5369     		ldr	r3, [r2, #20]
 145 0128 23F02A03 		bic	r3, r3, #42
 146 012c 5361     		str	r3, [r2, #20]
 147 012e D368     		ldr	r3, [r2, #12]
 148 0130 0021     		movs	r1, #0
 149 0132 43F40053 		orr	r3, r3, #8192
 150 0136 0125     		movs	r5, #1
 151 0138 D360     		str	r3, [r2, #12]
 152 013a 0846     		mov	r0, r1
 153 013c 2164     		str	r1, [r4, #64]
 154 013e 84F83D50 		strb	r5, [r4, #61]
 155 0142 BDE8F883 		pop	{r3, r4, r5, r6, r7, r8, r9, pc}
 156              	.L6:
 157 0146 FFF7FEFF 		bl	HAL_RCC_GetPCLK2Freq
 158 014a 234F     		ldr	r7, .L16+8
 159 014c 6368     		ldr	r3, [r4, #4]
 160 014e 00EB8000 		add	r0, r0, r0, lsl #2
 161 0152 00EB8000 		add	r0, r0, r0, lsl #2
 162 0156 5B00     		lsls	r3, r3, #1
 163 0158 B0FBF3F3 		udiv	r3, r0, r3
 164 015c A7FB0323 		umull	r2, r3, r7, r3
 165 0160 5B09     		lsrs	r3, r3, #5
 166 0162 1E01     		lsls	r6, r3, #4
 167 0164 FFF7FEFF 		bl	HAL_RCC_GetPCLK2Freq
 168 0168 6568     		ldr	r5, [r4, #4]
 169 016a 00EB8000 		add	r0, r0, r0, lsl #2
 170 016e 00EB8000 		add	r0, r0, r0, lsl #2
 171 0172 6D00     		lsls	r5, r5, #1
 172 0174 B0FBF5F5 		udiv	r5, r0, r5
 173 0178 FFF7FEFF 		bl	HAL_RCC_GetPCLK2Freq
 174 017c 6368     		ldr	r3, [r4, #4]
ARM GAS  D:\Programs\cygwin64\tmp\ccb1T3l6.s 			page 4


 175 017e 00EB8000 		add	r0, r0, r0, lsl #2
 176 0182 00EB8000 		add	r0, r0, r0, lsl #2
 177 0186 5B00     		lsls	r3, r3, #1
 178 0188 B0FBF3F3 		udiv	r3, r0, r3
 179 018c A7FB0323 		umull	r2, r3, r7, r3
 180 0190 4FF06409 		mov	r9, #100
 181 0194 5B09     		lsrs	r3, r3, #5
 182 0196 09FB1353 		mls	r3, r9, r3, r5
 183 019a DB00     		lsls	r3, r3, #3
 184 019c 3233     		adds	r3, r3, #50
 185 019e A7FB0323 		umull	r2, r3, r7, r3
 186 01a2 1B09     		lsrs	r3, r3, #4
 187 01a4 03F4F875 		and	r5, r3, #496
 188 01a8 FFF7FEFF 		bl	HAL_RCC_GetPCLK2Freq
 189 01ac 6268     		ldr	r2, [r4, #4]
 190 01ae 00EB8000 		add	r0, r0, r0, lsl #2
 191 01b2 5300     		lsls	r3, r2, #1
 192 01b4 00EB8000 		add	r0, r0, r0, lsl #2
 193 01b8 B0FBF3F8 		udiv	r8, r0, r3
 194 01bc FFF7FEFF 		bl	HAL_RCC_GetPCLK2Freq
 195 01c0 96E7     		b	.L14
 196              	.L15:
 197 01c2 80F83C20 		strb	r2, [r0, #60]
 198 01c6 FFF7FEFF 		bl	HAL_USART_MspInit
 199 01ca 26E7     		b	.L5
 200              	.L9:
 201 01cc 0120     		movs	r0, #1
 202 01ce 7047     		bx	lr
 203              	.L17:
 204              		.align	2
 205              	.L16:
 206 01d0 00100140 		.word	1073811456
 207 01d4 00140140 		.word	1073812480
 208 01d8 1F85EB51 		.word	1374389535
 210              		.section	.text.HAL_USART_MspDeInit,"ax",%progbits
 211              		.align	1
 212              		.p2align 2,,3
 213              		.weak	HAL_USART_MspDeInit
 214              		.syntax unified
 215              		.thumb
 216              		.thumb_func
 217              		.fpu fpv4-sp-d16
 219              	HAL_USART_MspDeInit:
 220              		@ args = 0, pretend = 0, frame = 0
 221              		@ frame_needed = 0, uses_anonymous_args = 0
 222              		@ link register save eliminated.
 223 0000 7047     		bx	lr
 225 0002 00BF     		.section	.text.HAL_USART_DeInit,"ax",%progbits
 226              		.align	1
 227              		.p2align 2,,3
 228              		.global	HAL_USART_DeInit
 229              		.syntax unified
 230              		.thumb
 231              		.thumb_func
 232              		.fpu fpv4-sp-d16
 234              	HAL_USART_DeInit:
 235              		@ args = 0, pretend = 0, frame = 0
ARM GAS  D:\Programs\cygwin64\tmp\ccb1T3l6.s 			page 5


 236              		@ frame_needed = 0, uses_anonymous_args = 0
 237 0000 90B1     		cbz	r0, .L21
 238 0002 0268     		ldr	r2, [r0]
 239 0004 0223     		movs	r3, #2
 240 0006 10B5     		push	{r4, lr}
 241 0008 80F83D30 		strb	r3, [r0, #61]
 242 000c D368     		ldr	r3, [r2, #12]
 243 000e 23F40053 		bic	r3, r3, #8192
 244 0012 0446     		mov	r4, r0
 245 0014 D360     		str	r3, [r2, #12]
 246 0016 FFF7FEFF 		bl	HAL_USART_MspDeInit
 247 001a 0020     		movs	r0, #0
 248 001c 2064     		str	r0, [r4, #64]
 249 001e 84F83C00 		strb	r0, [r4, #60]
 250 0022 84F83D00 		strb	r0, [r4, #61]
 251 0026 10BD     		pop	{r4, pc}
 252              	.L21:
 253 0028 0120     		movs	r0, #1
 254 002a 7047     		bx	lr
 256              		.section	.text.HAL_USART_Transmit,"ax",%progbits
 257              		.align	1
 258              		.p2align 2,,3
 259              		.global	HAL_USART_Transmit
 260              		.syntax unified
 261              		.thumb
 262              		.thumb_func
 263              		.fpu fpv4-sp-d16
 265              	HAL_USART_Transmit:
 266              		@ args = 0, pretend = 0, frame = 0
 267              		@ frame_needed = 0, uses_anonymous_args = 0
 268 0000 2DE9F041 		push	{r4, r5, r6, r7, r8, lr}
 269 0004 0446     		mov	r4, r0
 270 0006 90F83D00 		ldrb	r0, [r0, #61]	@ zero_extendqisi2
 271 000a C0B2     		uxtb	r0, r0
 272 000c 0128     		cmp	r0, #1
 273 000e 6BD1     		bne	.L53
 274 0010 0D46     		mov	r5, r1
 275 0012 0029     		cmp	r1, #0
 276 0014 38D0     		beq	.L27
 277 0016 9046     		mov	r8, r2
 278 0018 002A     		cmp	r2, #0
 279 001a 35D0     		beq	.L27
 280 001c 1F46     		mov	r7, r3
 281 001e 94F83C30 		ldrb	r3, [r4, #60]	@ zero_extendqisi2
 282 0022 012B     		cmp	r3, #1
 283 0024 60D0     		beq	.L53
 284 0026 0022     		movs	r2, #0
 285 0028 1223     		movs	r3, #18
 286 002a 2264     		str	r2, [r4, #64]
 287 002c 84F83C00 		strb	r0, [r4, #60]
 288 0030 84F83D30 		strb	r3, [r4, #61]
 289 0034 FFF7FEFF 		bl	HAL_GetTick
 290 0038 2268     		ldr	r2, [r4]
 291 003a A4F82880 		strh	r8, [r4, #40]	@ movhi
 292 003e 0646     		mov	r6, r0
 293 0040 A4F82A80 		strh	r8, [r4, #42]	@ movhi
 294              	.L28:
ARM GAS  D:\Programs\cygwin64\tmp\ccb1T3l6.s 			page 6


 295 0044 618D     		ldrh	r1, [r4, #42]
 296 0046 89B2     		uxth	r1, r1
 297 0048 99B1     		cbz	r1, .L81
 298              	.L43:
 299 004a 608D     		ldrh	r0, [r4, #42]
 300 004c A168     		ldr	r1, [r4, #8]
 301 004e 0138     		subs	r0, r0, #1
 302 0050 80B2     		uxth	r0, r0
 303 0052 B1F5805F 		cmp	r1, #4096
 304 0056 6085     		strh	r0, [r4, #42]	@ movhi
 305 0058 18D0     		beq	.L82
 306 005a 781C     		adds	r0, r7, #1
 307 005c 23D1     		bne	.L83
 308              	.L42:
 309 005e 1368     		ldr	r3, [r2]
 310 0060 1B06     		lsls	r3, r3, #24
 311 0062 FCD5     		bpl	.L42
 312              	.L41:
 313 0064 15F8013B 		ldrb	r3, [r5], #1	@ zero_extendqisi2
 314 0068 5360     		str	r3, [r2, #4]
 315              	.L86:
 316 006a 618D     		ldrh	r1, [r4, #42]
 317 006c 89B2     		uxth	r1, r1
 318 006e 0029     		cmp	r1, #0
 319 0070 EBD1     		bne	.L43
 320              	.L81:
 321 0072 7D1C     		adds	r5, r7, #1
 322 0074 55D1     		bne	.L84
 323              	.L45:
 324 0076 1368     		ldr	r3, [r2]
 325 0078 5B06     		lsls	r3, r3, #25
 326 007a FCD5     		bpl	.L45
 327              	.L49:
 328 007c 0123     		movs	r3, #1
 329 007e 0020     		movs	r0, #0
 330 0080 84F83D30 		strb	r3, [r4, #61]
 331 0084 84F83C00 		strb	r0, [r4, #60]
 332              	.L27:
 333 0088 BDE8F081 		pop	{r4, r5, r6, r7, r8, pc}
 334              	.L82:
 335 008c 7B1C     		adds	r3, r7, #1
 336 008e 1BD1     		bne	.L85
 337              	.L35:
 338 0090 1368     		ldr	r3, [r2]
 339 0092 1906     		lsls	r1, r3, #24
 340 0094 FCD5     		bpl	.L35
 341              	.L34:
 342 0096 2B88     		ldrh	r3, [r5]
 343 0098 2169     		ldr	r1, [r4, #16]
 344 009a C3F30803 		ubfx	r3, r3, #0, #9
 345 009e 5360     		str	r3, [r2, #4]
 346 00a0 01BB     		cbnz	r1, .L36
 347 00a2 0235     		adds	r5, r5, #2
 348 00a4 CEE7     		b	.L28
 349              	.L83:
 350 00a6 1368     		ldr	r3, [r2]
 351 00a8 1906     		lsls	r1, r3, #24
ARM GAS  D:\Programs\cygwin64\tmp\ccb1T3l6.s 			page 7


 352 00aa DBD4     		bmi	.L41
 353 00ac 07B3     		cbz	r7, .L47
 354              	.L40:
 355 00ae FFF7FEFF 		bl	HAL_GetTick
 356 00b2 801B     		subs	r0, r0, r6
 357 00b4 8742     		cmp	r7, r0
 358 00b6 2268     		ldr	r2, [r4]
 359 00b8 1AD3     		bcc	.L47
 360 00ba 1368     		ldr	r3, [r2]
 361 00bc 1B06     		lsls	r3, r3, #24
 362 00be F6D5     		bpl	.L40
 363 00c0 15F8013B 		ldrb	r3, [r5], #1	@ zero_extendqisi2
 364 00c4 5360     		str	r3, [r2, #4]
 365 00c6 D0E7     		b	.L86
 366              	.L85:
 367 00c8 1368     		ldr	r3, [r2]
 368 00ca 1806     		lsls	r0, r3, #24
 369 00cc E3D4     		bmi	.L34
 370 00ce 7FB1     		cbz	r7, .L47
 371              	.L33:
 372 00d0 FFF7FEFF 		bl	HAL_GetTick
 373 00d4 801B     		subs	r0, r0, r6
 374 00d6 8742     		cmp	r7, r0
 375 00d8 2268     		ldr	r2, [r4]
 376 00da 09D3     		bcc	.L47
 377 00dc 1368     		ldr	r3, [r2]
 378 00de 1906     		lsls	r1, r3, #24
 379 00e0 F6D5     		bpl	.L33
 380 00e2 D8E7     		b	.L34
 381              	.L36:
 382 00e4 0135     		adds	r5, r5, #1
 383 00e6 ADE7     		b	.L28
 384              	.L53:
 385 00e8 0220     		movs	r0, #2
 386 00ea BDE8F081 		pop	{r4, r5, r6, r7, r8, pc}
 387              	.L87:
 388 00ee 2268     		ldr	r2, [r4]
 389              	.L47:
 390 00f0 D368     		ldr	r3, [r2, #12]
 391 00f2 23F08003 		bic	r3, r3, #128
 392 00f6 D360     		str	r3, [r2, #12]
 393 00f8 D368     		ldr	r3, [r2, #12]
 394 00fa 23F02003 		bic	r3, r3, #32
 395 00fe D360     		str	r3, [r2, #12]
 396 0100 D368     		ldr	r3, [r2, #12]
 397 0102 23F48073 		bic	r3, r3, #256
 398 0106 D360     		str	r3, [r2, #12]
 399 0108 5369     		ldr	r3, [r2, #20]
 400 010a 0125     		movs	r5, #1
 401 010c 23F00103 		bic	r3, r3, #1
 402 0110 0021     		movs	r1, #0
 403 0112 5361     		str	r3, [r2, #20]
 404 0114 0320     		movs	r0, #3
 405 0116 84F83D50 		strb	r5, [r4, #61]
 406 011a 84F83C10 		strb	r1, [r4, #60]
 407 011e BDE8F081 		pop	{r4, r5, r6, r7, r8, pc}
 408              	.L84:
ARM GAS  D:\Programs\cygwin64\tmp\ccb1T3l6.s 			page 8


 409 0122 1368     		ldr	r3, [r2]
 410 0124 5906     		lsls	r1, r3, #25
 411 0126 A9D4     		bmi	.L49
 412 0128 002F     		cmp	r7, #0
 413 012a E1D0     		beq	.L47
 414              	.L48:
 415 012c FFF7FEFF 		bl	HAL_GetTick
 416 0130 801B     		subs	r0, r0, r6
 417 0132 8742     		cmp	r7, r0
 418 0134 DBD3     		bcc	.L87
 419 0136 2368     		ldr	r3, [r4]
 420 0138 1B68     		ldr	r3, [r3]
 421 013a 5806     		lsls	r0, r3, #25
 422 013c F6D5     		bpl	.L48
 423 013e 9DE7     		b	.L49
 425              		.section	.text.HAL_USART_Receive,"ax",%progbits
 426              		.align	1
 427              		.p2align 2,,3
 428              		.global	HAL_USART_Receive
 429              		.syntax unified
 430              		.thumb
 431              		.thumb_func
 432              		.fpu fpv4-sp-d16
 434              	HAL_USART_Receive:
 435              		@ args = 0, pretend = 0, frame = 0
 436              		@ frame_needed = 0, uses_anonymous_args = 0
 437 0000 2DE9F843 		push	{r3, r4, r5, r6, r7, r8, r9, lr}
 438 0004 0446     		mov	r4, r0
 439 0006 90F83D00 		ldrb	r0, [r0, #61]	@ zero_extendqisi2
 440 000a C0B2     		uxtb	r0, r0
 441 000c 0128     		cmp	r0, #1
 442 000e 39D1     		bne	.L124
 443 0010 0D46     		mov	r5, r1
 444 0012 0029     		cmp	r1, #0
 445 0014 37D0     		beq	.L153
 446 0016 1746     		mov	r7, r2
 447 0018 002A     		cmp	r2, #0
 448 001a 34D0     		beq	.L153
 449 001c 9946     		mov	r9, r3
 450 001e 94F83C30 		ldrb	r3, [r4, #60]	@ zero_extendqisi2
 451 0022 012B     		cmp	r3, #1
 452 0024 2ED0     		beq	.L124
 453 0026 0022     		movs	r2, #0
 454 0028 2223     		movs	r3, #34
 455 002a 2264     		str	r2, [r4, #64]
 456 002c 84F83C00 		strb	r0, [r4, #60]
 457 0030 84F83D30 		strb	r3, [r4, #61]
 458 0034 FFF7FEFF 		bl	HAL_GetTick
 459 0038 40F2FF18 		movw	r8, #511
 460 003c 2786     		strh	r7, [r4, #48]	@ movhi
 461 003e 6786     		strh	r7, [r4, #50]	@ movhi
 462 0040 0646     		mov	r6, r0
 463 0042 FF27     		movs	r7, #255
 464              	.L90:
 465 0044 608E     		ldrh	r0, [r4, #50]
 466 0046 80B2     		uxth	r0, r0
 467 0048 0028     		cmp	r0, #0
ARM GAS  D:\Programs\cygwin64\tmp\ccb1T3l6.s 			page 9


 468 004a 00F0AD80 		beq	.L159
 469 004e 628E     		ldrh	r2, [r4, #50]
 470 0050 A168     		ldr	r1, [r4, #8]
 471 0052 013A     		subs	r2, r2, #1
 472 0054 92B2     		uxth	r2, r2
 473 0056 B1F5805F 		cmp	r1, #4096
 474 005a 6286     		strh	r2, [r4, #50]	@ movhi
 475 005c 20D0     		beq	.L91
 476              	.L92:
 477 005e B9F1FF3F 		cmp	r9, #-1
 478 0062 2268     		ldr	r2, [r4]
 479 0064 31D1     		bne	.L107
 480              	.L108:
 481 0066 1368     		ldr	r3, [r2]
 482 0068 1906     		lsls	r1, r3, #24
 483 006a FCD5     		bpl	.L108
 484 006c 5760     		str	r7, [r2, #4]
 485              	.L116:
 486 006e 1368     		ldr	r3, [r2]
 487 0070 9906     		lsls	r1, r3, #26
 488 0072 FCD5     		bpl	.L116
 489              	.L115:
 490 0074 2369     		ldr	r3, [r4, #16]
 491 0076 691C     		adds	r1, r5, #1
 492 0078 002B     		cmp	r3, #0
 493 007a 5FD1     		bne	.L117
 494              	.L163:
 495 007c 5368     		ldr	r3, [r2, #4]
 496 007e 2B70     		strb	r3, [r5]
 497 0080 0D46     		mov	r5, r1
 498 0082 DFE7     		b	.L90
 499              	.L124:
 500 0084 0220     		movs	r0, #2
 501              	.L153:
 502 0086 BDE8F883 		pop	{r3, r4, r5, r6, r7, r8, r9, pc}
 503              	.L94:
 504 008a 1A68     		ldr	r2, [r3]
 505 008c 1106     		lsls	r1, r2, #24
 506 008e 5BD4     		bmi	.L160
 507 0090 B9F1000F 		cmp	r9, #0
 508 0094 6FD0     		beq	.L99
 509 0096 FFF7FEFF 		bl	HAL_GetTick
 510 009a 801B     		subs	r0, r0, r6
 511 009c 8145     		cmp	r9, r0
 512 009e 69D3     		bcc	.L161
 513              	.L91:
 514 00a0 B9F1FF3F 		cmp	r9, #-1
 515 00a4 2368     		ldr	r3, [r4]
 516 00a6 F0D1     		bne	.L94
 517              	.L95:
 518 00a8 1A68     		ldr	r2, [r3]
 519 00aa 1006     		lsls	r0, r2, #24
 520 00ac FCD5     		bpl	.L95
 521 00ae C3F80480 		str	r8, [r3, #4]
 522              	.L103:
 523 00b2 1A68     		ldr	r2, [r3]
 524 00b4 9006     		lsls	r0, r2, #26
ARM GAS  D:\Programs\cygwin64\tmp\ccb1T3l6.s 			page 10


 525 00b6 FCD5     		bpl	.L103
 526              	.L102:
 527 00b8 2269     		ldr	r2, [r4, #16]
 528 00ba 5B68     		ldr	r3, [r3, #4]
 529 00bc 002A     		cmp	r2, #0
 530 00be 55D1     		bne	.L104
 531 00c0 C3F30803 		ubfx	r3, r3, #0, #9
 532 00c4 25F8023B 		strh	r3, [r5], #2	@ movhi
 533 00c8 BCE7     		b	.L90
 534              	.L107:
 535 00ca 1368     		ldr	r3, [r2]
 536 00cc 1B06     		lsls	r3, r3, #24
 537 00ce 21D4     		bmi	.L162
 538 00d0 B9F1000F 		cmp	r9, #0
 539 00d4 05D0     		beq	.L112
 540 00d6 FFF7FEFF 		bl	HAL_GetTick
 541 00da 801B     		subs	r0, r0, r6
 542 00dc 8145     		cmp	r9, r0
 543 00de BED2     		bcs	.L92
 544 00e0 2268     		ldr	r2, [r4]
 545              	.L112:
 546 00e2 D368     		ldr	r3, [r2, #12]
 547 00e4 23F08003 		bic	r3, r3, #128
 548 00e8 D360     		str	r3, [r2, #12]
 549 00ea D368     		ldr	r3, [r2, #12]
 550 00ec 23F02003 		bic	r3, r3, #32
 551 00f0 D360     		str	r3, [r2, #12]
 552 00f2 D368     		ldr	r3, [r2, #12]
 553 00f4 23F48073 		bic	r3, r3, #256
 554 00f8 D360     		str	r3, [r2, #12]
 555 00fa 5369     		ldr	r3, [r2, #20]
 556 00fc 0125     		movs	r5, #1
 557 00fe 23F00103 		bic	r3, r3, #1
 558 0102 0021     		movs	r1, #0
 559 0104 5361     		str	r3, [r2, #20]
 560 0106 0320     		movs	r0, #3
 561 0108 84F83D50 		strb	r5, [r4, #61]
 562 010c 84F83C10 		strb	r1, [r4, #60]
 563 0110 BDE8F883 		pop	{r3, r4, r5, r6, r7, r8, r9, pc}
 564              	.L162:
 565 0114 5760     		str	r7, [r2, #4]
 566 0116 1368     		ldr	r3, [r2]
 567 0118 9B06     		lsls	r3, r3, #26
 568 011a ABD4     		bmi	.L115
 569 011c B9F1000F 		cmp	r9, #0
 570 0120 DFD0     		beq	.L112
 571              	.L114:
 572 0122 FFF7FEFF 		bl	HAL_GetTick
 573 0126 801B     		subs	r0, r0, r6
 574 0128 8145     		cmp	r9, r0
 575 012a 2268     		ldr	r2, [r4]
 576 012c D9D3     		bcc	.L112
 577 012e 1368     		ldr	r3, [r2]
 578 0130 9806     		lsls	r0, r3, #26
 579 0132 F6D5     		bpl	.L114
 580 0134 2369     		ldr	r3, [r4, #16]
 581 0136 691C     		adds	r1, r5, #1
ARM GAS  D:\Programs\cygwin64\tmp\ccb1T3l6.s 			page 11


 582 0138 002B     		cmp	r3, #0
 583 013a 9FD0     		beq	.L163
 584              	.L117:
 585 013c 5368     		ldr	r3, [r2, #4]
 586 013e 03F07F03 		and	r3, r3, #127
 587 0142 2B70     		strb	r3, [r5]
 588 0144 0D46     		mov	r5, r1
 589 0146 7DE7     		b	.L90
 590              	.L160:
 591 0148 C3F80480 		str	r8, [r3, #4]
 592 014c 1A68     		ldr	r2, [r3]
 593 014e 9206     		lsls	r2, r2, #26
 594 0150 B2D4     		bmi	.L102
 595 0152 B9F1000F 		cmp	r9, #0
 596 0156 0ED0     		beq	.L99
 597              	.L101:
 598 0158 FFF7FEFF 		bl	HAL_GetTick
 599 015c 801B     		subs	r0, r0, r6
 600 015e 8145     		cmp	r9, r0
 601 0160 2368     		ldr	r3, [r4]
 602 0162 08D3     		bcc	.L99
 603 0164 1A68     		ldr	r2, [r3]
 604 0166 9206     		lsls	r2, r2, #26
 605 0168 F6D5     		bpl	.L101
 606 016a A5E7     		b	.L102
 607              	.L104:
 608 016c DBB2     		uxtb	r3, r3
 609 016e 25F8013B 		strh	r3, [r5], #1	@ movhi
 610 0172 67E7     		b	.L90
 611              	.L161:
 612 0174 2368     		ldr	r3, [r4]
 613              	.L99:
 614 0176 DA68     		ldr	r2, [r3, #12]
 615 0178 22F08002 		bic	r2, r2, #128
 616 017c DA60     		str	r2, [r3, #12]
 617 017e DA68     		ldr	r2, [r3, #12]
 618 0180 22F02002 		bic	r2, r2, #32
 619 0184 DA60     		str	r2, [r3, #12]
 620 0186 DA68     		ldr	r2, [r3, #12]
 621 0188 22F48072 		bic	r2, r2, #256
 622 018c DA60     		str	r2, [r3, #12]
 623 018e 5A69     		ldr	r2, [r3, #20]
 624 0190 0125     		movs	r5, #1
 625 0192 22F00102 		bic	r2, r2, #1
 626 0196 0021     		movs	r1, #0
 627 0198 5A61     		str	r2, [r3, #20]
 628 019a 0320     		movs	r0, #3
 629 019c 84F83D50 		strb	r5, [r4, #61]
 630 01a0 84F83C10 		strb	r1, [r4, #60]
 631 01a4 BDE8F883 		pop	{r3, r4, r5, r6, r7, r8, r9, pc}
 632              	.L159:
 633 01a8 0123     		movs	r3, #1
 634 01aa 84F83C00 		strb	r0, [r4, #60]
 635 01ae 84F83D30 		strb	r3, [r4, #61]
 636 01b2 68E7     		b	.L153
 638              		.section	.text.HAL_USART_TransmitReceive,"ax",%progbits
 639              		.align	1
ARM GAS  D:\Programs\cygwin64\tmp\ccb1T3l6.s 			page 12


 640              		.p2align 2,,3
 641              		.global	HAL_USART_TransmitReceive
 642              		.syntax unified
 643              		.thumb
 644              		.thumb_func
 645              		.fpu fpv4-sp-d16
 647              	HAL_USART_TransmitReceive:
 648              		@ args = 4, pretend = 0, frame = 8
 649              		@ frame_needed = 0, uses_anonymous_args = 0
 650 0000 2DE9F041 		push	{r4, r5, r6, r7, r8, lr}
 651 0004 0446     		mov	r4, r0
 652 0006 90F83D00 		ldrb	r0, [r0, #61]	@ zero_extendqisi2
 653 000a 82B0     		sub	sp, sp, #8
 654 000c C0B2     		uxtb	r0, r0
 655 000e 0128     		cmp	r0, #1
 656 0010 089E     		ldr	r6, [sp, #32]
 657 0012 41D1     		bne	.L201
 658 0014 0D46     		mov	r5, r1
 659 0016 0029     		cmp	r1, #0
 660 0018 3FD0     		beq	.L232
 661 001a 1746     		mov	r7, r2
 662 001c 002A     		cmp	r2, #0
 663 001e 3CD0     		beq	.L232
 664 0020 0193     		str	r3, [sp, #4]
 665 0022 002B     		cmp	r3, #0
 666 0024 39D0     		beq	.L232
 667 0026 94F83C20 		ldrb	r2, [r4, #60]	@ zero_extendqisi2
 668 002a 012A     		cmp	r2, #1
 669 002c 34D0     		beq	.L201
 670 002e 0021     		movs	r1, #0
 671 0030 2222     		movs	r2, #34
 672 0032 2164     		str	r1, [r4, #64]
 673 0034 84F83C00 		strb	r0, [r4, #60]
 674 0038 84F83D20 		strb	r2, [r4, #61]
 675 003c FFF7FEFF 		bl	HAL_GetTick
 676 0040 019B     		ldr	r3, [sp, #4]
 677 0042 6385     		strh	r3, [r4, #42]	@ movhi
 678 0044 8046     		mov	r8, r0
 679 0046 2386     		strh	r3, [r4, #48]	@ movhi
 680 0048 2385     		strh	r3, [r4, #40]	@ movhi
 681 004a 6386     		strh	r3, [r4, #50]	@ movhi
 682              	.L166:
 683 004c 608D     		ldrh	r0, [r4, #42]
 684 004e 80B2     		uxth	r0, r0
 685 0050 0028     		cmp	r0, #0
 686 0052 00F09980 		beq	.L238
 687 0056 638D     		ldrh	r3, [r4, #42]
 688 0058 A268     		ldr	r2, [r4, #8]
 689 005a 013B     		subs	r3, r3, #1
 690 005c 9BB2     		uxth	r3, r3
 691 005e 6385     		strh	r3, [r4, #42]	@ movhi
 692 0060 638E     		ldrh	r3, [r4, #50]
 693 0062 013B     		subs	r3, r3, #1
 694 0064 9BB2     		uxth	r3, r3
 695 0066 B2F5805F 		cmp	r2, #4096
 696 006a 6386     		strh	r3, [r4, #50]	@ movhi
 697 006c 22D0     		beq	.L167
ARM GAS  D:\Programs\cygwin64\tmp\ccb1T3l6.s 			page 13


 698              	.L168:
 699 006e 701C     		adds	r0, r6, #1
 700 0070 2368     		ldr	r3, [r4]
 701 0072 3AD1     		bne	.L184
 702              	.L185:
 703 0074 1A68     		ldr	r2, [r3]
 704 0076 1106     		lsls	r1, r2, #24
 705 0078 FCD5     		bpl	.L185
 706 007a 15F8012B 		ldrb	r2, [r5], #1	@ zero_extendqisi2
 707 007e 5A60     		str	r2, [r3, #4]
 708              	.L193:
 709 0080 1A68     		ldr	r2, [r3]
 710 0082 9106     		lsls	r1, r2, #26
 711 0084 FCD5     		bpl	.L193
 712              	.L192:
 713 0086 2269     		ldr	r2, [r4, #16]
 714 0088 5B68     		ldr	r3, [r3, #4]
 715 008a 791C     		adds	r1, r7, #1
 716 008c 0AB1     		cbz	r2, .L236
 717 008e 03F07F03 		and	r3, r3, #127
 718              	.L236:
 719 0092 3B70     		strb	r3, [r7]
 720 0094 0F46     		mov	r7, r1
 721 0096 D9E7     		b	.L166
 722              	.L201:
 723 0098 0220     		movs	r0, #2
 724              	.L232:
 725 009a 02B0     		add	sp, sp, #8
 726              		@ sp needed
 727 009c BDE8F081 		pop	{r4, r5, r6, r7, r8, pc}
 728              	.L170:
 729 00a0 1A68     		ldr	r2, [r3]
 730 00a2 1106     		lsls	r1, r2, #24
 731 00a4 0CD4     		bmi	.L172
 732 00a6 5EB3     		cbz	r6, .L189
 733 00a8 FFF7FEFF 		bl	HAL_GetTick
 734 00ac A0EB0800 		sub	r0, r0, r8
 735 00b0 8642     		cmp	r6, r0
 736 00b2 24D3     		bcc	.L237
 737              	.L167:
 738 00b4 721C     		adds	r2, r6, #1
 739 00b6 2368     		ldr	r3, [r4]
 740 00b8 F2D1     		bne	.L170
 741              	.L171:
 742 00ba 1A68     		ldr	r2, [r3]
 743 00bc 1006     		lsls	r0, r2, #24
 744 00be FCD5     		bpl	.L171
 745              	.L172:
 746 00c0 2A88     		ldrh	r2, [r5]
 747 00c2 2169     		ldr	r1, [r4, #16]
 748 00c4 C2F30802 		ubfx	r2, r2, #0, #9
 749 00c8 5A60     		str	r2, [r3, #4]
 750 00ca 0029     		cmp	r1, #0
 751 00cc 56D1     		bne	.L174
 752 00ce 0235     		adds	r5, r5, #2
 753              	.L175:
 754 00d0 721C     		adds	r2, r6, #1
ARM GAS  D:\Programs\cygwin64\tmp\ccb1T3l6.s 			page 14


 755 00d2 42D1     		bne	.L239
 756              	.L176:
 757 00d4 1A68     		ldr	r2, [r3]
 758 00d6 9206     		lsls	r2, r2, #26
 759 00d8 FCD5     		bpl	.L176
 760              	.L177:
 761 00da 5B68     		ldr	r3, [r3, #4]
 762 00dc 0029     		cmp	r1, #0
 763 00de 4FD1     		bne	.L181
 764 00e0 C3F30803 		ubfx	r3, r3, #0, #9
 765 00e4 27F8023B 		strh	r3, [r7], #2	@ movhi
 766 00e8 B0E7     		b	.L166
 767              	.L184:
 768 00ea 1A68     		ldr	r2, [r3]
 769 00ec 1206     		lsls	r2, r2, #24
 770 00ee 21D4     		bmi	.L240
 771 00f0 36B1     		cbz	r6, .L189
 772 00f2 FFF7FEFF 		bl	HAL_GetTick
 773 00f6 A0EB0800 		sub	r0, r0, r8
 774 00fa 8642     		cmp	r6, r0
 775 00fc B7D2     		bcs	.L168
 776              	.L237:
 777 00fe 2368     		ldr	r3, [r4]
 778              	.L189:
 779 0100 DA68     		ldr	r2, [r3, #12]
 780 0102 22F08002 		bic	r2, r2, #128
 781 0106 DA60     		str	r2, [r3, #12]
 782 0108 DA68     		ldr	r2, [r3, #12]
 783 010a 22F02002 		bic	r2, r2, #32
 784 010e DA60     		str	r2, [r3, #12]
 785 0110 DA68     		ldr	r2, [r3, #12]
 786 0112 22F48072 		bic	r2, r2, #256
 787 0116 DA60     		str	r2, [r3, #12]
 788 0118 5A69     		ldr	r2, [r3, #20]
 789 011a 0125     		movs	r5, #1
 790 011c 22F00102 		bic	r2, r2, #1
 791 0120 0021     		movs	r1, #0
 792 0122 0320     		movs	r0, #3
 793 0124 5A61     		str	r2, [r3, #20]
 794 0126 84F83D50 		strb	r5, [r4, #61]
 795 012a 84F83C10 		strb	r1, [r4, #60]
 796 012e 02B0     		add	sp, sp, #8
 797              		@ sp needed
 798 0130 BDE8F081 		pop	{r4, r5, r6, r7, r8, pc}
 799              	.L240:
 800 0134 15F8012B 		ldrb	r2, [r5], #1	@ zero_extendqisi2
 801 0138 5A60     		str	r2, [r3, #4]
 802 013a 1A68     		ldr	r2, [r3]
 803 013c 9206     		lsls	r2, r2, #26
 804 013e A2D4     		bmi	.L192
 805 0140 002E     		cmp	r6, #0
 806 0142 DDD0     		beq	.L189
 807              	.L191:
 808 0144 FFF7FEFF 		bl	HAL_GetTick
 809 0148 A0EB0800 		sub	r0, r0, r8
 810 014c 8642     		cmp	r6, r0
 811 014e 2368     		ldr	r3, [r4]
ARM GAS  D:\Programs\cygwin64\tmp\ccb1T3l6.s 			page 15


 812 0150 D6D3     		bcc	.L189
 813 0152 1A68     		ldr	r2, [r3]
 814 0154 9006     		lsls	r0, r2, #26
 815 0156 F5D5     		bpl	.L191
 816 0158 95E7     		b	.L192
 817              	.L239:
 818 015a 1A68     		ldr	r2, [r3]
 819 015c 9006     		lsls	r0, r2, #26
 820 015e BCD4     		bmi	.L177
 821 0160 002E     		cmp	r6, #0
 822 0162 CDD0     		beq	.L189
 823              	.L180:
 824 0164 FFF7FEFF 		bl	HAL_GetTick
 825 0168 A0EB0800 		sub	r0, r0, r8
 826 016c 8642     		cmp	r6, r0
 827 016e 2368     		ldr	r3, [r4]
 828 0170 C6D3     		bcc	.L189
 829 0172 1A68     		ldr	r2, [r3]
 830 0174 9106     		lsls	r1, r2, #26
 831 0176 F5D5     		bpl	.L180
 832 0178 2169     		ldr	r1, [r4, #16]
 833 017a AEE7     		b	.L177
 834              	.L174:
 835 017c 0135     		adds	r5, r5, #1
 836 017e A7E7     		b	.L175
 837              	.L181:
 838 0180 DBB2     		uxtb	r3, r3
 839 0182 27F8013B 		strh	r3, [r7], #1	@ movhi
 840 0186 61E7     		b	.L166
 841              	.L238:
 842 0188 0123     		movs	r3, #1
 843 018a 84F83C00 		strb	r0, [r4, #60]
 844 018e 84F83D30 		strb	r3, [r4, #61]
 845 0192 82E7     		b	.L232
 847              		.section	.text.HAL_USART_Transmit_IT,"ax",%progbits
 848              		.align	1
 849              		.p2align 2,,3
 850              		.global	HAL_USART_Transmit_IT
 851              		.syntax unified
 852              		.thumb
 853              		.thumb_func
 854              		.fpu fpv4-sp-d16
 856              	HAL_USART_Transmit_IT:
 857              		@ args = 0, pretend = 0, frame = 0
 858              		@ frame_needed = 0, uses_anonymous_args = 0
 859              		@ link register save eliminated.
 860 0000 90F83D30 		ldrb	r3, [r0, #61]	@ zero_extendqisi2
 861 0004 DBB2     		uxtb	r3, r3
 862 0006 012B     		cmp	r3, #1
 863 0008 1AD1     		bne	.L246
 864 000a B9B1     		cbz	r1, .L245
 865 000c B2B1     		cbz	r2, .L245
 866 000e 90F83C30 		ldrb	r3, [r0, #60]	@ zero_extendqisi2
 867 0012 012B     		cmp	r3, #1
 868 0014 14D0     		beq	.L246
 869 0016 30B4     		push	{r4, r5}
 870 0018 0023     		movs	r3, #0
ARM GAS  D:\Programs\cygwin64\tmp\ccb1T3l6.s 			page 16


 871 001a 0568     		ldr	r5, [r0]
 872 001c 4285     		strh	r2, [r0, #42]	@ movhi
 873 001e 1224     		movs	r4, #18
 874 0020 0364     		str	r3, [r0, #64]
 875 0022 80F83D40 		strb	r4, [r0, #61]
 876 0026 EC68     		ldr	r4, [r5, #12]
 877 0028 4162     		str	r1, [r0, #36]
 878 002a 44F08004 		orr	r4, r4, #128
 879 002e 0285     		strh	r2, [r0, #40]	@ movhi
 880 0030 80F83C30 		strb	r3, [r0, #60]
 881 0034 1846     		mov	r0, r3
 882 0036 EC60     		str	r4, [r5, #12]
 883 0038 30BC     		pop	{r4, r5}
 884 003a 7047     		bx	lr
 885              	.L245:
 886 003c 1846     		mov	r0, r3
 887 003e 7047     		bx	lr
 888              	.L246:
 889 0040 0220     		movs	r0, #2
 890 0042 7047     		bx	lr
 892              		.section	.text.HAL_USART_Receive_IT,"ax",%progbits
 893              		.align	1
 894              		.p2align 2,,3
 895              		.global	HAL_USART_Receive_IT
 896              		.syntax unified
 897              		.thumb
 898              		.thumb_func
 899              		.fpu fpv4-sp-d16
 901              	HAL_USART_Receive_IT:
 902              		@ args = 0, pretend = 0, frame = 0
 903              		@ frame_needed = 0, uses_anonymous_args = 0
 904              		@ link register save eliminated.
 905 0000 90F83D30 		ldrb	r3, [r0, #61]	@ zero_extendqisi2
 906 0004 DBB2     		uxtb	r3, r3
 907 0006 012B     		cmp	r3, #1
 908 0008 21D1     		bne	.L256
 909 000a F1B1     		cbz	r1, .L255
 910 000c EAB1     		cbz	r2, .L255
 911 000e 90F83C30 		ldrb	r3, [r0, #60]	@ zero_extendqisi2
 912 0012 012B     		cmp	r3, #1
 913 0014 1BD0     		beq	.L256
 914 0016 30B4     		push	{r4, r5}
 915 0018 0023     		movs	r3, #0
 916 001a 0468     		ldr	r4, [r0]
 917 001c 4286     		strh	r2, [r0, #50]	@ movhi
 918 001e 2225     		movs	r5, #34
 919 0020 0364     		str	r3, [r0, #64]
 920 0022 80F83D50 		strb	r5, [r0, #61]
 921 0026 E568     		ldr	r5, [r4, #12]
 922 0028 C162     		str	r1, [r0, #44]
 923 002a 45F49075 		orr	r5, r5, #288
 924 002e 0286     		strh	r2, [r0, #48]	@ movhi
 925 0030 80F83C30 		strb	r3, [r0, #60]
 926 0034 E560     		str	r5, [r4, #12]
 927 0036 6269     		ldr	r2, [r4, #20]
 928 0038 40F2FF11 		movw	r1, #511
 929 003c 42F00102 		orr	r2, r2, #1
ARM GAS  D:\Programs\cygwin64\tmp\ccb1T3l6.s 			page 17


 930 0040 6261     		str	r2, [r4, #20]
 931 0042 1846     		mov	r0, r3
 932 0044 6160     		str	r1, [r4, #4]
 933 0046 30BC     		pop	{r4, r5}
 934 0048 7047     		bx	lr
 935              	.L255:
 936 004a 1846     		mov	r0, r3
 937 004c 7047     		bx	lr
 938              	.L256:
 939 004e 0220     		movs	r0, #2
 940 0050 7047     		bx	lr
 942 0052 00BF     		.section	.text.HAL_USART_TransmitReceive_IT,"ax",%progbits
 943              		.align	1
 944              		.p2align 2,,3
 945              		.global	HAL_USART_TransmitReceive_IT
 946              		.syntax unified
 947              		.thumb
 948              		.thumb_func
 949              		.fpu fpv4-sp-d16
 951              	HAL_USART_TransmitReceive_IT:
 952              		@ args = 0, pretend = 0, frame = 0
 953              		@ frame_needed = 0, uses_anonymous_args = 0
 954              		@ link register save eliminated.
 955 0000 30B4     		push	{r4, r5}
 956 0002 90F83D40 		ldrb	r4, [r0, #61]	@ zero_extendqisi2
 957 0006 E4B2     		uxtb	r4, r4
 958 0008 012C     		cmp	r4, #1
 959 000a 2AD1     		bne	.L267
 960 000c 31B3     		cbz	r1, .L266
 961 000e 2AB3     		cbz	r2, .L266
 962 0010 23B3     		cbz	r3, .L266
 963 0012 90F83C40 		ldrb	r4, [r0, #60]	@ zero_extendqisi2
 964 0016 012C     		cmp	r4, #1
 965 0018 23D0     		beq	.L267
 966 001a 0024     		movs	r4, #0
 967 001c 3225     		movs	r5, #50
 968 001e 4386     		strh	r3, [r0, #50]	@ movhi
 969 0020 4385     		strh	r3, [r0, #42]	@ movhi
 970 0022 0464     		str	r4, [r0, #64]
 971 0024 80F83D50 		strb	r5, [r0, #61]
 972 0028 0568     		ldr	r5, [r0]
 973 002a C262     		str	r2, [r0, #44]
 974 002c EA68     		ldr	r2, [r5, #12]
 975 002e 0386     		strh	r3, [r0, #48]	@ movhi
 976 0030 42F02002 		orr	r2, r2, #32
 977 0034 0385     		strh	r3, [r0, #40]	@ movhi
 978 0036 80F83C40 		strb	r4, [r0, #60]
 979 003a 4162     		str	r1, [r0, #36]
 980 003c EA60     		str	r2, [r5, #12]
 981 003e EB68     		ldr	r3, [r5, #12]
 982 0040 43F48073 		orr	r3, r3, #256
 983 0044 EB60     		str	r3, [r5, #12]
 984 0046 6B69     		ldr	r3, [r5, #20]
 985 0048 43F00103 		orr	r3, r3, #1
 986 004c 6B61     		str	r3, [r5, #20]
 987 004e EB68     		ldr	r3, [r5, #12]
 988 0050 43F08003 		orr	r3, r3, #128
ARM GAS  D:\Programs\cygwin64\tmp\ccb1T3l6.s 			page 18


 989 0054 2046     		mov	r0, r4
 990 0056 EB60     		str	r3, [r5, #12]
 991 0058 30BC     		pop	{r4, r5}
 992 005a 7047     		bx	lr
 993              	.L266:
 994 005c 2046     		mov	r0, r4
 995 005e 30BC     		pop	{r4, r5}
 996 0060 7047     		bx	lr
 997              	.L267:
 998 0062 0220     		movs	r0, #2
 999 0064 30BC     		pop	{r4, r5}
 1000 0066 7047     		bx	lr
 1002              		.section	.text.HAL_USART_Transmit_DMA,"ax",%progbits
 1003              		.align	1
 1004              		.p2align 2,,3
 1005              		.global	HAL_USART_Transmit_DMA
 1006              		.syntax unified
 1007              		.thumb
 1008              		.thumb_func
 1009              		.fpu fpv4-sp-d16
 1011              	HAL_USART_Transmit_DMA:
 1012              		@ args = 0, pretend = 0, frame = 0
 1013              		@ frame_needed = 0, uses_anonymous_args = 0
 1014 0000 70B5     		push	{r4, r5, r6, lr}
 1015 0002 90F83D40 		ldrb	r4, [r0, #61]	@ zero_extendqisi2
 1016 0006 E4B2     		uxtb	r4, r4
 1017 0008 012C     		cmp	r4, #1
 1018 000a 2BD1     		bne	.L274
 1019 000c 41B3     		cbz	r1, .L273
 1020 000e 3AB3     		cbz	r2, .L273
 1021 0010 90F83C50 		ldrb	r5, [r0, #60]	@ zero_extendqisi2
 1022 0014 012D     		cmp	r5, #1
 1023 0016 25D0     		beq	.L274
 1024 0018 0546     		mov	r5, r0
 1025 001a 1346     		mov	r3, r2
 1026 001c 406B     		ldr	r0, [r0, #52]
 1027 001e 85F83C40 		strb	r4, [r5, #60]
 1028 0022 1226     		movs	r6, #18
 1029 0024 0024     		movs	r4, #0
 1030 0026 6B85     		strh	r3, [r5, #42]	@ movhi
 1031 0028 2C64     		str	r4, [r5, #64]
 1032 002a 85F83D60 		strb	r6, [r5, #61]
 1033 002e 0E4E     		ldr	r6, .L276
 1034 0030 2A68     		ldr	r2, [r5]
 1035 0032 2B85     		strh	r3, [r5, #40]	@ movhi
 1036 0034 6962     		str	r1, [r5, #36]
 1037 0036 C663     		str	r6, [r0, #60]
 1038 0038 0C4E     		ldr	r6, .L276+4
 1039 003a 0664     		str	r6, [r0, #64]
 1040 003c 0C4E     		ldr	r6, .L276+8
 1041 003e 0465     		str	r4, [r0, #80]
 1042 0040 0432     		adds	r2, r2, #4
 1043 0042 C664     		str	r6, [r0, #76]
 1044 0044 FFF7FEFF 		bl	HAL_DMA_Start_IT
 1045 0048 2B68     		ldr	r3, [r5]
 1046 004a 6FF04002 		mvn	r2, #64
 1047 004e 1A60     		str	r2, [r3]
ARM GAS  D:\Programs\cygwin64\tmp\ccb1T3l6.s 			page 19


 1048 0050 5A69     		ldr	r2, [r3, #20]
 1049 0052 85F83C40 		strb	r4, [r5, #60]
 1050 0056 42F08002 		orr	r2, r2, #128
 1051 005a 2046     		mov	r0, r4
 1052 005c 5A61     		str	r2, [r3, #20]
 1053 005e 70BD     		pop	{r4, r5, r6, pc}
 1054              	.L273:
 1055 0060 2046     		mov	r0, r4
 1056 0062 70BD     		pop	{r4, r5, r6, pc}
 1057              	.L274:
 1058 0064 0220     		movs	r0, #2
 1059 0066 70BD     		pop	{r4, r5, r6, pc}
 1060              	.L277:
 1061              		.align	2
 1062              	.L276:
 1063 0068 00000000 		.word	USART_DMATransmitCplt
 1064 006c 00000000 		.word	USART_DMATxHalfCplt
 1065 0070 00000000 		.word	USART_DMAError
 1067              		.section	.text.HAL_USART_Receive_DMA,"ax",%progbits
 1068              		.align	1
 1069              		.p2align 2,,3
 1070              		.global	HAL_USART_Receive_DMA
 1071              		.syntax unified
 1072              		.thumb
 1073              		.thumb_func
 1074              		.fpu fpv4-sp-d16
 1076              	HAL_USART_Receive_DMA:
 1077              		@ args = 0, pretend = 0, frame = 8
 1078              		@ frame_needed = 0, uses_anonymous_args = 0
 1079 0000 F0B5     		push	{r4, r5, r6, r7, lr}
 1080 0002 90F83D40 		ldrb	r4, [r0, #61]	@ zero_extendqisi2
 1081 0006 E4B2     		uxtb	r4, r4
 1082 0008 012C     		cmp	r4, #1
 1083 000a 83B0     		sub	sp, sp, #12
 1084 000c 51D1     		bne	.L283
 1085 000e 0029     		cmp	r1, #0
 1086 0010 4CD0     		beq	.L282
 1087 0012 002A     		cmp	r2, #0
 1088 0014 4AD0     		beq	.L282
 1089 0016 90F83C30 		ldrb	r3, [r0, #60]	@ zero_extendqisi2
 1090 001a 012B     		cmp	r3, #1
 1091 001c 49D0     		beq	.L283
 1092 001e 0546     		mov	r5, r0
 1093 0020 D0E90D30 		ldrd	r3, r0, [r0, #52]
 1094 0024 1746     		mov	r7, r2
 1095 0026 85F83C40 		strb	r4, [r5, #60]
 1096 002a 0E46     		mov	r6, r1
 1097 002c 0024     		movs	r4, #0
 1098 002e 2968     		ldr	r1, [r5]
 1099 0030 214A     		ldr	r2, .L285
 1100 0032 2C64     		str	r4, [r5, #64]
 1101 0034 4FF0220C 		mov	ip, #34
 1102 0038 85F83DC0 		strb	ip, [r5, #61]
 1103 003c EE62     		str	r6, [r5, #44]
 1104 003e 2F86     		strh	r7, [r5, #48]	@ movhi
 1105 0040 6E62     		str	r6, [r5, #36]
 1106 0042 2F85     		strh	r7, [r5, #40]	@ movhi
ARM GAS  D:\Programs\cygwin64\tmp\ccb1T3l6.s 			page 20


 1107 0044 DFF878C0 		ldr	ip, .L285+8
 1108 0048 C263     		str	r2, [r0, #60]
 1109 004a 1C4A     		ldr	r2, .L285+4
 1110 004c C0F840C0 		str	ip, [r0, #64]
 1111 0050 0465     		str	r4, [r0, #80]
 1112 0052 C264     		str	r2, [r0, #76]
 1113 0054 0431     		adds	r1, r1, #4
 1114 0056 DA64     		str	r2, [r3, #76]
 1115 0058 C3E90F44 		strd	r4, r4, [r3, #60]
 1116 005c 1C65     		str	r4, [r3, #80]
 1117 005e 3246     		mov	r2, r6
 1118 0060 3B46     		mov	r3, r7
 1119 0062 FFF7FEFF 		bl	HAL_DMA_Start_IT
 1120 0066 2A68     		ldr	r2, [r5]
 1121 0068 686B     		ldr	r0, [r5, #52]
 1122 006a 3B46     		mov	r3, r7
 1123 006c 3146     		mov	r1, r6
 1124 006e 0432     		adds	r2, r2, #4
 1125 0070 FFF7FEFF 		bl	HAL_DMA_Start_IT
 1126 0074 2B68     		ldr	r3, [r5]
 1127 0076 0194     		str	r4, [sp, #4]
 1128 0078 1A68     		ldr	r2, [r3]
 1129 007a 0192     		str	r2, [sp, #4]
 1130 007c 5A68     		ldr	r2, [r3, #4]
 1131 007e 0192     		str	r2, [sp, #4]
 1132 0080 019A     		ldr	r2, [sp, #4]
 1133 0082 DA68     		ldr	r2, [r3, #12]
 1134 0084 85F83C40 		strb	r4, [r5, #60]
 1135 0088 42F48072 		orr	r2, r2, #256
 1136 008c DA60     		str	r2, [r3, #12]
 1137 008e 5A69     		ldr	r2, [r3, #20]
 1138 0090 42F00102 		orr	r2, r2, #1
 1139 0094 5A61     		str	r2, [r3, #20]
 1140 0096 5A69     		ldr	r2, [r3, #20]
 1141 0098 42F04002 		orr	r2, r2, #64
 1142 009c 5A61     		str	r2, [r3, #20]
 1143 009e 5A69     		ldr	r2, [r3, #20]
 1144 00a0 2046     		mov	r0, r4
 1145 00a2 42F08002 		orr	r2, r2, #128
 1146 00a6 5A61     		str	r2, [r3, #20]
 1147 00a8 03B0     		add	sp, sp, #12
 1148              		@ sp needed
 1149 00aa F0BD     		pop	{r4, r5, r6, r7, pc}
 1150              	.L282:
 1151 00ac 2046     		mov	r0, r4
 1152 00ae 03B0     		add	sp, sp, #12
 1153              		@ sp needed
 1154 00b0 F0BD     		pop	{r4, r5, r6, r7, pc}
 1155              	.L283:
 1156 00b2 0220     		movs	r0, #2
 1157 00b4 03B0     		add	sp, sp, #12
 1158              		@ sp needed
 1159 00b6 F0BD     		pop	{r4, r5, r6, r7, pc}
 1160              	.L286:
 1161              		.align	2
 1162              	.L285:
 1163 00b8 00000000 		.word	USART_DMAReceiveCplt
ARM GAS  D:\Programs\cygwin64\tmp\ccb1T3l6.s 			page 21


 1164 00bc 00000000 		.word	USART_DMAError
 1165 00c0 00000000 		.word	USART_DMARxHalfCplt
 1167              		.section	.text.HAL_USART_TransmitReceive_DMA,"ax",%progbits
 1168              		.align	1
 1169              		.p2align 2,,3
 1170              		.global	HAL_USART_TransmitReceive_DMA
 1171              		.syntax unified
 1172              		.thumb
 1173              		.thumb_func
 1174              		.fpu fpv4-sp-d16
 1176              	HAL_USART_TransmitReceive_DMA:
 1177              		@ args = 0, pretend = 0, frame = 8
 1178              		@ frame_needed = 0, uses_anonymous_args = 0
 1179 0000 2DE9F041 		push	{r4, r5, r6, r7, r8, lr}
 1180 0004 90F83D40 		ldrb	r4, [r0, #61]	@ zero_extendqisi2
 1181 0008 E4B2     		uxtb	r4, r4
 1182 000a 012C     		cmp	r4, #1
 1183 000c 82B0     		sub	sp, sp, #8
 1184 000e 54D1     		bne	.L293
 1185 0010 0029     		cmp	r1, #0
 1186 0012 56D0     		beq	.L292
 1187 0014 002A     		cmp	r2, #0
 1188 0016 54D0     		beq	.L292
 1189 0018 1F46     		mov	r7, r3
 1190 001a 002B     		cmp	r3, #0
 1191 001c 51D0     		beq	.L292
 1192 001e 90F83C60 		ldrb	r6, [r0, #60]	@ zero_extendqisi2
 1193 0022 012E     		cmp	r6, #1
 1194 0024 49D0     		beq	.L293
 1195 0026 0646     		mov	r6, r0
 1196 0028 D0E90DC0 		ldrd	ip, r0, [r0, #52]
 1197 002c 3225     		movs	r5, #50
 1198 002e 86F83C40 		strb	r4, [r6, #60]
 1199 0032 0024     		movs	r4, #0
 1200 0034 3464     		str	r4, [r6, #64]
 1201 0036 8846     		mov	r8, r1
 1202 0038 86F83D50 		strb	r5, [r6, #61]
 1203 003c 234D     		ldr	r5, .L295
 1204 003e 3168     		ldr	r1, [r6]
 1205 0040 F262     		str	r2, [r6, #44]
 1206 0042 3386     		strh	r3, [r6, #48]	@ movhi
 1207 0044 3385     		strh	r3, [r6, #40]	@ movhi
 1208 0046 C6F82480 		str	r8, [r6, #36]
 1209 004a C563     		str	r5, [r0, #60]
 1210 004c 204D     		ldr	r5, .L295+4
 1211 004e 0564     		str	r5, [r0, #64]
 1212 0050 204D     		ldr	r5, .L295+8
 1213 0052 CCF83C50 		str	r5, [ip, #60]
 1214 0056 204D     		ldr	r5, .L295+12
 1215 0058 CCF84050 		str	r5, [ip, #64]
 1216 005c 1F4D     		ldr	r5, .L295+16
 1217 005e CCF84C50 		str	r5, [ip, #76]
 1218 0062 0431     		adds	r1, r1, #4
 1219 0064 C0E91354 		strd	r5, r4, [r0, #76]
 1220 0068 FFF7FEFF 		bl	HAL_DMA_Start_IT
 1221 006c 3268     		ldr	r2, [r6]
 1222 006e 706B     		ldr	r0, [r6, #52]
ARM GAS  D:\Programs\cygwin64\tmp\ccb1T3l6.s 			page 22


 1223 0070 3B46     		mov	r3, r7
 1224 0072 4146     		mov	r1, r8
 1225 0074 0432     		adds	r2, r2, #4
 1226 0076 FFF7FEFF 		bl	HAL_DMA_Start_IT
 1227 007a 3368     		ldr	r3, [r6]
 1228 007c 6FF04002 		mvn	r2, #64
 1229 0080 1A60     		str	r2, [r3]
 1230 0082 0194     		str	r4, [sp, #4]
 1231 0084 1A68     		ldr	r2, [r3]
 1232 0086 0192     		str	r2, [sp, #4]
 1233 0088 5A68     		ldr	r2, [r3, #4]
 1234 008a 0192     		str	r2, [sp, #4]
 1235 008c 019A     		ldr	r2, [sp, #4]
 1236 008e DA68     		ldr	r2, [r3, #12]
 1237 0090 86F83C40 		strb	r4, [r6, #60]
 1238 0094 42F48072 		orr	r2, r2, #256
 1239 0098 DA60     		str	r2, [r3, #12]
 1240 009a 5A69     		ldr	r2, [r3, #20]
 1241 009c 42F00102 		orr	r2, r2, #1
 1242 00a0 5A61     		str	r2, [r3, #20]
 1243 00a2 5A69     		ldr	r2, [r3, #20]
 1244 00a4 42F04002 		orr	r2, r2, #64
 1245 00a8 5A61     		str	r2, [r3, #20]
 1246 00aa 5A69     		ldr	r2, [r3, #20]
 1247 00ac 2046     		mov	r0, r4
 1248 00ae 42F08002 		orr	r2, r2, #128
 1249 00b2 5A61     		str	r2, [r3, #20]
 1250 00b4 02B0     		add	sp, sp, #8
 1251              		@ sp needed
 1252 00b6 BDE8F081 		pop	{r4, r5, r6, r7, r8, pc}
 1253              	.L293:
 1254 00ba 0220     		movs	r0, #2
 1255 00bc 02B0     		add	sp, sp, #8
 1256              		@ sp needed
 1257 00be BDE8F081 		pop	{r4, r5, r6, r7, r8, pc}
 1258              	.L292:
 1259 00c2 2046     		mov	r0, r4
 1260 00c4 02B0     		add	sp, sp, #8
 1261              		@ sp needed
 1262 00c6 BDE8F081 		pop	{r4, r5, r6, r7, r8, pc}
 1263              	.L296:
 1264 00ca 00BF     		.align	2
 1265              	.L295:
 1266 00cc 00000000 		.word	USART_DMAReceiveCplt
 1267 00d0 00000000 		.word	USART_DMARxHalfCplt
 1268 00d4 00000000 		.word	USART_DMATransmitCplt
 1269 00d8 00000000 		.word	USART_DMATxHalfCplt
 1270 00dc 00000000 		.word	USART_DMAError
 1272              		.section	.text.HAL_USART_DMAPause,"ax",%progbits
 1273              		.align	1
 1274              		.p2align 2,,3
 1275              		.global	HAL_USART_DMAPause
 1276              		.syntax unified
 1277              		.thumb
 1278              		.thumb_func
 1279              		.fpu fpv4-sp-d16
 1281              	HAL_USART_DMAPause:
ARM GAS  D:\Programs\cygwin64\tmp\ccb1T3l6.s 			page 23


 1282              		@ args = 0, pretend = 0, frame = 0
 1283              		@ frame_needed = 0, uses_anonymous_args = 0
 1284              		@ link register save eliminated.
 1285 0000 90F83C20 		ldrb	r2, [r0, #60]	@ zero_extendqisi2
 1286 0004 012A     		cmp	r2, #1
 1287 0006 0346     		mov	r3, r0
 1288 0008 09D0     		beq	.L299
 1289 000a 0068     		ldr	r0, [r0]
 1290 000c 4269     		ldr	r2, [r0, #20]
 1291 000e 0021     		movs	r1, #0
 1292 0010 22F08002 		bic	r2, r2, #128
 1293 0014 4261     		str	r2, [r0, #20]
 1294 0016 0846     		mov	r0, r1
 1295 0018 83F83C10 		strb	r1, [r3, #60]
 1296 001c 7047     		bx	lr
 1297              	.L299:
 1298 001e 0220     		movs	r0, #2
 1299 0020 7047     		bx	lr
 1301 0022 00BF     		.section	.text.HAL_USART_DMAResume,"ax",%progbits
 1302              		.align	1
 1303              		.p2align 2,,3
 1304              		.global	HAL_USART_DMAResume
 1305              		.syntax unified
 1306              		.thumb
 1307              		.thumb_func
 1308              		.fpu fpv4-sp-d16
 1310              	HAL_USART_DMAResume:
 1311              		@ args = 0, pretend = 0, frame = 0
 1312              		@ frame_needed = 0, uses_anonymous_args = 0
 1313              		@ link register save eliminated.
 1314 0000 90F83C20 		ldrb	r2, [r0, #60]	@ zero_extendqisi2
 1315 0004 012A     		cmp	r2, #1
 1316 0006 0346     		mov	r3, r0
 1317 0008 09D0     		beq	.L302
 1318 000a 0068     		ldr	r0, [r0]
 1319 000c 4269     		ldr	r2, [r0, #20]
 1320 000e 0021     		movs	r1, #0
 1321 0010 42F08002 		orr	r2, r2, #128
 1322 0014 4261     		str	r2, [r0, #20]
 1323 0016 0846     		mov	r0, r1
 1324 0018 83F83C10 		strb	r1, [r3, #60]
 1325 001c 7047     		bx	lr
 1326              	.L302:
 1327 001e 0220     		movs	r0, #2
 1328 0020 7047     		bx	lr
 1330 0022 00BF     		.section	.text.HAL_USART_DMAStop,"ax",%progbits
 1331              		.align	1
 1332              		.p2align 2,,3
 1333              		.global	HAL_USART_DMAStop
 1334              		.syntax unified
 1335              		.thumb
 1336              		.thumb_func
 1337              		.fpu fpv4-sp-d16
 1339              	HAL_USART_DMAStop:
 1340              		@ args = 0, pretend = 0, frame = 0
 1341              		@ frame_needed = 0, uses_anonymous_args = 0
 1342 0000 0368     		ldr	r3, [r0]
ARM GAS  D:\Programs\cygwin64\tmp\ccb1T3l6.s 			page 24


 1343 0002 5969     		ldr	r1, [r3, #20]
 1344 0004 90F83D20 		ldrb	r2, [r0, #61]	@ zero_extendqisi2
 1345 0008 122A     		cmp	r2, #18
 1346 000a 10B5     		push	{r4, lr}
 1347 000c 0446     		mov	r4, r0
 1348 000e 06D0     		beq	.L321
 1349              	.L304:
 1350 0010 5969     		ldr	r1, [r3, #20]
 1351 0012 94F83D20 		ldrb	r2, [r4, #61]	@ zero_extendqisi2
 1352 0016 222A     		cmp	r2, #34
 1353 0018 18D0     		beq	.L322
 1354              	.L306:
 1355 001a 0020     		movs	r0, #0
 1356 001c 10BD     		pop	{r4, pc}
 1357              	.L321:
 1358 001e 0906     		lsls	r1, r1, #24
 1359 0020 F6D5     		bpl	.L304
 1360 0022 DA68     		ldr	r2, [r3, #12]
 1361 0024 406B     		ldr	r0, [r0, #52]
 1362 0026 22F0C002 		bic	r2, r2, #192
 1363 002a 0121     		movs	r1, #1
 1364 002c DA60     		str	r2, [r3, #12]
 1365 002e 84F83D10 		strb	r1, [r4, #61]
 1366 0032 10B1     		cbz	r0, .L305
 1367 0034 FFF7FEFF 		bl	HAL_DMA_Abort
 1368 0038 2368     		ldr	r3, [r4]
 1369              	.L305:
 1370 003a 5A69     		ldr	r2, [r3, #20]
 1371 003c 22F08002 		bic	r2, r2, #128
 1372 0040 5A61     		str	r2, [r3, #20]
 1373 0042 5969     		ldr	r1, [r3, #20]
 1374 0044 94F83D20 		ldrb	r2, [r4, #61]	@ zero_extendqisi2
 1375 0048 222A     		cmp	r2, #34
 1376 004a E6D1     		bne	.L306
 1377              	.L322:
 1378 004c 4A06     		lsls	r2, r1, #25
 1379 004e E4D5     		bpl	.L306
 1380 0050 DA68     		ldr	r2, [r3, #12]
 1381 0052 A06B     		ldr	r0, [r4, #56]
 1382 0054 22F49072 		bic	r2, r2, #288
 1383 0058 DA60     		str	r2, [r3, #12]
 1384 005a 5A69     		ldr	r2, [r3, #20]
 1385 005c 0121     		movs	r1, #1
 1386 005e 22F00102 		bic	r2, r2, #1
 1387 0062 5A61     		str	r2, [r3, #20]
 1388 0064 84F83D10 		strb	r1, [r4, #61]
 1389 0068 10B1     		cbz	r0, .L307
 1390 006a FFF7FEFF 		bl	HAL_DMA_Abort
 1391 006e 2368     		ldr	r3, [r4]
 1392              	.L307:
 1393 0070 5A69     		ldr	r2, [r3, #20]
 1394 0072 22F04002 		bic	r2, r2, #64
 1395 0076 5A61     		str	r2, [r3, #20]
 1396 0078 0020     		movs	r0, #0
 1397 007a 10BD     		pop	{r4, pc}
 1399              		.section	.text.HAL_USART_Abort,"ax",%progbits
 1400              		.align	1
ARM GAS  D:\Programs\cygwin64\tmp\ccb1T3l6.s 			page 25


 1401              		.p2align 2,,3
 1402              		.global	HAL_USART_Abort
 1403              		.syntax unified
 1404              		.thumb
 1405              		.thumb_func
 1406              		.fpu fpv4-sp-d16
 1408              	HAL_USART_Abort:
 1409              		@ args = 0, pretend = 0, frame = 0
 1410              		@ frame_needed = 0, uses_anonymous_args = 0
 1411 0000 0368     		ldr	r3, [r0]
 1412 0002 DA68     		ldr	r2, [r3, #12]
 1413 0004 22F4F072 		bic	r2, r2, #480
 1414 0008 10B5     		push	{r4, lr}
 1415 000a DA60     		str	r2, [r3, #12]
 1416 000c 5A69     		ldr	r2, [r3, #20]
 1417 000e 22F00102 		bic	r2, r2, #1
 1418 0012 5A61     		str	r2, [r3, #20]
 1419 0014 5A69     		ldr	r2, [r3, #20]
 1420 0016 1106     		lsls	r1, r2, #24
 1421 0018 0446     		mov	r4, r0
 1422 001a 0AD5     		bpl	.L324
 1423 001c 5A69     		ldr	r2, [r3, #20]
 1424 001e 406B     		ldr	r0, [r0, #52]
 1425 0020 22F08002 		bic	r2, r2, #128
 1426 0024 5A61     		str	r2, [r3, #20]
 1427 0026 20B1     		cbz	r0, .L324
 1428 0028 0023     		movs	r3, #0
 1429 002a 0365     		str	r3, [r0, #80]
 1430 002c FFF7FEFF 		bl	HAL_DMA_Abort
 1431 0030 2368     		ldr	r3, [r4]
 1432              	.L324:
 1433 0032 5A69     		ldr	r2, [r3, #20]
 1434 0034 5206     		lsls	r2, r2, #25
 1435 0036 09D5     		bpl	.L326
 1436 0038 5A69     		ldr	r2, [r3, #20]
 1437 003a A06B     		ldr	r0, [r4, #56]
 1438 003c 22F04002 		bic	r2, r2, #64
 1439 0040 5A61     		str	r2, [r3, #20]
 1440 0042 18B1     		cbz	r0, .L326
 1441 0044 0023     		movs	r3, #0
 1442 0046 0365     		str	r3, [r0, #80]
 1443 0048 FFF7FEFF 		bl	HAL_DMA_Abort
 1444              	.L326:
 1445 004c 0023     		movs	r3, #0
 1446 004e 0122     		movs	r2, #1
 1447 0050 6385     		strh	r3, [r4, #42]	@ movhi
 1448 0052 1846     		mov	r0, r3
 1449 0054 6386     		strh	r3, [r4, #50]	@ movhi
 1450 0056 84F83D20 		strb	r2, [r4, #61]
 1451 005a 2364     		str	r3, [r4, #64]
 1452 005c 10BD     		pop	{r4, pc}
 1454 005e 00BF     		.section	.text.HAL_USART_TxCpltCallback,"ax",%progbits
 1455              		.align	1
 1456              		.p2align 2,,3
 1457              		.weak	HAL_USART_TxCpltCallback
 1458              		.syntax unified
 1459              		.thumb
ARM GAS  D:\Programs\cygwin64\tmp\ccb1T3l6.s 			page 26


 1460              		.thumb_func
 1461              		.fpu fpv4-sp-d16
 1463              	HAL_USART_TxCpltCallback:
 1464              		@ args = 0, pretend = 0, frame = 0
 1465              		@ frame_needed = 0, uses_anonymous_args = 0
 1466              		@ link register save eliminated.
 1467 0000 7047     		bx	lr
 1469 0002 00BF     		.section	.text.USART_DMATransmitCplt,"ax",%progbits
 1470              		.align	1
 1471              		.p2align 2,,3
 1472              		.syntax unified
 1473              		.thumb
 1474              		.thumb_func
 1475              		.fpu fpv4-sp-d16
 1477              	USART_DMATransmitCplt:
 1478              		@ args = 0, pretend = 0, frame = 0
 1479              		@ frame_needed = 0, uses_anonymous_args = 0
 1480 0000 08B5     		push	{r3, lr}
 1481 0002 0368     		ldr	r3, [r0]
 1482 0004 806B     		ldr	r0, [r0, #56]
 1483 0006 1B68     		ldr	r3, [r3]
 1484 0008 13F48073 		ands	r3, r3, #256
 1485 000c 05D1     		bne	.L340
 1486 000e 4385     		strh	r3, [r0, #42]	@ movhi
 1487 0010 90F83D30 		ldrb	r3, [r0, #61]	@ zero_extendqisi2
 1488 0014 122B     		cmp	r3, #18
 1489 0016 07D0     		beq	.L345
 1490              	.L339:
 1491 0018 08BD     		pop	{r3, pc}
 1492              	.L340:
 1493 001a 90F83D30 		ldrb	r3, [r0, #61]	@ zero_extendqisi2
 1494 001e 122B     		cmp	r3, #18
 1495 0020 FAD1     		bne	.L339
 1496 0022 FFF7FEFF 		bl	HAL_USART_TxCpltCallback
 1497 0026 08BD     		pop	{r3, pc}
 1498              	.L345:
 1499 0028 0368     		ldr	r3, [r0]
 1500 002a 5A69     		ldr	r2, [r3, #20]
 1501 002c 22F08002 		bic	r2, r2, #128
 1502 0030 5A61     		str	r2, [r3, #20]
 1503 0032 DA68     		ldr	r2, [r3, #12]
 1504 0034 42F04002 		orr	r2, r2, #64
 1505 0038 DA60     		str	r2, [r3, #12]
 1506 003a 08BD     		pop	{r3, pc}
 1508              		.section	.text.HAL_USART_TxHalfCpltCallback,"ax",%progbits
 1509              		.align	1
 1510              		.p2align 2,,3
 1511              		.weak	HAL_USART_TxHalfCpltCallback
 1512              		.syntax unified
 1513              		.thumb
 1514              		.thumb_func
 1515              		.fpu fpv4-sp-d16
 1517              	HAL_USART_TxHalfCpltCallback:
 1518              		@ args = 0, pretend = 0, frame = 0
 1519              		@ frame_needed = 0, uses_anonymous_args = 0
 1520              		@ link register save eliminated.
 1521 0000 7047     		bx	lr
ARM GAS  D:\Programs\cygwin64\tmp\ccb1T3l6.s 			page 27


 1523 0002 00BF     		.section	.text.USART_DMATxHalfCplt,"ax",%progbits
 1524              		.align	1
 1525              		.p2align 2,,3
 1526              		.syntax unified
 1527              		.thumb
 1528              		.thumb_func
 1529              		.fpu fpv4-sp-d16
 1531              	USART_DMATxHalfCplt:
 1532              		@ args = 0, pretend = 0, frame = 0
 1533              		@ frame_needed = 0, uses_anonymous_args = 0
 1534 0000 08B5     		push	{r3, lr}
 1535 0002 806B     		ldr	r0, [r0, #56]
 1536 0004 FFF7FEFF 		bl	HAL_USART_TxHalfCpltCallback
 1537 0008 08BD     		pop	{r3, pc}
 1539 000a 00BF     		.section	.text.HAL_USART_RxCpltCallback,"ax",%progbits
 1540              		.align	1
 1541              		.p2align 2,,3
 1542              		.weak	HAL_USART_RxCpltCallback
 1543              		.syntax unified
 1544              		.thumb
 1545              		.thumb_func
 1546              		.fpu fpv4-sp-d16
 1548              	HAL_USART_RxCpltCallback:
 1549              		@ args = 0, pretend = 0, frame = 0
 1550              		@ frame_needed = 0, uses_anonymous_args = 0
 1551              		@ link register save eliminated.
 1552 0000 7047     		bx	lr
 1554 0002 00BF     		.section	.text.USART_Receive_IT.part.1,"ax",%progbits
 1555              		.align	1
 1556              		.p2align 2,,3
 1557              		.syntax unified
 1558              		.thumb
 1559              		.thumb_func
 1560              		.fpu fpv4-sp-d16
 1562              	USART_Receive_IT.part.1:
 1563              		@ args = 0, pretend = 0, frame = 0
 1564              		@ frame_needed = 0, uses_anonymous_args = 0
 1565 0000 10B5     		push	{r4, lr}
 1566 0002 8468     		ldr	r4, [r0, #8]
 1567 0004 0169     		ldr	r1, [r0, #16]
 1568 0006 C36A     		ldr	r3, [r0, #44]
 1569 0008 0268     		ldr	r2, [r0]
 1570 000a B4F5805F 		cmp	r4, #4096
 1571 000e 2CD0     		beq	.L365
 1572 0010 5C1C     		adds	r4, r3, #1
 1573 0012 5268     		ldr	r2, [r2, #4]
 1574 0014 C462     		str	r4, [r0, #44]
 1575 0016 29BB     		cbnz	r1, .L356
 1576              	.L364:
 1577 0018 1A70     		strb	r2, [r3]
 1578 001a 438E     		ldrh	r3, [r0, #50]
 1579 001c 013B     		subs	r3, r3, #1
 1580 001e 9BB2     		uxth	r3, r3
 1581 0020 4386     		strh	r3, [r0, #50]	@ movhi
 1582 0022 23B9     		cbnz	r3, .L366
 1583              	.L355:
 1584 0024 438E     		ldrh	r3, [r0, #50]
ARM GAS  D:\Programs\cygwin64\tmp\ccb1T3l6.s 			page 28


 1585 0026 9BB2     		uxth	r3, r3
 1586 0028 43B1     		cbz	r3, .L367
 1587              	.L359:
 1588 002a 0020     		movs	r0, #0
 1589 002c 10BD     		pop	{r4, pc}
 1590              	.L366:
 1591 002e 0368     		ldr	r3, [r0]
 1592 0030 FF22     		movs	r2, #255
 1593 0032 5A60     		str	r2, [r3, #4]
 1594 0034 438E     		ldrh	r3, [r0, #50]
 1595 0036 9BB2     		uxth	r3, r3
 1596 0038 002B     		cmp	r3, #0
 1597 003a F6D1     		bne	.L359
 1598              	.L367:
 1599 003c 0268     		ldr	r2, [r0]
 1600 003e D168     		ldr	r1, [r2, #12]
 1601 0040 21F02001 		bic	r1, r1, #32
 1602 0044 D160     		str	r1, [r2, #12]
 1603 0046 D168     		ldr	r1, [r2, #12]
 1604 0048 21F48071 		bic	r1, r1, #256
 1605 004c D160     		str	r1, [r2, #12]
 1606 004e 5169     		ldr	r1, [r2, #20]
 1607 0050 0124     		movs	r4, #1
 1608 0052 21F00101 		bic	r1, r1, #1
 1609 0056 5161     		str	r1, [r2, #20]
 1610 0058 80F83D40 		strb	r4, [r0, #61]
 1611 005c FFF7FEFF 		bl	HAL_USART_RxCpltCallback
 1612 0060 0020     		movs	r0, #0
 1613 0062 10BD     		pop	{r4, pc}
 1614              	.L356:
 1615 0064 02F07F02 		and	r2, r2, #127
 1616 0068 D6E7     		b	.L364
 1617              	.L365:
 1618 006a 71B1     		cbz	r1, .L368
 1619 006c 5168     		ldr	r1, [r2, #4]
 1620 006e C9B2     		uxtb	r1, r1
 1621 0070 23F8011B 		strh	r1, [r3], #1	@ movhi
 1622 0074 C362     		str	r3, [r0, #44]
 1623              	.L353:
 1624 0076 438E     		ldrh	r3, [r0, #50]
 1625 0078 013B     		subs	r3, r3, #1
 1626 007a 9BB2     		uxth	r3, r3
 1627 007c 4386     		strh	r3, [r0, #50]	@ movhi
 1628 007e 002B     		cmp	r3, #0
 1629 0080 D0D0     		beq	.L355
 1630 0082 40F2FF13 		movw	r3, #511
 1631 0086 5360     		str	r3, [r2, #4]
 1632 0088 CCE7     		b	.L355
 1633              	.L368:
 1634 008a 5168     		ldr	r1, [r2, #4]
 1635 008c C1F30801 		ubfx	r1, r1, #0, #9
 1636 0090 23F8021B 		strh	r1, [r3], #2	@ movhi
 1637 0094 C362     		str	r3, [r0, #44]
 1638 0096 EEE7     		b	.L353
 1640              		.section	.text.HAL_USART_RxHalfCpltCallback,"ax",%progbits
 1641              		.align	1
 1642              		.p2align 2,,3
ARM GAS  D:\Programs\cygwin64\tmp\ccb1T3l6.s 			page 29


 1643              		.weak	HAL_USART_RxHalfCpltCallback
 1644              		.syntax unified
 1645              		.thumb
 1646              		.thumb_func
 1647              		.fpu fpv4-sp-d16
 1649              	HAL_USART_RxHalfCpltCallback:
 1650              		@ args = 0, pretend = 0, frame = 0
 1651              		@ frame_needed = 0, uses_anonymous_args = 0
 1652              		@ link register save eliminated.
 1653 0000 7047     		bx	lr
 1655 0002 00BF     		.section	.text.USART_DMARxHalfCplt,"ax",%progbits
 1656              		.align	1
 1657              		.p2align 2,,3
 1658              		.syntax unified
 1659              		.thumb
 1660              		.thumb_func
 1661              		.fpu fpv4-sp-d16
 1663              	USART_DMARxHalfCplt:
 1664              		@ args = 0, pretend = 0, frame = 0
 1665              		@ frame_needed = 0, uses_anonymous_args = 0
 1666 0000 08B5     		push	{r3, lr}
 1667 0002 806B     		ldr	r0, [r0, #56]
 1668 0004 FFF7FEFF 		bl	HAL_USART_RxHalfCpltCallback
 1669 0008 08BD     		pop	{r3, pc}
 1671 000a 00BF     		.section	.text.HAL_USART_TxRxCpltCallback,"ax",%progbits
 1672              		.align	1
 1673              		.p2align 2,,3
 1674              		.weak	HAL_USART_TxRxCpltCallback
 1675              		.syntax unified
 1676              		.thumb
 1677              		.thumb_func
 1678              		.fpu fpv4-sp-d16
 1680              	HAL_USART_TxRxCpltCallback:
 1681              		@ args = 0, pretend = 0, frame = 0
 1682              		@ frame_needed = 0, uses_anonymous_args = 0
 1683              		@ link register save eliminated.
 1684 0000 7047     		bx	lr
 1686 0002 00BF     		.section	.text.USART_DMAReceiveCplt,"ax",%progbits
 1687              		.align	1
 1688              		.p2align 2,,3
 1689              		.syntax unified
 1690              		.thumb
 1691              		.thumb_func
 1692              		.fpu fpv4-sp-d16
 1694              	USART_DMAReceiveCplt:
 1695              		@ args = 0, pretend = 0, frame = 0
 1696              		@ frame_needed = 0, uses_anonymous_args = 0
 1697 0000 08B5     		push	{r3, lr}
 1698 0002 0368     		ldr	r3, [r0]
 1699 0004 806B     		ldr	r0, [r0, #56]
 1700 0006 1A68     		ldr	r2, [r3]
 1701 0008 12F48072 		ands	r2, r2, #256
 1702 000c 1BD1     		bne	.L374
 1703 000e 0368     		ldr	r3, [r0]
 1704 0010 4286     		strh	r2, [r0, #50]	@ movhi
 1705 0012 DA68     		ldr	r2, [r3, #12]
 1706 0014 22F48072 		bic	r2, r2, #256
ARM GAS  D:\Programs\cygwin64\tmp\ccb1T3l6.s 			page 30


 1707 0018 DA60     		str	r2, [r3, #12]
 1708 001a 5A69     		ldr	r2, [r3, #20]
 1709 001c 22F00102 		bic	r2, r2, #1
 1710 0020 5A61     		str	r2, [r3, #20]
 1711 0022 5A69     		ldr	r2, [r3, #20]
 1712 0024 22F04002 		bic	r2, r2, #64
 1713 0028 5A61     		str	r2, [r3, #20]
 1714 002a 5A69     		ldr	r2, [r3, #20]
 1715 002c 0121     		movs	r1, #1
 1716 002e 22F08002 		bic	r2, r2, #128
 1717 0032 5A61     		str	r2, [r3, #20]
 1718 0034 80F83D10 		strb	r1, [r0, #61]
 1719 0038 90F83D30 		ldrb	r3, [r0, #61]	@ zero_extendqisi2
 1720 003c 222B     		cmp	r3, #34
 1721 003e 06D0     		beq	.L379
 1722              	.L377:
 1723 0040 FFF7FEFF 		bl	HAL_USART_TxRxCpltCallback
 1724 0044 08BD     		pop	{r3, pc}
 1725              	.L374:
 1726 0046 90F83D30 		ldrb	r3, [r0, #61]	@ zero_extendqisi2
 1727 004a 222B     		cmp	r3, #34
 1728 004c F8D1     		bne	.L377
 1729              	.L379:
 1730 004e FFF7FEFF 		bl	HAL_USART_RxCpltCallback
 1731 0052 08BD     		pop	{r3, pc}
 1733              		.section	.text.USART_TransmitReceive_IT.part.2,"ax",%progbits
 1734              		.align	1
 1735              		.p2align 2,,3
 1736              		.syntax unified
 1737              		.thumb
 1738              		.thumb_func
 1739              		.fpu fpv4-sp-d16
 1741              	USART_TransmitReceive_IT.part.2:
 1742              		@ args = 0, pretend = 0, frame = 0
 1743              		@ frame_needed = 0, uses_anonymous_args = 0
 1744 0000 438D     		ldrh	r3, [r0, #42]
 1745 0002 9BB2     		uxth	r3, r3
 1746 0004 10B5     		push	{r4, lr}
 1747 0006 1BB1     		cbz	r3, .L382
 1748 0008 0368     		ldr	r3, [r0]
 1749 000a 1A68     		ldr	r2, [r3]
 1750 000c 1106     		lsls	r1, r2, #24
 1751 000e 34D4     		bmi	.L404
 1752              	.L382:
 1753 0010 438E     		ldrh	r3, [r0, #50]
 1754 0012 9BB2     		uxth	r3, r3
 1755 0014 1BB1     		cbz	r3, .L387
 1756 0016 0368     		ldr	r3, [r0]
 1757 0018 1A68     		ldr	r2, [r3]
 1758 001a 9206     		lsls	r2, r2, #26
 1759 001c 04D4     		bmi	.L405
 1760              	.L387:
 1761 001e 438E     		ldrh	r3, [r0, #50]
 1762 0020 9BB2     		uxth	r3, r3
 1763 0022 B3B1     		cbz	r3, .L406
 1764              	.L392:
 1765 0024 0020     		movs	r0, #0
ARM GAS  D:\Programs\cygwin64\tmp\ccb1T3l6.s 			page 31


 1766 0026 10BD     		pop	{r4, pc}
 1767              	.L405:
 1768 0028 8468     		ldr	r4, [r0, #8]
 1769 002a 0169     		ldr	r1, [r0, #16]
 1770 002c C26A     		ldr	r2, [r0, #44]
 1771 002e B4F5805F 		cmp	r4, #4096
 1772 0032 41D0     		beq	.L407
 1773 0034 541C     		adds	r4, r2, #1
 1774 0036 5B68     		ldr	r3, [r3, #4]
 1775 0038 C462     		str	r4, [r0, #44]
 1776 003a 09B1     		cbz	r1, .L403
 1777 003c 03F07F03 		and	r3, r3, #127
 1778              	.L403:
 1779 0040 1370     		strb	r3, [r2]
 1780              	.L390:
 1781 0042 438E     		ldrh	r3, [r0, #50]
 1782 0044 013B     		subs	r3, r3, #1
 1783 0046 9BB2     		uxth	r3, r3
 1784 0048 4386     		strh	r3, [r0, #50]	@ movhi
 1785 004a 438E     		ldrh	r3, [r0, #50]
 1786 004c 9BB2     		uxth	r3, r3
 1787 004e 002B     		cmp	r3, #0
 1788 0050 E8D1     		bne	.L392
 1789              	.L406:
 1790 0052 0268     		ldr	r2, [r0]
 1791 0054 D168     		ldr	r1, [r2, #12]
 1792 0056 21F02001 		bic	r1, r1, #32
 1793 005a D160     		str	r1, [r2, #12]
 1794 005c D168     		ldr	r1, [r2, #12]
 1795 005e 21F48071 		bic	r1, r1, #256
 1796 0062 D160     		str	r1, [r2, #12]
 1797 0064 5169     		ldr	r1, [r2, #20]
 1798 0066 0124     		movs	r4, #1
 1799 0068 21F00101 		bic	r1, r1, #1
 1800 006c 5161     		str	r1, [r2, #20]
 1801 006e 80F83D40 		strb	r4, [r0, #61]
 1802 0072 FFF7FEFF 		bl	HAL_USART_TxRxCpltCallback
 1803 0076 0020     		movs	r0, #0
 1804 0078 10BD     		pop	{r4, pc}
 1805              	.L404:
 1806 007a 8168     		ldr	r1, [r0, #8]
 1807 007c 426A     		ldr	r2, [r0, #36]
 1808 007e B1F5805F 		cmp	r1, #4096
 1809 0082 10D0     		beq	.L408
 1810 0084 511C     		adds	r1, r2, #1
 1811 0086 4162     		str	r1, [r0, #36]
 1812 0088 1278     		ldrb	r2, [r2]	@ zero_extendqisi2
 1813 008a 5A60     		str	r2, [r3, #4]
 1814              	.L386:
 1815 008c 428D     		ldrh	r2, [r0, #42]
 1816 008e 013A     		subs	r2, r2, #1
 1817 0090 92B2     		uxth	r2, r2
 1818 0092 4285     		strh	r2, [r0, #42]	@ movhi
 1819 0094 428D     		ldrh	r2, [r0, #42]
 1820 0096 92B2     		uxth	r2, r2
 1821 0098 002A     		cmp	r2, #0
 1822 009a B9D1     		bne	.L382
ARM GAS  D:\Programs\cygwin64\tmp\ccb1T3l6.s 			page 32


 1823 009c DA68     		ldr	r2, [r3, #12]
 1824 009e 22F08002 		bic	r2, r2, #128
 1825 00a2 DA60     		str	r2, [r3, #12]
 1826 00a4 B4E7     		b	.L382
 1827              	.L408:
 1828 00a6 1188     		ldrh	r1, [r2]
 1829 00a8 0469     		ldr	r4, [r0, #16]
 1830 00aa C1F30801 		ubfx	r1, r1, #0, #9
 1831 00ae 5960     		str	r1, [r3, #4]
 1832 00b0 7CB9     		cbnz	r4, .L385
 1833 00b2 0232     		adds	r2, r2, #2
 1834 00b4 4262     		str	r2, [r0, #36]
 1835 00b6 E9E7     		b	.L386
 1836              	.L407:
 1837 00b8 5B68     		ldr	r3, [r3, #4]
 1838 00ba 29B9     		cbnz	r1, .L389
 1839 00bc C3F30803 		ubfx	r3, r3, #0, #9
 1840 00c0 22F8023B 		strh	r3, [r2], #2	@ movhi
 1841 00c4 C262     		str	r2, [r0, #44]
 1842 00c6 BCE7     		b	.L390
 1843              	.L389:
 1844 00c8 DBB2     		uxtb	r3, r3
 1845 00ca 22F8013B 		strh	r3, [r2], #1	@ movhi
 1846 00ce C262     		str	r2, [r0, #44]
 1847 00d0 B7E7     		b	.L390
 1848              	.L385:
 1849 00d2 0132     		adds	r2, r2, #1
 1850 00d4 4262     		str	r2, [r0, #36]
 1851 00d6 D9E7     		b	.L386
 1853              		.section	.text.HAL_USART_ErrorCallback,"ax",%progbits
 1854              		.align	1
 1855              		.p2align 2,,3
 1856              		.weak	HAL_USART_ErrorCallback
 1857              		.syntax unified
 1858              		.thumb
 1859              		.thumb_func
 1860              		.fpu fpv4-sp-d16
 1862              	HAL_USART_ErrorCallback:
 1863              		@ args = 0, pretend = 0, frame = 0
 1864              		@ frame_needed = 0, uses_anonymous_args = 0
 1865              		@ link register save eliminated.
 1866 0000 7047     		bx	lr
 1868 0002 00BF     		.section	.text.USART_DMAError,"ax",%progbits
 1869              		.align	1
 1870              		.p2align 2,,3
 1871              		.syntax unified
 1872              		.thumb
 1873              		.thumb_func
 1874              		.fpu fpv4-sp-d16
 1876              	USART_DMAError:
 1877              		@ args = 0, pretend = 0, frame = 0
 1878              		@ frame_needed = 0, uses_anonymous_args = 0
 1879 0000 08B5     		push	{r3, lr}
 1880 0002 836B     		ldr	r3, [r0, #56]
 1881 0004 0021     		movs	r1, #0
 1882 0006 1A68     		ldr	r2, [r3]
 1883 0008 5986     		strh	r1, [r3, #50]	@ movhi
ARM GAS  D:\Programs\cygwin64\tmp\ccb1T3l6.s 			page 33


 1884 000a 5985     		strh	r1, [r3, #42]	@ movhi
 1885 000c 5069     		ldr	r0, [r2, #20]
 1886 000e 93F83D10 		ldrb	r1, [r3, #61]	@ zero_extendqisi2
 1887 0012 1229     		cmp	r1, #18
 1888 0014 0FD0     		beq	.L420
 1889              	.L411:
 1890 0016 5069     		ldr	r0, [r2, #20]
 1891 0018 93F83D10 		ldrb	r1, [r3, #61]	@ zero_extendqisi2
 1892 001c 2229     		cmp	r1, #34
 1893 001e 18D0     		beq	.L421
 1894              	.L412:
 1895 0020 1A6C     		ldr	r2, [r3, #64]
 1896 0022 0121     		movs	r1, #1
 1897 0024 42F01002 		orr	r2, r2, #16
 1898 0028 1A64     		str	r2, [r3, #64]
 1899 002a 1846     		mov	r0, r3
 1900 002c 83F83D10 		strb	r1, [r3, #61]
 1901 0030 FFF7FEFF 		bl	HAL_USART_ErrorCallback
 1902 0034 08BD     		pop	{r3, pc}
 1903              	.L420:
 1904 0036 0006     		lsls	r0, r0, #24
 1905 0038 EDD5     		bpl	.L411
 1906 003a D168     		ldr	r1, [r2, #12]
 1907 003c 0120     		movs	r0, #1
 1908 003e 21F0C001 		bic	r1, r1, #192
 1909 0042 D160     		str	r1, [r2, #12]
 1910 0044 83F83D00 		strb	r0, [r3, #61]
 1911 0048 5069     		ldr	r0, [r2, #20]
 1912 004a 93F83D10 		ldrb	r1, [r3, #61]	@ zero_extendqisi2
 1913 004e 2229     		cmp	r1, #34
 1914 0050 E6D1     		bne	.L412
 1915              	.L421:
 1916 0052 4106     		lsls	r1, r0, #25
 1917 0054 E4D5     		bpl	.L412
 1918 0056 D168     		ldr	r1, [r2, #12]
 1919 0058 21F49071 		bic	r1, r1, #288
 1920 005c D160     		str	r1, [r2, #12]
 1921 005e 5169     		ldr	r1, [r2, #20]
 1922 0060 0120     		movs	r0, #1
 1923 0062 21F00101 		bic	r1, r1, #1
 1924 0066 5161     		str	r1, [r2, #20]
 1925 0068 83F83D00 		strb	r0, [r3, #61]
 1926 006c D8E7     		b	.L412
 1928 006e 00BF     		.section	.text.HAL_USART_IRQHandler,"ax",%progbits
 1929              		.align	1
 1930              		.p2align 2,,3
 1931              		.global	HAL_USART_IRQHandler
 1932              		.syntax unified
 1933              		.thumb
 1934              		.thumb_func
 1935              		.fpu fpv4-sp-d16
 1937              	HAL_USART_IRQHandler:
 1938              		@ args = 0, pretend = 0, frame = 0
 1939              		@ frame_needed = 0, uses_anonymous_args = 0
 1940 0000 0368     		ldr	r3, [r0]
 1941 0002 1A68     		ldr	r2, [r3]
 1942 0004 70B5     		push	{r4, r5, r6, lr}
ARM GAS  D:\Programs\cygwin64\tmp\ccb1T3l6.s 			page 34


 1943 0006 1607     		lsls	r6, r2, #28
 1944 0008 DD68     		ldr	r5, [r3, #12]
 1945 000a 5969     		ldr	r1, [r3, #20]
 1946 000c 0446     		mov	r4, r0
 1947 000e 0CD1     		bne	.L423
 1948 0010 9606     		lsls	r6, r2, #26
 1949 0012 01D5     		bpl	.L424
 1950 0014 A906     		lsls	r1, r5, #26
 1951 0016 5CD4     		bmi	.L508
 1952              	.L424:
 1953 0018 1606     		lsls	r6, r2, #24
 1954 001a 01D5     		bpl	.L442
 1955 001c 2806     		lsls	r0, r5, #24
 1956 001e 4BD4     		bmi	.L509
 1957              	.L442:
 1958 0020 5106     		lsls	r1, r2, #25
 1959 0022 01D5     		bpl	.L422
 1960 0024 6A06     		lsls	r2, r5, #25
 1961 0026 5DD4     		bmi	.L510
 1962              	.L422:
 1963 0028 70BD     		pop	{r4, r5, r6, pc}
 1964              	.L423:
 1965 002a 01F00101 		and	r1, r1, #1
 1966 002e 05F49070 		and	r0, r5, #288
 1967 0032 0843     		orrs	r0, r0, r1
 1968 0034 F0D0     		beq	.L424
 1969 0036 D607     		lsls	r6, r2, #31
 1970 0038 05D5     		bpl	.L429
 1971 003a E805     		lsls	r0, r5, #23
 1972 003c 03D5     		bpl	.L429
 1973 003e 206C     		ldr	r0, [r4, #64]
 1974 0040 40F00100 		orr	r0, r0, #1
 1975 0044 2064     		str	r0, [r4, #64]
 1976              	.L429:
 1977 0046 5607     		lsls	r6, r2, #29
 1978 0048 02F00200 		and	r0, r2, #2
 1979 004c 2ED5     		bpl	.L430
 1980 004e 61B1     		cbz	r1, .L432
 1981 0050 216C     		ldr	r1, [r4, #64]
 1982 0052 41F00201 		orr	r1, r1, #2
 1983 0056 2164     		str	r1, [r4, #64]
 1984 0058 02F00806 		and	r6, r2, #8
 1985 005c 18B1     		cbz	r0, .L507
 1986              	.L433:
 1987 005e 216C     		ldr	r1, [r4, #64]
 1988 0060 41F00401 		orr	r1, r1, #4
 1989 0064 2164     		str	r1, [r4, #64]
 1990              	.L507:
 1991 0066 002E     		cmp	r6, #0
 1992 0068 4FD1     		bne	.L437
 1993              	.L432:
 1994 006a 216C     		ldr	r1, [r4, #64]
 1995 006c 0029     		cmp	r1, #0
 1996 006e DBD0     		beq	.L422
 1997 0070 9006     		lsls	r0, r2, #26
 1998 0072 0ED5     		bpl	.L438
 1999 0074 A906     		lsls	r1, r5, #26
ARM GAS  D:\Programs\cygwin64\tmp\ccb1T3l6.s 			page 35


 2000 0076 0CD5     		bpl	.L438
 2001 0078 94F83D20 		ldrb	r2, [r4, #61]	@ zero_extendqisi2
 2002 007c 222A     		cmp	r2, #34
 2003 007e 94F83D20 		ldrb	r2, [r4, #61]	@ zero_extendqisi2
 2004 0082 00F09080 		beq	.L511
 2005 0086 322A     		cmp	r2, #50
 2006 0088 03D1     		bne	.L438
 2007 008a 2046     		mov	r0, r4
 2008 008c FFF7FEFF 		bl	USART_TransmitReceive_IT.part.2
 2009 0090 2368     		ldr	r3, [r4]
 2010              	.L438:
 2011 0092 5A69     		ldr	r2, [r3, #20]
 2012 0094 256C     		ldr	r5, [r4, #64]
 2013 0096 02F04002 		and	r2, r2, #64
 2014 009a 05F00805 		and	r5, r5, #8
 2015 009e 1543     		orrs	r5, r2, r5
 2016 00a0 38D1     		bne	.L512
 2017 00a2 2046     		mov	r0, r4
 2018 00a4 FFF7FEFF 		bl	HAL_USART_ErrorCallback
 2019 00a8 2564     		str	r5, [r4, #64]
 2020 00aa 70BD     		pop	{r4, r5, r6, pc}
 2021              	.L430:
 2022 00ac 48B3     		cbz	r0, .L435
 2023 00ae 0029     		cmp	r1, #0
 2024 00b0 DBD0     		beq	.L432
 2025 00b2 02F00806 		and	r6, r2, #8
 2026 00b6 D2E7     		b	.L433
 2027              	.L509:
 2028 00b8 94F83D20 		ldrb	r2, [r4, #61]	@ zero_extendqisi2
 2029 00bc 122A     		cmp	r2, #18
 2030 00be 54D0     		beq	.L513
 2031 00c0 94F83D30 		ldrb	r3, [r4, #61]	@ zero_extendqisi2
 2032 00c4 322B     		cmp	r3, #50
 2033 00c6 AFD1     		bne	.L422
 2034              	.L447:
 2035 00c8 2046     		mov	r0, r4
 2036 00ca BDE87040 		pop	{r4, r5, r6, lr}
 2037 00ce FFF7FEBF 		b	USART_TransmitReceive_IT.part.2
 2038              	.L508:
 2039 00d2 90F83D30 		ldrb	r3, [r0, #61]	@ zero_extendqisi2
 2040 00d6 222B     		cmp	r3, #34
 2041 00d8 90F83D30 		ldrb	r3, [r0, #61]	@ zero_extendqisi2
 2042 00dc 3ED0     		beq	.L514
 2043 00de 322B     		cmp	r3, #50
 2044 00e0 F2D0     		beq	.L447
 2045 00e2 A1E7     		b	.L422
 2046              	.L510:
 2047 00e4 DA68     		ldr	r2, [r3, #12]
 2048 00e6 22F04002 		bic	r2, r2, #64
 2049 00ea DA60     		str	r2, [r3, #12]
 2050 00ec 5A69     		ldr	r2, [r3, #20]
 2051 00ee 0121     		movs	r1, #1
 2052 00f0 22F00102 		bic	r2, r2, #1
 2053 00f4 5A61     		str	r2, [r3, #20]
 2054 00f6 2046     		mov	r0, r4
 2055 00f8 84F83D10 		strb	r1, [r4, #61]
 2056 00fc FFF7FEFF 		bl	HAL_USART_TxCpltCallback
ARM GAS  D:\Programs\cygwin64\tmp\ccb1T3l6.s 			page 36


 2057 0100 70BD     		pop	{r4, r5, r6, pc}
 2058              	.L435:
 2059 0102 1607     		lsls	r6, r2, #28
 2060 0104 B1D5     		bpl	.L432
 2061 0106 0029     		cmp	r1, #0
 2062 0108 AFD0     		beq	.L432
 2063              	.L437:
 2064 010a 216C     		ldr	r1, [r4, #64]
 2065 010c 41F00801 		orr	r1, r1, #8
 2066 0110 2164     		str	r1, [r4, #64]
 2067 0112 AAE7     		b	.L432
 2068              	.L512:
 2069 0114 DA68     		ldr	r2, [r3, #12]
 2070 0116 22F49072 		bic	r2, r2, #288
 2071 011a DA60     		str	r2, [r3, #12]
 2072 011c 5A69     		ldr	r2, [r3, #20]
 2073 011e 0121     		movs	r1, #1
 2074 0120 22F00102 		bic	r2, r2, #1
 2075 0124 5A61     		str	r2, [r3, #20]
 2076 0126 84F83D10 		strb	r1, [r4, #61]
 2077 012a 5A69     		ldr	r2, [r3, #20]
 2078 012c 5206     		lsls	r2, r2, #25
 2079 012e 11D5     		bpl	.L441
 2080 0130 5A69     		ldr	r2, [r3, #20]
 2081 0132 A06B     		ldr	r0, [r4, #56]
 2082 0134 22F04002 		bic	r2, r2, #64
 2083 0138 5A61     		str	r2, [r3, #20]
 2084 013a 58B1     		cbz	r0, .L441
 2085 013c 244B     		ldr	r3, .L516
 2086 013e 0365     		str	r3, [r0, #80]
 2087 0140 FFF7FEFF 		bl	HAL_DMA_Abort_IT
 2088 0144 0028     		cmp	r0, #0
 2089 0146 3FF46FAF 		beq	.L422
 2090 014a A06B     		ldr	r0, [r4, #56]
 2091 014c BDE87040 		pop	{r4, r5, r6, lr}
 2092 0150 036D     		ldr	r3, [r0, #80]
 2093 0152 1847     		bx	r3	@ indirect register sibling call
 2094              	.L441:
 2095 0154 2046     		mov	r0, r4
 2096 0156 FFF7FEFF 		bl	HAL_USART_ErrorCallback
 2097 015a 70BD     		pop	{r4, r5, r6, pc}
 2098              	.L514:
 2099 015c 222B     		cmp	r3, #34
 2100 015e 7FF463AF 		bne	.L422
 2101 0162 BDE87040 		pop	{r4, r5, r6, lr}
 2102 0166 FFF7FEBF 		b	USART_Receive_IT.part.1
 2103              	.L513:
 2104 016a 94F83D20 		ldrb	r2, [r4, #61]	@ zero_extendqisi2
 2105 016e 122A     		cmp	r2, #18
 2106 0170 7FF45AAF 		bne	.L422
 2107 0174 A168     		ldr	r1, [r4, #8]
 2108 0176 626A     		ldr	r2, [r4, #36]
 2109 0178 B1F5805F 		cmp	r1, #4096
 2110 017c 1BD0     		beq	.L515
 2111 017e 511C     		adds	r1, r2, #1
 2112 0180 6162     		str	r1, [r4, #36]
 2113 0182 1278     		ldrb	r2, [r2]	@ zero_extendqisi2
ARM GAS  D:\Programs\cygwin64\tmp\ccb1T3l6.s 			page 37


 2114 0184 5A60     		str	r2, [r3, #4]
 2115              	.L446:
 2116 0186 628D     		ldrh	r2, [r4, #42]
 2117 0188 013A     		subs	r2, r2, #1
 2118 018a 92B2     		uxth	r2, r2
 2119 018c 6285     		strh	r2, [r4, #42]	@ movhi
 2120 018e 002A     		cmp	r2, #0
 2121 0190 7FF44AAF 		bne	.L422
 2122 0194 DA68     		ldr	r2, [r3, #12]
 2123 0196 22F08002 		bic	r2, r2, #128
 2124 019a DA60     		str	r2, [r3, #12]
 2125 019c DA68     		ldr	r2, [r3, #12]
 2126 019e 42F04002 		orr	r2, r2, #64
 2127 01a2 DA60     		str	r2, [r3, #12]
 2128 01a4 70BD     		pop	{r4, r5, r6, pc}
 2129              	.L511:
 2130 01a6 222A     		cmp	r2, #34
 2131 01a8 7FF473AF 		bne	.L438
 2132 01ac 2046     		mov	r0, r4
 2133 01ae FFF7FEFF 		bl	USART_Receive_IT.part.1
 2134 01b2 2368     		ldr	r3, [r4]
 2135 01b4 6DE7     		b	.L438
 2136              	.L515:
 2137 01b6 1188     		ldrh	r1, [r2]
 2138 01b8 2069     		ldr	r0, [r4, #16]
 2139 01ba C1F30801 		ubfx	r1, r1, #0, #9
 2140 01be 5960     		str	r1, [r3, #4]
 2141 01c0 10B9     		cbnz	r0, .L445
 2142 01c2 0232     		adds	r2, r2, #2
 2143 01c4 6262     		str	r2, [r4, #36]
 2144 01c6 DEE7     		b	.L446
 2145              	.L445:
 2146 01c8 0132     		adds	r2, r2, #1
 2147 01ca 6262     		str	r2, [r4, #36]
 2148 01cc DBE7     		b	.L446
 2149              	.L517:
 2150 01ce 00BF     		.align	2
 2151              	.L516:
 2152 01d0 00000000 		.word	USART_DMAAbortOnError
 2154              		.section	.text.USART_DMAAbortOnError,"ax",%progbits
 2155              		.align	1
 2156              		.p2align 2,,3
 2157              		.syntax unified
 2158              		.thumb
 2159              		.thumb_func
 2160              		.fpu fpv4-sp-d16
 2162              	USART_DMAAbortOnError:
 2163              		@ args = 0, pretend = 0, frame = 0
 2164              		@ frame_needed = 0, uses_anonymous_args = 0
 2165 0000 08B5     		push	{r3, lr}
 2166 0002 836B     		ldr	r3, [r0, #56]
 2167 0004 0022     		movs	r2, #0
 2168 0006 5A86     		strh	r2, [r3, #50]	@ movhi
 2169 0008 1846     		mov	r0, r3
 2170 000a 5A85     		strh	r2, [r3, #42]	@ movhi
 2171 000c FFF7FEFF 		bl	HAL_USART_ErrorCallback
 2172 0010 08BD     		pop	{r3, pc}
ARM GAS  D:\Programs\cygwin64\tmp\ccb1T3l6.s 			page 38


 2174 0012 00BF     		.section	.text.HAL_USART_AbortCpltCallback,"ax",%progbits
 2175              		.align	1
 2176              		.p2align 2,,3
 2177              		.weak	HAL_USART_AbortCpltCallback
 2178              		.syntax unified
 2179              		.thumb
 2180              		.thumb_func
 2181              		.fpu fpv4-sp-d16
 2183              	HAL_USART_AbortCpltCallback:
 2184              		@ args = 0, pretend = 0, frame = 0
 2185              		@ frame_needed = 0, uses_anonymous_args = 0
 2186              		@ link register save eliminated.
 2187 0000 7047     		bx	lr
 2189 0002 00BF     		.section	.text.HAL_USART_Abort_IT,"ax",%progbits
 2190              		.align	1
 2191              		.p2align 2,,3
 2192              		.global	HAL_USART_Abort_IT
 2193              		.syntax unified
 2194              		.thumb
 2195              		.thumb_func
 2196              		.fpu fpv4-sp-d16
 2198              	HAL_USART_Abort_IT:
 2199              		@ args = 0, pretend = 0, frame = 0
 2200              		@ frame_needed = 0, uses_anonymous_args = 0
 2201 0000 0368     		ldr	r3, [r0]
 2202 0002 DA68     		ldr	r2, [r3, #12]
 2203 0004 22F4F072 		bic	r2, r2, #480
 2204 0008 10B5     		push	{r4, lr}
 2205 000a 0446     		mov	r4, r0
 2206 000c 406B     		ldr	r0, [r0, #52]
 2207 000e DA60     		str	r2, [r3, #12]
 2208 0010 5A69     		ldr	r2, [r3, #20]
 2209 0012 22F00102 		bic	r2, r2, #1
 2210 0016 5A61     		str	r2, [r3, #20]
 2211 0018 28B1     		cbz	r0, .L522
 2212 001a 5A69     		ldr	r2, [r3, #20]
 2213 001c 12F08002 		ands	r2, r2, #128
 2214 0020 18BF     		it	ne
 2215 0022 204A     		ldrne	r2, .L552
 2216 0024 0265     		str	r2, [r0, #80]
 2217              	.L522:
 2218 0026 A16B     		ldr	r1, [r4, #56]
 2219 0028 29B1     		cbz	r1, .L524
 2220 002a 5A69     		ldr	r2, [r3, #20]
 2221 002c 12F04002 		ands	r2, r2, #64
 2222 0030 18BF     		it	ne
 2223 0032 1D4A     		ldrne	r2, .L552+4
 2224 0034 0A65     		str	r2, [r1, #80]
 2225              	.L524:
 2226 0036 5A69     		ldr	r2, [r3, #20]
 2227 0038 1206     		lsls	r2, r2, #24
 2228 003a 0BD5     		bpl	.L526
 2229 003c 5A69     		ldr	r2, [r3, #20]
 2230 003e 22F08002 		bic	r2, r2, #128
 2231 0042 5A61     		str	r2, [r3, #20]
 2232 0044 30B1     		cbz	r0, .L526
 2233 0046 FFF7FEFF 		bl	HAL_DMA_Abort_IT
ARM GAS  D:\Programs\cygwin64\tmp\ccb1T3l6.s 			page 39


 2234 004a F0B1     		cbz	r0, .L527
 2235 004c 626B     		ldr	r2, [r4, #52]
 2236 004e 2368     		ldr	r3, [r4]
 2237 0050 0021     		movs	r1, #0
 2238 0052 1165     		str	r1, [r2, #80]
 2239              	.L526:
 2240 0054 5A69     		ldr	r2, [r3, #20]
 2241 0056 5206     		lsls	r2, r2, #25
 2242 0058 0BD5     		bpl	.L529
 2243 005a 5A69     		ldr	r2, [r3, #20]
 2244 005c A06B     		ldr	r0, [r4, #56]
 2245 005e 22F04002 		bic	r2, r2, #64
 2246 0062 5A61     		str	r2, [r3, #20]
 2247 0064 28B1     		cbz	r0, .L529
 2248              	.L528:
 2249 0066 FFF7FEFF 		bl	HAL_DMA_Abort_IT
 2250 006a 60B1     		cbz	r0, .L545
 2251 006c A36B     		ldr	r3, [r4, #56]
 2252 006e 0022     		movs	r2, #0
 2253 0070 1A65     		str	r2, [r3, #80]
 2254              	.L529:
 2255 0072 0023     		movs	r3, #0
 2256 0074 0122     		movs	r2, #1
 2257 0076 6385     		strh	r3, [r4, #42]	@ movhi
 2258 0078 2046     		mov	r0, r4
 2259 007a 6386     		strh	r3, [r4, #50]	@ movhi
 2260 007c 2364     		str	r3, [r4, #64]
 2261 007e 84F83D20 		strb	r2, [r4, #61]
 2262 0082 FFF7FEFF 		bl	HAL_USART_AbortCpltCallback
 2263              	.L545:
 2264 0086 0020     		movs	r0, #0
 2265 0088 10BD     		pop	{r4, pc}
 2266              	.L527:
 2267 008a 2368     		ldr	r3, [r4]
 2268 008c 5A69     		ldr	r2, [r3, #20]
 2269 008e 5106     		lsls	r1, r2, #25
 2270 0090 F9D5     		bpl	.L545
 2271 0092 5A69     		ldr	r2, [r3, #20]
 2272 0094 A06B     		ldr	r0, [r4, #56]
 2273 0096 22F04002 		bic	r2, r2, #64
 2274 009a 5A61     		str	r2, [r3, #20]
 2275 009c 0028     		cmp	r0, #0
 2276 009e E2D1     		bne	.L528
 2277 00a0 F1E7     		b	.L545
 2278              	.L553:
 2279 00a2 00BF     		.align	2
 2280              	.L552:
 2281 00a4 00000000 		.word	USART_DMATxAbortCallback
 2282 00a8 00000000 		.word	USART_DMARxAbortCallback
 2284              		.section	.text.USART_DMARxAbortCallback,"ax",%progbits
 2285              		.align	1
 2286              		.p2align 2,,3
 2287              		.syntax unified
 2288              		.thumb
 2289              		.thumb_func
 2290              		.fpu fpv4-sp-d16
 2292              	USART_DMARxAbortCallback:
ARM GAS  D:\Programs\cygwin64\tmp\ccb1T3l6.s 			page 40


 2293              		@ args = 0, pretend = 0, frame = 0
 2294              		@ frame_needed = 0, uses_anonymous_args = 0
 2295 0000 08B5     		push	{r3, lr}
 2296 0002 836B     		ldr	r3, [r0, #56]
 2297 0004 D3E90D21 		ldrd	r2, r1, [r3, #52]
 2298 0008 0020     		movs	r0, #0
 2299 000a 0865     		str	r0, [r1, #80]
 2300 000c 12B1     		cbz	r2, .L555
 2301 000e 126D     		ldr	r2, [r2, #80]
 2302 0010 02B1     		cbz	r2, .L555
 2303 0012 08BD     		pop	{r3, pc}
 2304              	.L555:
 2305 0014 0022     		movs	r2, #0
 2306 0016 0121     		movs	r1, #1
 2307 0018 5A85     		strh	r2, [r3, #42]	@ movhi
 2308 001a 1846     		mov	r0, r3
 2309 001c 5A86     		strh	r2, [r3, #50]	@ movhi
 2310 001e 1A64     		str	r2, [r3, #64]
 2311 0020 83F83D10 		strb	r1, [r3, #61]
 2312 0024 FFF7FEFF 		bl	HAL_USART_AbortCpltCallback
 2313 0028 08BD     		pop	{r3, pc}
 2315 002a 00BF     		.section	.text.USART_DMATxAbortCallback,"ax",%progbits
 2316              		.align	1
 2317              		.p2align 2,,3
 2318              		.syntax unified
 2319              		.thumb
 2320              		.thumb_func
 2321              		.fpu fpv4-sp-d16
 2323              	USART_DMATxAbortCallback:
 2324              		@ args = 0, pretend = 0, frame = 0
 2325              		@ frame_needed = 0, uses_anonymous_args = 0
 2326 0000 08B5     		push	{r3, lr}
 2327 0002 836B     		ldr	r3, [r0, #56]
 2328 0004 D3E90D12 		ldrd	r1, r2, [r3, #52]
 2329 0008 0020     		movs	r0, #0
 2330 000a 0865     		str	r0, [r1, #80]
 2331 000c 12B1     		cbz	r2, .L562
 2332 000e 126D     		ldr	r2, [r2, #80]
 2333 0010 02B1     		cbz	r2, .L562
 2334 0012 08BD     		pop	{r3, pc}
 2335              	.L562:
 2336 0014 0022     		movs	r2, #0
 2337 0016 0121     		movs	r1, #1
 2338 0018 5A85     		strh	r2, [r3, #42]	@ movhi
 2339 001a 1846     		mov	r0, r3
 2340 001c 5A86     		strh	r2, [r3, #50]	@ movhi
 2341 001e 1A64     		str	r2, [r3, #64]
 2342 0020 83F83D10 		strb	r1, [r3, #61]
 2343 0024 FFF7FEFF 		bl	HAL_USART_AbortCpltCallback
 2344 0028 08BD     		pop	{r3, pc}
 2346 002a 00BF     		.section	.text.HAL_USART_GetState,"ax",%progbits
 2347              		.align	1
 2348              		.p2align 2,,3
 2349              		.global	HAL_USART_GetState
 2350              		.syntax unified
 2351              		.thumb
 2352              		.thumb_func
ARM GAS  D:\Programs\cygwin64\tmp\ccb1T3l6.s 			page 41


 2353              		.fpu fpv4-sp-d16
 2355              	HAL_USART_GetState:
 2356              		@ args = 0, pretend = 0, frame = 0
 2357              		@ frame_needed = 0, uses_anonymous_args = 0
 2358              		@ link register save eliminated.
 2359 0000 90F83D00 		ldrb	r0, [r0, #61]	@ zero_extendqisi2
 2360 0004 7047     		bx	lr
 2362 0006 00BF     		.section	.text.HAL_USART_GetError,"ax",%progbits
 2363              		.align	1
 2364              		.p2align 2,,3
 2365              		.global	HAL_USART_GetError
 2366              		.syntax unified
 2367              		.thumb
 2368              		.thumb_func
 2369              		.fpu fpv4-sp-d16
 2371              	HAL_USART_GetError:
 2372              		@ args = 0, pretend = 0, frame = 0
 2373              		@ frame_needed = 0, uses_anonymous_args = 0
 2374              		@ link register save eliminated.
 2375 0000 006C     		ldr	r0, [r0, #64]
 2376 0002 7047     		bx	lr
 2378              		.ident	"GCC: (GNU Tools for Arm Embedded Processors 8-2018-q4-major) 8.2.1 20181213 (release) [gcc
ARM GAS  D:\Programs\cygwin64\tmp\ccb1T3l6.s 			page 42

