ARM GAS  D:\Programs\cygwin64\tmp\ccbneoxh.s 			page 1


   1              		.cpu cortex-m4
   2              		.eabi_attribute 27, 1
   3              		.eabi_attribute 28, 1
   4              		.eabi_attribute 20, 1
   5              		.eabi_attribute 21, 1
   6              		.eabi_attribute 23, 3
   7              		.eabi_attribute 24, 1
   8              		.eabi_attribute 25, 1
   9              		.eabi_attribute 26, 1
  10              		.eabi_attribute 30, 2
  11              		.eabi_attribute 34, 1
  12              		.eabi_attribute 18, 4
  13              		.file	"stm32f4xx_hal_pwr_ex.c"
  14              		.text
  15              		.section	.text.HAL_PWREx_EnableBkUpReg,"ax",%progbits
  16              		.align	1
  17              		.p2align 2,,3
  18              		.global	HAL_PWREx_EnableBkUpReg
  19              		.arch armv7e-m
  20              		.syntax unified
  21              		.thumb
  22              		.thumb_func
  23              		.fpu fpv4-sp-d16
  25              	HAL_PWREx_EnableBkUpReg:
  26              		@ args = 0, pretend = 0, frame = 0
  27              		@ frame_needed = 0, uses_anonymous_args = 0
  28 0000 38B5     		push	{r3, r4, r5, lr}
  29 0002 0A4B     		ldr	r3, .L8
  30 0004 0A4C     		ldr	r4, .L8+4
  31 0006 0122     		movs	r2, #1
  32 0008 1A60     		str	r2, [r3]
  33 000a FFF7FEFF 		bl	HAL_GetTick
  34 000e 0546     		mov	r5, r0
  35 0010 05E0     		b	.L2
  36              	.L4:
  37 0012 FFF7FEFF 		bl	HAL_GetTick
  38 0016 401B     		subs	r0, r0, r5
  39 0018 B0F57A7F 		cmp	r0, #1000
  40 001c 04D8     		bhi	.L5
  41              	.L2:
  42 001e 6368     		ldr	r3, [r4, #4]
  43 0020 1B07     		lsls	r3, r3, #28
  44 0022 F6D5     		bpl	.L4
  45 0024 0020     		movs	r0, #0
  46 0026 38BD     		pop	{r3, r4, r5, pc}
  47              	.L5:
  48 0028 0320     		movs	r0, #3
  49 002a 38BD     		pop	{r3, r4, r5, pc}
  50              	.L9:
  51              		.align	2
  52              	.L8:
  53 002c A4000E42 		.word	1108213924
  54 0030 00700040 		.word	1073770496
  56              		.section	.text.HAL_PWREx_DisableBkUpReg,"ax",%progbits
  57              		.align	1
  58              		.p2align 2,,3
  59              		.global	HAL_PWREx_DisableBkUpReg
ARM GAS  D:\Programs\cygwin64\tmp\ccbneoxh.s 			page 2


  60              		.syntax unified
  61              		.thumb
  62              		.thumb_func
  63              		.fpu fpv4-sp-d16
  65              	HAL_PWREx_DisableBkUpReg:
  66              		@ args = 0, pretend = 0, frame = 0
  67              		@ frame_needed = 0, uses_anonymous_args = 0
  68 0000 38B5     		push	{r3, r4, r5, lr}
  69 0002 0A4B     		ldr	r3, .L16
  70 0004 0A4C     		ldr	r4, .L16+4
  71 0006 0022     		movs	r2, #0
  72 0008 1A60     		str	r2, [r3]
  73 000a FFF7FEFF 		bl	HAL_GetTick
  74 000e 0546     		mov	r5, r0
  75 0010 05E0     		b	.L11
  76              	.L13:
  77 0012 FFF7FEFF 		bl	HAL_GetTick
  78 0016 401B     		subs	r0, r0, r5
  79 0018 B0F57A7F 		cmp	r0, #1000
  80 001c 04D8     		bhi	.L14
  81              	.L11:
  82 001e 6068     		ldr	r0, [r4, #4]
  83 0020 10F00800 		ands	r0, r0, #8
  84 0024 F5D1     		bne	.L13
  85 0026 38BD     		pop	{r3, r4, r5, pc}
  86              	.L14:
  87 0028 0320     		movs	r0, #3
  88 002a 38BD     		pop	{r3, r4, r5, pc}
  89              	.L17:
  90              		.align	2
  91              	.L16:
  92 002c A4000E42 		.word	1108213924
  93 0030 00700040 		.word	1073770496
  95              		.section	.text.HAL_PWREx_EnableFlashPowerDown,"ax",%progbits
  96              		.align	1
  97              		.p2align 2,,3
  98              		.global	HAL_PWREx_EnableFlashPowerDown
  99              		.syntax unified
 100              		.thumb
 101              		.thumb_func
 102              		.fpu fpv4-sp-d16
 104              	HAL_PWREx_EnableFlashPowerDown:
 105              		@ args = 0, pretend = 0, frame = 0
 106              		@ frame_needed = 0, uses_anonymous_args = 0
 107              		@ link register save eliminated.
 108 0000 014B     		ldr	r3, .L19
 109 0002 0122     		movs	r2, #1
 110 0004 1A60     		str	r2, [r3]
 111 0006 7047     		bx	lr
 112              	.L20:
 113              		.align	2
 114              	.L19:
 115 0008 24000E42 		.word	1108213796
 117              		.section	.text.HAL_PWREx_DisableFlashPowerDown,"ax",%progbits
 118              		.align	1
 119              		.p2align 2,,3
 120              		.global	HAL_PWREx_DisableFlashPowerDown
ARM GAS  D:\Programs\cygwin64\tmp\ccbneoxh.s 			page 3


 121              		.syntax unified
 122              		.thumb
 123              		.thumb_func
 124              		.fpu fpv4-sp-d16
 126              	HAL_PWREx_DisableFlashPowerDown:
 127              		@ args = 0, pretend = 0, frame = 0
 128              		@ frame_needed = 0, uses_anonymous_args = 0
 129              		@ link register save eliminated.
 130 0000 014B     		ldr	r3, .L22
 131 0002 0022     		movs	r2, #0
 132 0004 1A60     		str	r2, [r3]
 133 0006 7047     		bx	lr
 134              	.L23:
 135              		.align	2
 136              	.L22:
 137 0008 24000E42 		.word	1108213796
 139              		.section	.text.HAL_PWREx_GetVoltageRange,"ax",%progbits
 140              		.align	1
 141              		.p2align 2,,3
 142              		.global	HAL_PWREx_GetVoltageRange
 143              		.syntax unified
 144              		.thumb
 145              		.thumb_func
 146              		.fpu fpv4-sp-d16
 148              	HAL_PWREx_GetVoltageRange:
 149              		@ args = 0, pretend = 0, frame = 0
 150              		@ frame_needed = 0, uses_anonymous_args = 0
 151              		@ link register save eliminated.
 152 0000 024B     		ldr	r3, .L25
 153 0002 1868     		ldr	r0, [r3]
 154 0004 00F44040 		and	r0, r0, #49152
 155 0008 7047     		bx	lr
 156              	.L26:
 157 000a 00BF     		.align	2
 158              	.L25:
 159 000c 00700040 		.word	1073770496
 161              		.section	.text.HAL_PWREx_ControlVoltageScaling,"ax",%progbits
 162              		.align	1
 163              		.p2align 2,,3
 164              		.global	HAL_PWREx_ControlVoltageScaling
 165              		.syntax unified
 166              		.thumb
 167              		.thumb_func
 168              		.fpu fpv4-sp-d16
 170              	HAL_PWREx_ControlVoltageScaling:
 171              		@ args = 0, pretend = 0, frame = 8
 172              		@ frame_needed = 0, uses_anonymous_args = 0
 173 0000 70B5     		push	{r4, r5, r6, lr}
 174 0002 82B0     		sub	sp, sp, #8
 175 0004 294C     		ldr	r4, .L39
 176 0006 0022     		movs	r2, #0
 177 0008 0092     		str	r2, [sp]
 178 000a 236C     		ldr	r3, [r4, #64]
 179 000c 43F08053 		orr	r3, r3, #268435456
 180 0010 2364     		str	r3, [r4, #64]
 181 0012 236C     		ldr	r3, [r4, #64]
 182 0014 03F08053 		and	r3, r3, #268435456
ARM GAS  D:\Programs\cygwin64\tmp\ccbneoxh.s 			page 4


 183 0018 0093     		str	r3, [sp]
 184 001a 009B     		ldr	r3, [sp]
 185 001c A368     		ldr	r3, [r4, #8]
 186 001e 03F00C03 		and	r3, r3, #12
 187 0022 082B     		cmp	r3, #8
 188 0024 3ED0     		beq	.L36
 189 0026 224B     		ldr	r3, .L39+4
 190 0028 1A60     		str	r2, [r3]
 191 002a 0646     		mov	r6, r0
 192 002c FFF7FEFF 		bl	HAL_GetTick
 193 0030 0546     		mov	r5, r0
 194 0032 04E0     		b	.L29
 195              	.L30:
 196 0034 FFF7FEFF 		bl	HAL_GetTick
 197 0038 401B     		subs	r0, r0, r5
 198 003a 0228     		cmp	r0, #2
 199 003c 2FD8     		bhi	.L32
 200              	.L29:
 201 003e 2368     		ldr	r3, [r4]
 202 0040 13F00073 		ands	r3, r3, #33554432
 203 0044 F6D1     		bne	.L30
 204 0046 1B4A     		ldr	r2, .L39+8
 205 0048 0193     		str	r3, [sp, #4]
 206 004a 1368     		ldr	r3, [r2]
 207 004c 1849     		ldr	r1, .L39+4
 208 004e 174C     		ldr	r4, .L39
 209 0050 23F44043 		bic	r3, r3, #49152
 210 0054 1E43     		orrs	r6, r6, r3
 211 0056 1660     		str	r6, [r2]
 212 0058 1368     		ldr	r3, [r2]
 213 005a 03F44043 		and	r3, r3, #49152
 214 005e 0193     		str	r3, [sp, #4]
 215 0060 0123     		movs	r3, #1
 216 0062 019A     		ldr	r2, [sp, #4]
 217 0064 0B60     		str	r3, [r1]
 218 0066 FFF7FEFF 		bl	HAL_GetTick
 219 006a 0546     		mov	r5, r0
 220 006c 04E0     		b	.L31
 221              	.L33:
 222 006e FFF7FEFF 		bl	HAL_GetTick
 223 0072 401B     		subs	r0, r0, r5
 224 0074 0228     		cmp	r0, #2
 225 0076 12D8     		bhi	.L32
 226              	.L31:
 227 0078 2368     		ldr	r3, [r4]
 228 007a 9A01     		lsls	r2, r3, #6
 229 007c F7D5     		bpl	.L33
 230 007e FFF7FEFF 		bl	HAL_GetTick
 231 0082 0C4C     		ldr	r4, .L39+8
 232 0084 0546     		mov	r5, r0
 233 0086 05E0     		b	.L34
 234              	.L35:
 235 0088 FFF7FEFF 		bl	HAL_GetTick
 236 008c 401B     		subs	r0, r0, r5
 237 008e B0F57A7F 		cmp	r0, #1000
 238 0092 04D8     		bhi	.L32
 239              	.L34:
ARM GAS  D:\Programs\cygwin64\tmp\ccbneoxh.s 			page 5


 240 0094 6368     		ldr	r3, [r4, #4]
 241 0096 5B04     		lsls	r3, r3, #17
 242 0098 F6D5     		bpl	.L35
 243 009a 0020     		movs	r0, #0
 244 009c 00E0     		b	.L28
 245              	.L32:
 246 009e 0320     		movs	r0, #3
 247              	.L28:
 248 00a0 02B0     		add	sp, sp, #8
 249              		@ sp needed
 250 00a2 70BD     		pop	{r4, r5, r6, pc}
 251              	.L36:
 252 00a4 0120     		movs	r0, #1
 253 00a6 02B0     		add	sp, sp, #8
 254              		@ sp needed
 255 00a8 70BD     		pop	{r4, r5, r6, pc}
 256              	.L40:
 257 00aa 00BF     		.align	2
 258              	.L39:
 259 00ac 00380240 		.word	1073887232
 260 00b0 60004742 		.word	1111949408
 261 00b4 00700040 		.word	1073770496
 263              		.section	.text.HAL_PWREx_EnableOverDrive,"ax",%progbits
 264              		.align	1
 265              		.p2align 2,,3
 266              		.global	HAL_PWREx_EnableOverDrive
 267              		.syntax unified
 268              		.thumb
 269              		.thumb_func
 270              		.fpu fpv4-sp-d16
 272              	HAL_PWREx_EnableOverDrive:
 273              		@ args = 0, pretend = 0, frame = 8
 274              		@ frame_needed = 0, uses_anonymous_args = 0
 275 0000 30B5     		push	{r4, r5, lr}
 276 0002 83B0     		sub	sp, sp, #12
 277 0004 194B     		ldr	r3, .L50
 278 0006 1A49     		ldr	r1, .L50+4
 279 0008 1A4C     		ldr	r4, .L50+8
 280 000a 0022     		movs	r2, #0
 281 000c 0192     		str	r2, [sp, #4]
 282 000e 1A6C     		ldr	r2, [r3, #64]
 283 0010 42F08052 		orr	r2, r2, #268435456
 284 0014 1A64     		str	r2, [r3, #64]
 285 0016 1B6C     		ldr	r3, [r3, #64]
 286 0018 03F08053 		and	r3, r3, #268435456
 287 001c 0193     		str	r3, [sp, #4]
 288 001e 0123     		movs	r3, #1
 289 0020 019A     		ldr	r2, [sp, #4]
 290 0022 0B60     		str	r3, [r1]
 291 0024 FFF7FEFF 		bl	HAL_GetTick
 292 0028 0546     		mov	r5, r0
 293 002a 05E0     		b	.L42
 294              	.L44:
 295 002c FFF7FEFF 		bl	HAL_GetTick
 296 0030 401B     		subs	r0, r0, r5
 297 0032 B0F57A7F 		cmp	r0, #1000
 298 0036 16D8     		bhi	.L46
ARM GAS  D:\Programs\cygwin64\tmp\ccbneoxh.s 			page 6


 299              	.L42:
 300 0038 6368     		ldr	r3, [r4, #4]
 301 003a DA03     		lsls	r2, r3, #15
 302 003c F6D5     		bpl	.L44
 303 003e 0E4B     		ldr	r3, .L50+12
 304 0040 0C4C     		ldr	r4, .L50+8
 305 0042 0122     		movs	r2, #1
 306 0044 1A60     		str	r2, [r3]
 307 0046 FFF7FEFF 		bl	HAL_GetTick
 308 004a 0546     		mov	r5, r0
 309 004c 05E0     		b	.L45
 310              	.L47:
 311 004e FFF7FEFF 		bl	HAL_GetTick
 312 0052 401B     		subs	r0, r0, r5
 313 0054 B0F57A7F 		cmp	r0, #1000
 314 0058 05D8     		bhi	.L46
 315              	.L45:
 316 005a 6368     		ldr	r3, [r4, #4]
 317 005c 9B03     		lsls	r3, r3, #14
 318 005e F6D5     		bpl	.L47
 319 0060 0020     		movs	r0, #0
 320 0062 03B0     		add	sp, sp, #12
 321              		@ sp needed
 322 0064 30BD     		pop	{r4, r5, pc}
 323              	.L46:
 324 0066 0320     		movs	r0, #3
 325 0068 03B0     		add	sp, sp, #12
 326              		@ sp needed
 327 006a 30BD     		pop	{r4, r5, pc}
 328              	.L51:
 329              		.align	2
 330              	.L50:
 331 006c 00380240 		.word	1073887232
 332 0070 40000E42 		.word	1108213824
 333 0074 00700040 		.word	1073770496
 334 0078 44000E42 		.word	1108213828
 336              		.section	.text.HAL_PWREx_DisableOverDrive,"ax",%progbits
 337              		.align	1
 338              		.p2align 2,,3
 339              		.global	HAL_PWREx_DisableOverDrive
 340              		.syntax unified
 341              		.thumb
 342              		.thumb_func
 343              		.fpu fpv4-sp-d16
 345              	HAL_PWREx_DisableOverDrive:
 346              		@ args = 0, pretend = 0, frame = 8
 347              		@ frame_needed = 0, uses_anonymous_args = 0
 348 0000 30B5     		push	{r4, r5, lr}
 349 0002 83B0     		sub	sp, sp, #12
 350 0004 0021     		movs	r1, #0
 351 0006 194B     		ldr	r3, .L61
 352 0008 0191     		str	r1, [sp, #4]
 353 000a 1A6C     		ldr	r2, [r3, #64]
 354 000c 1848     		ldr	r0, .L61+4
 355 000e 194C     		ldr	r4, .L61+8
 356 0010 42F08052 		orr	r2, r2, #268435456
 357 0014 1A64     		str	r2, [r3, #64]
ARM GAS  D:\Programs\cygwin64\tmp\ccbneoxh.s 			page 7


 358 0016 1B6C     		ldr	r3, [r3, #64]
 359 0018 03F08053 		and	r3, r3, #268435456
 360 001c 0193     		str	r3, [sp, #4]
 361 001e 019B     		ldr	r3, [sp, #4]
 362 0020 0160     		str	r1, [r0]
 363 0022 FFF7FEFF 		bl	HAL_GetTick
 364 0026 0546     		mov	r5, r0
 365 0028 05E0     		b	.L53
 366              	.L55:
 367 002a FFF7FEFF 		bl	HAL_GetTick
 368 002e 401B     		subs	r0, r0, r5
 369 0030 B0F57A7F 		cmp	r0, #1000
 370 0034 16D8     		bhi	.L57
 371              	.L53:
 372 0036 6368     		ldr	r3, [r4, #4]
 373 0038 13F40033 		ands	r3, r3, #131072
 374 003c F5D1     		bne	.L55
 375 003e 0E4A     		ldr	r2, .L61+12
 376 0040 0C4C     		ldr	r4, .L61+8
 377 0042 1360     		str	r3, [r2]
 378 0044 FFF7FEFF 		bl	HAL_GetTick
 379 0048 0546     		mov	r5, r0
 380 004a 05E0     		b	.L56
 381              	.L58:
 382 004c FFF7FEFF 		bl	HAL_GetTick
 383 0050 401B     		subs	r0, r0, r5
 384 0052 B0F57A7F 		cmp	r0, #1000
 385 0056 05D8     		bhi	.L57
 386              	.L56:
 387 0058 6068     		ldr	r0, [r4, #4]
 388 005a 10F48030 		ands	r0, r0, #65536
 389 005e F5D1     		bne	.L58
 390 0060 03B0     		add	sp, sp, #12
 391              		@ sp needed
 392 0062 30BD     		pop	{r4, r5, pc}
 393              	.L57:
 394 0064 0320     		movs	r0, #3
 395 0066 03B0     		add	sp, sp, #12
 396              		@ sp needed
 397 0068 30BD     		pop	{r4, r5, pc}
 398              	.L62:
 399 006a 00BF     		.align	2
 400              	.L61:
 401 006c 00380240 		.word	1073887232
 402 0070 44000E42 		.word	1108213828
 403 0074 00700040 		.word	1073770496
 404 0078 40000E42 		.word	1108213824
 406              		.section	.text.HAL_PWREx_EnterUnderDriveSTOPMode,"ax",%progbits
 407              		.align	1
 408              		.p2align 2,,3
 409              		.global	HAL_PWREx_EnterUnderDriveSTOPMode
 410              		.syntax unified
 411              		.thumb
 412              		.thumb_func
 413              		.fpu fpv4-sp-d16
 415              	HAL_PWREx_EnterUnderDriveSTOPMode:
 416              		@ args = 0, pretend = 0, frame = 8
ARM GAS  D:\Programs\cygwin64\tmp\ccbneoxh.s 			page 8


 417              		@ frame_needed = 0, uses_anonymous_args = 0
 418              		@ link register save eliminated.
 419 0000 30B4     		push	{r4, r5}
 420 0002 82B0     		sub	sp, sp, #8
 421 0004 174B     		ldr	r3, .L68
 422 0006 184C     		ldr	r4, .L68+4
 423 0008 0022     		movs	r2, #0
 424 000a 0192     		str	r2, [sp, #4]
 425 000c 1D6C     		ldr	r5, [r3, #64]
 426 000e 174A     		ldr	r2, .L68+8
 427 0010 45F08055 		orr	r5, r5, #268435456
 428 0014 1D64     		str	r5, [r3, #64]
 429 0016 1B6C     		ldr	r3, [r3, #64]
 430 0018 03F08053 		and	r3, r3, #268435456
 431 001c 0193     		str	r3, [sp, #4]
 432 001e 019B     		ldr	r3, [sp, #4]
 433 0020 5368     		ldr	r3, [r2, #4]
 434 0022 43F44023 		orr	r3, r3, #786432
 435 0026 5360     		str	r3, [r2, #4]
 436 0028 1368     		ldr	r3, [r2]
 437 002a 43F44023 		orr	r3, r3, #786432
 438 002e 1360     		str	r3, [r2]
 439 0030 1368     		ldr	r3, [r2]
 440 0032 23F44063 		bic	r3, r3, #3072
 441 0036 23F00303 		bic	r3, r3, #3
 442 003a 1843     		orrs	r0, r0, r3
 443 003c 1060     		str	r0, [r2]
 444 003e 2369     		ldr	r3, [r4, #16]
 445 0040 0129     		cmp	r1, #1
 446 0042 43F00403 		orr	r3, r3, #4
 447 0046 2361     		str	r3, [r4, #16]
 448 0048 09D0     		beq	.L67
 449              		.syntax unified
 450              	@ 578 "../Drivers/STM32F4xx_HAL_Driver/Src/stm32f4xx_hal_pwr_ex.c" 1
 451 004a 20BF     		wfe
 452              	@ 0 "" 2
 453              		.thumb
 454              		.syntax unified
 455              	.L65:
 456 004c 064A     		ldr	r2, .L68+4
 457 004e 1369     		ldr	r3, [r2, #16]
 458 0050 0020     		movs	r0, #0
 459 0052 23F00403 		bic	r3, r3, #4
 460 0056 1361     		str	r3, [r2, #16]
 461 0058 02B0     		add	sp, sp, #8
 462              		@ sp needed
 463 005a 30BC     		pop	{r4, r5}
 464 005c 7047     		bx	lr
 465              	.L67:
 466              		.syntax unified
 467              	@ 573 "../Drivers/STM32F4xx_HAL_Driver/Src/stm32f4xx_hal_pwr_ex.c" 1
 468 005e 30BF     		wfi
 469              	@ 0 "" 2
 470              		.thumb
 471              		.syntax unified
 472 0060 F4E7     		b	.L65
 473              	.L69:
ARM GAS  D:\Programs\cygwin64\tmp\ccbneoxh.s 			page 9


 474 0062 00BF     		.align	2
 475              	.L68:
 476 0064 00380240 		.word	1073887232
 477 0068 00ED00E0 		.word	-536810240
 478 006c 00700040 		.word	1073770496
 480              		.ident	"GCC: (GNU Tools for Arm Embedded Processors 8-2018-q4-major) 8.2.1 20181213 (release) [gcc
ARM GAS  D:\Programs\cygwin64\tmp\ccbneoxh.s 			page 10

