ARM GAS  D:\Programs\cygwin64\tmp\ccuUm5pQ.s 			page 1


   1              		.cpu cortex-m4
   2              		.eabi_attribute 27, 1
   3              		.eabi_attribute 28, 1
   4              		.eabi_attribute 20, 1
   5              		.eabi_attribute 21, 1
   6              		.eabi_attribute 23, 3
   7              		.eabi_attribute 24, 1
   8              		.eabi_attribute 25, 1
   9              		.eabi_attribute 26, 1
  10              		.eabi_attribute 30, 2
  11              		.eabi_attribute 34, 1
  12              		.eabi_attribute 18, 4
  13              		.file	"stm32f4xx_hal_adc.c"
  14              		.text
  15              		.section	.text.HAL_ADC_MspInit,"ax",%progbits
  16              		.align	1
  17              		.p2align 2,,3
  18              		.weak	HAL_ADC_MspInit
  19              		.arch armv7e-m
  20              		.syntax unified
  21              		.thumb
  22              		.thumb_func
  23              		.fpu fpv4-sp-d16
  25              	HAL_ADC_MspInit:
  26              		@ args = 0, pretend = 0, frame = 0
  27              		@ frame_needed = 0, uses_anonymous_args = 0
  28              		@ link register save eliminated.
  29 0000 7047     		bx	lr
  31 0002 00BF     		.section	.text.HAL_ADC_Init,"ax",%progbits
  32              		.align	1
  33              		.p2align 2,,3
  34              		.global	HAL_ADC_Init
  35              		.syntax unified
  36              		.thumb
  37              		.thumb_func
  38              		.fpu fpv4-sp-d16
  40              	HAL_ADC_Init:
  41              		@ args = 0, pretend = 0, frame = 0
  42              		@ frame_needed = 0, uses_anonymous_args = 0
  43 0000 0028     		cmp	r0, #0
  44 0002 00F0A080 		beq	.L11
  45 0006 F8B5     		push	{r3, r4, r5, r6, r7, lr}
  46 0008 056C     		ldr	r5, [r0, #64]
  47 000a 0446     		mov	r4, r0
  48 000c 3DB1     		cbz	r5, .L17
  49 000e 236C     		ldr	r3, [r4, #64]
  50 0010 DB06     		lsls	r3, r3, #27
  51 0012 0CD5     		bpl	.L18
  52              	.L12:
  53 0014 0023     		movs	r3, #0
  54 0016 0120     		movs	r0, #1
  55 0018 84F83C30 		strb	r3, [r4, #60]
  56 001c F8BD     		pop	{r3, r4, r5, r6, r7, pc}
  57              	.L17:
  58 001e FFF7FEFF 		bl	HAL_ADC_MspInit
  59 0022 6564     		str	r5, [r4, #68]
  60 0024 236C     		ldr	r3, [r4, #64]
ARM GAS  D:\Programs\cygwin64\tmp\ccuUm5pQ.s 			page 2


  61 0026 84F83C50 		strb	r5, [r4, #60]
  62 002a DB06     		lsls	r3, r3, #27
  63 002c F2D4     		bmi	.L12
  64              	.L18:
  65 002e 226C     		ldr	r2, [r4, #64]
  66 0030 4849     		ldr	r1, .L19
  67 0032 2368     		ldr	r3, [r4]
  68 0034 484D     		ldr	r5, .L19+4
  69 0036 22F48852 		bic	r2, r2, #4352
  70 003a 22F00202 		bic	r2, r2, #2
  71 003e 42F00202 		orr	r2, r2, #2
  72 0042 2264     		str	r2, [r4, #64]
  73 0044 4A68     		ldr	r2, [r1, #4]
  74 0046 22F44032 		bic	r2, r2, #196608
  75 004a 4A60     		str	r2, [r1, #4]
  76 004c 4A68     		ldr	r2, [r1, #4]
  77 004e 6068     		ldr	r0, [r4, #4]
  78 0050 0243     		orrs	r2, r2, r0
  79 0052 4A60     		str	r2, [r1, #4]
  80 0054 5868     		ldr	r0, [r3, #4]
  81 0056 2169     		ldr	r1, [r4, #16]
  82 0058 A768     		ldr	r7, [r4, #8]
  83 005a E668     		ldr	r6, [r4, #12]
  84 005c 20F48070 		bic	r0, r0, #256
  85 0060 5860     		str	r0, [r3, #4]
  86 0062 5A68     		ldr	r2, [r3, #4]
  87 0064 42EA0122 		orr	r2, r2, r1, lsl #8
  88 0068 5A60     		str	r2, [r3, #4]
  89 006a 5868     		ldr	r0, [r3, #4]
  90 006c 20F04070 		bic	r0, r0, #50331648
  91 0070 5860     		str	r0, [r3, #4]
  92 0072 5968     		ldr	r1, [r3, #4]
  93 0074 A06A     		ldr	r0, [r4, #40]
  94 0076 3943     		orrs	r1, r1, r7
  95 0078 5960     		str	r1, [r3, #4]
  96 007a 9968     		ldr	r1, [r3, #8]
  97 007c 21F40061 		bic	r1, r1, #2048
  98 0080 9960     		str	r1, [r3, #8]
  99 0082 9A68     		ldr	r2, [r3, #8]
 100 0084 A842     		cmp	r0, r5
 101 0086 42EA0602 		orr	r2, r2, r6
 102 008a 9A60     		str	r2, [r3, #8]
 103 008c 52D0     		beq	.L7
 104 008e 9968     		ldr	r1, [r3, #8]
 105 0090 E56A     		ldr	r5, [r4, #44]
 106 0092 21F07061 		bic	r1, r1, #251658240
 107 0096 9960     		str	r1, [r3, #8]
 108 0098 9A68     		ldr	r2, [r3, #8]
 109 009a 1043     		orrs	r0, r0, r2
 110 009c 9860     		str	r0, [r3, #8]
 111 009e 9968     		ldr	r1, [r3, #8]
 112 00a0 21F04051 		bic	r1, r1, #805306368
 113 00a4 9960     		str	r1, [r3, #8]
 114 00a6 9A68     		ldr	r2, [r3, #8]
 115 00a8 2A43     		orrs	r2, r2, r5
 116 00aa 9A60     		str	r2, [r3, #8]
 117              	.L8:
ARM GAS  D:\Programs\cygwin64\tmp\ccuUm5pQ.s 			page 3


 118 00ac 9968     		ldr	r1, [r3, #8]
 119 00ae 257E     		ldrb	r5, [r4, #24]	@ zero_extendqisi2
 120 00b0 94F82000 		ldrb	r0, [r4, #32]	@ zero_extendqisi2
 121 00b4 21F00201 		bic	r1, r1, #2
 122 00b8 9960     		str	r1, [r3, #8]
 123 00ba 9A68     		ldr	r2, [r3, #8]
 124 00bc 42EA4502 		orr	r2, r2, r5, lsl #1
 125 00c0 9A60     		str	r2, [r3, #8]
 126 00c2 5A68     		ldr	r2, [r3, #4]
 127 00c4 0028     		cmp	r0, #0
 128 00c6 40D0     		beq	.L9
 129 00c8 42F40062 		orr	r2, r2, #2048
 130 00cc 616A     		ldr	r1, [r4, #36]
 131 00ce 5A60     		str	r2, [r3, #4]
 132 00d0 5A68     		ldr	r2, [r3, #4]
 133 00d2 22F46042 		bic	r2, r2, #57344
 134 00d6 5A60     		str	r2, [r3, #4]
 135 00d8 5A68     		ldr	r2, [r3, #4]
 136 00da 0139     		subs	r1, r1, #1
 137 00dc 42EA4132 		orr	r2, r2, r1, lsl #13
 138 00e0 5A60     		str	r2, [r3, #4]
 139              	.L10:
 140 00e2 DA6A     		ldr	r2, [r3, #44]
 141 00e4 E569     		ldr	r5, [r4, #28]
 142 00e6 94F83070 		ldrb	r7, [r4, #48]	@ zero_extendqisi2
 143 00ea 6669     		ldr	r6, [r4, #20]
 144 00ec 22F47002 		bic	r2, r2, #15728640
 145 00f0 DA62     		str	r2, [r3, #44]
 146 00f2 D86A     		ldr	r0, [r3, #44]
 147 00f4 013D     		subs	r5, r5, #1
 148 00f6 40EA0550 		orr	r0, r0, r5, lsl #20
 149 00fa D862     		str	r0, [r3, #44]
 150 00fc 9868     		ldr	r0, [r3, #8]
 151 00fe 20F40070 		bic	r0, r0, #512
 152 0102 9860     		str	r0, [r3, #8]
 153 0104 9968     		ldr	r1, [r3, #8]
 154 0106 41EA4721 		orr	r1, r1, r7, lsl #9
 155 010a 9960     		str	r1, [r3, #8]
 156 010c 9968     		ldr	r1, [r3, #8]
 157 010e 21F48061 		bic	r1, r1, #1024
 158 0112 9960     		str	r1, [r3, #8]
 159 0114 9A68     		ldr	r2, [r3, #8]
 160 0116 0020     		movs	r0, #0
 161 0118 42EA8622 		orr	r2, r2, r6, lsl #10
 162 011c 9A60     		str	r2, [r3, #8]
 163 011e 6064     		str	r0, [r4, #68]
 164 0120 236C     		ldr	r3, [r4, #64]
 165 0122 23F00303 		bic	r3, r3, #3
 166 0126 43F00103 		orr	r3, r3, #1
 167 012a 2364     		str	r3, [r4, #64]
 168 012c 0023     		movs	r3, #0
 169 012e 84F83C30 		strb	r3, [r4, #60]
 170 0132 F8BD     		pop	{r3, r4, r5, r6, r7, pc}
 171              	.L7:
 172 0134 9A68     		ldr	r2, [r3, #8]
 173 0136 22F07062 		bic	r2, r2, #251658240
 174 013a 9A60     		str	r2, [r3, #8]
ARM GAS  D:\Programs\cygwin64\tmp\ccuUm5pQ.s 			page 4


 175 013c 9A68     		ldr	r2, [r3, #8]
 176 013e 22F04052 		bic	r2, r2, #805306368
 177 0142 9A60     		str	r2, [r3, #8]
 178 0144 B2E7     		b	.L8
 179              	.L11:
 180 0146 0120     		movs	r0, #1
 181 0148 7047     		bx	lr
 182              	.L9:
 183 014a 22F40062 		bic	r2, r2, #2048
 184 014e 5A60     		str	r2, [r3, #4]
 185 0150 C7E7     		b	.L10
 186              	.L20:
 187 0152 00BF     		.align	2
 188              	.L19:
 189 0154 00230140 		.word	1073816320
 190 0158 0100000F 		.word	251658241
 192              		.section	.text.HAL_ADC_MspDeInit,"ax",%progbits
 193              		.align	1
 194              		.p2align 2,,3
 195              		.weak	HAL_ADC_MspDeInit
 196              		.syntax unified
 197              		.thumb
 198              		.thumb_func
 199              		.fpu fpv4-sp-d16
 201              	HAL_ADC_MspDeInit:
 202              		@ args = 0, pretend = 0, frame = 0
 203              		@ frame_needed = 0, uses_anonymous_args = 0
 204              		@ link register save eliminated.
 205 0000 7047     		bx	lr
 207 0002 00BF     		.section	.text.HAL_ADC_DeInit,"ax",%progbits
 208              		.align	1
 209              		.p2align 2,,3
 210              		.global	HAL_ADC_DeInit
 211              		.syntax unified
 212              		.thumb
 213              		.thumb_func
 214              		.fpu fpv4-sp-d16
 216              	HAL_ADC_DeInit:
 217              		@ args = 0, pretend = 0, frame = 0
 218              		@ frame_needed = 0, uses_anonymous_args = 0
 219 0000 D0B1     		cbz	r0, .L25
 220 0002 026C     		ldr	r2, [r0, #64]
 221 0004 38B5     		push	{r3, r4, r5, lr}
 222 0006 42F00202 		orr	r2, r2, #2
 223 000a 0368     		ldr	r3, [r0]
 224 000c 0264     		str	r2, [r0, #64]
 225 000e 9A68     		ldr	r2, [r3, #8]
 226 0010 22F00102 		bic	r2, r2, #1
 227 0014 9A60     		str	r2, [r3, #8]
 228 0016 9D68     		ldr	r5, [r3, #8]
 229 0018 15F00105 		ands	r5, r5, #1
 230 001c 0446     		mov	r4, r0
 231 001e 03D0     		beq	.L30
 232 0020 0020     		movs	r0, #0
 233 0022 84F83C00 		strb	r0, [r4, #60]
 234 0026 38BD     		pop	{r3, r4, r5, pc}
 235              	.L30:
ARM GAS  D:\Programs\cygwin64\tmp\ccuUm5pQ.s 			page 5


 236 0028 FFF7FEFF 		bl	HAL_ADC_MspDeInit
 237 002c 0020     		movs	r0, #0
 238 002e 6564     		str	r5, [r4, #68]
 239 0030 84F83C00 		strb	r0, [r4, #60]
 240 0034 2564     		str	r5, [r4, #64]
 241 0036 38BD     		pop	{r3, r4, r5, pc}
 242              	.L25:
 243 0038 0120     		movs	r0, #1
 244 003a 7047     		bx	lr
 246              		.section	.text.HAL_ADC_Start,"ax",%progbits
 247              		.align	1
 248              		.p2align 2,,3
 249              		.global	HAL_ADC_Start
 250              		.syntax unified
 251              		.thumb
 252              		.thumb_func
 253              		.fpu fpv4-sp-d16
 255              	HAL_ADC_Start:
 256              		@ args = 0, pretend = 0, frame = 8
 257              		@ frame_needed = 0, uses_anonymous_args = 0
 258              		@ link register save eliminated.
 259 0000 10B4     		push	{r4}
 260 0002 90F83C30 		ldrb	r3, [r0, #60]	@ zero_extendqisi2
 261 0006 83B0     		sub	sp, sp, #12
 262 0008 0022     		movs	r2, #0
 263 000a 012B     		cmp	r3, #1
 264 000c 0192     		str	r2, [sp, #4]
 265 000e 5CD0     		beq	.L44
 266 0010 0268     		ldr	r2, [r0]
 267 0012 9368     		ldr	r3, [r2, #8]
 268 0014 0121     		movs	r1, #1
 269 0016 80F83C10 		strb	r1, [r0, #60]
 270 001a D907     		lsls	r1, r3, #31
 271 001c 14D4     		bmi	.L36
 272 001e 314B     		ldr	r3, .L61
 273 0020 314C     		ldr	r4, .L61+4
 274 0022 1B68     		ldr	r3, [r3]
 275 0024 9168     		ldr	r1, [r2, #8]
 276 0026 A4FB0343 		umull	r4, r3, r4, r3
 277 002a 9B0C     		lsrs	r3, r3, #18
 278 002c 03EB4303 		add	r3, r3, r3, lsl #1
 279 0030 41F00101 		orr	r1, r1, #1
 280 0034 9160     		str	r1, [r2, #8]
 281 0036 0193     		str	r3, [sp, #4]
 282 0038 019B     		ldr	r3, [sp, #4]
 283 003a 2BB1     		cbz	r3, .L36
 284              	.L37:
 285 003c 019B     		ldr	r3, [sp, #4]
 286 003e 013B     		subs	r3, r3, #1
 287 0040 0193     		str	r3, [sp, #4]
 288 0042 019B     		ldr	r3, [sp, #4]
 289 0044 002B     		cmp	r3, #0
 290 0046 F9D1     		bne	.L37
 291              	.L36:
 292 0048 9368     		ldr	r3, [r2, #8]
 293 004a DB07     		lsls	r3, r3, #31
 294 004c 2CD5     		bpl	.L35
ARM GAS  D:\Programs\cygwin64\tmp\ccuUm5pQ.s 			page 6


 295 004e 036C     		ldr	r3, [r0, #64]
 296 0050 23F4E063 		bic	r3, r3, #1792
 297 0054 23F00103 		bic	r3, r3, #1
 298 0058 43F48073 		orr	r3, r3, #256
 299 005c 0364     		str	r3, [r0, #64]
 300 005e 5368     		ldr	r3, [r2, #4]
 301 0060 5C05     		lsls	r4, r3, #21
 302 0062 05D5     		bpl	.L38
 303 0064 036C     		ldr	r3, [r0, #64]
 304 0066 23F44053 		bic	r3, r3, #12288
 305 006a 43F48053 		orr	r3, r3, #4096
 306 006e 0364     		str	r3, [r0, #64]
 307              	.L38:
 308 0070 036C     		ldr	r3, [r0, #64]
 309 0072 13F48053 		ands	r3, r3, #4096
 310 0076 1CBF     		itt	ne
 311 0078 436C     		ldrne	r3, [r0, #68]
 312 007a 23F00603 		bicne	r3, r3, #6
 313 007e 4364     		str	r3, [r0, #68]
 314 0080 6FF02201 		mvn	r1, #34
 315 0084 0024     		movs	r4, #0
 316 0086 194B     		ldr	r3, .L61+8
 317 0088 80F83C40 		strb	r4, [r0, #60]
 318 008c 1160     		str	r1, [r2]
 319 008e 5968     		ldr	r1, [r3, #4]
 320 0090 C806     		lsls	r0, r1, #27
 321 0092 0ED1     		bne	.L41
 322 0094 1649     		ldr	r1, .L61+12
 323 0096 8A42     		cmp	r2, r1
 324 0098 0ED0     		beq	.L58
 325 009a 01F58071 		add	r1, r1, #256
 326 009e 8A42     		cmp	r2, r1
 327 00a0 1CD0     		beq	.L59
 328 00a2 1449     		ldr	r1, .L61+16
 329 00a4 8A42     		cmp	r2, r1
 330 00a6 15D0     		beq	.L60
 331              	.L35:
 332 00a8 0020     		movs	r0, #0
 333              	.L32:
 334 00aa 03B0     		add	sp, sp, #12
 335              		@ sp needed
 336 00ac 5DF8044B 		ldr	r4, [sp], #4
 337 00b0 7047     		bx	lr
 338              	.L41:
 339 00b2 0F4B     		ldr	r3, .L61+12
 340 00b4 9A42     		cmp	r2, r3
 341 00b6 F7D1     		bne	.L35
 342              	.L58:
 343 00b8 9068     		ldr	r0, [r2, #8]
 344 00ba 10F04050 		ands	r0, r0, #805306368
 345 00be F3D1     		bne	.L35
 346 00c0 9368     		ldr	r3, [r2, #8]
 347 00c2 43F08043 		orr	r3, r3, #1073741824
 348 00c6 9360     		str	r3, [r2, #8]
 349 00c8 EFE7     		b	.L32
 350              	.L44:
 351 00ca 0220     		movs	r0, #2
ARM GAS  D:\Programs\cygwin64\tmp\ccuUm5pQ.s 			page 7


 352 00cc 03B0     		add	sp, sp, #12
 353              		@ sp needed
 354 00ce 5DF8044B 		ldr	r4, [sp], #4
 355 00d2 7047     		bx	lr
 356              	.L60:
 357 00d4 5B68     		ldr	r3, [r3, #4]
 358 00d6 DB06     		lsls	r3, r3, #27
 359 00d8 E6D4     		bmi	.L35
 360 00da EDE7     		b	.L58
 361              	.L59:
 362 00dc 5B68     		ldr	r3, [r3, #4]
 363 00de D906     		lsls	r1, r3, #27
 364 00e0 EAD0     		beq	.L58
 365 00e2 E1E7     		b	.L35
 366              	.L62:
 367              		.align	2
 368              	.L61:
 369 00e4 00000000 		.word	SystemCoreClock
 370 00e8 83DE1B43 		.word	1125899907
 371 00ec 00230140 		.word	1073816320
 372 00f0 00200140 		.word	1073815552
 373 00f4 00220140 		.word	1073816064
 375              		.section	.text.HAL_ADC_Stop,"ax",%progbits
 376              		.align	1
 377              		.p2align 2,,3
 378              		.global	HAL_ADC_Stop
 379              		.syntax unified
 380              		.thumb
 381              		.thumb_func
 382              		.fpu fpv4-sp-d16
 384              	HAL_ADC_Stop:
 385              		@ args = 0, pretend = 0, frame = 0
 386              		@ frame_needed = 0, uses_anonymous_args = 0
 387              		@ link register save eliminated.
 388 0000 90F83C30 		ldrb	r3, [r0, #60]	@ zero_extendqisi2
 389 0004 012B     		cmp	r3, #1
 390 0006 16D0     		beq	.L66
 391 0008 0368     		ldr	r3, [r0]
 392 000a 9A68     		ldr	r2, [r3, #8]
 393 000c 0121     		movs	r1, #1
 394 000e 22F00102 		bic	r2, r2, #1
 395 0012 80F83C10 		strb	r1, [r0, #60]
 396 0016 9A60     		str	r2, [r3, #8]
 397 0018 9B68     		ldr	r3, [r3, #8]
 398 001a DB07     		lsls	r3, r3, #31
 399 001c 06D4     		bmi	.L65
 400 001e 036C     		ldr	r3, [r0, #64]
 401 0020 23F48853 		bic	r3, r3, #4352
 402 0024 23F00103 		bic	r3, r3, #1
 403 0028 0B43     		orrs	r3, r3, r1
 404 002a 0364     		str	r3, [r0, #64]
 405              	.L65:
 406 002c 0023     		movs	r3, #0
 407 002e 80F83C30 		strb	r3, [r0, #60]
 408 0032 1846     		mov	r0, r3
 409 0034 7047     		bx	lr
 410              	.L66:
ARM GAS  D:\Programs\cygwin64\tmp\ccuUm5pQ.s 			page 8


 411 0036 0220     		movs	r0, #2
 412 0038 7047     		bx	lr
 414 003a 00BF     		.section	.text.HAL_ADC_PollForConversion,"ax",%progbits
 415              		.align	1
 416              		.p2align 2,,3
 417              		.global	HAL_ADC_PollForConversion
 418              		.syntax unified
 419              		.thumb
 420              		.thumb_func
 421              		.fpu fpv4-sp-d16
 423              	HAL_ADC_PollForConversion:
 424              		@ args = 0, pretend = 0, frame = 0
 425              		@ frame_needed = 0, uses_anonymous_args = 0
 426 0000 0368     		ldr	r3, [r0]
 427 0002 9A68     		ldr	r2, [r3, #8]
 428 0004 5205     		lsls	r2, r2, #21
 429 0006 02D5     		bpl	.L68
 430 0008 9B68     		ldr	r3, [r3, #8]
 431 000a DA05     		lsls	r2, r3, #23
 432 000c 40D4     		bmi	.L94
 433              	.L68:
 434 000e 70B5     		push	{r4, r5, r6, lr}
 435 0010 0D46     		mov	r5, r1
 436 0012 0446     		mov	r4, r0
 437 0014 FFF7FEFF 		bl	HAL_GetTick
 438 0018 0646     		mov	r6, r0
 439              	.L70:
 440 001a 6B1C     		adds	r3, r5, #1
 441 001c 2268     		ldr	r2, [r4]
 442 001e 25D1     		bne	.L73
 443              	.L74:
 444 0020 1368     		ldr	r3, [r2]
 445 0022 9807     		lsls	r0, r3, #30
 446 0024 FCD5     		bpl	.L74
 447              	.L75:
 448 0026 6FF01203 		mvn	r3, #18
 449 002a 1360     		str	r3, [r2]
 450 002c 236C     		ldr	r3, [r4, #64]
 451 002e 43F40073 		orr	r3, r3, #512
 452 0032 2364     		str	r3, [r4, #64]
 453 0034 9368     		ldr	r3, [r2, #8]
 454 0036 13F0405F 		tst	r3, #805306368
 455 003a 15D1     		bne	.L78
 456 003c 237E     		ldrb	r3, [r4, #24]	@ zero_extendqisi2
 457 003e 9BB9     		cbnz	r3, .L78
 458 0040 D36A     		ldr	r3, [r2, #44]
 459 0042 13F4700F 		tst	r3, #15728640
 460 0046 02D0     		beq	.L79
 461 0048 9368     		ldr	r3, [r2, #8]
 462 004a 5B05     		lsls	r3, r3, #21
 463 004c 0CD4     		bmi	.L78
 464              	.L79:
 465 004e 236C     		ldr	r3, [r4, #64]
 466 0050 23F48073 		bic	r3, r3, #256
 467 0054 2364     		str	r3, [r4, #64]
 468 0056 206C     		ldr	r0, [r4, #64]
 469 0058 10F48050 		ands	r0, r0, #4096
ARM GAS  D:\Programs\cygwin64\tmp\ccuUm5pQ.s 			page 9


 470 005c 04D1     		bne	.L78
 471 005e 236C     		ldr	r3, [r4, #64]
 472 0060 43F00103 		orr	r3, r3, #1
 473 0064 2364     		str	r3, [r4, #64]
 474 0066 70BD     		pop	{r4, r5, r6, pc}
 475              	.L78:
 476 0068 0020     		movs	r0, #0
 477 006a 70BD     		pop	{r4, r5, r6, pc}
 478              	.L73:
 479 006c 1368     		ldr	r3, [r2]
 480 006e 9907     		lsls	r1, r3, #30
 481 0070 D9D4     		bmi	.L75
 482 0072 25B1     		cbz	r5, .L72
 483 0074 FFF7FEFF 		bl	HAL_GetTick
 484 0078 801B     		subs	r0, r0, r6
 485 007a A842     		cmp	r0, r5
 486 007c CDD9     		bls	.L70
 487              	.L72:
 488 007e 236C     		ldr	r3, [r4, #64]
 489 0080 0022     		movs	r2, #0
 490 0082 43F00403 		orr	r3, r3, #4
 491 0086 2364     		str	r3, [r4, #64]
 492 0088 84F83C20 		strb	r2, [r4, #60]
 493 008c 0320     		movs	r0, #3
 494 008e 70BD     		pop	{r4, r5, r6, pc}
 495              	.L94:
 496 0090 036C     		ldr	r3, [r0, #64]
 497 0092 0022     		movs	r2, #0
 498 0094 43F02003 		orr	r3, r3, #32
 499 0098 0364     		str	r3, [r0, #64]
 500 009a 80F83C20 		strb	r2, [r0, #60]
 501 009e 0120     		movs	r0, #1
 502 00a0 7047     		bx	lr
 504 00a2 00BF     		.section	.text.HAL_ADC_PollForEvent,"ax",%progbits
 505              		.align	1
 506              		.p2align 2,,3
 507              		.global	HAL_ADC_PollForEvent
 508              		.syntax unified
 509              		.thumb
 510              		.thumb_func
 511              		.fpu fpv4-sp-d16
 513              	HAL_ADC_PollForEvent:
 514              		@ args = 0, pretend = 0, frame = 0
 515              		@ frame_needed = 0, uses_anonymous_args = 0
 516 0000 2DE9F041 		push	{r4, r5, r6, r7, r8, lr}
 517 0004 0646     		mov	r6, r0
 518 0006 0D46     		mov	r5, r1
 519 0008 1746     		mov	r7, r2
 520 000a FFF7FEFF 		bl	HAL_GetTick
 521 000e 8046     		mov	r8, r0
 522              	.L96:
 523 0010 7B1C     		adds	r3, r7, #1
 524 0012 3468     		ldr	r4, [r6]
 525 0014 13D1     		bne	.L100
 526              	.L101:
 527 0016 2368     		ldr	r3, [r4]
 528 0018 35EA0303 		bics	r3, r5, r3
ARM GAS  D:\Programs\cygwin64\tmp\ccuUm5pQ.s 			page 10


 529 001c FBD1     		bne	.L101
 530              	.L102:
 531 001e 012D     		cmp	r5, #1
 532 0020 336C     		ldr	r3, [r6, #64]
 533 0022 20D0     		beq	.L107
 534 0024 43F48063 		orr	r3, r3, #1024
 535 0028 3364     		str	r3, [r6, #64]
 536 002a 736C     		ldr	r3, [r6, #68]
 537 002c 6FF02002 		mvn	r2, #32
 538 0030 43F00203 		orr	r3, r3, #2
 539 0034 7364     		str	r3, [r6, #68]
 540 0036 0020     		movs	r0, #0
 541 0038 2260     		str	r2, [r4]
 542              	.L98:
 543 003a BDE8F081 		pop	{r4, r5, r6, r7, r8, pc}
 544              	.L100:
 545 003e 2368     		ldr	r3, [r4]
 546 0040 35EA0303 		bics	r3, r5, r3
 547 0044 EBD0     		beq	.L102
 548 0046 2FB1     		cbz	r7, .L99
 549 0048 FFF7FEFF 		bl	HAL_GetTick
 550 004c A0EB0800 		sub	r0, r0, r8
 551 0050 B842     		cmp	r0, r7
 552 0052 DDD9     		bls	.L96
 553              	.L99:
 554 0054 336C     		ldr	r3, [r6, #64]
 555 0056 0022     		movs	r2, #0
 556 0058 43F00403 		orr	r3, r3, #4
 557 005c 3364     		str	r3, [r6, #64]
 558 005e 86F83C20 		strb	r2, [r6, #60]
 559 0062 0320     		movs	r0, #3
 560 0064 E9E7     		b	.L98
 561              	.L107:
 562 0066 6FF00102 		mvn	r2, #1
 563 006a 43F48033 		orr	r3, r3, #65536
 564 006e 3364     		str	r3, [r6, #64]
 565 0070 0020     		movs	r0, #0
 566 0072 2260     		str	r2, [r4]
 567 0074 BDE8F081 		pop	{r4, r5, r6, r7, r8, pc}
 569              		.section	.text.HAL_ADC_Start_IT,"ax",%progbits
 570              		.align	1
 571              		.p2align 2,,3
 572              		.global	HAL_ADC_Start_IT
 573              		.syntax unified
 574              		.thumb
 575              		.thumb_func
 576              		.fpu fpv4-sp-d16
 578              	HAL_ADC_Start_IT:
 579              		@ args = 0, pretend = 0, frame = 8
 580              		@ frame_needed = 0, uses_anonymous_args = 0
 581              		@ link register save eliminated.
 582 0000 10B4     		push	{r4}
 583 0002 90F83C30 		ldrb	r3, [r0, #60]	@ zero_extendqisi2
 584 0006 83B0     		sub	sp, sp, #12
 585 0008 0022     		movs	r2, #0
 586 000a 012B     		cmp	r3, #1
 587 000c 0192     		str	r2, [sp, #4]
ARM GAS  D:\Programs\cygwin64\tmp\ccuUm5pQ.s 			page 11


 588 000e 62D0     		beq	.L121
 589 0010 0268     		ldr	r2, [r0]
 590 0012 9368     		ldr	r3, [r2, #8]
 591 0014 0121     		movs	r1, #1
 592 0016 80F83C10 		strb	r1, [r0, #60]
 593 001a D907     		lsls	r1, r3, #31
 594 001c 14D4     		bmi	.L113
 595 001e 344B     		ldr	r3, .L138
 596 0020 344C     		ldr	r4, .L138+4
 597 0022 1B68     		ldr	r3, [r3]
 598 0024 9168     		ldr	r1, [r2, #8]
 599 0026 A4FB0343 		umull	r4, r3, r4, r3
 600 002a 9B0C     		lsrs	r3, r3, #18
 601 002c 03EB4303 		add	r3, r3, r3, lsl #1
 602 0030 41F00101 		orr	r1, r1, #1
 603 0034 9160     		str	r1, [r2, #8]
 604 0036 0193     		str	r3, [sp, #4]
 605 0038 019B     		ldr	r3, [sp, #4]
 606 003a 2BB1     		cbz	r3, .L113
 607              	.L114:
 608 003c 019B     		ldr	r3, [sp, #4]
 609 003e 013B     		subs	r3, r3, #1
 610 0040 0193     		str	r3, [sp, #4]
 611 0042 019B     		ldr	r3, [sp, #4]
 612 0044 002B     		cmp	r3, #0
 613 0046 F9D1     		bne	.L114
 614              	.L113:
 615 0048 9368     		ldr	r3, [r2, #8]
 616 004a DB07     		lsls	r3, r3, #31
 617 004c 33D5     		bpl	.L112
 618 004e 036C     		ldr	r3, [r0, #64]
 619 0050 23F4E063 		bic	r3, r3, #1792
 620 0054 23F00103 		bic	r3, r3, #1
 621 0058 43F48073 		orr	r3, r3, #256
 622 005c 0364     		str	r3, [r0, #64]
 623 005e 5368     		ldr	r3, [r2, #4]
 624 0060 5C05     		lsls	r4, r3, #21
 625 0062 05D5     		bpl	.L115
 626 0064 036C     		ldr	r3, [r0, #64]
 627 0066 23F44053 		bic	r3, r3, #12288
 628 006a 43F48053 		orr	r3, r3, #4096
 629 006e 0364     		str	r3, [r0, #64]
 630              	.L115:
 631 0070 036C     		ldr	r3, [r0, #64]
 632 0072 13F48053 		ands	r3, r3, #4096
 633 0076 1CBF     		itt	ne
 634 0078 436C     		ldrne	r3, [r0, #68]
 635 007a 23F00603 		bicne	r3, r3, #6
 636 007e 4364     		str	r3, [r0, #68]
 637 0080 0021     		movs	r1, #0
 638 0082 6FF02203 		mvn	r3, #34
 639 0086 80F83C10 		strb	r1, [r0, #60]
 640 008a 1360     		str	r3, [r2]
 641 008c 5368     		ldr	r3, [r2, #4]
 642 008e 1A49     		ldr	r1, .L138+8
 643 0090 43F08063 		orr	r3, r3, #67108864
 644 0094 43F02003 		orr	r3, r3, #32
ARM GAS  D:\Programs\cygwin64\tmp\ccuUm5pQ.s 			page 12


 645 0098 5360     		str	r3, [r2, #4]
 646 009a 4B68     		ldr	r3, [r1, #4]
 647 009c 13F01F0F 		tst	r3, #31
 648 00a0 164B     		ldr	r3, .L138+12
 649 00a2 0DD1     		bne	.L118
 650 00a4 9A42     		cmp	r2, r3
 651 00a6 0DD0     		beq	.L135
 652 00a8 03F58073 		add	r3, r3, #256
 653 00ac 9A42     		cmp	r2, r3
 654 00ae 1BD0     		beq	.L136
 655 00b0 134B     		ldr	r3, .L138+16
 656 00b2 9A42     		cmp	r2, r3
 657 00b4 14D0     		beq	.L137
 658              	.L112:
 659 00b6 0020     		movs	r0, #0
 660              	.L109:
 661 00b8 03B0     		add	sp, sp, #12
 662              		@ sp needed
 663 00ba 5DF8044B 		ldr	r4, [sp], #4
 664 00be 7047     		bx	lr
 665              	.L118:
 666 00c0 9A42     		cmp	r2, r3
 667 00c2 F8D1     		bne	.L112
 668              	.L135:
 669 00c4 9068     		ldr	r0, [r2, #8]
 670 00c6 10F04050 		ands	r0, r0, #805306368
 671 00ca F4D1     		bne	.L112
 672 00cc 9368     		ldr	r3, [r2, #8]
 673 00ce 43F08043 		orr	r3, r3, #1073741824
 674 00d2 9360     		str	r3, [r2, #8]
 675 00d4 F0E7     		b	.L109
 676              	.L121:
 677 00d6 0220     		movs	r0, #2
 678 00d8 03B0     		add	sp, sp, #12
 679              		@ sp needed
 680 00da 5DF8044B 		ldr	r4, [sp], #4
 681 00de 7047     		bx	lr
 682              	.L137:
 683 00e0 4B68     		ldr	r3, [r1, #4]
 684 00e2 DB06     		lsls	r3, r3, #27
 685 00e4 E7D4     		bmi	.L112
 686 00e6 EDE7     		b	.L135
 687              	.L136:
 688 00e8 4B68     		ldr	r3, [r1, #4]
 689 00ea D906     		lsls	r1, r3, #27
 690 00ec EAD0     		beq	.L135
 691 00ee E2E7     		b	.L112
 692              	.L139:
 693              		.align	2
 694              	.L138:
 695 00f0 00000000 		.word	SystemCoreClock
 696 00f4 83DE1B43 		.word	1125899907
 697 00f8 00230140 		.word	1073816320
 698 00fc 00200140 		.word	1073815552
 699 0100 00220140 		.word	1073816064
 701              		.section	.text.HAL_ADC_Stop_IT,"ax",%progbits
 702              		.align	1
ARM GAS  D:\Programs\cygwin64\tmp\ccuUm5pQ.s 			page 13


 703              		.p2align 2,,3
 704              		.global	HAL_ADC_Stop_IT
 705              		.syntax unified
 706              		.thumb
 707              		.thumb_func
 708              		.fpu fpv4-sp-d16
 710              	HAL_ADC_Stop_IT:
 711              		@ args = 0, pretend = 0, frame = 0
 712              		@ frame_needed = 0, uses_anonymous_args = 0
 713              		@ link register save eliminated.
 714 0000 90F83C30 		ldrb	r3, [r0, #60]	@ zero_extendqisi2
 715 0004 012B     		cmp	r3, #1
 716 0006 1CD0     		beq	.L143
 717 0008 0368     		ldr	r3, [r0]
 718 000a 9A68     		ldr	r2, [r3, #8]
 719 000c 0121     		movs	r1, #1
 720 000e 22F00102 		bic	r2, r2, #1
 721 0012 80F83C10 		strb	r1, [r0, #60]
 722 0016 9A60     		str	r2, [r3, #8]
 723 0018 9A68     		ldr	r2, [r3, #8]
 724 001a D207     		lsls	r2, r2, #31
 725 001c 0CD4     		bmi	.L142
 726 001e 5A68     		ldr	r2, [r3, #4]
 727 0020 22F08062 		bic	r2, r2, #67108864
 728 0024 22F02002 		bic	r2, r2, #32
 729 0028 5A60     		str	r2, [r3, #4]
 730 002a 036C     		ldr	r3, [r0, #64]
 731 002c 23F48853 		bic	r3, r3, #4352
 732 0030 23F00103 		bic	r3, r3, #1
 733 0034 0B43     		orrs	r3, r3, r1
 734 0036 0364     		str	r3, [r0, #64]
 735              	.L142:
 736 0038 0023     		movs	r3, #0
 737 003a 80F83C30 		strb	r3, [r0, #60]
 738 003e 1846     		mov	r0, r3
 739 0040 7047     		bx	lr
 740              	.L143:
 741 0042 0220     		movs	r0, #2
 742 0044 7047     		bx	lr
 744 0046 00BF     		.section	.text.HAL_ADC_Start_DMA,"ax",%progbits
 745              		.align	1
 746              		.p2align 2,,3
 747              		.global	HAL_ADC_Start_DMA
 748              		.syntax unified
 749              		.thumb
 750              		.thumb_func
 751              		.fpu fpv4-sp-d16
 753              	HAL_ADC_Start_DMA:
 754              		@ args = 0, pretend = 0, frame = 8
 755              		@ frame_needed = 0, uses_anonymous_args = 0
 756 0000 F0B5     		push	{r4, r5, r6, r7, lr}
 757 0002 90F83C30 		ldrb	r3, [r0, #60]	@ zero_extendqisi2
 758 0006 83B0     		sub	sp, sp, #12
 759 0008 0024     		movs	r4, #0
 760 000a 012B     		cmp	r3, #1
 761 000c 0194     		str	r4, [sp, #4]
 762 000e 7ED0     		beq	.L157
ARM GAS  D:\Programs\cygwin64\tmp\ccuUm5pQ.s 			page 14


 763 0010 0568     		ldr	r5, [r0]
 764 0012 AB68     		ldr	r3, [r5, #8]
 765 0014 0124     		movs	r4, #1
 766 0016 DF07     		lsls	r7, r3, #31
 767 0018 80F83C40 		strb	r4, [r0, #60]
 768 001c 14D4     		bmi	.L149
 769 001e 3F4B     		ldr	r3, .L171
 770 0020 3F4E     		ldr	r6, .L171+4
 771 0022 1C68     		ldr	r4, [r3]
 772 0024 AB68     		ldr	r3, [r5, #8]
 773 0026 A6FB0464 		umull	r6, r4, r6, r4
 774 002a A40C     		lsrs	r4, r4, #18
 775 002c 43F00103 		orr	r3, r3, #1
 776 0030 04EB4404 		add	r4, r4, r4, lsl #1
 777 0034 AB60     		str	r3, [r5, #8]
 778 0036 0194     		str	r4, [sp, #4]
 779 0038 019B     		ldr	r3, [sp, #4]
 780 003a 2BB1     		cbz	r3, .L149
 781              	.L150:
 782 003c 019C     		ldr	r4, [sp, #4]
 783 003e 013C     		subs	r4, r4, #1
 784 0040 0194     		str	r4, [sp, #4]
 785 0042 019C     		ldr	r4, [sp, #4]
 786 0044 002C     		cmp	r4, #0
 787 0046 F9D1     		bne	.L150
 788              	.L149:
 789 0048 AB68     		ldr	r3, [r5, #8]
 790 004a DE07     		lsls	r6, r3, #31
 791 004c 43D5     		bpl	.L148
 792 004e 046C     		ldr	r4, [r0, #64]
 793 0050 24F4E064 		bic	r4, r4, #1792
 794 0054 24F00104 		bic	r4, r4, #1
 795 0058 44F48074 		orr	r4, r4, #256
 796 005c 0464     		str	r4, [r0, #64]
 797 005e 6B68     		ldr	r3, [r5, #4]
 798 0060 5C05     		lsls	r4, r3, #21
 799 0062 05D5     		bpl	.L151
 800 0064 036C     		ldr	r3, [r0, #64]
 801 0066 23F44053 		bic	r3, r3, #12288
 802 006a 43F48053 		orr	r3, r3, #4096
 803 006e 0364     		str	r3, [r0, #64]
 804              	.L151:
 805 0070 036C     		ldr	r3, [r0, #64]
 806 0072 2C4E     		ldr	r6, .L171+8
 807 0074 13F48053 		ands	r3, r3, #4096
 808 0078 1CBF     		itt	ne
 809 007a 436C     		ldrne	r3, [r0, #68]
 810 007c 23F00603 		bicne	r3, r3, #6
 811 0080 4364     		str	r3, [r0, #68]
 812 0082 0446     		mov	r4, r0
 813 0084 806B     		ldr	r0, [r0, #56]
 814 0086 1346     		mov	r3, r2
 815 0088 0027     		movs	r7, #0
 816 008a 274A     		ldr	r2, .L171+12
 817 008c 84F83C70 		strb	r7, [r4, #60]
 818 0090 C663     		str	r6, [r0, #60]
 819 0092 0264     		str	r2, [r0, #64]
ARM GAS  D:\Programs\cygwin64\tmp\ccuUm5pQ.s 			page 15


 820 0094 254E     		ldr	r6, .L171+16
 821 0096 C664     		str	r6, [r0, #76]
 822 0098 6FF02202 		mvn	r2, #34
 823 009c 2A60     		str	r2, [r5]
 824 009e 6E68     		ldr	r6, [r5, #4]
 825 00a0 46F08066 		orr	r6, r6, #67108864
 826 00a4 6E60     		str	r6, [r5, #4]
 827 00a6 AE68     		ldr	r6, [r5, #8]
 828 00a8 46F48076 		orr	r6, r6, #256
 829 00ac 0A46     		mov	r2, r1
 830 00ae AE60     		str	r6, [r5, #8]
 831 00b0 05F14C01 		add	r1, r5, #76
 832 00b4 FFF7FEFF 		bl	HAL_DMA_Start_IT
 833 00b8 1D4B     		ldr	r3, .L171+20
 834 00ba 5A68     		ldr	r2, [r3, #4]
 835 00bc D006     		lsls	r0, r2, #27
 836 00be 0DD1     		bne	.L154
 837 00c0 2268     		ldr	r2, [r4]
 838 00c2 1C49     		ldr	r1, .L171+24
 839 00c4 8A42     		cmp	r2, r1
 840 00c6 19D0     		beq	.L155
 841 00c8 01F58071 		add	r1, r1, #256
 842 00cc 8A42     		cmp	r2, r1
 843 00ce 12D0     		beq	.L169
 844 00d0 1949     		ldr	r1, .L171+28
 845 00d2 8A42     		cmp	r2, r1
 846 00d4 1ED0     		beq	.L170
 847              	.L148:
 848 00d6 0020     		movs	r0, #0
 849              	.L145:
 850 00d8 03B0     		add	sp, sp, #12
 851              		@ sp needed
 852 00da F0BD     		pop	{r4, r5, r6, r7, pc}
 853              	.L154:
 854 00dc 2368     		ldr	r3, [r4]
 855 00de 154A     		ldr	r2, .L171+24
 856 00e0 9342     		cmp	r3, r2
 857 00e2 F8D1     		bne	.L148
 858 00e4 9868     		ldr	r0, [r3, #8]
 859 00e6 10F04050 		ands	r0, r0, #805306368
 860 00ea F4D1     		bne	.L148
 861 00ec 9A68     		ldr	r2, [r3, #8]
 862 00ee 42F08042 		orr	r2, r2, #1073741824
 863 00f2 9A60     		str	r2, [r3, #8]
 864 00f4 F0E7     		b	.L145
 865              	.L169:
 866 00f6 5B68     		ldr	r3, [r3, #4]
 867 00f8 D906     		lsls	r1, r3, #27
 868 00fa ECD1     		bne	.L148
 869              	.L155:
 870 00fc 9068     		ldr	r0, [r2, #8]
 871 00fe 10F04050 		ands	r0, r0, #805306368
 872 0102 E8D1     		bne	.L148
 873 0104 9368     		ldr	r3, [r2, #8]
 874 0106 43F08043 		orr	r3, r3, #1073741824
 875 010a 9360     		str	r3, [r2, #8]
 876 010c E4E7     		b	.L145
ARM GAS  D:\Programs\cygwin64\tmp\ccuUm5pQ.s 			page 16


 877              	.L157:
 878 010e 0220     		movs	r0, #2
 879 0110 03B0     		add	sp, sp, #12
 880              		@ sp needed
 881 0112 F0BD     		pop	{r4, r5, r6, r7, pc}
 882              	.L170:
 883 0114 5B68     		ldr	r3, [r3, #4]
 884 0116 DB06     		lsls	r3, r3, #27
 885 0118 DDD4     		bmi	.L148
 886 011a EFE7     		b	.L155
 887              	.L172:
 888              		.align	2
 889              	.L171:
 890 011c 00000000 		.word	SystemCoreClock
 891 0120 83DE1B43 		.word	1125899907
 892 0124 00000000 		.word	ADC_DMAConvCplt
 893 0128 00000000 		.word	ADC_DMAHalfConvCplt
 894 012c 00000000 		.word	ADC_DMAError
 895 0130 00230140 		.word	1073816320
 896 0134 00200140 		.word	1073815552
 897 0138 00220140 		.word	1073816064
 899              		.section	.text.HAL_ADC_Stop_DMA,"ax",%progbits
 900              		.align	1
 901              		.p2align 2,,3
 902              		.global	HAL_ADC_Stop_DMA
 903              		.syntax unified
 904              		.thumb
 905              		.thumb_func
 906              		.fpu fpv4-sp-d16
 908              	HAL_ADC_Stop_DMA:
 909              		@ args = 0, pretend = 0, frame = 0
 910              		@ frame_needed = 0, uses_anonymous_args = 0
 911 0000 90F83C30 		ldrb	r3, [r0, #60]	@ zero_extendqisi2
 912 0004 012B     		cmp	r3, #1
 913 0006 29D0     		beq	.L176
 914 0008 0368     		ldr	r3, [r0]
 915 000a 9A68     		ldr	r2, [r3, #8]
 916 000c 0121     		movs	r1, #1
 917 000e 22F00102 		bic	r2, r2, #1
 918 0012 10B5     		push	{r4, lr}
 919 0014 80F83C10 		strb	r1, [r0, #60]
 920 0018 9A60     		str	r2, [r3, #8]
 921 001a 9A68     		ldr	r2, [r3, #8]
 922 001c D207     		lsls	r2, r2, #31
 923 001e 0446     		mov	r4, r0
 924 0020 04D5     		bpl	.L182
 925 0022 0023     		movs	r3, #0
 926 0024 0020     		movs	r0, #0
 927 0026 84F83C30 		strb	r3, [r4, #60]
 928 002a 10BD     		pop	{r4, pc}
 929              	.L182:
 930 002c 9A68     		ldr	r2, [r3, #8]
 931 002e 806B     		ldr	r0, [r0, #56]
 932 0030 22F48072 		bic	r2, r2, #256
 933 0034 9A60     		str	r2, [r3, #8]
 934 0036 FFF7FEFF 		bl	HAL_DMA_Abort
 935 003a 2268     		ldr	r2, [r4]
ARM GAS  D:\Programs\cygwin64\tmp\ccuUm5pQ.s 			page 17


 936 003c 5368     		ldr	r3, [r2, #4]
 937 003e 23F08063 		bic	r3, r3, #67108864
 938 0042 5360     		str	r3, [r2, #4]
 939 0044 236C     		ldr	r3, [r4, #64]
 940 0046 23F48853 		bic	r3, r3, #4352
 941 004a 23F00103 		bic	r3, r3, #1
 942 004e 43F00103 		orr	r3, r3, #1
 943 0052 2364     		str	r3, [r4, #64]
 944 0054 0023     		movs	r3, #0
 945 0056 84F83C30 		strb	r3, [r4, #60]
 946 005a 10BD     		pop	{r4, pc}
 947              	.L176:
 948 005c 0220     		movs	r0, #2
 949 005e 7047     		bx	lr
 951              		.section	.text.HAL_ADC_GetValue,"ax",%progbits
 952              		.align	1
 953              		.p2align 2,,3
 954              		.global	HAL_ADC_GetValue
 955              		.syntax unified
 956              		.thumb
 957              		.thumb_func
 958              		.fpu fpv4-sp-d16
 960              	HAL_ADC_GetValue:
 961              		@ args = 0, pretend = 0, frame = 0
 962              		@ frame_needed = 0, uses_anonymous_args = 0
 963              		@ link register save eliminated.
 964 0000 0368     		ldr	r3, [r0]
 965 0002 D86C     		ldr	r0, [r3, #76]
 966 0004 7047     		bx	lr
 968 0006 00BF     		.section	.text.HAL_ADC_ConvCpltCallback,"ax",%progbits
 969              		.align	1
 970              		.p2align 2,,3
 971              		.weak	HAL_ADC_ConvCpltCallback
 972              		.syntax unified
 973              		.thumb
 974              		.thumb_func
 975              		.fpu fpv4-sp-d16
 977              	HAL_ADC_ConvCpltCallback:
 978              		@ args = 0, pretend = 0, frame = 0
 979              		@ frame_needed = 0, uses_anonymous_args = 0
 980              		@ link register save eliminated.
 981 0000 7047     		bx	lr
 983 0002 00BF     		.section	.text.HAL_ADC_ConvHalfCpltCallback,"ax",%progbits
 984              		.align	1
 985              		.p2align 2,,3
 986              		.weak	HAL_ADC_ConvHalfCpltCallback
 987              		.syntax unified
 988              		.thumb
 989              		.thumb_func
 990              		.fpu fpv4-sp-d16
 992              	HAL_ADC_ConvHalfCpltCallback:
 993              		@ args = 0, pretend = 0, frame = 0
 994              		@ frame_needed = 0, uses_anonymous_args = 0
 995              		@ link register save eliminated.
 996 0000 7047     		bx	lr
 998 0002 00BF     		.section	.text.ADC_DMAHalfConvCplt,"ax",%progbits
 999              		.align	1
ARM GAS  D:\Programs\cygwin64\tmp\ccuUm5pQ.s 			page 18


 1000              		.p2align 2,,3
 1001              		.syntax unified
 1002              		.thumb
 1003              		.thumb_func
 1004              		.fpu fpv4-sp-d16
 1006              	ADC_DMAHalfConvCplt:
 1007              		@ args = 0, pretend = 0, frame = 0
 1008              		@ frame_needed = 0, uses_anonymous_args = 0
 1009 0000 08B5     		push	{r3, lr}
 1010 0002 806B     		ldr	r0, [r0, #56]
 1011 0004 FFF7FEFF 		bl	HAL_ADC_ConvHalfCpltCallback
 1012 0008 08BD     		pop	{r3, pc}
 1014 000a 00BF     		.section	.text.HAL_ADC_LevelOutOfWindowCallback,"ax",%progbits
 1015              		.align	1
 1016              		.p2align 2,,3
 1017              		.weak	HAL_ADC_LevelOutOfWindowCallback
 1018              		.syntax unified
 1019              		.thumb
 1020              		.thumb_func
 1021              		.fpu fpv4-sp-d16
 1023              	HAL_ADC_LevelOutOfWindowCallback:
 1024              		@ args = 0, pretend = 0, frame = 0
 1025              		@ frame_needed = 0, uses_anonymous_args = 0
 1026              		@ link register save eliminated.
 1027 0000 7047     		bx	lr
 1029 0002 00BF     		.section	.text.HAL_ADC_ErrorCallback,"ax",%progbits
 1030              		.align	1
 1031              		.p2align 2,,3
 1032              		.weak	HAL_ADC_ErrorCallback
 1033              		.syntax unified
 1034              		.thumb
 1035              		.thumb_func
 1036              		.fpu fpv4-sp-d16
 1038              	HAL_ADC_ErrorCallback:
 1039              		@ args = 0, pretend = 0, frame = 0
 1040              		@ frame_needed = 0, uses_anonymous_args = 0
 1041              		@ link register save eliminated.
 1042 0000 7047     		bx	lr
 1044 0002 00BF     		.section	.text.HAL_ADC_IRQHandler,"ax",%progbits
 1045              		.align	1
 1046              		.p2align 2,,3
 1047              		.global	HAL_ADC_IRQHandler
 1048              		.syntax unified
 1049              		.thumb
 1050              		.thumb_func
 1051              		.fpu fpv4-sp-d16
 1053              	HAL_ADC_IRQHandler:
 1054              		@ args = 0, pretend = 0, frame = 0
 1055              		@ frame_needed = 0, uses_anonymous_args = 0
 1056 0000 38B5     		push	{r3, r4, r5, lr}
 1057 0002 0368     		ldr	r3, [r0]
 1058 0004 1A68     		ldr	r2, [r3]
 1059 0006 5968     		ldr	r1, [r3, #4]
 1060 0008 0446     		mov	r4, r0
 1061 000a 9007     		lsls	r0, r2, #30
 1062 000c 01D5     		bpl	.L191
 1063 000e 8A06     		lsls	r2, r1, #26
ARM GAS  D:\Programs\cygwin64\tmp\ccuUm5pQ.s 			page 19


 1064 0010 53D4     		bmi	.L239
 1065              	.L191:
 1066 0012 1A68     		ldr	r2, [r3]
 1067 0014 5968     		ldr	r1, [r3, #4]
 1068 0016 5207     		lsls	r2, r2, #29
 1069 0018 01D5     		bpl	.L197
 1070 001a 0D06     		lsls	r5, r1, #24
 1071 001c 1BD4     		bmi	.L240
 1072              	.L197:
 1073 001e 1A68     		ldr	r2, [r3]
 1074 0020 5968     		ldr	r1, [r3, #4]
 1075 0022 D007     		lsls	r0, r2, #31
 1076 0024 01D5     		bpl	.L203
 1077 0026 4A06     		lsls	r2, r1, #25
 1078 0028 06D4     		bmi	.L241
 1079              	.L203:
 1080 002a 1A68     		ldr	r2, [r3]
 1081 002c 5968     		ldr	r1, [r3, #4]
 1082 002e 9006     		lsls	r0, r2, #26
 1083 0030 01D5     		bpl	.L190
 1084 0032 4A01     		lsls	r2, r1, #5
 1085 0034 69D4     		bmi	.L242
 1086              	.L190:
 1087 0036 38BD     		pop	{r3, r4, r5, pc}
 1088              	.L241:
 1089 0038 1A68     		ldr	r2, [r3]
 1090 003a D507     		lsls	r5, r2, #31
 1091 003c F5D5     		bpl	.L203
 1092 003e 236C     		ldr	r3, [r4, #64]
 1093 0040 43F48033 		orr	r3, r3, #65536
 1094 0044 2364     		str	r3, [r4, #64]
 1095 0046 2046     		mov	r0, r4
 1096 0048 FFF7FEFF 		bl	HAL_ADC_LevelOutOfWindowCallback
 1097 004c 2368     		ldr	r3, [r4]
 1098 004e 6FF00102 		mvn	r2, #1
 1099 0052 1A60     		str	r2, [r3]
 1100 0054 E9E7     		b	.L203
 1101              	.L240:
 1102 0056 226C     		ldr	r2, [r4, #64]
 1103 0058 D006     		lsls	r0, r2, #27
 1104 005a 03D4     		bmi	.L198
 1105 005c 226C     		ldr	r2, [r4, #64]
 1106 005e 42F40052 		orr	r2, r2, #8192
 1107 0062 2264     		str	r2, [r4, #64]
 1108              	.L198:
 1109 0064 9A68     		ldr	r2, [r3, #8]
 1110 0066 12F4401F 		tst	r2, #3145728
 1111 006a 1ED1     		bne	.L200
 1112 006c 9A6B     		ldr	r2, [r3, #56]
 1113 006e 12F4401F 		tst	r2, #3145728
 1114 0072 02D0     		beq	.L201
 1115 0074 9A68     		ldr	r2, [r3, #8]
 1116 0076 5105     		lsls	r1, r2, #21
 1117 0078 17D4     		bmi	.L200
 1118              	.L201:
 1119 007a 5A68     		ldr	r2, [r3, #4]
 1120 007c 5205     		lsls	r2, r2, #21
ARM GAS  D:\Programs\cygwin64\tmp\ccuUm5pQ.s 			page 20


 1121 007e 14D4     		bmi	.L200
 1122 0080 9A68     		ldr	r2, [r3, #8]
 1123 0082 12F0405F 		tst	r2, #805306368
 1124 0086 10D1     		bne	.L200
 1125 0088 227E     		ldrb	r2, [r4, #24]	@ zero_extendqisi2
 1126 008a 72B9     		cbnz	r2, .L200
 1127 008c 5A68     		ldr	r2, [r3, #4]
 1128 008e 22F08002 		bic	r2, r2, #128
 1129 0092 5A60     		str	r2, [r3, #4]
 1130 0094 236C     		ldr	r3, [r4, #64]
 1131 0096 23F48053 		bic	r3, r3, #4096
 1132 009a 2364     		str	r3, [r4, #64]
 1133 009c 236C     		ldr	r3, [r4, #64]
 1134 009e DD05     		lsls	r5, r3, #23
 1135 00a0 03D4     		bmi	.L200
 1136 00a2 236C     		ldr	r3, [r4, #64]
 1137 00a4 43F00103 		orr	r3, r3, #1
 1138 00a8 2364     		str	r3, [r4, #64]
 1139              	.L200:
 1140 00aa 2046     		mov	r0, r4
 1141 00ac FFF7FEFF 		bl	HAL_ADCEx_InjectedConvCpltCallback
 1142 00b0 2368     		ldr	r3, [r4]
 1143 00b2 6FF00C02 		mvn	r2, #12
 1144 00b6 1A60     		str	r2, [r3]
 1145 00b8 B1E7     		b	.L197
 1146              	.L239:
 1147 00ba 226C     		ldr	r2, [r4, #64]
 1148 00bc D506     		lsls	r5, r2, #27
 1149 00be 03D4     		bmi	.L192
 1150 00c0 226C     		ldr	r2, [r4, #64]
 1151 00c2 42F40072 		orr	r2, r2, #512
 1152 00c6 2264     		str	r2, [r4, #64]
 1153              	.L192:
 1154 00c8 9A68     		ldr	r2, [r3, #8]
 1155 00ca 12F0405F 		tst	r2, #805306368
 1156 00ce 14D1     		bne	.L194
 1157 00d0 227E     		ldrb	r2, [r4, #24]	@ zero_extendqisi2
 1158 00d2 92B9     		cbnz	r2, .L194
 1159 00d4 DA6A     		ldr	r2, [r3, #44]
 1160 00d6 12F4700F 		tst	r2, #15728640
 1161 00da 23D1     		bne	.L243
 1162              	.L196:
 1163 00dc 5A68     		ldr	r2, [r3, #4]
 1164 00de 22F02002 		bic	r2, r2, #32
 1165 00e2 5A60     		str	r2, [r3, #4]
 1166 00e4 236C     		ldr	r3, [r4, #64]
 1167 00e6 23F48073 		bic	r3, r3, #256
 1168 00ea 2364     		str	r3, [r4, #64]
 1169 00ec 236C     		ldr	r3, [r4, #64]
 1170 00ee D904     		lsls	r1, r3, #19
 1171 00f0 03D4     		bmi	.L194
 1172 00f2 236C     		ldr	r3, [r4, #64]
 1173 00f4 43F00103 		orr	r3, r3, #1
 1174 00f8 2364     		str	r3, [r4, #64]
 1175              	.L194:
 1176 00fa 2046     		mov	r0, r4
 1177 00fc FFF7FEFF 		bl	HAL_ADC_ConvCpltCallback
ARM GAS  D:\Programs\cygwin64\tmp\ccuUm5pQ.s 			page 21


 1178 0100 2368     		ldr	r3, [r4]
 1179 0102 6FF01202 		mvn	r2, #18
 1180 0106 1A60     		str	r2, [r3]
 1181 0108 83E7     		b	.L191
 1182              	.L242:
 1183 010a 626C     		ldr	r2, [r4, #68]
 1184 010c 6FF02005 		mvn	r5, #32
 1185 0110 42F00202 		orr	r2, r2, #2
 1186 0114 6264     		str	r2, [r4, #68]
 1187 0116 2046     		mov	r0, r4
 1188 0118 1D60     		str	r5, [r3]
 1189 011a FFF7FEFF 		bl	HAL_ADC_ErrorCallback
 1190 011e 2368     		ldr	r3, [r4]
 1191 0120 1D60     		str	r5, [r3]
 1192 0122 38BD     		pop	{r3, r4, r5, pc}
 1193              	.L243:
 1194 0124 9A68     		ldr	r2, [r3, #8]
 1195 0126 5005     		lsls	r0, r2, #21
 1196 0128 E7D4     		bmi	.L194
 1197 012a D7E7     		b	.L196
 1199              		.section	.text.ADC_DMAError,"ax",%progbits
 1200              		.align	1
 1201              		.p2align 2,,3
 1202              		.syntax unified
 1203              		.thumb
 1204              		.thumb_func
 1205              		.fpu fpv4-sp-d16
 1207              	ADC_DMAError:
 1208              		@ args = 0, pretend = 0, frame = 0
 1209              		@ frame_needed = 0, uses_anonymous_args = 0
 1210 0000 806B     		ldr	r0, [r0, #56]
 1211 0002 08B5     		push	{r3, lr}
 1212 0004 4023     		movs	r3, #64
 1213 0006 0364     		str	r3, [r0, #64]
 1214 0008 436C     		ldr	r3, [r0, #68]
 1215 000a 43F00403 		orr	r3, r3, #4
 1216 000e 4364     		str	r3, [r0, #68]
 1217 0010 FFF7FEFF 		bl	HAL_ADC_ErrorCallback
 1218 0014 08BD     		pop	{r3, pc}
 1220 0016 00BF     		.section	.text.ADC_DMAConvCplt,"ax",%progbits
 1221              		.align	1
 1222              		.p2align 2,,3
 1223              		.syntax unified
 1224              		.thumb
 1225              		.thumb_func
 1226              		.fpu fpv4-sp-d16
 1228              	ADC_DMAConvCplt:
 1229              		@ args = 0, pretend = 0, frame = 0
 1230              		@ frame_needed = 0, uses_anonymous_args = 0
 1231 0000 836B     		ldr	r3, [r0, #56]
 1232 0002 1A6C     		ldr	r2, [r3, #64]
 1233 0004 12F0500F 		tst	r2, #80
 1234 0008 10B5     		push	{r4, lr}
 1235 000a 1A6C     		ldr	r2, [r3, #64]
 1236 000c 23D1     		bne	.L247
 1237 000e 42F40072 		orr	r2, r2, #512
 1238 0012 1968     		ldr	r1, [r3]
ARM GAS  D:\Programs\cygwin64\tmp\ccuUm5pQ.s 			page 22


 1239 0014 1A64     		str	r2, [r3, #64]
 1240 0016 8A68     		ldr	r2, [r1, #8]
 1241 0018 12F0405F 		tst	r2, #805306368
 1242 001c 17D1     		bne	.L249
 1243 001e 1A7E     		ldrb	r2, [r3, #24]	@ zero_extendqisi2
 1244 0020 AAB9     		cbnz	r2, .L249
 1245 0022 CA6A     		ldr	r2, [r1, #44]
 1246 0024 12F4700F 		tst	r2, #15728640
 1247 0028 02D0     		beq	.L251
 1248 002a 8A68     		ldr	r2, [r1, #8]
 1249 002c 5005     		lsls	r0, r2, #21
 1250 002e 0ED4     		bmi	.L249
 1251              	.L251:
 1252 0030 4A68     		ldr	r2, [r1, #4]
 1253 0032 22F02002 		bic	r2, r2, #32
 1254 0036 4A60     		str	r2, [r1, #4]
 1255 0038 1A6C     		ldr	r2, [r3, #64]
 1256 003a 22F48072 		bic	r2, r2, #256
 1257 003e 1A64     		str	r2, [r3, #64]
 1258 0040 1A6C     		ldr	r2, [r3, #64]
 1259 0042 D104     		lsls	r1, r2, #19
 1260 0044 03D4     		bmi	.L249
 1261 0046 1A6C     		ldr	r2, [r3, #64]
 1262 0048 42F00102 		orr	r2, r2, #1
 1263 004c 1A64     		str	r2, [r3, #64]
 1264              	.L249:
 1265 004e 1846     		mov	r0, r3
 1266 0050 FFF7FEFF 		bl	HAL_ADC_ConvCpltCallback
 1267 0054 10BD     		pop	{r4, pc}
 1268              	.L247:
 1269 0056 D206     		lsls	r2, r2, #27
 1270 0058 04D4     		bmi	.L258
 1271 005a 9B6B     		ldr	r3, [r3, #56]
 1272 005c BDE81040 		pop	{r4, lr}
 1273 0060 DB6C     		ldr	r3, [r3, #76]
 1274 0062 1847     		bx	r3	@ indirect register sibling call
 1275              	.L258:
 1276 0064 1846     		mov	r0, r3
 1277 0066 FFF7FEFF 		bl	HAL_ADC_ErrorCallback
 1278 006a 10BD     		pop	{r4, pc}
 1280              		.section	.text.HAL_ADC_ConfigChannel,"ax",%progbits
 1281              		.align	1
 1282              		.p2align 2,,3
 1283              		.global	HAL_ADC_ConfigChannel
 1284              		.syntax unified
 1285              		.thumb
 1286              		.thumb_func
 1287              		.fpu fpv4-sp-d16
 1289              	HAL_ADC_ConfigChannel:
 1290              		@ args = 0, pretend = 0, frame = 8
 1291              		@ frame_needed = 0, uses_anonymous_args = 0
 1292              		@ link register save eliminated.
 1293 0000 F0B4     		push	{r4, r5, r6, r7}
 1294 0002 90F83C30 		ldrb	r3, [r0, #60]	@ zero_extendqisi2
 1295 0006 82B0     		sub	sp, sp, #8
 1296 0008 0022     		movs	r2, #0
 1297 000a 012B     		cmp	r3, #1
ARM GAS  D:\Programs\cygwin64\tmp\ccuUm5pQ.s 			page 23


 1298 000c 0192     		str	r2, [sp, #4]
 1299 000e 00F09480 		beq	.L274
 1300 0012 0D68     		ldr	r5, [r1]
 1301 0014 8A68     		ldr	r2, [r1, #8]
 1302 0016 0368     		ldr	r3, [r0]
 1303 0018 0124     		movs	r4, #1
 1304 001a 092D     		cmp	r5, #9
 1305 001c AFB2     		uxth	r7, r5
 1306 001e 80F83C40 		strb	r4, [r0, #60]
 1307 0022 29D8     		bhi	.L280
 1308 0024 1C69     		ldr	r4, [r3, #16]
 1309 0026 05EB4506 		add	r6, r5, r5, lsl #1
 1310 002a 4FF0070C 		mov	ip, #7
 1311 002e 0CFA06FC 		lsl	ip, ip, r6
 1312 0032 24EA0C04 		bic	r4, r4, ip
 1313 0036 1C61     		str	r4, [r3, #16]
 1314 0038 1C69     		ldr	r4, [r3, #16]
 1315 003a 02FA06F6 		lsl	r6, r2, r6
 1316 003e 2643     		orrs	r6, r6, r4
 1317 0040 1E61     		str	r6, [r3, #16]
 1318 0042 4E68     		ldr	r6, [r1, #4]
 1319 0044 062E     		cmp	r6, #6
 1320 0046 06EB8602 		add	r2, r6, r6, lsl #2
 1321 004a 2AD8     		bhi	.L263
 1322              	.L282:
 1323 004c 596B     		ldr	r1, [r3, #52]
 1324 004e 053A     		subs	r2, r2, #5
 1325 0050 1F24     		movs	r4, #31
 1326 0052 9440     		lsls	r4, r4, r2
 1327 0054 21EA0401 		bic	r1, r1, r4
 1328 0058 5963     		str	r1, [r3, #52]
 1329 005a 596B     		ldr	r1, [r3, #52]
 1330 005c 07FA02F2 		lsl	r2, r7, r2
 1331 0060 0A43     		orrs	r2, r2, r1
 1332 0062 5A63     		str	r2, [r3, #52]
 1333              	.L264:
 1334 0064 3D4A     		ldr	r2, .L285
 1335 0066 9342     		cmp	r3, r2
 1336 0068 2DD0     		beq	.L281
 1337              	.L267:
 1338 006a 0023     		movs	r3, #0
 1339 006c 80F83C30 		strb	r3, [r0, #60]
 1340 0070 1846     		mov	r0, r3
 1341 0072 02B0     		add	sp, sp, #8
 1342              		@ sp needed
 1343 0074 F0BC     		pop	{r4, r5, r6, r7}
 1344 0076 7047     		bx	lr
 1345              	.L280:
 1346 0078 07EB4706 		add	r6, r7, r7, lsl #1
 1347 007c DC68     		ldr	r4, [r3, #12]
 1348 007e 1E3E     		subs	r6, r6, #30
 1349 0080 4FF0070C 		mov	ip, #7
 1350 0084 0CFA06FC 		lsl	ip, ip, r6
 1351 0088 24EA0C04 		bic	r4, r4, ip
 1352 008c DC60     		str	r4, [r3, #12]
 1353 008e DC68     		ldr	r4, [r3, #12]
 1354 0090 02FA06F6 		lsl	r6, r2, r6
ARM GAS  D:\Programs\cygwin64\tmp\ccuUm5pQ.s 			page 24


 1355 0094 2643     		orrs	r6, r6, r4
 1356 0096 DE60     		str	r6, [r3, #12]
 1357 0098 4E68     		ldr	r6, [r1, #4]
 1358 009a 062E     		cmp	r6, #6
 1359 009c 06EB8602 		add	r2, r6, r6, lsl #2
 1360 00a0 D4D9     		bls	.L282
 1361              	.L263:
 1362 00a2 0C2E     		cmp	r6, #12
 1363 00a4 31D8     		bhi	.L265
 1364 00a6 A2F12304 		sub	r4, r2, #35
 1365 00aa 1F21     		movs	r1, #31
 1366 00ac 1A6B     		ldr	r2, [r3, #48]
 1367 00ae A140     		lsls	r1, r1, r4
 1368 00b0 22EA0102 		bic	r2, r2, r1
 1369 00b4 1A63     		str	r2, [r3, #48]
 1370 00b6 196B     		ldr	r1, [r3, #48]
 1371 00b8 07FA04F2 		lsl	r2, r7, r4
 1372 00bc 0A43     		orrs	r2, r2, r1
 1373 00be 1A63     		str	r2, [r3, #48]
 1374 00c0 264A     		ldr	r2, .L285
 1375 00c2 9342     		cmp	r3, r2
 1376 00c4 D1D1     		bne	.L267
 1377              	.L281:
 1378 00c6 122D     		cmp	r5, #18
 1379 00c8 2DD0     		beq	.L283
 1380 00ca 254B     		ldr	r3, .L285+4
 1381 00cc 9D42     		cmp	r5, r3
 1382 00ce 38D1     		bne	.L284
 1383 00d0 244A     		ldr	r2, .L285+8
 1384 00d2 254B     		ldr	r3, .L285+12
 1385 00d4 5168     		ldr	r1, [r2, #4]
 1386 00d6 254C     		ldr	r4, .L285+16
 1387 00d8 21F48001 		bic	r1, r1, #4194304
 1388 00dc 5160     		str	r1, [r2, #4]
 1389 00de 5168     		ldr	r1, [r2, #4]
 1390 00e0 41F40001 		orr	r1, r1, #8388608
 1391 00e4 5160     		str	r1, [r2, #4]
 1392 00e6 1B68     		ldr	r3, [r3]
 1393 00e8 A4FB0323 		umull	r2, r3, r4, r3
 1394 00ec 9B0C     		lsrs	r3, r3, #18
 1395 00ee 03EB8303 		add	r3, r3, r3, lsl #2
 1396 00f2 5B00     		lsls	r3, r3, #1
 1397 00f4 0193     		str	r3, [sp, #4]
 1398 00f6 019B     		ldr	r3, [sp, #4]
 1399 00f8 002B     		cmp	r3, #0
 1400 00fa B6D0     		beq	.L267
 1401              	.L271:
 1402 00fc 019B     		ldr	r3, [sp, #4]
 1403 00fe 013B     		subs	r3, r3, #1
 1404 0100 0193     		str	r3, [sp, #4]
 1405 0102 019B     		ldr	r3, [sp, #4]
 1406 0104 002B     		cmp	r3, #0
 1407 0106 F9D1     		bne	.L271
 1408 0108 AFE7     		b	.L267
 1409              	.L265:
 1410 010a A2F14101 		sub	r1, r2, #65
 1411 010e 1F24     		movs	r4, #31
ARM GAS  D:\Programs\cygwin64\tmp\ccuUm5pQ.s 			page 25


 1412 0110 DA6A     		ldr	r2, [r3, #44]
 1413 0112 8C40     		lsls	r4, r4, r1
 1414 0114 22EA0402 		bic	r2, r2, r4
 1415 0118 DA62     		str	r2, [r3, #44]
 1416 011a DC6A     		ldr	r4, [r3, #44]
 1417 011c 07FA01F2 		lsl	r2, r7, r1
 1418 0120 2243     		orrs	r2, r2, r4
 1419 0122 DA62     		str	r2, [r3, #44]
 1420 0124 9EE7     		b	.L264
 1421              	.L283:
 1422 0126 0F4B     		ldr	r3, .L285+8
 1423 0128 5A68     		ldr	r2, [r3, #4]
 1424 012a 22F40002 		bic	r2, r2, #8388608
 1425 012e 5A60     		str	r2, [r3, #4]
 1426 0130 5A68     		ldr	r2, [r3, #4]
 1427 0132 42F48002 		orr	r2, r2, #4194304
 1428 0136 5A60     		str	r2, [r3, #4]
 1429 0138 97E7     		b	.L267
 1430              	.L274:
 1431 013a 0220     		movs	r0, #2
 1432 013c 02B0     		add	sp, sp, #8
 1433              		@ sp needed
 1434 013e F0BC     		pop	{r4, r5, r6, r7}
 1435 0140 7047     		bx	lr
 1436              	.L284:
 1437 0142 112D     		cmp	r5, #17
 1438 0144 91D1     		bne	.L267
 1439 0146 074B     		ldr	r3, .L285+8
 1440 0148 5A68     		ldr	r2, [r3, #4]
 1441 014a 22F48002 		bic	r2, r2, #4194304
 1442 014e 5A60     		str	r2, [r3, #4]
 1443 0150 5A68     		ldr	r2, [r3, #4]
 1444 0152 42F40002 		orr	r2, r2, #8388608
 1445 0156 5A60     		str	r2, [r3, #4]
 1446 0158 87E7     		b	.L267
 1447              	.L286:
 1448 015a 00BF     		.align	2
 1449              	.L285:
 1450 015c 00200140 		.word	1073815552
 1451 0160 12000010 		.word	268435474
 1452 0164 00230140 		.word	1073816320
 1453 0168 00000000 		.word	SystemCoreClock
 1454 016c 83DE1B43 		.word	1125899907
 1456              		.section	.text.HAL_ADC_AnalogWDGConfig,"ax",%progbits
 1457              		.align	1
 1458              		.p2align 2,,3
 1459              		.global	HAL_ADC_AnalogWDGConfig
 1460              		.syntax unified
 1461              		.thumb
 1462              		.thumb_func
 1463              		.fpu fpv4-sp-d16
 1465              	HAL_ADC_AnalogWDGConfig:
 1466              		@ args = 0, pretend = 0, frame = 0
 1467              		@ frame_needed = 0, uses_anonymous_args = 0
 1468              		@ link register save eliminated.
 1469 0000 90F83C30 		ldrb	r3, [r0, #60]	@ zero_extendqisi2
 1470 0004 012B     		cmp	r3, #1
ARM GAS  D:\Programs\cygwin64\tmp\ccuUm5pQ.s 			page 26


 1471 0006 29D0     		beq	.L291
 1472 0008 0368     		ldr	r3, [r0]
 1473 000a 0A7C     		ldrb	r2, [r1, #16]	@ zero_extendqisi2
 1474 000c 30B4     		push	{r4, r5}
 1475 000e 0124     		movs	r4, #1
 1476 0010 A242     		cmp	r2, r4
 1477 0012 5A68     		ldr	r2, [r3, #4]
 1478 0014 80F83C40 		strb	r4, [r0, #60]
 1479 0018 0CBF     		ite	eq
 1480 001a 42F04002 		orreq	r2, r2, #64
 1481 001e 22F04002 		bicne	r2, r2, #64
 1482 0022 5A60     		str	r2, [r3, #4]
 1483 0024 5A68     		ldr	r2, [r3, #4]
 1484 0026 22F44002 		bic	r2, r2, #12582912
 1485 002a 22F40072 		bic	r2, r2, #512
 1486 002e D1E90045 		ldrd	r4, r5, [r1]
 1487 0032 5A60     		str	r2, [r3, #4]
 1488 0034 5A68     		ldr	r2, [r3, #4]
 1489 0036 2243     		orrs	r2, r2, r4
 1490 0038 8C68     		ldr	r4, [r1, #8]
 1491 003a 5A60     		str	r2, [r3, #4]
 1492 003c 5D62     		str	r5, [r3, #36]
 1493 003e 9C62     		str	r4, [r3, #40]
 1494 0040 5C68     		ldr	r4, [r3, #4]
 1495 0042 8A89     		ldrh	r2, [r1, #12]
 1496 0044 24F01F04 		bic	r4, r4, #31
 1497 0048 5C60     		str	r4, [r3, #4]
 1498 004a 5C68     		ldr	r4, [r3, #4]
 1499 004c 0021     		movs	r1, #0
 1500 004e 2243     		orrs	r2, r2, r4
 1501 0050 5A60     		str	r2, [r3, #4]
 1502 0052 30BC     		pop	{r4, r5}
 1503 0054 80F83C10 		strb	r1, [r0, #60]
 1504 0058 0846     		mov	r0, r1
 1505 005a 7047     		bx	lr
 1506              	.L291:
 1507 005c 0223     		movs	r3, #2
 1508 005e 1846     		mov	r0, r3
 1509 0060 7047     		bx	lr
 1511 0062 00BF     		.section	.text.HAL_ADC_GetState,"ax",%progbits
 1512              		.align	1
 1513              		.p2align 2,,3
 1514              		.global	HAL_ADC_GetState
 1515              		.syntax unified
 1516              		.thumb
 1517              		.thumb_func
 1518              		.fpu fpv4-sp-d16
 1520              	HAL_ADC_GetState:
 1521              		@ args = 0, pretend = 0, frame = 0
 1522              		@ frame_needed = 0, uses_anonymous_args = 0
 1523              		@ link register save eliminated.
 1524 0000 006C     		ldr	r0, [r0, #64]
 1525 0002 7047     		bx	lr
 1527              		.section	.text.HAL_ADC_GetError,"ax",%progbits
 1528              		.align	1
 1529              		.p2align 2,,3
 1530              		.global	HAL_ADC_GetError
ARM GAS  D:\Programs\cygwin64\tmp\ccuUm5pQ.s 			page 27


 1531              		.syntax unified
 1532              		.thumb
 1533              		.thumb_func
 1534              		.fpu fpv4-sp-d16
 1536              	HAL_ADC_GetError:
 1537              		@ args = 0, pretend = 0, frame = 0
 1538              		@ frame_needed = 0, uses_anonymous_args = 0
 1539              		@ link register save eliminated.
 1540 0000 406C     		ldr	r0, [r0, #68]
 1541 0002 7047     		bx	lr
 1543              		.ident	"GCC: (GNU Tools for Arm Embedded Processors 8-2018-q4-major) 8.2.1 20181213 (release) [gcc
ARM GAS  D:\Programs\cygwin64\tmp\ccuUm5pQ.s 			page 28

