ARM GAS  D:\Programs\cygwin64\tmp\ccGbWzxx.s 			page 1


   1              		.cpu cortex-m4
   2              		.eabi_attribute 27, 1
   3              		.eabi_attribute 28, 1
   4              		.eabi_attribute 20, 1
   5              		.eabi_attribute 21, 1
   6              		.eabi_attribute 23, 3
   7              		.eabi_attribute 24, 1
   8              		.eabi_attribute 25, 1
   9              		.eabi_attribute 26, 1
  10              		.eabi_attribute 30, 2
  11              		.eabi_attribute 34, 1
  12              		.eabi_attribute 18, 4
  13              		.file	"stm32f4xx_hal_irda.c"
  14              		.text
  15              		.section	.text.HAL_IRDA_MspInit,"ax",%progbits
  16              		.align	1
  17              		.p2align 2,,3
  18              		.weak	HAL_IRDA_MspInit
  19              		.arch armv7e-m
  20              		.syntax unified
  21              		.thumb
  22              		.thumb_func
  23              		.fpu fpv4-sp-d16
  25              	HAL_IRDA_MspInit:
  26              		@ args = 0, pretend = 0, frame = 0
  27              		@ frame_needed = 0, uses_anonymous_args = 0
  28              		@ link register save eliminated.
  29 0000 7047     		bx	lr
  31 0002 00BF     		.section	.text.HAL_IRDA_Init,"ax",%progbits
  32              		.align	1
  33              		.p2align 2,,3
  34              		.global	HAL_IRDA_Init
  35              		.syntax unified
  36              		.thumb
  37              		.thumb_func
  38              		.fpu fpv4-sp-d16
  40              	HAL_IRDA_Init:
  41              		@ args = 0, pretend = 0, frame = 0
  42              		@ frame_needed = 0, uses_anonymous_args = 0
  43 0000 0028     		cmp	r0, #0
  44 0002 00F0ED80 		beq	.L9
  45 0006 2DE9F843 		push	{r3, r4, r5, r6, r7, r8, r9, lr}
  46 000a 90F83530 		ldrb	r3, [r0, #53]	@ zero_extendqisi2
  47 000e 0446     		mov	r4, r0
  48 0010 03F0FF02 		and	r2, r3, #255
  49 0014 002B     		cmp	r3, #0
  50 0016 00F0DE80 		beq	.L15
  51              	.L5:
  52 001a 2368     		ldr	r3, [r4]
  53 001c 2069     		ldr	r0, [r4, #16]
  54 001e 2422     		movs	r2, #36
  55 0020 84F83520 		strb	r2, [r4, #53]
  56 0024 D968     		ldr	r1, [r3, #12]
  57 0026 21F40051 		bic	r1, r1, #8192
  58 002a D4E90225 		ldrd	r2, r5, [r4, #8]
  59 002e D960     		str	r1, [r3, #12]
  60 0030 1969     		ldr	r1, [r3, #16]
ARM GAS  D:\Programs\cygwin64\tmp\ccGbWzxx.s 			page 2


  61 0032 21F44051 		bic	r1, r1, #12288
  62 0036 1961     		str	r1, [r3, #16]
  63 0038 D968     		ldr	r1, [r3, #12]
  64 003a 21F4B051 		bic	r1, r1, #5632
  65 003e 21F00C01 		bic	r1, r1, #12
  66 0042 D960     		str	r1, [r3, #12]
  67 0044 D968     		ldr	r1, [r3, #12]
  68 0046 2A43     		orrs	r2, r2, r5
  69 0048 0243     		orrs	r2, r2, r0
  70 004a 0A43     		orrs	r2, r2, r1
  71 004c DA60     		str	r2, [r3, #12]
  72 004e 5A69     		ldr	r2, [r3, #20]
  73 0050 6449     		ldr	r1, .L16
  74 0052 22F44072 		bic	r2, r2, #768
  75 0056 8B42     		cmp	r3, r1
  76 0058 5A61     		str	r2, [r3, #20]
  77 005a 7ED0     		beq	.L6
  78 005c 624A     		ldr	r2, .L16+4
  79 005e 9342     		cmp	r3, r2
  80 0060 7BD0     		beq	.L6
  81 0062 FFF7FEFF 		bl	HAL_RCC_GetPCLK1Freq
  82 0066 614F     		ldr	r7, .L16+8
  83 0068 6368     		ldr	r3, [r4, #4]
  84 006a 00EB8000 		add	r0, r0, r0, lsl #2
  85 006e 00EB8000 		add	r0, r0, r0, lsl #2
  86 0072 9B00     		lsls	r3, r3, #2
  87 0074 B0FBF3F3 		udiv	r3, r0, r3
  88 0078 A7FB0323 		umull	r2, r3, r7, r3
  89 007c 5B09     		lsrs	r3, r3, #5
  90 007e 1D01     		lsls	r5, r3, #4
  91 0080 FFF7FEFF 		bl	HAL_RCC_GetPCLK1Freq
  92 0084 6668     		ldr	r6, [r4, #4]
  93 0086 00EB8000 		add	r0, r0, r0, lsl #2
  94 008a 00EB8000 		add	r0, r0, r0, lsl #2
  95 008e B600     		lsls	r6, r6, #2
  96 0090 B0FBF6F6 		udiv	r6, r0, r6
  97 0094 FFF7FEFF 		bl	HAL_RCC_GetPCLK1Freq
  98 0098 6368     		ldr	r3, [r4, #4]
  99 009a 00EB8000 		add	r0, r0, r0, lsl #2
 100 009e 00EB8000 		add	r0, r0, r0, lsl #2
 101 00a2 9B00     		lsls	r3, r3, #2
 102 00a4 B0FBF3F3 		udiv	r3, r0, r3
 103 00a8 A7FB0323 		umull	r2, r3, r7, r3
 104 00ac 5B09     		lsrs	r3, r3, #5
 105 00ae 4FF06409 		mov	r9, #100
 106 00b2 09FB1363 		mls	r3, r9, r3, r6
 107 00b6 1B01     		lsls	r3, r3, #4
 108 00b8 3233     		adds	r3, r3, #50
 109 00ba A7FB0323 		umull	r2, r3, r7, r3
 110 00be 5B09     		lsrs	r3, r3, #5
 111 00c0 03F0F006 		and	r6, r3, #240
 112 00c4 FFF7FEFF 		bl	HAL_RCC_GetPCLK1Freq
 113 00c8 6268     		ldr	r2, [r4, #4]
 114 00ca 00EB8000 		add	r0, r0, r0, lsl #2
 115 00ce 00EB8000 		add	r0, r0, r0, lsl #2
 116 00d2 9300     		lsls	r3, r2, #2
 117 00d4 B0FBF3F8 		udiv	r8, r0, r3
ARM GAS  D:\Programs\cygwin64\tmp\ccGbWzxx.s 			page 3


 118 00d8 FFF7FEFF 		bl	HAL_RCC_GetPCLK1Freq
 119              	.L14:
 120 00dc D4E90021 		ldrd	r2, r1, [r4]
 121 00e0 00EB8000 		add	r0, r0, r0, lsl #2
 122 00e4 8900     		lsls	r1, r1, #2
 123 00e6 00EB8000 		add	r0, r0, r0, lsl #2
 124 00ea B0FBF1F0 		udiv	r0, r0, r1
 125 00ee A7FB0030 		umull	r3, r0, r7, r0
 126 00f2 4009     		lsrs	r0, r0, #5
 127 00f4 09FB1083 		mls	r3, r9, r0, r8
 128 00f8 1B01     		lsls	r3, r3, #4
 129 00fa 3233     		adds	r3, r3, #50
 130 00fc A7FB0313 		umull	r1, r3, r7, r3
 131 0100 C3F34313 		ubfx	r3, r3, #5, #4
 132 0104 9168     		ldr	r1, [r2, #8]
 133 0106 3343     		orrs	r3, r3, r6
 134 0108 2B44     		add	r3, r3, r5
 135 010a 0B43     		orrs	r3, r3, r1
 136 010c 9360     		str	r3, [r2, #8]
 137 010e 1169     		ldr	r1, [r2, #16]
 138 0110 A069     		ldr	r0, [r4, #24]
 139 0112 21F4F041 		bic	r1, r1, #30720
 140 0116 1161     		str	r1, [r2, #16]
 141 0118 5169     		ldr	r1, [r2, #20]
 142 011a 21F02801 		bic	r1, r1, #40
 143 011e 5161     		str	r1, [r2, #20]
 144 0120 D168     		ldr	r1, [r2, #12]
 145 0122 41F40051 		orr	r1, r1, #8192
 146 0126 D160     		str	r1, [r2, #12]
 147 0128 9169     		ldr	r1, [r2, #24]
 148 012a 237D     		ldrb	r3, [r4, #20]	@ zero_extendqisi2
 149 012c 21F0FF01 		bic	r1, r1, #255
 150 0130 1943     		orrs	r1, r1, r3
 151 0132 9161     		str	r1, [r2, #24]
 152 0134 5369     		ldr	r3, [r2, #20]
 153 0136 23F00403 		bic	r3, r3, #4
 154 013a 0343     		orrs	r3, r3, r0
 155 013c 5361     		str	r3, [r2, #20]
 156 013e 5369     		ldr	r3, [r2, #20]
 157 0140 0025     		movs	r5, #0
 158 0142 2021     		movs	r1, #32
 159 0144 43F00203 		orr	r3, r3, #2
 160 0148 5361     		str	r3, [r2, #20]
 161 014a 2846     		mov	r0, r5
 162 014c A563     		str	r5, [r4, #56]
 163 014e 84F83510 		strb	r1, [r4, #53]
 164 0152 84F83610 		strb	r1, [r4, #54]
 165 0156 BDE8F883 		pop	{r3, r4, r5, r6, r7, r8, r9, pc}
 166              	.L6:
 167 015a FFF7FEFF 		bl	HAL_RCC_GetPCLK2Freq
 168 015e 234F     		ldr	r7, .L16+8
 169 0160 6368     		ldr	r3, [r4, #4]
 170 0162 00EB8000 		add	r0, r0, r0, lsl #2
 171 0166 00EB8000 		add	r0, r0, r0, lsl #2
 172 016a 9B00     		lsls	r3, r3, #2
 173 016c B0FBF3F3 		udiv	r3, r0, r3
 174 0170 A7FB0323 		umull	r2, r3, r7, r3
ARM GAS  D:\Programs\cygwin64\tmp\ccGbWzxx.s 			page 4


 175 0174 5B09     		lsrs	r3, r3, #5
 176 0176 1D01     		lsls	r5, r3, #4
 177 0178 FFF7FEFF 		bl	HAL_RCC_GetPCLK2Freq
 178 017c 6668     		ldr	r6, [r4, #4]
 179 017e 00EB8000 		add	r0, r0, r0, lsl #2
 180 0182 00EB8000 		add	r0, r0, r0, lsl #2
 181 0186 B600     		lsls	r6, r6, #2
 182 0188 B0FBF6F6 		udiv	r6, r0, r6
 183 018c FFF7FEFF 		bl	HAL_RCC_GetPCLK2Freq
 184 0190 6368     		ldr	r3, [r4, #4]
 185 0192 00EB8000 		add	r0, r0, r0, lsl #2
 186 0196 00EB8000 		add	r0, r0, r0, lsl #2
 187 019a 9B00     		lsls	r3, r3, #2
 188 019c B0FBF3F3 		udiv	r3, r0, r3
 189 01a0 A7FB0323 		umull	r2, r3, r7, r3
 190 01a4 4FF06409 		mov	r9, #100
 191 01a8 5B09     		lsrs	r3, r3, #5
 192 01aa 09FB1363 		mls	r3, r9, r3, r6
 193 01ae 1B01     		lsls	r3, r3, #4
 194 01b0 3233     		adds	r3, r3, #50
 195 01b2 A7FB0323 		umull	r2, r3, r7, r3
 196 01b6 5B09     		lsrs	r3, r3, #5
 197 01b8 03F0F006 		and	r6, r3, #240
 198 01bc FFF7FEFF 		bl	HAL_RCC_GetPCLK2Freq
 199 01c0 6268     		ldr	r2, [r4, #4]
 200 01c2 00EB8000 		add	r0, r0, r0, lsl #2
 201 01c6 9300     		lsls	r3, r2, #2
 202 01c8 00EB8000 		add	r0, r0, r0, lsl #2
 203 01cc B0FBF3F8 		udiv	r8, r0, r3
 204 01d0 FFF7FEFF 		bl	HAL_RCC_GetPCLK2Freq
 205 01d4 82E7     		b	.L14
 206              	.L15:
 207 01d6 80F83420 		strb	r2, [r0, #52]
 208 01da FFF7FEFF 		bl	HAL_IRDA_MspInit
 209 01de 1CE7     		b	.L5
 210              	.L9:
 211 01e0 0120     		movs	r0, #1
 212 01e2 7047     		bx	lr
 213              	.L17:
 214              		.align	2
 215              	.L16:
 216 01e4 00100140 		.word	1073811456
 217 01e8 00140140 		.word	1073812480
 218 01ec 1F85EB51 		.word	1374389535
 220              		.section	.text.HAL_IRDA_MspDeInit,"ax",%progbits
 221              		.align	1
 222              		.p2align 2,,3
 223              		.weak	HAL_IRDA_MspDeInit
 224              		.syntax unified
 225              		.thumb
 226              		.thumb_func
 227              		.fpu fpv4-sp-d16
 229              	HAL_IRDA_MspDeInit:
 230              		@ args = 0, pretend = 0, frame = 0
 231              		@ frame_needed = 0, uses_anonymous_args = 0
 232              		@ link register save eliminated.
 233 0000 7047     		bx	lr
ARM GAS  D:\Programs\cygwin64\tmp\ccGbWzxx.s 			page 5


 235 0002 00BF     		.section	.text.HAL_IRDA_DeInit,"ax",%progbits
 236              		.align	1
 237              		.p2align 2,,3
 238              		.global	HAL_IRDA_DeInit
 239              		.syntax unified
 240              		.thumb
 241              		.thumb_func
 242              		.fpu fpv4-sp-d16
 244              	HAL_IRDA_DeInit:
 245              		@ args = 0, pretend = 0, frame = 0
 246              		@ frame_needed = 0, uses_anonymous_args = 0
 247 0000 A8B1     		cbz	r0, .L21
 248 0002 0268     		ldr	r2, [r0]
 249 0004 2423     		movs	r3, #36
 250 0006 10B5     		push	{r4, lr}
 251 0008 80F83530 		strb	r3, [r0, #53]
 252 000c D368     		ldr	r3, [r2, #12]
 253 000e 23F40053 		bic	r3, r3, #8192
 254 0012 0446     		mov	r4, r0
 255 0014 D360     		str	r3, [r2, #12]
 256 0016 FFF7FEFF 		bl	HAL_IRDA_MspDeInit
 257 001a 0023     		movs	r3, #0
 258 001c A363     		str	r3, [r4, #56]
 259 001e 84F83430 		strb	r3, [r4, #52]
 260 0022 84F83530 		strb	r3, [r4, #53]
 261 0026 1846     		mov	r0, r3
 262 0028 84F83630 		strb	r3, [r4, #54]
 263 002c 10BD     		pop	{r4, pc}
 264              	.L21:
 265 002e 0120     		movs	r0, #1
 266 0030 7047     		bx	lr
 268 0032 00BF     		.section	.text.HAL_IRDA_Transmit,"ax",%progbits
 269              		.align	1
 270              		.p2align 2,,3
 271              		.global	HAL_IRDA_Transmit
 272              		.syntax unified
 273              		.thumb
 274              		.thumb_func
 275              		.fpu fpv4-sp-d16
 277              	HAL_IRDA_Transmit:
 278              		@ args = 0, pretend = 0, frame = 0
 279              		@ frame_needed = 0, uses_anonymous_args = 0
 280 0000 2DE9F041 		push	{r4, r5, r6, r7, r8, lr}
 281 0004 0D46     		mov	r5, r1
 282 0006 90F83510 		ldrb	r1, [r0, #53]	@ zero_extendqisi2
 283 000a 2029     		cmp	r1, #32
 284 000c 6FD1     		bne	.L53
 285 000e 002D     		cmp	r5, #0
 286 0010 3CD0     		beq	.L52
 287 0012 9046     		mov	r8, r2
 288 0014 002A     		cmp	r2, #0
 289 0016 39D0     		beq	.L52
 290 0018 1F46     		mov	r7, r3
 291 001a 90F83430 		ldrb	r3, [r0, #52]	@ zero_extendqisi2
 292 001e 012B     		cmp	r3, #1
 293 0020 0446     		mov	r4, r0
 294 0022 64D0     		beq	.L53
ARM GAS  D:\Programs\cygwin64\tmp\ccGbWzxx.s 			page 6


 295 0024 0023     		movs	r3, #0
 296 0026 0122     		movs	r2, #1
 297 0028 8363     		str	r3, [r0, #56]
 298 002a 2123     		movs	r3, #33
 299 002c 80F83420 		strb	r2, [r0, #52]
 300 0030 80F83530 		strb	r3, [r0, #53]
 301 0034 FFF7FEFF 		bl	HAL_GetTick
 302 0038 2268     		ldr	r2, [r4]
 303 003a A4F82080 		strh	r8, [r4, #32]	@ movhi
 304 003e 0646     		mov	r6, r0
 305 0040 A4F82280 		strh	r8, [r4, #34]	@ movhi
 306              	.L28:
 307 0044 618C     		ldrh	r1, [r4, #34]
 308 0046 89B2     		uxth	r1, r1
 309 0048 99B1     		cbz	r1, .L81
 310              	.L43:
 311 004a 608C     		ldrh	r0, [r4, #34]
 312 004c A168     		ldr	r1, [r4, #8]
 313 004e 0138     		subs	r0, r0, #1
 314 0050 80B2     		uxth	r0, r0
 315 0052 B1F5805F 		cmp	r1, #4096
 316 0056 6084     		strh	r0, [r4, #34]	@ movhi
 317 0058 1BD0     		beq	.L82
 318 005a 781C     		adds	r0, r7, #1
 319 005c 26D1     		bne	.L83
 320              	.L42:
 321 005e 1368     		ldr	r3, [r2]
 322 0060 1B06     		lsls	r3, r3, #24
 323 0062 FCD5     		bpl	.L42
 324              	.L41:
 325 0064 15F8013B 		ldrb	r3, [r5], #1	@ zero_extendqisi2
 326 0068 5360     		str	r3, [r2, #4]
 327              	.L86:
 328 006a 618C     		ldrh	r1, [r4, #34]
 329 006c 89B2     		uxth	r1, r1
 330 006e 0029     		cmp	r1, #0
 331 0070 EBD1     		bne	.L43
 332              	.L81:
 333 0072 7D1C     		adds	r5, r7, #1
 334 0074 52D1     		bne	.L84
 335              	.L45:
 336 0076 1368     		ldr	r3, [r2]
 337 0078 5B06     		lsls	r3, r3, #25
 338 007a FCD5     		bpl	.L45
 339              	.L49:
 340 007c 2023     		movs	r3, #32
 341 007e 0020     		movs	r0, #0
 342 0080 84F83530 		strb	r3, [r4, #53]
 343 0084 84F83400 		strb	r0, [r4, #52]
 344 0088 BDE8F081 		pop	{r4, r5, r6, r7, r8, pc}
 345              	.L52:
 346 008c 0120     		movs	r0, #1
 347 008e BDE8F081 		pop	{r4, r5, r6, r7, r8, pc}
 348              	.L82:
 349 0092 7B1C     		adds	r3, r7, #1
 350 0094 1BD1     		bne	.L85
 351              	.L35:
ARM GAS  D:\Programs\cygwin64\tmp\ccGbWzxx.s 			page 7


 352 0096 1368     		ldr	r3, [r2]
 353 0098 1906     		lsls	r1, r3, #24
 354 009a FCD5     		bpl	.L35
 355              	.L34:
 356 009c 2B88     		ldrh	r3, [r5]
 357 009e E168     		ldr	r1, [r4, #12]
 358 00a0 C3F30803 		ubfx	r3, r3, #0, #9
 359 00a4 5360     		str	r3, [r2, #4]
 360 00a6 01BB     		cbnz	r1, .L36
 361 00a8 0235     		adds	r5, r5, #2
 362 00aa CBE7     		b	.L28
 363              	.L83:
 364 00ac 1368     		ldr	r3, [r2]
 365 00ae 1906     		lsls	r1, r3, #24
 366 00b0 D8D4     		bmi	.L41
 367 00b2 07B3     		cbz	r7, .L47
 368              	.L40:
 369 00b4 FFF7FEFF 		bl	HAL_GetTick
 370 00b8 801B     		subs	r0, r0, r6
 371 00ba 8742     		cmp	r7, r0
 372 00bc 2268     		ldr	r2, [r4]
 373 00be 1AD3     		bcc	.L47
 374 00c0 1368     		ldr	r3, [r2]
 375 00c2 1B06     		lsls	r3, r3, #24
 376 00c4 F6D5     		bpl	.L40
 377 00c6 15F8013B 		ldrb	r3, [r5], #1	@ zero_extendqisi2
 378 00ca 5360     		str	r3, [r2, #4]
 379 00cc CDE7     		b	.L86
 380              	.L85:
 381 00ce 1368     		ldr	r3, [r2]
 382 00d0 1806     		lsls	r0, r3, #24
 383 00d2 E3D4     		bmi	.L34
 384 00d4 7FB1     		cbz	r7, .L47
 385              	.L33:
 386 00d6 FFF7FEFF 		bl	HAL_GetTick
 387 00da 801B     		subs	r0, r0, r6
 388 00dc 8742     		cmp	r7, r0
 389 00de 2268     		ldr	r2, [r4]
 390 00e0 09D3     		bcc	.L47
 391 00e2 1368     		ldr	r3, [r2]
 392 00e4 1906     		lsls	r1, r3, #24
 393 00e6 F6D5     		bpl	.L33
 394 00e8 D8E7     		b	.L34
 395              	.L36:
 396 00ea 0135     		adds	r5, r5, #1
 397 00ec AAE7     		b	.L28
 398              	.L53:
 399 00ee 0220     		movs	r0, #2
 400 00f0 BDE8F081 		pop	{r4, r5, r6, r7, r8, pc}
 401              	.L87:
 402 00f4 2268     		ldr	r2, [r4]
 403              	.L47:
 404 00f6 D368     		ldr	r3, [r2, #12]
 405 00f8 23F4D073 		bic	r3, r3, #416
 406 00fc D360     		str	r3, [r2, #12]
 407 00fe 5369     		ldr	r3, [r2, #20]
 408 0100 2021     		movs	r1, #32
ARM GAS  D:\Programs\cygwin64\tmp\ccGbWzxx.s 			page 8


 409 0102 23F00103 		bic	r3, r3, #1
 410 0106 0025     		movs	r5, #0
 411 0108 5361     		str	r3, [r2, #20]
 412 010a 0320     		movs	r0, #3
 413 010c 84F83510 		strb	r1, [r4, #53]
 414 0110 84F83450 		strb	r5, [r4, #52]
 415 0114 84F83610 		strb	r1, [r4, #54]
 416 0118 BDE8F081 		pop	{r4, r5, r6, r7, r8, pc}
 417              	.L84:
 418 011c 1368     		ldr	r3, [r2]
 419 011e 5906     		lsls	r1, r3, #25
 420 0120 ACD4     		bmi	.L49
 421 0122 002F     		cmp	r7, #0
 422 0124 E7D0     		beq	.L47
 423              	.L48:
 424 0126 FFF7FEFF 		bl	HAL_GetTick
 425 012a 801B     		subs	r0, r0, r6
 426 012c 8742     		cmp	r7, r0
 427 012e E1D3     		bcc	.L87
 428 0130 2368     		ldr	r3, [r4]
 429 0132 1B68     		ldr	r3, [r3]
 430 0134 5806     		lsls	r0, r3, #25
 431 0136 F6D5     		bpl	.L48
 432 0138 A0E7     		b	.L49
 434 013a 00BF     		.section	.text.HAL_IRDA_Receive,"ax",%progbits
 435              		.align	1
 436              		.p2align 2,,3
 437              		.global	HAL_IRDA_Receive
 438              		.syntax unified
 439              		.thumb
 440              		.thumb_func
 441              		.fpu fpv4-sp-d16
 443              	HAL_IRDA_Receive:
 444              		@ args = 0, pretend = 0, frame = 0
 445              		@ frame_needed = 0, uses_anonymous_args = 0
 446 0000 2DE9F041 		push	{r4, r5, r6, r7, r8, lr}
 447 0004 0F46     		mov	r7, r1
 448 0006 90F83610 		ldrb	r1, [r0, #54]	@ zero_extendqisi2
 449 000a 2029     		cmp	r1, #32
 450 000c 78D1     		bne	.L110
 451 000e 002F     		cmp	r7, #0
 452 0010 52D0     		beq	.L109
 453 0012 9046     		mov	r8, r2
 454 0014 002A     		cmp	r2, #0
 455 0016 4FD0     		beq	.L109
 456 0018 1D46     		mov	r5, r3
 457 001a 90F83430 		ldrb	r3, [r0, #52]	@ zero_extendqisi2
 458 001e 012B     		cmp	r3, #1
 459 0020 0446     		mov	r4, r0
 460 0022 6DD0     		beq	.L110
 461 0024 0023     		movs	r3, #0
 462 0026 8363     		str	r3, [r0, #56]
 463 0028 0122     		movs	r2, #1
 464 002a 2223     		movs	r3, #34
 465 002c 80F83420 		strb	r2, [r0, #52]
 466 0030 80F83630 		strb	r3, [r0, #54]
 467 0034 FFF7FEFF 		bl	HAL_GetTick
ARM GAS  D:\Programs\cygwin64\tmp\ccGbWzxx.s 			page 9


 468 0038 A4F82880 		strh	r8, [r4, #40]	@ movhi
 469 003c 0646     		mov	r6, r0
 470 003e A4F82A80 		strh	r8, [r4, #42]	@ movhi
 471              	.L90:
 472 0042 608D     		ldrh	r0, [r4, #42]
 473 0044 80B2     		uxth	r0, r0
 474 0046 C8B1     		cbz	r0, .L128
 475              	.L106:
 476 0048 628D     		ldrh	r2, [r4, #42]
 477 004a A368     		ldr	r3, [r4, #8]
 478 004c 013A     		subs	r2, r2, #1
 479 004e 92B2     		uxth	r2, r2
 480 0050 B3F5805F 		cmp	r3, #4096
 481 0054 6285     		strh	r2, [r4, #42]	@ movhi
 482 0056 21D0     		beq	.L91
 483              	.L92:
 484 0058 681C     		adds	r0, r5, #1
 485 005a 2368     		ldr	r3, [r4]
 486 005c 2FD1     		bne	.L101
 487              	.L102:
 488 005e 1A68     		ldr	r2, [r3]
 489 0060 9106     		lsls	r1, r2, #26
 490 0062 FCD5     		bpl	.L102
 491              	.L103:
 492 0064 E168     		ldr	r1, [r4, #12]
 493 0066 5B68     		ldr	r3, [r3, #4]
 494 0068 7A1C     		adds	r2, r7, #1
 495 006a 09B1     		cbz	r1, .L126
 496 006c 03F07F03 		and	r3, r3, #127
 497              	.L126:
 498 0070 3B70     		strb	r3, [r7]
 499 0072 608D     		ldrh	r0, [r4, #42]
 500 0074 80B2     		uxth	r0, r0
 501 0076 1746     		mov	r7, r2
 502 0078 0028     		cmp	r0, #0
 503 007a E5D1     		bne	.L106
 504              	.L128:
 505 007c 2023     		movs	r3, #32
 506 007e 84F83400 		strb	r0, [r4, #52]
 507 0082 84F83630 		strb	r3, [r4, #54]
 508 0086 BDE8F081 		pop	{r4, r5, r6, r7, r8, pc}
 509              	.L94:
 510 008a 1A68     		ldr	r2, [r3]
 511 008c 9206     		lsls	r2, r2, #26
 512 008e 0BD4     		bmi	.L96
 513 0090 FDB1     		cbz	r5, .L100
 514 0092 FFF7FEFF 		bl	HAL_GetTick
 515 0096 801B     		subs	r0, r0, r6
 516 0098 8542     		cmp	r5, r0
 517 009a 19D3     		bcc	.L127
 518              	.L91:
 519 009c 681C     		adds	r0, r5, #1
 520 009e 2368     		ldr	r3, [r4]
 521 00a0 F3D1     		bne	.L94
 522              	.L95:
 523 00a2 1A68     		ldr	r2, [r3]
 524 00a4 9106     		lsls	r1, r2, #26
ARM GAS  D:\Programs\cygwin64\tmp\ccGbWzxx.s 			page 10


 525 00a6 FCD5     		bpl	.L95
 526              	.L96:
 527 00a8 E268     		ldr	r2, [r4, #12]
 528 00aa 5B68     		ldr	r3, [r3, #4]
 529 00ac 22BB     		cbnz	r2, .L98
 530 00ae C3F30803 		ubfx	r3, r3, #0, #9
 531 00b2 27F8023B 		strh	r3, [r7], #2	@ movhi
 532 00b6 C4E7     		b	.L90
 533              	.L109:
 534 00b8 0120     		movs	r0, #1
 535 00ba BDE8F081 		pop	{r4, r5, r6, r7, r8, pc}
 536              	.L101:
 537 00be 1A68     		ldr	r2, [r3]
 538 00c0 9206     		lsls	r2, r2, #26
 539 00c2 CFD4     		bmi	.L103
 540 00c4 2DB1     		cbz	r5, .L100
 541 00c6 FFF7FEFF 		bl	HAL_GetTick
 542 00ca 801B     		subs	r0, r0, r6
 543 00cc 8542     		cmp	r5, r0
 544 00ce C3D2     		bcs	.L92
 545              	.L127:
 546 00d0 2368     		ldr	r3, [r4]
 547              	.L100:
 548 00d2 DA68     		ldr	r2, [r3, #12]
 549 00d4 22F4D072 		bic	r2, r2, #416
 550 00d8 DA60     		str	r2, [r3, #12]
 551 00da 5A69     		ldr	r2, [r3, #20]
 552 00dc 2021     		movs	r1, #32
 553 00de 22F00102 		bic	r2, r2, #1
 554 00e2 0025     		movs	r5, #0
 555 00e4 5A61     		str	r2, [r3, #20]
 556 00e6 0320     		movs	r0, #3
 557 00e8 84F83510 		strb	r1, [r4, #53]
 558 00ec 84F83450 		strb	r5, [r4, #52]
 559 00f0 84F83610 		strb	r1, [r4, #54]
 560 00f4 BDE8F081 		pop	{r4, r5, r6, r7, r8, pc}
 561              	.L98:
 562 00f8 DBB2     		uxtb	r3, r3
 563 00fa 27F8013B 		strh	r3, [r7], #1	@ movhi
 564 00fe A0E7     		b	.L90
 565              	.L110:
 566 0100 0220     		movs	r0, #2
 567 0102 BDE8F081 		pop	{r4, r5, r6, r7, r8, pc}
 569 0106 00BF     		.section	.text.HAL_IRDA_Transmit_IT,"ax",%progbits
 570              		.align	1
 571              		.p2align 2,,3
 572              		.global	HAL_IRDA_Transmit_IT
 573              		.syntax unified
 574              		.thumb
 575              		.thumb_func
 576              		.fpu fpv4-sp-d16
 578              	HAL_IRDA_Transmit_IT:
 579              		@ args = 0, pretend = 0, frame = 0
 580              		@ frame_needed = 0, uses_anonymous_args = 0
 581              		@ link register save eliminated.
 582 0000 90F83530 		ldrb	r3, [r0, #53]	@ zero_extendqisi2
 583 0004 202B     		cmp	r3, #32
ARM GAS  D:\Programs\cygwin64\tmp\ccGbWzxx.s 			page 11


 584 0006 1AD1     		bne	.L134
 585 0008 B9B1     		cbz	r1, .L133
 586 000a B2B1     		cbz	r2, .L133
 587 000c 90F83430 		ldrb	r3, [r0, #52]	@ zero_extendqisi2
 588 0010 012B     		cmp	r3, #1
 589 0012 14D0     		beq	.L134
 590 0014 30B4     		push	{r4, r5}
 591 0016 0023     		movs	r3, #0
 592 0018 0568     		ldr	r5, [r0]
 593 001a 4284     		strh	r2, [r0, #34]	@ movhi
 594 001c 2124     		movs	r4, #33
 595 001e 8363     		str	r3, [r0, #56]
 596 0020 80F83540 		strb	r4, [r0, #53]
 597 0024 EC68     		ldr	r4, [r5, #12]
 598 0026 C161     		str	r1, [r0, #28]
 599 0028 44F08004 		orr	r4, r4, #128
 600 002c 0284     		strh	r2, [r0, #32]	@ movhi
 601 002e 80F83430 		strb	r3, [r0, #52]
 602 0032 1846     		mov	r0, r3
 603 0034 EC60     		str	r4, [r5, #12]
 604 0036 30BC     		pop	{r4, r5}
 605 0038 7047     		bx	lr
 606              	.L133:
 607 003a 0120     		movs	r0, #1
 608 003c 7047     		bx	lr
 609              	.L134:
 610 003e 0220     		movs	r0, #2
 611 0040 7047     		bx	lr
 613 0042 00BF     		.section	.text.HAL_IRDA_Receive_IT,"ax",%progbits
 614              		.align	1
 615              		.p2align 2,,3
 616              		.global	HAL_IRDA_Receive_IT
 617              		.syntax unified
 618              		.thumb
 619              		.thumb_func
 620              		.fpu fpv4-sp-d16
 622              	HAL_IRDA_Receive_IT:
 623              		@ args = 0, pretend = 0, frame = 0
 624              		@ frame_needed = 0, uses_anonymous_args = 0
 625              		@ link register save eliminated.
 626 0000 90F83630 		ldrb	r3, [r0, #54]	@ zero_extendqisi2
 627 0004 202B     		cmp	r3, #32
 628 0006 1ED1     		bne	.L144
 629 0008 D9B1     		cbz	r1, .L143
 630 000a D2B1     		cbz	r2, .L143
 631 000c 90F83430 		ldrb	r3, [r0, #52]	@ zero_extendqisi2
 632 0010 012B     		cmp	r3, #1
 633 0012 18D0     		beq	.L144
 634 0014 30B4     		push	{r4, r5}
 635 0016 0023     		movs	r3, #0
 636 0018 0468     		ldr	r4, [r0]
 637 001a 4285     		strh	r2, [r0, #42]	@ movhi
 638 001c 2225     		movs	r5, #34
 639 001e 8363     		str	r3, [r0, #56]
 640 0020 80F83650 		strb	r5, [r0, #54]
 641 0024 E568     		ldr	r5, [r4, #12]
 642 0026 0285     		strh	r2, [r0, #40]	@ movhi
ARM GAS  D:\Programs\cygwin64\tmp\ccGbWzxx.s 			page 12


 643 0028 45F49075 		orr	r5, r5, #288
 644 002c 4162     		str	r1, [r0, #36]
 645 002e 80F83430 		strb	r3, [r0, #52]
 646 0032 E560     		str	r5, [r4, #12]
 647 0034 6269     		ldr	r2, [r4, #20]
 648 0036 42F00102 		orr	r2, r2, #1
 649 003a 1846     		mov	r0, r3
 650 003c 6261     		str	r2, [r4, #20]
 651 003e 30BC     		pop	{r4, r5}
 652 0040 7047     		bx	lr
 653              	.L143:
 654 0042 0120     		movs	r0, #1
 655 0044 7047     		bx	lr
 656              	.L144:
 657 0046 0220     		movs	r0, #2
 658 0048 7047     		bx	lr
 660 004a 00BF     		.section	.text.HAL_IRDA_Transmit_DMA,"ax",%progbits
 661              		.align	1
 662              		.p2align 2,,3
 663              		.global	HAL_IRDA_Transmit_DMA
 664              		.syntax unified
 665              		.thumb
 666              		.thumb_func
 667              		.fpu fpv4-sp-d16
 669              	HAL_IRDA_Transmit_DMA:
 670              		@ args = 0, pretend = 0, frame = 0
 671              		@ frame_needed = 0, uses_anonymous_args = 0
 672 0000 70B5     		push	{r4, r5, r6, lr}
 673 0002 90F83540 		ldrb	r4, [r0, #53]	@ zero_extendqisi2
 674 0006 202C     		cmp	r4, #32
 675 0008 2CD1     		bne	.L154
 676 000a 49B3     		cbz	r1, .L153
 677 000c 42B3     		cbz	r2, .L153
 678 000e 90F83440 		ldrb	r4, [r0, #52]	@ zero_extendqisi2
 679 0012 012C     		cmp	r4, #1
 680 0014 26D0     		beq	.L154
 681 0016 0446     		mov	r4, r0
 682 0018 0126     		movs	r6, #1
 683 001a C06A     		ldr	r0, [r0, #44]
 684 001c 84F83460 		strb	r6, [r4, #52]
 685 0020 1346     		mov	r3, r2
 686 0022 0025     		movs	r5, #0
 687 0024 2126     		movs	r6, #33
 688 0026 6384     		strh	r3, [r4, #34]	@ movhi
 689 0028 A563     		str	r5, [r4, #56]
 690 002a 84F83560 		strb	r6, [r4, #53]
 691 002e 0E4E     		ldr	r6, .L156
 692 0030 2268     		ldr	r2, [r4]
 693 0032 2384     		strh	r3, [r4, #32]	@ movhi
 694 0034 E161     		str	r1, [r4, #28]
 695 0036 C663     		str	r6, [r0, #60]
 696 0038 0C4E     		ldr	r6, .L156+4
 697 003a 0664     		str	r6, [r0, #64]
 698 003c 0C4E     		ldr	r6, .L156+8
 699 003e 0565     		str	r5, [r0, #80]
 700 0040 C664     		str	r6, [r0, #76]
 701 0042 0432     		adds	r2, r2, #4
ARM GAS  D:\Programs\cygwin64\tmp\ccGbWzxx.s 			page 13


 702 0044 FFF7FEFF 		bl	HAL_DMA_Start_IT
 703 0048 2368     		ldr	r3, [r4]
 704 004a 6FF04002 		mvn	r2, #64
 705 004e 1A60     		str	r2, [r3]
 706 0050 5A69     		ldr	r2, [r3, #20]
 707 0052 84F83450 		strb	r5, [r4, #52]
 708 0056 42F08002 		orr	r2, r2, #128
 709 005a 2846     		mov	r0, r5
 710 005c 5A61     		str	r2, [r3, #20]
 711 005e 70BD     		pop	{r4, r5, r6, pc}
 712              	.L153:
 713 0060 0120     		movs	r0, #1
 714 0062 70BD     		pop	{r4, r5, r6, pc}
 715              	.L154:
 716 0064 0220     		movs	r0, #2
 717 0066 70BD     		pop	{r4, r5, r6, pc}
 718              	.L157:
 719              		.align	2
 720              	.L156:
 721 0068 00000000 		.word	IRDA_DMATransmitCplt
 722 006c 00000000 		.word	IRDA_DMATransmitHalfCplt
 723 0070 00000000 		.word	IRDA_DMAError
 725              		.section	.text.HAL_IRDA_Receive_DMA,"ax",%progbits
 726              		.align	1
 727              		.p2align 2,,3
 728              		.global	HAL_IRDA_Receive_DMA
 729              		.syntax unified
 730              		.thumb
 731              		.thumb_func
 732              		.fpu fpv4-sp-d16
 734              	HAL_IRDA_Receive_DMA:
 735              		@ args = 0, pretend = 0, frame = 8
 736              		@ frame_needed = 0, uses_anonymous_args = 0
 737 0000 90F83630 		ldrb	r3, [r0, #54]	@ zero_extendqisi2
 738 0004 202B     		cmp	r3, #32
 739 0006 3CD1     		bne	.L163
 740 0008 0029     		cmp	r1, #0
 741 000a 38D0     		beq	.L162
 742 000c 002A     		cmp	r2, #0
 743 000e 36D0     		beq	.L162
 744 0010 90F83430 		ldrb	r3, [r0, #52]	@ zero_extendqisi2
 745 0014 012B     		cmp	r3, #1
 746 0016 34D0     		beq	.L163
 747 0018 70B5     		push	{r4, r5, r6, lr}
 748 001a 0446     		mov	r4, r0
 749 001c 0126     		movs	r6, #1
 750 001e 006B     		ldr	r0, [r0, #48]
 751 0020 84F83460 		strb	r6, [r4, #52]
 752 0024 0025     		movs	r5, #0
 753 0026 2226     		movs	r6, #34
 754 0028 A563     		str	r5, [r4, #56]
 755 002a 1346     		mov	r3, r2
 756 002c 84F83660 		strb	r6, [r4, #54]
 757 0030 0A46     		mov	r2, r1
 758 0032 154E     		ldr	r6, .L168
 759 0034 2168     		ldr	r1, [r4]
 760 0036 6262     		str	r2, [r4, #36]
ARM GAS  D:\Programs\cygwin64\tmp\ccGbWzxx.s 			page 14


 761 0038 2385     		strh	r3, [r4, #40]	@ movhi
 762 003a C663     		str	r6, [r0, #60]
 763 003c 134E     		ldr	r6, .L168+4
 764 003e 0664     		str	r6, [r0, #64]
 765 0040 134E     		ldr	r6, .L168+8
 766 0042 0565     		str	r5, [r0, #80]
 767 0044 82B0     		sub	sp, sp, #8
 768 0046 C664     		str	r6, [r0, #76]
 769 0048 0431     		adds	r1, r1, #4
 770 004a FFF7FEFF 		bl	HAL_DMA_Start_IT
 771 004e 2368     		ldr	r3, [r4]
 772 0050 0195     		str	r5, [sp, #4]
 773 0052 1A68     		ldr	r2, [r3]
 774 0054 0192     		str	r2, [sp, #4]
 775 0056 5A68     		ldr	r2, [r3, #4]
 776 0058 0192     		str	r2, [sp, #4]
 777 005a 019A     		ldr	r2, [sp, #4]
 778 005c DA68     		ldr	r2, [r3, #12]
 779 005e 84F83450 		strb	r5, [r4, #52]
 780 0062 42F48072 		orr	r2, r2, #256
 781 0066 DA60     		str	r2, [r3, #12]
 782 0068 5A69     		ldr	r2, [r3, #20]
 783 006a 42F00102 		orr	r2, r2, #1
 784 006e 5A61     		str	r2, [r3, #20]
 785 0070 5A69     		ldr	r2, [r3, #20]
 786 0072 2846     		mov	r0, r5
 787 0074 42F04002 		orr	r2, r2, #64
 788 0078 5A61     		str	r2, [r3, #20]
 789 007a 02B0     		add	sp, sp, #8
 790              		@ sp needed
 791 007c 70BD     		pop	{r4, r5, r6, pc}
 792              	.L162:
 793 007e 0120     		movs	r0, #1
 794 0080 7047     		bx	lr
 795              	.L163:
 796 0082 0220     		movs	r0, #2
 797 0084 7047     		bx	lr
 798              	.L169:
 799 0086 00BF     		.align	2
 800              	.L168:
 801 0088 00000000 		.word	IRDA_DMAReceiveCplt
 802 008c 00000000 		.word	IRDA_DMAReceiveHalfCplt
 803 0090 00000000 		.word	IRDA_DMAError
 805              		.section	.text.HAL_IRDA_DMAPause,"ax",%progbits
 806              		.align	1
 807              		.p2align 2,,3
 808              		.global	HAL_IRDA_DMAPause
 809              		.syntax unified
 810              		.thumb
 811              		.thumb_func
 812              		.fpu fpv4-sp-d16
 814              	HAL_IRDA_DMAPause:
 815              		@ args = 0, pretend = 0, frame = 0
 816              		@ frame_needed = 0, uses_anonymous_args = 0
 817              		@ link register save eliminated.
 818 0000 90F83430 		ldrb	r3, [r0, #52]	@ zero_extendqisi2
 819 0004 012B     		cmp	r3, #1
ARM GAS  D:\Programs\cygwin64\tmp\ccGbWzxx.s 			page 15


 820 0006 2FD0     		beq	.L174
 821 0008 0368     		ldr	r3, [r0]
 822 000a 10B4     		push	{r4}
 823 000c 5C69     		ldr	r4, [r3, #20]
 824 000e 90F83520 		ldrb	r2, [r0, #53]	@ zero_extendqisi2
 825 0012 0121     		movs	r1, #1
 826 0014 212A     		cmp	r2, #33
 827 0016 80F83410 		strb	r1, [r0, #52]
 828 001a 0BD0     		beq	.L185
 829              	.L172:
 830 001c 5969     		ldr	r1, [r3, #20]
 831 001e 90F83620 		ldrb	r2, [r0, #54]	@ zero_extendqisi2
 832 0022 222A     		cmp	r2, #34
 833 0024 11D0     		beq	.L186
 834              	.L173:
 835 0026 0023     		movs	r3, #0
 836 0028 80F83430 		strb	r3, [r0, #52]
 837 002c 5DF8044B 		ldr	r4, [sp], #4
 838 0030 1846     		mov	r0, r3
 839 0032 7047     		bx	lr
 840              	.L185:
 841 0034 2106     		lsls	r1, r4, #24
 842 0036 F1D5     		bpl	.L172
 843 0038 5A69     		ldr	r2, [r3, #20]
 844 003a 22F08002 		bic	r2, r2, #128
 845 003e 5A61     		str	r2, [r3, #20]
 846 0040 5969     		ldr	r1, [r3, #20]
 847 0042 90F83620 		ldrb	r2, [r0, #54]	@ zero_extendqisi2
 848 0046 222A     		cmp	r2, #34
 849 0048 EDD1     		bne	.L173
 850              	.L186:
 851 004a 4A06     		lsls	r2, r1, #25
 852 004c EBD5     		bpl	.L173
 853 004e DA68     		ldr	r2, [r3, #12]
 854 0050 22F48072 		bic	r2, r2, #256
 855 0054 DA60     		str	r2, [r3, #12]
 856 0056 5A69     		ldr	r2, [r3, #20]
 857 0058 22F00102 		bic	r2, r2, #1
 858 005c 5A61     		str	r2, [r3, #20]
 859 005e 5A69     		ldr	r2, [r3, #20]
 860 0060 22F04002 		bic	r2, r2, #64
 861 0064 5A61     		str	r2, [r3, #20]
 862 0066 DEE7     		b	.L173
 863              	.L174:
 864 0068 0220     		movs	r0, #2
 865 006a 7047     		bx	lr
 867              		.section	.text.HAL_IRDA_DMAResume,"ax",%progbits
 868              		.align	1
 869              		.p2align 2,,3
 870              		.global	HAL_IRDA_DMAResume
 871              		.syntax unified
 872              		.thumb
 873              		.thumb_func
 874              		.fpu fpv4-sp-d16
 876              	HAL_IRDA_DMAResume:
 877              		@ args = 0, pretend = 0, frame = 8
 878              		@ frame_needed = 0, uses_anonymous_args = 0
ARM GAS  D:\Programs\cygwin64\tmp\ccGbWzxx.s 			page 16


 879              		@ link register save eliminated.
 880 0000 90F83430 		ldrb	r3, [r0, #52]	@ zero_extendqisi2
 881 0004 012B     		cmp	r3, #1
 882 0006 2FD0     		beq	.L191
 883 0008 90F83530 		ldrb	r3, [r0, #53]	@ zero_extendqisi2
 884 000c 0122     		movs	r2, #1
 885 000e 212B     		cmp	r3, #33
 886 0010 80F83420 		strb	r2, [r0, #52]
 887 0014 04D1     		bne	.L189
 888 0016 0268     		ldr	r2, [r0]
 889 0018 5369     		ldr	r3, [r2, #20]
 890 001a 43F08003 		orr	r3, r3, #128
 891 001e 5361     		str	r3, [r2, #20]
 892              	.L189:
 893 0020 90F83630 		ldrb	r3, [r0, #54]	@ zero_extendqisi2
 894 0024 222B     		cmp	r3, #34
 895 0026 04D0     		beq	.L197
 896 0028 0023     		movs	r3, #0
 897 002a 80F83430 		strb	r3, [r0, #52]
 898 002e 1846     		mov	r0, r3
 899 0030 7047     		bx	lr
 900              	.L197:
 901 0032 82B0     		sub	sp, sp, #8
 902 0034 0368     		ldr	r3, [r0]
 903 0036 0022     		movs	r2, #0
 904 0038 0192     		str	r2, [sp, #4]
 905 003a 1A68     		ldr	r2, [r3]
 906 003c 0192     		str	r2, [sp, #4]
 907 003e 5A68     		ldr	r2, [r3, #4]
 908 0040 0192     		str	r2, [sp, #4]
 909 0042 019A     		ldr	r2, [sp, #4]
 910 0044 DA68     		ldr	r2, [r3, #12]
 911 0046 42F48072 		orr	r2, r2, #256
 912 004a DA60     		str	r2, [r3, #12]
 913 004c 5A69     		ldr	r2, [r3, #20]
 914 004e 42F00102 		orr	r2, r2, #1
 915 0052 5A61     		str	r2, [r3, #20]
 916 0054 5A69     		ldr	r2, [r3, #20]
 917 0056 42F04002 		orr	r2, r2, #64
 918 005a 5A61     		str	r2, [r3, #20]
 919 005c 0023     		movs	r3, #0
 920 005e 80F83430 		strb	r3, [r0, #52]
 921 0062 1846     		mov	r0, r3
 922 0064 02B0     		add	sp, sp, #8
 923              		@ sp needed
 924 0066 7047     		bx	lr
 925              	.L191:
 926 0068 0220     		movs	r0, #2
 927 006a 7047     		bx	lr
 929              		.section	.text.HAL_IRDA_DMAStop,"ax",%progbits
 930              		.align	1
 931              		.p2align 2,,3
 932              		.global	HAL_IRDA_DMAStop
 933              		.syntax unified
 934              		.thumb
 935              		.thumb_func
 936              		.fpu fpv4-sp-d16
ARM GAS  D:\Programs\cygwin64\tmp\ccGbWzxx.s 			page 17


 938              	HAL_IRDA_DMAStop:
 939              		@ args = 0, pretend = 0, frame = 0
 940              		@ frame_needed = 0, uses_anonymous_args = 0
 941 0000 0368     		ldr	r3, [r0]
 942 0002 5969     		ldr	r1, [r3, #20]
 943 0004 90F83520 		ldrb	r2, [r0, #53]	@ zero_extendqisi2
 944 0008 212A     		cmp	r2, #33
 945 000a 10B5     		push	{r4, lr}
 946 000c 0446     		mov	r4, r0
 947 000e 06D0     		beq	.L216
 948              	.L199:
 949 0010 5969     		ldr	r1, [r3, #20]
 950 0012 94F83620 		ldrb	r2, [r4, #54]	@ zero_extendqisi2
 951 0016 222A     		cmp	r2, #34
 952 0018 18D0     		beq	.L217
 953              	.L201:
 954 001a 0020     		movs	r0, #0
 955 001c 10BD     		pop	{r4, pc}
 956              	.L216:
 957 001e 0906     		lsls	r1, r1, #24
 958 0020 F6D5     		bpl	.L199
 959 0022 5A69     		ldr	r2, [r3, #20]
 960 0024 C06A     		ldr	r0, [r0, #44]
 961 0026 22F08002 		bic	r2, r2, #128
 962 002a 5A61     		str	r2, [r3, #20]
 963 002c 10B1     		cbz	r0, .L200
 964 002e FFF7FEFF 		bl	HAL_DMA_Abort
 965 0032 2368     		ldr	r3, [r4]
 966              	.L200:
 967 0034 DA68     		ldr	r2, [r3, #12]
 968 0036 2021     		movs	r1, #32
 969 0038 22F0C002 		bic	r2, r2, #192
 970 003c DA60     		str	r2, [r3, #12]
 971 003e 84F83510 		strb	r1, [r4, #53]
 972 0042 5969     		ldr	r1, [r3, #20]
 973 0044 94F83620 		ldrb	r2, [r4, #54]	@ zero_extendqisi2
 974 0048 222A     		cmp	r2, #34
 975 004a E6D1     		bne	.L201
 976              	.L217:
 977 004c 4A06     		lsls	r2, r1, #25
 978 004e E4D5     		bpl	.L201
 979 0050 5A69     		ldr	r2, [r3, #20]
 980 0052 206B     		ldr	r0, [r4, #48]
 981 0054 22F04002 		bic	r2, r2, #64
 982 0058 5A61     		str	r2, [r3, #20]
 983 005a 10B1     		cbz	r0, .L202
 984 005c FFF7FEFF 		bl	HAL_DMA_Abort
 985 0060 2368     		ldr	r3, [r4]
 986              	.L202:
 987 0062 DA68     		ldr	r2, [r3, #12]
 988 0064 22F49072 		bic	r2, r2, #288
 989 0068 DA60     		str	r2, [r3, #12]
 990 006a 5A69     		ldr	r2, [r3, #20]
 991 006c 2021     		movs	r1, #32
 992 006e 22F00102 		bic	r2, r2, #1
 993 0072 5A61     		str	r2, [r3, #20]
 994 0074 0020     		movs	r0, #0
ARM GAS  D:\Programs\cygwin64\tmp\ccGbWzxx.s 			page 18


 995 0076 84F83610 		strb	r1, [r4, #54]
 996 007a 10BD     		pop	{r4, pc}
 998              		.section	.text.HAL_IRDA_Abort,"ax",%progbits
 999              		.align	1
 1000              		.p2align 2,,3
 1001              		.global	HAL_IRDA_Abort
 1002              		.syntax unified
 1003              		.thumb
 1004              		.thumb_func
 1005              		.fpu fpv4-sp-d16
 1007              	HAL_IRDA_Abort:
 1008              		@ args = 0, pretend = 0, frame = 0
 1009              		@ frame_needed = 0, uses_anonymous_args = 0
 1010 0000 0368     		ldr	r3, [r0]
 1011 0002 DA68     		ldr	r2, [r3, #12]
 1012 0004 22F4F072 		bic	r2, r2, #480
 1013 0008 10B5     		push	{r4, lr}
 1014 000a DA60     		str	r2, [r3, #12]
 1015 000c 5A69     		ldr	r2, [r3, #20]
 1016 000e 22F00102 		bic	r2, r2, #1
 1017 0012 5A61     		str	r2, [r3, #20]
 1018 0014 5A69     		ldr	r2, [r3, #20]
 1019 0016 1106     		lsls	r1, r2, #24
 1020 0018 0446     		mov	r4, r0
 1021 001a 0AD5     		bpl	.L219
 1022 001c 5A69     		ldr	r2, [r3, #20]
 1023 001e C06A     		ldr	r0, [r0, #44]
 1024 0020 22F08002 		bic	r2, r2, #128
 1025 0024 5A61     		str	r2, [r3, #20]
 1026 0026 20B1     		cbz	r0, .L219
 1027 0028 0023     		movs	r3, #0
 1028 002a 0365     		str	r3, [r0, #80]
 1029 002c FFF7FEFF 		bl	HAL_DMA_Abort
 1030 0030 2368     		ldr	r3, [r4]
 1031              	.L219:
 1032 0032 5A69     		ldr	r2, [r3, #20]
 1033 0034 5206     		lsls	r2, r2, #25
 1034 0036 09D5     		bpl	.L221
 1035 0038 5A69     		ldr	r2, [r3, #20]
 1036 003a 206B     		ldr	r0, [r4, #48]
 1037 003c 22F04002 		bic	r2, r2, #64
 1038 0040 5A61     		str	r2, [r3, #20]
 1039 0042 18B1     		cbz	r0, .L221
 1040 0044 0023     		movs	r3, #0
 1041 0046 0365     		str	r3, [r0, #80]
 1042 0048 FFF7FEFF 		bl	HAL_DMA_Abort
 1043              	.L221:
 1044 004c 0023     		movs	r3, #0
 1045 004e 2022     		movs	r2, #32
 1046 0050 6384     		strh	r3, [r4, #34]	@ movhi
 1047 0052 1846     		mov	r0, r3
 1048 0054 6385     		strh	r3, [r4, #42]	@ movhi
 1049 0056 A363     		str	r3, [r4, #56]
 1050 0058 84F83620 		strb	r2, [r4, #54]
 1051 005c 84F83520 		strb	r2, [r4, #53]
 1052 0060 10BD     		pop	{r4, pc}
 1054 0062 00BF     		.section	.text.HAL_IRDA_AbortTransmit,"ax",%progbits
ARM GAS  D:\Programs\cygwin64\tmp\ccGbWzxx.s 			page 19


 1055              		.align	1
 1056              		.p2align 2,,3
 1057              		.global	HAL_IRDA_AbortTransmit
 1058              		.syntax unified
 1059              		.thumb
 1060              		.thumb_func
 1061              		.fpu fpv4-sp-d16
 1063              	HAL_IRDA_AbortTransmit:
 1064              		@ args = 0, pretend = 0, frame = 0
 1065              		@ frame_needed = 0, uses_anonymous_args = 0
 1066 0000 0368     		ldr	r3, [r0]
 1067 0002 DA68     		ldr	r2, [r3, #12]
 1068 0004 22F0C002 		bic	r2, r2, #192
 1069 0008 10B5     		push	{r4, lr}
 1070 000a DA60     		str	r2, [r3, #12]
 1071 000c 5A69     		ldr	r2, [r3, #20]
 1072 000e 1206     		lsls	r2, r2, #24
 1073 0010 0446     		mov	r4, r0
 1074 0012 09D5     		bpl	.L235
 1075 0014 5A69     		ldr	r2, [r3, #20]
 1076 0016 C06A     		ldr	r0, [r0, #44]
 1077 0018 22F08002 		bic	r2, r2, #128
 1078 001c 5A61     		str	r2, [r3, #20]
 1079 001e 18B1     		cbz	r0, .L235
 1080 0020 0023     		movs	r3, #0
 1081 0022 0365     		str	r3, [r0, #80]
 1082 0024 FFF7FEFF 		bl	HAL_DMA_Abort
 1083              	.L235:
 1084 0028 0020     		movs	r0, #0
 1085 002a 2023     		movs	r3, #32
 1086 002c 6084     		strh	r0, [r4, #34]	@ movhi
 1087 002e 84F83530 		strb	r3, [r4, #53]
 1088 0032 10BD     		pop	{r4, pc}
 1090              		.section	.text.HAL_IRDA_AbortReceive,"ax",%progbits
 1091              		.align	1
 1092              		.p2align 2,,3
 1093              		.global	HAL_IRDA_AbortReceive
 1094              		.syntax unified
 1095              		.thumb
 1096              		.thumb_func
 1097              		.fpu fpv4-sp-d16
 1099              	HAL_IRDA_AbortReceive:
 1100              		@ args = 0, pretend = 0, frame = 0
 1101              		@ frame_needed = 0, uses_anonymous_args = 0
 1102 0000 0368     		ldr	r3, [r0]
 1103 0002 DA68     		ldr	r2, [r3, #12]
 1104 0004 22F49072 		bic	r2, r2, #288
 1105 0008 10B5     		push	{r4, lr}
 1106 000a DA60     		str	r2, [r3, #12]
 1107 000c 5A69     		ldr	r2, [r3, #20]
 1108 000e 22F00102 		bic	r2, r2, #1
 1109 0012 5A61     		str	r2, [r3, #20]
 1110 0014 5A69     		ldr	r2, [r3, #20]
 1111 0016 5206     		lsls	r2, r2, #25
 1112 0018 0446     		mov	r4, r0
 1113 001a 09D5     		bpl	.L243
 1114 001c 5A69     		ldr	r2, [r3, #20]
ARM GAS  D:\Programs\cygwin64\tmp\ccGbWzxx.s 			page 20


 1115 001e 006B     		ldr	r0, [r0, #48]
 1116 0020 22F04002 		bic	r2, r2, #64
 1117 0024 5A61     		str	r2, [r3, #20]
 1118 0026 18B1     		cbz	r0, .L243
 1119 0028 0023     		movs	r3, #0
 1120 002a 0365     		str	r3, [r0, #80]
 1121 002c FFF7FEFF 		bl	HAL_DMA_Abort
 1122              	.L243:
 1123 0030 0020     		movs	r0, #0
 1124 0032 2023     		movs	r3, #32
 1125 0034 6085     		strh	r0, [r4, #42]	@ movhi
 1126 0036 84F83630 		strb	r3, [r4, #54]
 1127 003a 10BD     		pop	{r4, pc}
 1129              		.section	.text.HAL_IRDA_TxCpltCallback,"ax",%progbits
 1130              		.align	1
 1131              		.p2align 2,,3
 1132              		.weak	HAL_IRDA_TxCpltCallback
 1133              		.syntax unified
 1134              		.thumb
 1135              		.thumb_func
 1136              		.fpu fpv4-sp-d16
 1138              	HAL_IRDA_TxCpltCallback:
 1139              		@ args = 0, pretend = 0, frame = 0
 1140              		@ frame_needed = 0, uses_anonymous_args = 0
 1141              		@ link register save eliminated.
 1142 0000 7047     		bx	lr
 1144 0002 00BF     		.section	.text.IRDA_DMATransmitCplt,"ax",%progbits
 1145              		.align	1
 1146              		.p2align 2,,3
 1147              		.syntax unified
 1148              		.thumb
 1149              		.thumb_func
 1150              		.fpu fpv4-sp-d16
 1152              	IRDA_DMATransmitCplt:
 1153              		@ args = 0, pretend = 0, frame = 0
 1154              		@ frame_needed = 0, uses_anonymous_args = 0
 1155 0000 08B5     		push	{r3, lr}
 1156 0002 0368     		ldr	r3, [r0]
 1157 0004 806B     		ldr	r0, [r0, #56]
 1158 0006 1B68     		ldr	r3, [r3]
 1159 0008 13F48073 		ands	r3, r3, #256
 1160 000c 0AD1     		bne	.L251
 1161 000e 0268     		ldr	r2, [r0]
 1162 0010 4384     		strh	r3, [r0, #34]	@ movhi
 1163 0012 5369     		ldr	r3, [r2, #20]
 1164 0014 23F08003 		bic	r3, r3, #128
 1165 0018 5361     		str	r3, [r2, #20]
 1166 001a D368     		ldr	r3, [r2, #12]
 1167 001c 43F04003 		orr	r3, r3, #64
 1168 0020 D360     		str	r3, [r2, #12]
 1169 0022 08BD     		pop	{r3, pc}
 1170              	.L251:
 1171 0024 FFF7FEFF 		bl	HAL_IRDA_TxCpltCallback
 1172 0028 08BD     		pop	{r3, pc}
 1174 002a 00BF     		.section	.text.HAL_IRDA_TxHalfCpltCallback,"ax",%progbits
 1175              		.align	1
 1176              		.p2align 2,,3
ARM GAS  D:\Programs\cygwin64\tmp\ccGbWzxx.s 			page 21


 1177              		.weak	HAL_IRDA_TxHalfCpltCallback
 1178              		.syntax unified
 1179              		.thumb
 1180              		.thumb_func
 1181              		.fpu fpv4-sp-d16
 1183              	HAL_IRDA_TxHalfCpltCallback:
 1184              		@ args = 0, pretend = 0, frame = 0
 1185              		@ frame_needed = 0, uses_anonymous_args = 0
 1186              		@ link register save eliminated.
 1187 0000 7047     		bx	lr
 1189 0002 00BF     		.section	.text.IRDA_DMATransmitHalfCplt,"ax",%progbits
 1190              		.align	1
 1191              		.p2align 2,,3
 1192              		.syntax unified
 1193              		.thumb
 1194              		.thumb_func
 1195              		.fpu fpv4-sp-d16
 1197              	IRDA_DMATransmitHalfCplt:
 1198              		@ args = 0, pretend = 0, frame = 0
 1199              		@ frame_needed = 0, uses_anonymous_args = 0
 1200 0000 08B5     		push	{r3, lr}
 1201 0002 806B     		ldr	r0, [r0, #56]
 1202 0004 FFF7FEFF 		bl	HAL_IRDA_TxHalfCpltCallback
 1203 0008 08BD     		pop	{r3, pc}
 1205 000a 00BF     		.section	.text.HAL_IRDA_RxCpltCallback,"ax",%progbits
 1206              		.align	1
 1207              		.p2align 2,,3
 1208              		.weak	HAL_IRDA_RxCpltCallback
 1209              		.syntax unified
 1210              		.thumb
 1211              		.thumb_func
 1212              		.fpu fpv4-sp-d16
 1214              	HAL_IRDA_RxCpltCallback:
 1215              		@ args = 0, pretend = 0, frame = 0
 1216              		@ frame_needed = 0, uses_anonymous_args = 0
 1217              		@ link register save eliminated.
 1218 0000 7047     		bx	lr
 1220 0002 00BF     		.section	.text.IRDA_DMAReceiveCplt,"ax",%progbits
 1221              		.align	1
 1222              		.p2align 2,,3
 1223              		.syntax unified
 1224              		.thumb
 1225              		.thumb_func
 1226              		.fpu fpv4-sp-d16
 1228              	IRDA_DMAReceiveCplt:
 1229              		@ args = 0, pretend = 0, frame = 0
 1230              		@ frame_needed = 0, uses_anonymous_args = 0
 1231 0000 08B5     		push	{r3, lr}
 1232 0002 0368     		ldr	r3, [r0]
 1233 0004 806B     		ldr	r0, [r0, #56]
 1234 0006 1B68     		ldr	r3, [r3]
 1235 0008 13F48073 		ands	r3, r3, #256
 1236 000c 10D1     		bne	.L259
 1237 000e 0268     		ldr	r2, [r0]
 1238 0010 4385     		strh	r3, [r0, #42]	@ movhi
 1239 0012 D368     		ldr	r3, [r2, #12]
 1240 0014 23F48073 		bic	r3, r3, #256
ARM GAS  D:\Programs\cygwin64\tmp\ccGbWzxx.s 			page 22


 1241 0018 D360     		str	r3, [r2, #12]
 1242 001a 5369     		ldr	r3, [r2, #20]
 1243 001c 23F00103 		bic	r3, r3, #1
 1244 0020 5361     		str	r3, [r2, #20]
 1245 0022 5369     		ldr	r3, [r2, #20]
 1246 0024 2021     		movs	r1, #32
 1247 0026 23F04003 		bic	r3, r3, #64
 1248 002a 5361     		str	r3, [r2, #20]
 1249 002c 80F83610 		strb	r1, [r0, #54]
 1250              	.L259:
 1251 0030 FFF7FEFF 		bl	HAL_IRDA_RxCpltCallback
 1252 0034 08BD     		pop	{r3, pc}
 1254 0036 00BF     		.section	.text.IRDA_Receive_IT.part.1,"ax",%progbits
 1255              		.align	1
 1256              		.p2align 2,,3
 1257              		.syntax unified
 1258              		.thumb
 1259              		.thumb_func
 1260              		.fpu fpv4-sp-d16
 1262              	IRDA_Receive_IT.part.1:
 1263              		@ args = 0, pretend = 0, frame = 0
 1264              		@ frame_needed = 0, uses_anonymous_args = 0
 1265 0000 10B5     		push	{r4, lr}
 1266 0002 8468     		ldr	r4, [r0, #8]
 1267 0004 0368     		ldr	r3, [r0]
 1268 0006 C168     		ldr	r1, [r0, #12]
 1269 0008 5B68     		ldr	r3, [r3, #4]
 1270 000a 426A     		ldr	r2, [r0, #36]
 1271 000c B4F5805F 		cmp	r4, #4096
 1272 0010 0ED0     		beq	.L269
 1273 0012 DBB2     		uxtb	r3, r3
 1274 0014 541C     		adds	r4, r2, #1
 1275 0016 41B9     		cbnz	r1, .L265
 1276              	.L268:
 1277 0018 4462     		str	r4, [r0, #36]
 1278 001a 1370     		strb	r3, [r2]
 1279              	.L264:
 1280 001c 438D     		ldrh	r3, [r0, #42]
 1281 001e 013B     		subs	r3, r3, #1
 1282 0020 9BB2     		uxth	r3, r3
 1283 0022 4385     		strh	r3, [r0, #42]	@ movhi
 1284 0024 63B1     		cbz	r3, .L270
 1285 0026 0020     		movs	r0, #0
 1286 0028 10BD     		pop	{r4, pc}
 1287              	.L265:
 1288 002a 03F07F03 		and	r3, r3, #127
 1289 002e F3E7     		b	.L268
 1290              	.L269:
 1291 0030 9BB2     		uxth	r3, r3
 1292 0032 C9B9     		cbnz	r1, .L263
 1293 0034 C3F30803 		ubfx	r3, r3, #0, #9
 1294 0038 22F8023B 		strh	r3, [r2], #2	@ movhi
 1295 003c 4262     		str	r2, [r0, #36]
 1296 003e EDE7     		b	.L264
 1297              	.L270:
 1298 0040 0268     		ldr	r2, [r0]
 1299 0042 D168     		ldr	r1, [r2, #12]
ARM GAS  D:\Programs\cygwin64\tmp\ccGbWzxx.s 			page 23


 1300 0044 21F02001 		bic	r1, r1, #32
 1301 0048 D160     		str	r1, [r2, #12]
 1302 004a D168     		ldr	r1, [r2, #12]
 1303 004c 21F48071 		bic	r1, r1, #256
 1304 0050 D160     		str	r1, [r2, #12]
 1305 0052 5169     		ldr	r1, [r2, #20]
 1306 0054 2024     		movs	r4, #32
 1307 0056 21F00101 		bic	r1, r1, #1
 1308 005a 5161     		str	r1, [r2, #20]
 1309 005c 80F83640 		strb	r4, [r0, #54]
 1310 0060 FFF7FEFF 		bl	HAL_IRDA_RxCpltCallback
 1311 0064 0020     		movs	r0, #0
 1312 0066 10BD     		pop	{r4, pc}
 1313              	.L263:
 1314 0068 DBB2     		uxtb	r3, r3
 1315 006a 22F8013B 		strh	r3, [r2], #1	@ movhi
 1316 006e 4262     		str	r2, [r0, #36]
 1317 0070 D4E7     		b	.L264
 1319 0072 00BF     		.section	.text.HAL_IRDA_RxHalfCpltCallback,"ax",%progbits
 1320              		.align	1
 1321              		.p2align 2,,3
 1322              		.weak	HAL_IRDA_RxHalfCpltCallback
 1323              		.syntax unified
 1324              		.thumb
 1325              		.thumb_func
 1326              		.fpu fpv4-sp-d16
 1328              	HAL_IRDA_RxHalfCpltCallback:
 1329              		@ args = 0, pretend = 0, frame = 0
 1330              		@ frame_needed = 0, uses_anonymous_args = 0
 1331              		@ link register save eliminated.
 1332 0000 7047     		bx	lr
 1334 0002 00BF     		.section	.text.IRDA_DMAReceiveHalfCplt,"ax",%progbits
 1335              		.align	1
 1336              		.p2align 2,,3
 1337              		.syntax unified
 1338              		.thumb
 1339              		.thumb_func
 1340              		.fpu fpv4-sp-d16
 1342              	IRDA_DMAReceiveHalfCplt:
 1343              		@ args = 0, pretend = 0, frame = 0
 1344              		@ frame_needed = 0, uses_anonymous_args = 0
 1345 0000 08B5     		push	{r3, lr}
 1346 0002 806B     		ldr	r0, [r0, #56]
 1347 0004 FFF7FEFF 		bl	HAL_IRDA_RxHalfCpltCallback
 1348 0008 08BD     		pop	{r3, pc}
 1350 000a 00BF     		.section	.text.HAL_IRDA_ErrorCallback,"ax",%progbits
 1351              		.align	1
 1352              		.p2align 2,,3
 1353              		.weak	HAL_IRDA_ErrorCallback
 1354              		.syntax unified
 1355              		.thumb
 1356              		.thumb_func
 1357              		.fpu fpv4-sp-d16
 1359              	HAL_IRDA_ErrorCallback:
 1360              		@ args = 0, pretend = 0, frame = 0
 1361              		@ frame_needed = 0, uses_anonymous_args = 0
 1362              		@ link register save eliminated.
ARM GAS  D:\Programs\cygwin64\tmp\ccGbWzxx.s 			page 24


 1363 0000 7047     		bx	lr
 1365 0002 00BF     		.section	.text.IRDA_DMAError,"ax",%progbits
 1366              		.align	1
 1367              		.p2align 2,,3
 1368              		.syntax unified
 1369              		.thumb
 1370              		.thumb_func
 1371              		.fpu fpv4-sp-d16
 1373              	IRDA_DMAError:
 1374              		@ args = 0, pretend = 0, frame = 0
 1375              		@ frame_needed = 0, uses_anonymous_args = 0
 1376 0000 806B     		ldr	r0, [r0, #56]
 1377 0002 08B5     		push	{r3, lr}
 1378 0004 0368     		ldr	r3, [r0]
 1379 0006 5969     		ldr	r1, [r3, #20]
 1380 0008 90F83520 		ldrb	r2, [r0, #53]	@ zero_extendqisi2
 1381 000c 212A     		cmp	r2, #33
 1382 000e 0BD0     		beq	.L285
 1383              	.L276:
 1384 0010 5969     		ldr	r1, [r3, #20]
 1385 0012 90F83620 		ldrb	r2, [r0, #54]	@ zero_extendqisi2
 1386 0016 222A     		cmp	r2, #34
 1387 0018 16D0     		beq	.L286
 1388              	.L277:
 1389 001a 836B     		ldr	r3, [r0, #56]
 1390 001c 43F01003 		orr	r3, r3, #16
 1391 0020 8363     		str	r3, [r0, #56]
 1392 0022 FFF7FEFF 		bl	HAL_IRDA_ErrorCallback
 1393 0026 08BD     		pop	{r3, pc}
 1394              	.L285:
 1395 0028 0906     		lsls	r1, r1, #24
 1396 002a F1D5     		bpl	.L276
 1397 002c 0022     		movs	r2, #0
 1398 002e 4284     		strh	r2, [r0, #34]	@ movhi
 1399 0030 DA68     		ldr	r2, [r3, #12]
 1400 0032 2021     		movs	r1, #32
 1401 0034 22F0C002 		bic	r2, r2, #192
 1402 0038 DA60     		str	r2, [r3, #12]
 1403 003a 80F83510 		strb	r1, [r0, #53]
 1404 003e 5969     		ldr	r1, [r3, #20]
 1405 0040 90F83620 		ldrb	r2, [r0, #54]	@ zero_extendqisi2
 1406 0044 222A     		cmp	r2, #34
 1407 0046 E8D1     		bne	.L277
 1408              	.L286:
 1409 0048 4A06     		lsls	r2, r1, #25
 1410 004a E6D5     		bpl	.L277
 1411 004c 0022     		movs	r2, #0
 1412 004e 4285     		strh	r2, [r0, #42]	@ movhi
 1413 0050 DA68     		ldr	r2, [r3, #12]
 1414 0052 22F49072 		bic	r2, r2, #288
 1415 0056 DA60     		str	r2, [r3, #12]
 1416 0058 5A69     		ldr	r2, [r3, #20]
 1417 005a 2021     		movs	r1, #32
 1418 005c 22F00102 		bic	r2, r2, #1
 1419 0060 5A61     		str	r2, [r3, #20]
 1420 0062 80F83610 		strb	r1, [r0, #54]
 1421 0066 D8E7     		b	.L277
ARM GAS  D:\Programs\cygwin64\tmp\ccGbWzxx.s 			page 25


 1423              		.section	.text.HAL_IRDA_IRQHandler,"ax",%progbits
 1424              		.align	1
 1425              		.p2align 2,,3
 1426              		.global	HAL_IRDA_IRQHandler
 1427              		.syntax unified
 1428              		.thumb
 1429              		.thumb_func
 1430              		.fpu fpv4-sp-d16
 1432              	HAL_IRDA_IRQHandler:
 1433              		@ args = 0, pretend = 0, frame = 0
 1434              		@ frame_needed = 0, uses_anonymous_args = 0
 1435 0000 0368     		ldr	r3, [r0]
 1436 0002 1A68     		ldr	r2, [r3]
 1437 0004 70B5     		push	{r4, r5, r6, lr}
 1438 0006 1607     		lsls	r6, r2, #28
 1439 0008 DD68     		ldr	r5, [r3, #12]
 1440 000a 5969     		ldr	r1, [r3, #20]
 1441 000c 0446     		mov	r4, r0
 1442 000e 0CD1     		bne	.L288
 1443 0010 9606     		lsls	r6, r2, #26
 1444 0012 01D5     		bpl	.L289
 1445 0014 A906     		lsls	r1, r5, #26
 1446 0016 4BD4     		bmi	.L366
 1447              	.L289:
 1448 0018 1606     		lsls	r6, r2, #24
 1449 001a 01D5     		bpl	.L305
 1450 001c 2806     		lsls	r0, r5, #24
 1451 001e 4FD4     		bmi	.L367
 1452              	.L305:
 1453 0020 5106     		lsls	r1, r2, #25
 1454 0022 01D5     		bpl	.L287
 1455 0024 6A06     		lsls	r2, r5, #25
 1456 0026 67D4     		bmi	.L368
 1457              	.L287:
 1458 0028 70BD     		pop	{r4, r5, r6, pc}
 1459              	.L288:
 1460 002a 01F00101 		and	r1, r1, #1
 1461 002e 05F49070 		and	r0, r5, #288
 1462 0032 0843     		orrs	r0, r0, r1
 1463 0034 F0D0     		beq	.L289
 1464 0036 D607     		lsls	r6, r2, #31
 1465 0038 05D5     		bpl	.L292
 1466 003a E805     		lsls	r0, r5, #23
 1467 003c 03D5     		bpl	.L292
 1468 003e A06B     		ldr	r0, [r4, #56]
 1469 0040 40F00100 		orr	r0, r0, #1
 1470 0044 A063     		str	r0, [r4, #56]
 1471              	.L292:
 1472 0046 5607     		lsls	r6, r2, #29
 1473 0048 02F00200 		and	r0, r2, #2
 1474 004c 29D5     		bpl	.L293
 1475 004e 61B1     		cbz	r1, .L295
 1476 0050 A16B     		ldr	r1, [r4, #56]
 1477 0052 41F00201 		orr	r1, r1, #2
 1478 0056 A163     		str	r1, [r4, #56]
 1479 0058 02F00806 		and	r6, r2, #8
 1480 005c 18B1     		cbz	r0, .L365
ARM GAS  D:\Programs\cygwin64\tmp\ccGbWzxx.s 			page 26


 1481              	.L296:
 1482 005e A16B     		ldr	r1, [r4, #56]
 1483 0060 41F00401 		orr	r1, r1, #4
 1484 0064 A163     		str	r1, [r4, #56]
 1485              	.L365:
 1486 0066 002E     		cmp	r6, #0
 1487 0068 59D1     		bne	.L300
 1488              	.L295:
 1489 006a A16B     		ldr	r1, [r4, #56]
 1490 006c 0029     		cmp	r1, #0
 1491 006e DBD0     		beq	.L287
 1492 0070 9006     		lsls	r0, r2, #26
 1493 0072 09D5     		bpl	.L302
 1494 0074 A906     		lsls	r1, r5, #26
 1495 0076 07D5     		bpl	.L302
 1496 0078 94F83620 		ldrb	r2, [r4, #54]	@ zero_extendqisi2
 1497 007c 222A     		cmp	r2, #34
 1498 007e 03D1     		bne	.L302
 1499 0080 2046     		mov	r0, r4
 1500 0082 FFF7FEFF 		bl	IRDA_Receive_IT.part.1
 1501 0086 2368     		ldr	r3, [r4]
 1502              	.L302:
 1503 0088 5A69     		ldr	r2, [r3, #20]
 1504 008a A56B     		ldr	r5, [r4, #56]
 1505 008c 02F04002 		and	r2, r2, #64
 1506 0090 05F00805 		and	r5, r5, #8
 1507 0094 1543     		orrs	r5, r2, r5
 1508 0096 47D1     		bne	.L369
 1509 0098 2046     		mov	r0, r4
 1510 009a FFF7FEFF 		bl	HAL_IRDA_ErrorCallback
 1511 009e A563     		str	r5, [r4, #56]
 1512 00a0 70BD     		pop	{r4, r5, r6, pc}
 1513              	.L293:
 1514 00a2 0028     		cmp	r0, #0
 1515 00a4 37D0     		beq	.L298
 1516 00a6 0029     		cmp	r1, #0
 1517 00a8 DFD0     		beq	.L295
 1518 00aa 02F00806 		and	r6, r2, #8
 1519 00ae D6E7     		b	.L296
 1520              	.L366:
 1521 00b0 90F83630 		ldrb	r3, [r0, #54]	@ zero_extendqisi2
 1522 00b4 222B     		cmp	r3, #34
 1523 00b6 B7D1     		bne	.L287
 1524 00b8 BDE87040 		pop	{r4, r5, r6, lr}
 1525 00bc FFF7FEBF 		b	IRDA_Receive_IT.part.1
 1526              	.L367:
 1527 00c0 94F83520 		ldrb	r2, [r4, #53]	@ zero_extendqisi2
 1528 00c4 212A     		cmp	r2, #33
 1529 00c6 AFD1     		bne	.L287
 1530 00c8 A168     		ldr	r1, [r4, #8]
 1531 00ca E269     		ldr	r2, [r4, #28]
 1532 00cc B1F5805F 		cmp	r1, #4096
 1533 00d0 4ED0     		beq	.L370
 1534 00d2 511C     		adds	r1, r2, #1
 1535 00d4 E161     		str	r1, [r4, #28]
 1536 00d6 1278     		ldrb	r2, [r2]	@ zero_extendqisi2
 1537 00d8 5A60     		str	r2, [r3, #4]
ARM GAS  D:\Programs\cygwin64\tmp\ccGbWzxx.s 			page 27


 1538              	.L308:
 1539 00da 628C     		ldrh	r2, [r4, #34]
 1540 00dc 013A     		subs	r2, r2, #1
 1541 00de 92B2     		uxth	r2, r2
 1542 00e0 6284     		strh	r2, [r4, #34]	@ movhi
 1543 00e2 002A     		cmp	r2, #0
 1544 00e4 A0D1     		bne	.L287
 1545 00e6 DA68     		ldr	r2, [r3, #12]
 1546 00e8 22F08002 		bic	r2, r2, #128
 1547 00ec DA60     		str	r2, [r3, #12]
 1548 00ee DA68     		ldr	r2, [r3, #12]
 1549 00f0 42F04002 		orr	r2, r2, #64
 1550 00f4 DA60     		str	r2, [r3, #12]
 1551 00f6 70BD     		pop	{r4, r5, r6, pc}
 1552              	.L368:
 1553 00f8 DA68     		ldr	r2, [r3, #12]
 1554 00fa 22F04002 		bic	r2, r2, #64
 1555 00fe DA60     		str	r2, [r3, #12]
 1556 0100 5A69     		ldr	r2, [r3, #20]
 1557 0102 2021     		movs	r1, #32
 1558 0104 22F00102 		bic	r2, r2, #1
 1559 0108 5A61     		str	r2, [r3, #20]
 1560 010a 2046     		mov	r0, r4
 1561 010c 84F83510 		strb	r1, [r4, #53]
 1562 0110 FFF7FEFF 		bl	HAL_IRDA_TxCpltCallback
 1563 0114 70BD     		pop	{r4, r5, r6, pc}
 1564              	.L298:
 1565 0116 1607     		lsls	r6, r2, #28
 1566 0118 A7D5     		bpl	.L295
 1567 011a 0029     		cmp	r1, #0
 1568 011c A5D0     		beq	.L295
 1569              	.L300:
 1570 011e A16B     		ldr	r1, [r4, #56]
 1571 0120 41F00801 		orr	r1, r1, #8
 1572 0124 A163     		str	r1, [r4, #56]
 1573 0126 A0E7     		b	.L295
 1574              	.L369:
 1575 0128 DA68     		ldr	r2, [r3, #12]
 1576 012a 22F49072 		bic	r2, r2, #288
 1577 012e DA60     		str	r2, [r3, #12]
 1578 0130 5A69     		ldr	r2, [r3, #20]
 1579 0132 2021     		movs	r1, #32
 1580 0134 22F00102 		bic	r2, r2, #1
 1581 0138 5A61     		str	r2, [r3, #20]
 1582 013a 84F83610 		strb	r1, [r4, #54]
 1583 013e 5A69     		ldr	r2, [r3, #20]
 1584 0140 5206     		lsls	r2, r2, #25
 1585 0142 11D5     		bpl	.L304
 1586 0144 5A69     		ldr	r2, [r3, #20]
 1587 0146 206B     		ldr	r0, [r4, #48]
 1588 0148 22F04002 		bic	r2, r2, #64
 1589 014c 5A61     		str	r2, [r3, #20]
 1590 014e 58B1     		cbz	r0, .L304
 1591 0150 0D4B     		ldr	r3, .L371
 1592 0152 0365     		str	r3, [r0, #80]
 1593 0154 FFF7FEFF 		bl	HAL_DMA_Abort_IT
 1594 0158 0028     		cmp	r0, #0
ARM GAS  D:\Programs\cygwin64\tmp\ccGbWzxx.s 			page 28


 1595 015a 3FF465AF 		beq	.L287
 1596 015e 206B     		ldr	r0, [r4, #48]
 1597 0160 BDE87040 		pop	{r4, r5, r6, lr}
 1598 0164 036D     		ldr	r3, [r0, #80]
 1599 0166 1847     		bx	r3	@ indirect register sibling call
 1600              	.L304:
 1601 0168 2046     		mov	r0, r4
 1602 016a FFF7FEFF 		bl	HAL_IRDA_ErrorCallback
 1603 016e 70BD     		pop	{r4, r5, r6, pc}
 1604              	.L370:
 1605 0170 1188     		ldrh	r1, [r2]
 1606 0172 E068     		ldr	r0, [r4, #12]
 1607 0174 C1F30801 		ubfx	r1, r1, #0, #9
 1608 0178 5960     		str	r1, [r3, #4]
 1609 017a 10B9     		cbnz	r0, .L307
 1610 017c 0232     		adds	r2, r2, #2
 1611 017e E261     		str	r2, [r4, #28]
 1612 0180 ABE7     		b	.L308
 1613              	.L307:
 1614 0182 0132     		adds	r2, r2, #1
 1615 0184 E261     		str	r2, [r4, #28]
 1616 0186 A8E7     		b	.L308
 1617              	.L372:
 1618              		.align	2
 1619              	.L371:
 1620 0188 00000000 		.word	IRDA_DMAAbortOnError
 1622              		.section	.text.IRDA_DMAAbortOnError,"ax",%progbits
 1623              		.align	1
 1624              		.p2align 2,,3
 1625              		.syntax unified
 1626              		.thumb
 1627              		.thumb_func
 1628              		.fpu fpv4-sp-d16
 1630              	IRDA_DMAAbortOnError:
 1631              		@ args = 0, pretend = 0, frame = 0
 1632              		@ frame_needed = 0, uses_anonymous_args = 0
 1633 0000 08B5     		push	{r3, lr}
 1634 0002 836B     		ldr	r3, [r0, #56]
 1635 0004 0022     		movs	r2, #0
 1636 0006 5A85     		strh	r2, [r3, #42]	@ movhi
 1637 0008 1846     		mov	r0, r3
 1638 000a 5A84     		strh	r2, [r3, #34]	@ movhi
 1639 000c FFF7FEFF 		bl	HAL_IRDA_ErrorCallback
 1640 0010 08BD     		pop	{r3, pc}
 1642 0012 00BF     		.section	.text.HAL_IRDA_AbortCpltCallback,"ax",%progbits
 1643              		.align	1
 1644              		.p2align 2,,3
 1645              		.weak	HAL_IRDA_AbortCpltCallback
 1646              		.syntax unified
 1647              		.thumb
 1648              		.thumb_func
 1649              		.fpu fpv4-sp-d16
 1651              	HAL_IRDA_AbortCpltCallback:
 1652              		@ args = 0, pretend = 0, frame = 0
 1653              		@ frame_needed = 0, uses_anonymous_args = 0
 1654              		@ link register save eliminated.
 1655 0000 7047     		bx	lr
ARM GAS  D:\Programs\cygwin64\tmp\ccGbWzxx.s 			page 29


 1657 0002 00BF     		.section	.text.HAL_IRDA_Abort_IT,"ax",%progbits
 1658              		.align	1
 1659              		.p2align 2,,3
 1660              		.global	HAL_IRDA_Abort_IT
 1661              		.syntax unified
 1662              		.thumb
 1663              		.thumb_func
 1664              		.fpu fpv4-sp-d16
 1666              	HAL_IRDA_Abort_IT:
 1667              		@ args = 0, pretend = 0, frame = 0
 1668              		@ frame_needed = 0, uses_anonymous_args = 0
 1669 0000 0368     		ldr	r3, [r0]
 1670 0002 DA68     		ldr	r2, [r3, #12]
 1671 0004 22F4F072 		bic	r2, r2, #480
 1672 0008 10B5     		push	{r4, lr}
 1673 000a 0446     		mov	r4, r0
 1674 000c C06A     		ldr	r0, [r0, #44]
 1675 000e DA60     		str	r2, [r3, #12]
 1676 0010 5A69     		ldr	r2, [r3, #20]
 1677 0012 22F00102 		bic	r2, r2, #1
 1678 0016 5A61     		str	r2, [r3, #20]
 1679 0018 28B1     		cbz	r0, .L377
 1680 001a 5A69     		ldr	r2, [r3, #20]
 1681 001c 12F08002 		ands	r2, r2, #128
 1682 0020 18BF     		it	ne
 1683 0022 214A     		ldrne	r2, .L407
 1684 0024 0265     		str	r2, [r0, #80]
 1685              	.L377:
 1686 0026 216B     		ldr	r1, [r4, #48]
 1687 0028 29B1     		cbz	r1, .L379
 1688 002a 5A69     		ldr	r2, [r3, #20]
 1689 002c 12F04002 		ands	r2, r2, #64
 1690 0030 18BF     		it	ne
 1691 0032 1E4A     		ldrne	r2, .L407+4
 1692 0034 0A65     		str	r2, [r1, #80]
 1693              	.L379:
 1694 0036 5A69     		ldr	r2, [r3, #20]
 1695 0038 1206     		lsls	r2, r2, #24
 1696 003a 0BD5     		bpl	.L381
 1697 003c 5A69     		ldr	r2, [r3, #20]
 1698 003e 22F08002 		bic	r2, r2, #128
 1699 0042 5A61     		str	r2, [r3, #20]
 1700 0044 30B1     		cbz	r0, .L381
 1701 0046 FFF7FEFF 		bl	HAL_DMA_Abort_IT
 1702 004a 00B3     		cbz	r0, .L382
 1703 004c E26A     		ldr	r2, [r4, #44]
 1704 004e 2368     		ldr	r3, [r4]
 1705 0050 0021     		movs	r1, #0
 1706 0052 1165     		str	r1, [r2, #80]
 1707              	.L381:
 1708 0054 5A69     		ldr	r2, [r3, #20]
 1709 0056 5206     		lsls	r2, r2, #25
 1710 0058 0BD5     		bpl	.L384
 1711 005a 5A69     		ldr	r2, [r3, #20]
 1712 005c 206B     		ldr	r0, [r4, #48]
 1713 005e 22F04002 		bic	r2, r2, #64
 1714 0062 5A61     		str	r2, [r3, #20]
ARM GAS  D:\Programs\cygwin64\tmp\ccGbWzxx.s 			page 30


 1715 0064 28B1     		cbz	r0, .L384
 1716              	.L383:
 1717 0066 FFF7FEFF 		bl	HAL_DMA_Abort_IT
 1718 006a 70B1     		cbz	r0, .L400
 1719 006c 236B     		ldr	r3, [r4, #48]
 1720 006e 0022     		movs	r2, #0
 1721 0070 1A65     		str	r2, [r3, #80]
 1722              	.L384:
 1723 0072 0023     		movs	r3, #0
 1724 0074 2022     		movs	r2, #32
 1725 0076 6384     		strh	r3, [r4, #34]	@ movhi
 1726 0078 2046     		mov	r0, r4
 1727 007a 6385     		strh	r3, [r4, #42]	@ movhi
 1728 007c A363     		str	r3, [r4, #56]
 1729 007e 84F83520 		strb	r2, [r4, #53]
 1730 0082 84F83620 		strb	r2, [r4, #54]
 1731 0086 FFF7FEFF 		bl	HAL_IRDA_AbortCpltCallback
 1732              	.L400:
 1733 008a 0020     		movs	r0, #0
 1734 008c 10BD     		pop	{r4, pc}
 1735              	.L382:
 1736 008e 2368     		ldr	r3, [r4]
 1737 0090 5A69     		ldr	r2, [r3, #20]
 1738 0092 5106     		lsls	r1, r2, #25
 1739 0094 F9D5     		bpl	.L400
 1740 0096 5A69     		ldr	r2, [r3, #20]
 1741 0098 206B     		ldr	r0, [r4, #48]
 1742 009a 22F04002 		bic	r2, r2, #64
 1743 009e 5A61     		str	r2, [r3, #20]
 1744 00a0 0028     		cmp	r0, #0
 1745 00a2 E0D1     		bne	.L383
 1746 00a4 F1E7     		b	.L400
 1747              	.L408:
 1748 00a6 00BF     		.align	2
 1749              	.L407:
 1750 00a8 00000000 		.word	IRDA_DMATxAbortCallback
 1751 00ac 00000000 		.word	IRDA_DMARxAbortCallback
 1753              		.section	.text.IRDA_DMARxAbortCallback,"ax",%progbits
 1754              		.align	1
 1755              		.p2align 2,,3
 1756              		.syntax unified
 1757              		.thumb
 1758              		.thumb_func
 1759              		.fpu fpv4-sp-d16
 1761              	IRDA_DMARxAbortCallback:
 1762              		@ args = 0, pretend = 0, frame = 0
 1763              		@ frame_needed = 0, uses_anonymous_args = 0
 1764 0000 08B5     		push	{r3, lr}
 1765 0002 836B     		ldr	r3, [r0, #56]
 1766 0004 D3E90B21 		ldrd	r2, r1, [r3, #44]
 1767 0008 0020     		movs	r0, #0
 1768 000a 0865     		str	r0, [r1, #80]
 1769 000c 12B1     		cbz	r2, .L410
 1770 000e 126D     		ldr	r2, [r2, #80]
 1771 0010 02B1     		cbz	r2, .L410
 1772 0012 08BD     		pop	{r3, pc}
 1773              	.L410:
ARM GAS  D:\Programs\cygwin64\tmp\ccGbWzxx.s 			page 31


 1774 0014 0022     		movs	r2, #0
 1775 0016 2021     		movs	r1, #32
 1776 0018 5A84     		strh	r2, [r3, #34]	@ movhi
 1777 001a 1846     		mov	r0, r3
 1778 001c 5A85     		strh	r2, [r3, #42]	@ movhi
 1779 001e 9A63     		str	r2, [r3, #56]
 1780 0020 83F83510 		strb	r1, [r3, #53]
 1781 0024 83F83610 		strb	r1, [r3, #54]
 1782 0028 FFF7FEFF 		bl	HAL_IRDA_AbortCpltCallback
 1783 002c 08BD     		pop	{r3, pc}
 1785 002e 00BF     		.section	.text.IRDA_DMATxAbortCallback,"ax",%progbits
 1786              		.align	1
 1787              		.p2align 2,,3
 1788              		.syntax unified
 1789              		.thumb
 1790              		.thumb_func
 1791              		.fpu fpv4-sp-d16
 1793              	IRDA_DMATxAbortCallback:
 1794              		@ args = 0, pretend = 0, frame = 0
 1795              		@ frame_needed = 0, uses_anonymous_args = 0
 1796 0000 08B5     		push	{r3, lr}
 1797 0002 836B     		ldr	r3, [r0, #56]
 1798 0004 D3E90B12 		ldrd	r1, r2, [r3, #44]
 1799 0008 0020     		movs	r0, #0
 1800 000a 0865     		str	r0, [r1, #80]
 1801 000c 12B1     		cbz	r2, .L417
 1802 000e 126D     		ldr	r2, [r2, #80]
 1803 0010 02B1     		cbz	r2, .L417
 1804 0012 08BD     		pop	{r3, pc}
 1805              	.L417:
 1806 0014 0022     		movs	r2, #0
 1807 0016 2021     		movs	r1, #32
 1808 0018 5A84     		strh	r2, [r3, #34]	@ movhi
 1809 001a 1846     		mov	r0, r3
 1810 001c 5A85     		strh	r2, [r3, #42]	@ movhi
 1811 001e 9A63     		str	r2, [r3, #56]
 1812 0020 83F83510 		strb	r1, [r3, #53]
 1813 0024 83F83610 		strb	r1, [r3, #54]
 1814 0028 FFF7FEFF 		bl	HAL_IRDA_AbortCpltCallback
 1815 002c 08BD     		pop	{r3, pc}
 1817 002e 00BF     		.section	.text.HAL_IRDA_AbortTransmitCpltCallback,"ax",%progbits
 1818              		.align	1
 1819              		.p2align 2,,3
 1820              		.weak	HAL_IRDA_AbortTransmitCpltCallback
 1821              		.syntax unified
 1822              		.thumb
 1823              		.thumb_func
 1824              		.fpu fpv4-sp-d16
 1826              	HAL_IRDA_AbortTransmitCpltCallback:
 1827              		@ args = 0, pretend = 0, frame = 0
 1828              		@ frame_needed = 0, uses_anonymous_args = 0
 1829              		@ link register save eliminated.
 1830 0000 7047     		bx	lr
 1832 0002 00BF     		.section	.text.HAL_IRDA_AbortTransmit_IT,"ax",%progbits
 1833              		.align	1
 1834              		.p2align 2,,3
 1835              		.global	HAL_IRDA_AbortTransmit_IT
ARM GAS  D:\Programs\cygwin64\tmp\ccGbWzxx.s 			page 32


 1836              		.syntax unified
 1837              		.thumb
 1838              		.thumb_func
 1839              		.fpu fpv4-sp-d16
 1841              	HAL_IRDA_AbortTransmit_IT:
 1842              		@ args = 0, pretend = 0, frame = 0
 1843              		@ frame_needed = 0, uses_anonymous_args = 0
 1844 0000 0368     		ldr	r3, [r0]
 1845 0002 DA68     		ldr	r2, [r3, #12]
 1846 0004 22F0C002 		bic	r2, r2, #192
 1847 0008 10B5     		push	{r4, lr}
 1848 000a DA60     		str	r2, [r3, #12]
 1849 000c 5A69     		ldr	r2, [r3, #20]
 1850 000e 12F08002 		ands	r2, r2, #128
 1851 0012 0446     		mov	r4, r0
 1852 0014 18D0     		beq	.L425
 1853 0016 5A69     		ldr	r2, [r3, #20]
 1854 0018 C16A     		ldr	r1, [r0, #44]
 1855 001a 22F08002 		bic	r2, r2, #128
 1856 001e 5A61     		str	r2, [r3, #20]
 1857 0020 51B1     		cbz	r1, .L426
 1858 0022 0D4B     		ldr	r3, .L432
 1859 0024 0B65     		str	r3, [r1, #80]
 1860 0026 0846     		mov	r0, r1
 1861 0028 FFF7FEFF 		bl	HAL_DMA_Abort_IT
 1862 002c 10B1     		cbz	r0, .L427
 1863 002e E06A     		ldr	r0, [r4, #44]
 1864 0030 036D     		ldr	r3, [r0, #80]
 1865 0032 9847     		blx	r3
 1866              	.L427:
 1867 0034 0020     		movs	r0, #0
 1868 0036 10BD     		pop	{r4, pc}
 1869              	.L426:
 1870 0038 2023     		movs	r3, #32
 1871 003a 4184     		strh	r1, [r0, #34]	@ movhi
 1872 003c 80F83530 		strb	r3, [r0, #53]
 1873 0040 FFF7FEFF 		bl	HAL_IRDA_AbortTransmitCpltCallback
 1874 0044 0020     		movs	r0, #0
 1875 0046 10BD     		pop	{r4, pc}
 1876              	.L425:
 1877 0048 2023     		movs	r3, #32
 1878 004a 4284     		strh	r2, [r0, #34]	@ movhi
 1879 004c 80F83530 		strb	r3, [r0, #53]
 1880 0050 FFF7FEFF 		bl	HAL_IRDA_AbortTransmitCpltCallback
 1881 0054 0020     		movs	r0, #0
 1882 0056 10BD     		pop	{r4, pc}
 1883              	.L433:
 1884              		.align	2
 1885              	.L432:
 1886 0058 00000000 		.word	IRDA_DMATxOnlyAbortCallback
 1888              		.section	.text.IRDA_DMATxOnlyAbortCallback,"ax",%progbits
 1889              		.align	1
 1890              		.p2align 2,,3
 1891              		.syntax unified
 1892              		.thumb
 1893              		.thumb_func
 1894              		.fpu fpv4-sp-d16
ARM GAS  D:\Programs\cygwin64\tmp\ccGbWzxx.s 			page 33


 1896              	IRDA_DMATxOnlyAbortCallback:
 1897              		@ args = 0, pretend = 0, frame = 0
 1898              		@ frame_needed = 0, uses_anonymous_args = 0
 1899 0000 08B5     		push	{r3, lr}
 1900 0002 836B     		ldr	r3, [r0, #56]
 1901 0004 0021     		movs	r1, #0
 1902 0006 2022     		movs	r2, #32
 1903 0008 5984     		strh	r1, [r3, #34]	@ movhi
 1904 000a 1846     		mov	r0, r3
 1905 000c 83F83520 		strb	r2, [r3, #53]
 1906 0010 FFF7FEFF 		bl	HAL_IRDA_AbortTransmitCpltCallback
 1907 0014 08BD     		pop	{r3, pc}
 1909 0016 00BF     		.section	.text.HAL_IRDA_AbortReceiveCpltCallback,"ax",%progbits
 1910              		.align	1
 1911              		.p2align 2,,3
 1912              		.weak	HAL_IRDA_AbortReceiveCpltCallback
 1913              		.syntax unified
 1914              		.thumb
 1915              		.thumb_func
 1916              		.fpu fpv4-sp-d16
 1918              	HAL_IRDA_AbortReceiveCpltCallback:
 1919              		@ args = 0, pretend = 0, frame = 0
 1920              		@ frame_needed = 0, uses_anonymous_args = 0
 1921              		@ link register save eliminated.
 1922 0000 7047     		bx	lr
 1924 0002 00BF     		.section	.text.HAL_IRDA_AbortReceive_IT,"ax",%progbits
 1925              		.align	1
 1926              		.p2align 2,,3
 1927              		.global	HAL_IRDA_AbortReceive_IT
 1928              		.syntax unified
 1929              		.thumb
 1930              		.thumb_func
 1931              		.fpu fpv4-sp-d16
 1933              	HAL_IRDA_AbortReceive_IT:
 1934              		@ args = 0, pretend = 0, frame = 0
 1935              		@ frame_needed = 0, uses_anonymous_args = 0
 1936 0000 0368     		ldr	r3, [r0]
 1937 0002 DA68     		ldr	r2, [r3, #12]
 1938 0004 22F49072 		bic	r2, r2, #288
 1939 0008 10B5     		push	{r4, lr}
 1940 000a DA60     		str	r2, [r3, #12]
 1941 000c 5A69     		ldr	r2, [r3, #20]
 1942 000e 22F00102 		bic	r2, r2, #1
 1943 0012 5A61     		str	r2, [r3, #20]
 1944 0014 5A69     		ldr	r2, [r3, #20]
 1945 0016 12F04002 		ands	r2, r2, #64
 1946 001a 0446     		mov	r4, r0
 1947 001c 18D0     		beq	.L438
 1948 001e 5A69     		ldr	r2, [r3, #20]
 1949 0020 016B     		ldr	r1, [r0, #48]
 1950 0022 22F04002 		bic	r2, r2, #64
 1951 0026 5A61     		str	r2, [r3, #20]
 1952 0028 51B1     		cbz	r1, .L439
 1953 002a 0D4B     		ldr	r3, .L445
 1954 002c 0B65     		str	r3, [r1, #80]
 1955 002e 0846     		mov	r0, r1
 1956 0030 FFF7FEFF 		bl	HAL_DMA_Abort_IT
ARM GAS  D:\Programs\cygwin64\tmp\ccGbWzxx.s 			page 34


 1957 0034 10B1     		cbz	r0, .L440
 1958 0036 206B     		ldr	r0, [r4, #48]
 1959 0038 036D     		ldr	r3, [r0, #80]
 1960 003a 9847     		blx	r3
 1961              	.L440:
 1962 003c 0020     		movs	r0, #0
 1963 003e 10BD     		pop	{r4, pc}
 1964              	.L439:
 1965 0040 2023     		movs	r3, #32
 1966 0042 4185     		strh	r1, [r0, #42]	@ movhi
 1967 0044 80F83630 		strb	r3, [r0, #54]
 1968 0048 FFF7FEFF 		bl	HAL_IRDA_AbortReceiveCpltCallback
 1969 004c 0020     		movs	r0, #0
 1970 004e 10BD     		pop	{r4, pc}
 1971              	.L438:
 1972 0050 2023     		movs	r3, #32
 1973 0052 4285     		strh	r2, [r0, #42]	@ movhi
 1974 0054 80F83630 		strb	r3, [r0, #54]
 1975 0058 FFF7FEFF 		bl	HAL_IRDA_AbortReceiveCpltCallback
 1976 005c 0020     		movs	r0, #0
 1977 005e 10BD     		pop	{r4, pc}
 1978              	.L446:
 1979              		.align	2
 1980              	.L445:
 1981 0060 00000000 		.word	IRDA_DMARxOnlyAbortCallback
 1983              		.section	.text.IRDA_DMARxOnlyAbortCallback,"ax",%progbits
 1984              		.align	1
 1985              		.p2align 2,,3
 1986              		.syntax unified
 1987              		.thumb
 1988              		.thumb_func
 1989              		.fpu fpv4-sp-d16
 1991              	IRDA_DMARxOnlyAbortCallback:
 1992              		@ args = 0, pretend = 0, frame = 0
 1993              		@ frame_needed = 0, uses_anonymous_args = 0
 1994 0000 08B5     		push	{r3, lr}
 1995 0002 836B     		ldr	r3, [r0, #56]
 1996 0004 0021     		movs	r1, #0
 1997 0006 2022     		movs	r2, #32
 1998 0008 5985     		strh	r1, [r3, #42]	@ movhi
 1999 000a 1846     		mov	r0, r3
 2000 000c 83F83620 		strb	r2, [r3, #54]
 2001 0010 FFF7FEFF 		bl	HAL_IRDA_AbortReceiveCpltCallback
 2002 0014 08BD     		pop	{r3, pc}
 2004 0016 00BF     		.section	.text.HAL_IRDA_GetState,"ax",%progbits
 2005              		.align	1
 2006              		.p2align 2,,3
 2007              		.global	HAL_IRDA_GetState
 2008              		.syntax unified
 2009              		.thumb
 2010              		.thumb_func
 2011              		.fpu fpv4-sp-d16
 2013              	HAL_IRDA_GetState:
 2014              		@ args = 0, pretend = 0, frame = 0
 2015              		@ frame_needed = 0, uses_anonymous_args = 0
 2016              		@ link register save eliminated.
 2017 0000 90F83520 		ldrb	r2, [r0, #53]	@ zero_extendqisi2
ARM GAS  D:\Programs\cygwin64\tmp\ccGbWzxx.s 			page 35


 2018 0004 90F83600 		ldrb	r0, [r0, #54]	@ zero_extendqisi2
 2019 0008 1043     		orrs	r0, r0, r2
 2020 000a 7047     		bx	lr
 2022              		.section	.text.HAL_IRDA_GetError,"ax",%progbits
 2023              		.align	1
 2024              		.p2align 2,,3
 2025              		.global	HAL_IRDA_GetError
 2026              		.syntax unified
 2027              		.thumb
 2028              		.thumb_func
 2029              		.fpu fpv4-sp-d16
 2031              	HAL_IRDA_GetError:
 2032              		@ args = 0, pretend = 0, frame = 0
 2033              		@ frame_needed = 0, uses_anonymous_args = 0
 2034              		@ link register save eliminated.
 2035 0000 806B     		ldr	r0, [r0, #56]
 2036 0002 7047     		bx	lr
 2038              		.ident	"GCC: (GNU Tools for Arm Embedded Processors 8-2018-q4-major) 8.2.1 20181213 (release) [gcc
ARM GAS  D:\Programs\cygwin64\tmp\ccGbWzxx.s 			page 36

