ARM GAS  D:\Programs\cygwin64\tmp\ccXCD1TL.s 			page 1


   1              		.cpu cortex-m4
   2              		.eabi_attribute 27, 1
   3              		.eabi_attribute 28, 1
   4              		.eabi_attribute 20, 1
   5              		.eabi_attribute 21, 1
   6              		.eabi_attribute 23, 3
   7              		.eabi_attribute 24, 1
   8              		.eabi_attribute 25, 1
   9              		.eabi_attribute 26, 1
  10              		.eabi_attribute 30, 2
  11              		.eabi_attribute 34, 1
  12              		.eabi_attribute 18, 4
  13              		.file	"stm32f4xx_hal_dac.c"
  14              		.text
  15              		.section	.text.HAL_DAC_MspInit,"ax",%progbits
  16              		.align	1
  17              		.p2align 2,,3
  18              		.weak	HAL_DAC_MspInit
  19              		.arch armv7e-m
  20              		.syntax unified
  21              		.thumb
  22              		.thumb_func
  23              		.fpu fpv4-sp-d16
  25              	HAL_DAC_MspInit:
  26              		@ args = 0, pretend = 0, frame = 0
  27              		@ frame_needed = 0, uses_anonymous_args = 0
  28              		@ link register save eliminated.
  29 0000 7047     		bx	lr
  31 0002 00BF     		.section	.text.HAL_DAC_Init,"ax",%progbits
  32              		.align	1
  33              		.p2align 2,,3
  34              		.global	HAL_DAC_Init
  35              		.syntax unified
  36              		.thumb
  37              		.thumb_func
  38              		.fpu fpv4-sp-d16
  40              	HAL_DAC_Init:
  41              		@ args = 0, pretend = 0, frame = 0
  42              		@ frame_needed = 0, uses_anonymous_args = 0
  43 0000 88B1     		cbz	r0, .L6
  44 0002 0379     		ldrb	r3, [r0, #4]	@ zero_extendqisi2
  45 0004 10B5     		push	{r4, lr}
  46 0006 03F0FF02 		and	r2, r3, #255
  47 000a 0446     		mov	r4, r0
  48 000c 3BB1     		cbz	r3, .L11
  49              	.L5:
  50 000e 0023     		movs	r3, #0
  51 0010 0221     		movs	r1, #2
  52 0012 0122     		movs	r2, #1
  53 0014 2171     		strb	r1, [r4, #4]
  54 0016 1846     		mov	r0, r3
  55 0018 2361     		str	r3, [r4, #16]
  56 001a 2271     		strb	r2, [r4, #4]
  57 001c 10BD     		pop	{r4, pc}
  58              	.L11:
  59 001e 4271     		strb	r2, [r0, #5]
  60 0020 FFF7FEFF 		bl	HAL_DAC_MspInit
ARM GAS  D:\Programs\cygwin64\tmp\ccXCD1TL.s 			page 2


  61 0024 F3E7     		b	.L5
  62              	.L6:
  63 0026 0120     		movs	r0, #1
  64 0028 7047     		bx	lr
  66 002a 00BF     		.section	.text.HAL_DAC_MspDeInit,"ax",%progbits
  67              		.align	1
  68              		.p2align 2,,3
  69              		.weak	HAL_DAC_MspDeInit
  70              		.syntax unified
  71              		.thumb
  72              		.thumb_func
  73              		.fpu fpv4-sp-d16
  75              	HAL_DAC_MspDeInit:
  76              		@ args = 0, pretend = 0, frame = 0
  77              		@ frame_needed = 0, uses_anonymous_args = 0
  78              		@ link register save eliminated.
  79 0000 7047     		bx	lr
  81 0002 00BF     		.section	.text.HAL_DAC_DeInit,"ax",%progbits
  82              		.align	1
  83              		.p2align 2,,3
  84              		.global	HAL_DAC_DeInit
  85              		.syntax unified
  86              		.thumb
  87              		.thumb_func
  88              		.fpu fpv4-sp-d16
  90              	HAL_DAC_DeInit:
  91              		@ args = 0, pretend = 0, frame = 0
  92              		@ frame_needed = 0, uses_anonymous_args = 0
  93 0000 50B1     		cbz	r0, .L15
  94 0002 10B5     		push	{r4, lr}
  95 0004 0223     		movs	r3, #2
  96 0006 0446     		mov	r4, r0
  97 0008 0371     		strb	r3, [r0, #4]
  98 000a FFF7FEFF 		bl	HAL_DAC_MspDeInit
  99 000e 0020     		movs	r0, #0
 100 0010 2061     		str	r0, [r4, #16]
 101 0012 6071     		strb	r0, [r4, #5]
 102 0014 2071     		strb	r0, [r4, #4]
 103 0016 10BD     		pop	{r4, pc}
 104              	.L15:
 105 0018 0120     		movs	r0, #1
 106 001a 7047     		bx	lr
 108              		.section	.text.HAL_DAC_Start,"ax",%progbits
 109              		.align	1
 110              		.p2align 2,,3
 111              		.global	HAL_DAC_Start
 112              		.syntax unified
 113              		.thumb
 114              		.thumb_func
 115              		.fpu fpv4-sp-d16
 117              	HAL_DAC_Start:
 118              		@ args = 0, pretend = 0, frame = 0
 119              		@ frame_needed = 0, uses_anonymous_args = 0
 120              		@ link register save eliminated.
 121 0000 4379     		ldrb	r3, [r0, #5]	@ zero_extendqisi2
 122 0002 012B     		cmp	r3, #1
 123 0004 2CD0     		beq	.L24
ARM GAS  D:\Programs\cygwin64\tmp\ccXCD1TL.s 			page 3


 124 0006 0222     		movs	r2, #2
 125 0008 0368     		ldr	r3, [r0]
 126 000a 30B4     		push	{r4, r5}
 127 000c 0271     		strb	r2, [r0, #4]
 128 000e 1D68     		ldr	r5, [r3]
 129 0010 0124     		movs	r4, #1
 130 0012 04FA01F2 		lsl	r2, r4, r1
 131 0016 2A43     		orrs	r2, r2, r5
 132 0018 4471     		strb	r4, [r0, #5]
 133 001a 1A60     		str	r2, [r3]
 134 001c 71B9     		cbnz	r1, .L22
 135 001e 1968     		ldr	r1, [r3]
 136 0020 1A68     		ldr	r2, [r3]
 137 0022 4D07     		lsls	r5, r1, #29
 138 0024 03D5     		bpl	.L23
 139 0026 02F03802 		and	r2, r2, #56
 140 002a 382A     		cmp	r2, #56
 141 002c 14D0     		beq	.L35
 142              	.L23:
 143 002e 0023     		movs	r3, #0
 144 0030 0122     		movs	r2, #1
 145 0032 0271     		strb	r2, [r0, #4]
 146 0034 4371     		strb	r3, [r0, #5]
 147 0036 30BC     		pop	{r4, r5}
 148 0038 1846     		mov	r0, r3
 149 003a 7047     		bx	lr
 150              	.L22:
 151 003c 1968     		ldr	r1, [r3]
 152 003e 1A68     		ldr	r2, [r3]
 153 0040 4903     		lsls	r1, r1, #13
 154 0042 F4D5     		bpl	.L23
 155 0044 02F46012 		and	r2, r2, #3670016
 156 0048 B2F5601F 		cmp	r2, #3670016
 157 004c EFD1     		bne	.L23
 158 004e 5A68     		ldr	r2, [r3, #4]
 159 0050 42F00202 		orr	r2, r2, #2
 160 0054 5A60     		str	r2, [r3, #4]
 161 0056 EAE7     		b	.L23
 162              	.L35:
 163 0058 5A68     		ldr	r2, [r3, #4]
 164 005a 2243     		orrs	r2, r2, r4
 165 005c 5A60     		str	r2, [r3, #4]
 166 005e E6E7     		b	.L23
 167              	.L24:
 168 0060 0220     		movs	r0, #2
 169 0062 7047     		bx	lr
 171              		.section	.text.HAL_DAC_Stop,"ax",%progbits
 172              		.align	1
 173              		.p2align 2,,3
 174              		.global	HAL_DAC_Stop
 175              		.syntax unified
 176              		.thumb
 177              		.thumb_func
 178              		.fpu fpv4-sp-d16
 180              	HAL_DAC_Stop:
 181              		@ args = 0, pretend = 0, frame = 0
 182              		@ frame_needed = 0, uses_anonymous_args = 0
ARM GAS  D:\Programs\cygwin64\tmp\ccXCD1TL.s 			page 4


 183              		@ link register save eliminated.
 184 0000 0246     		mov	r2, r0
 185 0002 0068     		ldr	r0, [r0]
 186 0004 10B4     		push	{r4}
 187 0006 0368     		ldr	r3, [r0]
 188 0008 0124     		movs	r4, #1
 189 000a 04FA01F1 		lsl	r1, r4, r1
 190 000e 23EA0103 		bic	r3, r3, r1
 191 0012 0360     		str	r3, [r0]
 192 0014 0020     		movs	r0, #0
 193 0016 1471     		strb	r4, [r2, #4]
 194 0018 5DF8044B 		ldr	r4, [sp], #4
 195 001c 7047     		bx	lr
 197 001e 00BF     		.section	.text.HAL_DAC_Start_DMA,"ax",%progbits
 198              		.align	1
 199              		.p2align 2,,3
 200              		.global	HAL_DAC_Start_DMA
 201              		.syntax unified
 202              		.thumb
 203              		.thumb_func
 204              		.fpu fpv4-sp-d16
 206              	HAL_DAC_Start_DMA:
 207              		@ args = 4, pretend = 0, frame = 0
 208              		@ frame_needed = 0, uses_anonymous_args = 0
 209 0000 F8B5     		push	{r3, r4, r5, r6, r7, lr}
 210 0002 4479     		ldrb	r4, [r0, #5]	@ zero_extendqisi2
 211 0004 DDF818C0 		ldr	ip, [sp, #24]
 212 0008 012C     		cmp	r4, #1
 213 000a 51D0     		beq	.L50
 214 000c 1746     		mov	r7, r2
 215 000e 0568     		ldr	r5, [r0]
 216 0010 0222     		movs	r2, #2
 217 0012 0E46     		mov	r6, r1
 218 0014 0271     		strb	r2, [r0, #4]
 219 0016 0121     		movs	r1, #1
 220 0018 0446     		mov	r4, r0
 221 001a 4171     		strb	r1, [r0, #5]
 222 001c 2A68     		ldr	r2, [r5]
 223 001e 46B3     		cbz	r6, .L54
 224 0020 C068     		ldr	r0, [r0, #12]
 225 0022 2D49     		ldr	r1, .L57
 226 0024 C163     		str	r1, [r0, #60]
 227 0026 DFF8C0E0 		ldr	lr, .L57+16
 228 002a 2C49     		ldr	r1, .L57+4
 229 002c C0F840E0 		str	lr, [r0, #64]
 230 0030 42F08052 		orr	r2, r2, #268435456
 231 0034 BCF1040F 		cmp	ip, #4
 232 0038 C164     		str	r1, [r0, #76]
 233 003a 2A60     		str	r2, [r5]
 234 003c 49D0     		beq	.L45
 235 003e BCF1080F 		cmp	ip, #8
 236 0042 43D0     		beq	.L46
 237 0044 BCF1000F 		cmp	ip, #0
 238 0048 3DD0     		beq	.L55
 239 004a 0022     		movs	r2, #0
 240              	.L47:
 241 004c 2968     		ldr	r1, [r5]
ARM GAS  D:\Programs\cygwin64\tmp\ccXCD1TL.s 			page 5


 242 004e 41F0005C 		orr	ip, r1, #536870912
 243 0052 C5F800C0 		str	ip, [r5]
 244 0056 3946     		mov	r1, r7
 245 0058 FFF7FEFF 		bl	HAL_DMA_Start_IT
 246              	.L49:
 247 005c 2268     		ldr	r2, [r4]
 248 005e 0123     		movs	r3, #1
 249 0060 1068     		ldr	r0, [r2]
 250 0062 03FA06F1 		lsl	r1, r3, r6
 251 0066 0143     		orrs	r1, r1, r0
 252 0068 0023     		movs	r3, #0
 253 006a 1160     		str	r1, [r2]
 254 006c 1846     		mov	r0, r3
 255 006e 6371     		strb	r3, [r4, #5]
 256 0070 F8BD     		pop	{r3, r4, r5, r6, r7, pc}
 257              	.L54:
 258 0072 8068     		ldr	r0, [r0, #8]
 259 0074 1A49     		ldr	r1, .L57+8
 260 0076 C163     		str	r1, [r0, #60]
 261 0078 DFF870E0 		ldr	lr, .L57+20
 262 007c 1949     		ldr	r1, .L57+12
 263 007e C0F840E0 		str	lr, [r0, #64]
 264 0082 42F48052 		orr	r2, r2, #4096
 265 0086 BCF1040F 		cmp	ip, #4
 266 008a C164     		str	r1, [r0, #76]
 267 008c 2A60     		str	r2, [r5]
 268 008e 17D0     		beq	.L41
 269 0090 BCF1080F 		cmp	ip, #8
 270 0094 11D0     		beq	.L42
 271 0096 BCF1000F 		cmp	ip, #0
 272 009a 0BD0     		beq	.L56
 273 009c 0022     		movs	r2, #0
 274              	.L44:
 275 009e 2968     		ldr	r1, [r5]
 276 00a0 41F4005C 		orr	ip, r1, #8192
 277 00a4 C5F800C0 		str	ip, [r5]
 278 00a8 3946     		mov	r1, r7
 279 00aa FFF7FEFF 		bl	HAL_DMA_Start_IT
 280 00ae D5E7     		b	.L49
 281              	.L50:
 282 00b0 0220     		movs	r0, #2
 283 00b2 F8BD     		pop	{r3, r4, r5, r6, r7, pc}
 284              	.L56:
 285 00b4 05F10802 		add	r2, r5, #8
 286 00b8 F1E7     		b	.L44
 287              	.L42:
 288 00ba 05F11002 		add	r2, r5, #16
 289 00be EEE7     		b	.L44
 290              	.L41:
 291 00c0 05F10C02 		add	r2, r5, #12
 292 00c4 EBE7     		b	.L44
 293              	.L55:
 294 00c6 05F11402 		add	r2, r5, #20
 295 00ca BFE7     		b	.L47
 296              	.L46:
 297 00cc 05F11C02 		add	r2, r5, #28
 298 00d0 BCE7     		b	.L47
ARM GAS  D:\Programs\cygwin64\tmp\ccXCD1TL.s 			page 6


 299              	.L45:
 300 00d2 05F11802 		add	r2, r5, #24
 301 00d6 B9E7     		b	.L47
 302              	.L58:
 303              		.align	2
 304              	.L57:
 305 00d8 00000000 		.word	DAC_DMAConvCpltCh2
 306 00dc 00000000 		.word	DAC_DMAErrorCh2
 307 00e0 00000000 		.word	DAC_DMAConvCpltCh1
 308 00e4 00000000 		.word	DAC_DMAErrorCh1
 309 00e8 00000000 		.word	DAC_DMAHalfConvCpltCh2
 310 00ec 00000000 		.word	DAC_DMAHalfConvCpltCh1
 312              		.section	.text.HAL_DAC_Stop_DMA,"ax",%progbits
 313              		.align	1
 314              		.p2align 2,,3
 315              		.global	HAL_DAC_Stop_DMA
 316              		.syntax unified
 317              		.thumb
 318              		.thumb_func
 319              		.fpu fpv4-sp-d16
 321              	HAL_DAC_Stop_DMA:
 322              		@ args = 0, pretend = 0, frame = 0
 323              		@ frame_needed = 0, uses_anonymous_args = 0
 324 0000 0368     		ldr	r3, [r0]
 325 0002 10B5     		push	{r4, lr}
 326 0004 1A68     		ldr	r2, [r3]
 327 0006 0446     		mov	r4, r0
 328 0008 4FF48050 		mov	r0, #4096
 329 000c 8840     		lsls	r0, r0, r1
 330 000e 22EA0002 		bic	r2, r2, r0
 331 0012 1A60     		str	r2, [r3]
 332 0014 1A68     		ldr	r2, [r3]
 333 0016 0120     		movs	r0, #1
 334 0018 8840     		lsls	r0, r0, r1
 335 001a 22EA0002 		bic	r2, r2, r0
 336 001e 1A60     		str	r2, [r3]
 337 0020 49B9     		cbnz	r1, .L60
 338 0022 A068     		ldr	r0, [r4, #8]
 339 0024 FFF7FEFF 		bl	HAL_DMA_Abort
 340              	.L61:
 341 0028 10B1     		cbz	r0, .L62
 342 002a 0423     		movs	r3, #4
 343 002c 2371     		strb	r3, [r4, #4]
 344 002e 10BD     		pop	{r4, pc}
 345              	.L62:
 346 0030 0123     		movs	r3, #1
 347 0032 2371     		strb	r3, [r4, #4]
 348 0034 10BD     		pop	{r4, pc}
 349              	.L60:
 350 0036 E068     		ldr	r0, [r4, #12]
 351 0038 FFF7FEFF 		bl	HAL_DMA_Abort
 352 003c F4E7     		b	.L61
 354 003e 00BF     		.section	.text.HAL_DAC_GetValue,"ax",%progbits
 355              		.align	1
 356              		.p2align 2,,3
 357              		.global	HAL_DAC_GetValue
 358              		.syntax unified
ARM GAS  D:\Programs\cygwin64\tmp\ccXCD1TL.s 			page 7


 359              		.thumb
 360              		.thumb_func
 361              		.fpu fpv4-sp-d16
 363              	HAL_DAC_GetValue:
 364              		@ args = 0, pretend = 0, frame = 0
 365              		@ frame_needed = 0, uses_anonymous_args = 0
 366              		@ link register save eliminated.
 367 0000 0368     		ldr	r3, [r0]
 368 0002 09B9     		cbnz	r1, .L66
 369 0004 D86A     		ldr	r0, [r3, #44]
 370 0006 7047     		bx	lr
 371              	.L66:
 372 0008 186B     		ldr	r0, [r3, #48]
 373 000a 7047     		bx	lr
 375              		.section	.text.HAL_DAC_ConvCpltCallbackCh1,"ax",%progbits
 376              		.align	1
 377              		.p2align 2,,3
 378              		.weak	HAL_DAC_ConvCpltCallbackCh1
 379              		.syntax unified
 380              		.thumb
 381              		.thumb_func
 382              		.fpu fpv4-sp-d16
 384              	HAL_DAC_ConvCpltCallbackCh1:
 385              		@ args = 0, pretend = 0, frame = 0
 386              		@ frame_needed = 0, uses_anonymous_args = 0
 387              		@ link register save eliminated.
 388 0000 7047     		bx	lr
 390 0002 00BF     		.section	.text.DAC_DMAConvCpltCh1,"ax",%progbits
 391              		.align	1
 392              		.p2align 2,,3
 393              		.syntax unified
 394              		.thumb
 395              		.thumb_func
 396              		.fpu fpv4-sp-d16
 398              	DAC_DMAConvCpltCh1:
 399              		@ args = 0, pretend = 0, frame = 0
 400              		@ frame_needed = 0, uses_anonymous_args = 0
 401 0000 10B5     		push	{r4, lr}
 402 0002 846B     		ldr	r4, [r0, #56]
 403 0004 2046     		mov	r0, r4
 404 0006 FFF7FEFF 		bl	HAL_DAC_ConvCpltCallbackCh1
 405 000a 0123     		movs	r3, #1
 406 000c 2371     		strb	r3, [r4, #4]
 407 000e 10BD     		pop	{r4, pc}
 409              		.section	.text.HAL_DAC_ConvHalfCpltCallbackCh1,"ax",%progbits
 410              		.align	1
 411              		.p2align 2,,3
 412              		.weak	HAL_DAC_ConvHalfCpltCallbackCh1
 413              		.syntax unified
 414              		.thumb
 415              		.thumb_func
 416              		.fpu fpv4-sp-d16
 418              	HAL_DAC_ConvHalfCpltCallbackCh1:
 419              		@ args = 0, pretend = 0, frame = 0
 420              		@ frame_needed = 0, uses_anonymous_args = 0
 421              		@ link register save eliminated.
 422 0000 7047     		bx	lr
ARM GAS  D:\Programs\cygwin64\tmp\ccXCD1TL.s 			page 8


 424 0002 00BF     		.section	.text.DAC_DMAHalfConvCpltCh1,"ax",%progbits
 425              		.align	1
 426              		.p2align 2,,3
 427              		.syntax unified
 428              		.thumb
 429              		.thumb_func
 430              		.fpu fpv4-sp-d16
 432              	DAC_DMAHalfConvCpltCh1:
 433              		@ args = 0, pretend = 0, frame = 0
 434              		@ frame_needed = 0, uses_anonymous_args = 0
 435 0000 08B5     		push	{r3, lr}
 436 0002 806B     		ldr	r0, [r0, #56]
 437 0004 FFF7FEFF 		bl	HAL_DAC_ConvHalfCpltCallbackCh1
 438 0008 08BD     		pop	{r3, pc}
 440 000a 00BF     		.section	.text.HAL_DAC_ErrorCallbackCh1,"ax",%progbits
 441              		.align	1
 442              		.p2align 2,,3
 443              		.weak	HAL_DAC_ErrorCallbackCh1
 444              		.syntax unified
 445              		.thumb
 446              		.thumb_func
 447              		.fpu fpv4-sp-d16
 449              	HAL_DAC_ErrorCallbackCh1:
 450              		@ args = 0, pretend = 0, frame = 0
 451              		@ frame_needed = 0, uses_anonymous_args = 0
 452              		@ link register save eliminated.
 453 0000 7047     		bx	lr
 455 0002 00BF     		.section	.text.DAC_DMAErrorCh1,"ax",%progbits
 456              		.align	1
 457              		.p2align 2,,3
 458              		.syntax unified
 459              		.thumb
 460              		.thumb_func
 461              		.fpu fpv4-sp-d16
 463              	DAC_DMAErrorCh1:
 464              		@ args = 0, pretend = 0, frame = 0
 465              		@ frame_needed = 0, uses_anonymous_args = 0
 466 0000 10B5     		push	{r4, lr}
 467 0002 846B     		ldr	r4, [r0, #56]
 468 0004 2369     		ldr	r3, [r4, #16]
 469 0006 43F00403 		orr	r3, r3, #4
 470 000a 2361     		str	r3, [r4, #16]
 471 000c 2046     		mov	r0, r4
 472 000e FFF7FEFF 		bl	HAL_DAC_ErrorCallbackCh1
 473 0012 0123     		movs	r3, #1
 474 0014 2371     		strb	r3, [r4, #4]
 475 0016 10BD     		pop	{r4, pc}
 477              		.section	.text.HAL_DAC_DMAUnderrunCallbackCh1,"ax",%progbits
 478              		.align	1
 479              		.p2align 2,,3
 480              		.weak	HAL_DAC_DMAUnderrunCallbackCh1
 481              		.syntax unified
 482              		.thumb
 483              		.thumb_func
 484              		.fpu fpv4-sp-d16
 486              	HAL_DAC_DMAUnderrunCallbackCh1:
 487              		@ args = 0, pretend = 0, frame = 0
ARM GAS  D:\Programs\cygwin64\tmp\ccXCD1TL.s 			page 9


 488              		@ frame_needed = 0, uses_anonymous_args = 0
 489              		@ link register save eliminated.
 490 0000 7047     		bx	lr
 492 0002 00BF     		.section	.text.HAL_DAC_IRQHandler,"ax",%progbits
 493              		.align	1
 494              		.p2align 2,,3
 495              		.global	HAL_DAC_IRQHandler
 496              		.syntax unified
 497              		.thumb
 498              		.thumb_func
 499              		.fpu fpv4-sp-d16
 501              	HAL_DAC_IRQHandler:
 502              		@ args = 0, pretend = 0, frame = 0
 503              		@ frame_needed = 0, uses_anonymous_args = 0
 504 0000 0368     		ldr	r3, [r0]
 505 0002 5A6B     		ldr	r2, [r3, #52]
 506 0004 9104     		lsls	r1, r2, #18
 507 0006 10B5     		push	{r4, lr}
 508 0008 0446     		mov	r4, r0
 509 000a 03D4     		bmi	.L85
 510 000c 5A6B     		ldr	r2, [r3, #52]
 511 000e 9200     		lsls	r2, r2, #2
 512 0010 13D4     		bmi	.L86
 513              	.L78:
 514 0012 10BD     		pop	{r4, pc}
 515              	.L85:
 516 0014 0422     		movs	r2, #4
 517 0016 0271     		strb	r2, [r0, #4]
 518 0018 0269     		ldr	r2, [r0, #16]
 519 001a 4FF40051 		mov	r1, #8192
 520 001e 42F00102 		orr	r2, r2, #1
 521 0022 0261     		str	r2, [r0, #16]
 522 0024 5963     		str	r1, [r3, #52]
 523 0026 1A68     		ldr	r2, [r3]
 524 0028 22F48052 		bic	r2, r2, #4096
 525 002c 1A60     		str	r2, [r3]
 526 002e FFF7FEFF 		bl	HAL_DAC_DMAUnderrunCallbackCh1
 527 0032 2368     		ldr	r3, [r4]
 528 0034 5A6B     		ldr	r2, [r3, #52]
 529 0036 9200     		lsls	r2, r2, #2
 530 0038 EBD5     		bpl	.L78
 531              	.L86:
 532 003a 0422     		movs	r2, #4
 533 003c 2271     		strb	r2, [r4, #4]
 534 003e 2269     		ldr	r2, [r4, #16]
 535 0040 4FF00051 		mov	r1, #536870912
 536 0044 42F00202 		orr	r2, r2, #2
 537 0048 2261     		str	r2, [r4, #16]
 538 004a 5963     		str	r1, [r3, #52]
 539 004c 1A68     		ldr	r2, [r3]
 540 004e 22F08052 		bic	r2, r2, #268435456
 541 0052 2046     		mov	r0, r4
 542 0054 1A60     		str	r2, [r3]
 543 0056 BDE81040 		pop	{r4, lr}
 544 005a FFF7FEBF 		b	HAL_DACEx_DMAUnderrunCallbackCh2
 546 005e 00BF     		.section	.text.HAL_DAC_ConfigChannel,"ax",%progbits
 547              		.align	1
ARM GAS  D:\Programs\cygwin64\tmp\ccXCD1TL.s 			page 10


 548              		.p2align 2,,3
 549              		.global	HAL_DAC_ConfigChannel
 550              		.syntax unified
 551              		.thumb
 552              		.thumb_func
 553              		.fpu fpv4-sp-d16
 555              	HAL_DAC_ConfigChannel:
 556              		@ args = 0, pretend = 0, frame = 0
 557              		@ frame_needed = 0, uses_anonymous_args = 0
 558              		@ link register save eliminated.
 559 0000 4379     		ldrb	r3, [r0, #5]	@ zero_extendqisi2
 560 0002 012B     		cmp	r3, #1
 561 0004 1DD0     		beq	.L89
 562 0006 0223     		movs	r3, #2
 563 0008 70B4     		push	{r4, r5, r6}
 564 000a 0371     		strb	r3, [r0, #4]
 565 000c 0468     		ldr	r4, [r0]
 566 000e D1E90036 		ldrd	r3, r6, [r1]
 567 0012 40F6FE75 		movw	r5, #4094
 568 0016 2168     		ldr	r1, [r4]
 569 0018 9540     		lsls	r5, r5, r2
 570 001a 3343     		orrs	r3, r3, r6
 571 001c 21EA0501 		bic	r1, r1, r5
 572 0020 9340     		lsls	r3, r3, r2
 573 0022 0B43     		orrs	r3, r3, r1
 574 0024 2360     		str	r3, [r4]
 575 0026 2368     		ldr	r3, [r4]
 576 0028 C021     		movs	r1, #192
 577 002a 01FA02F2 		lsl	r2, r1, r2
 578 002e 23EA0203 		bic	r3, r3, r2
 579 0032 0121     		movs	r1, #1
 580 0034 0022     		movs	r2, #0
 581 0036 2360     		str	r3, [r4]
 582 0038 0171     		strb	r1, [r0, #4]
 583 003a 4271     		strb	r2, [r0, #5]
 584 003c 70BC     		pop	{r4, r5, r6}
 585 003e 1046     		mov	r0, r2
 586 0040 7047     		bx	lr
 587              	.L89:
 588 0042 0223     		movs	r3, #2
 589 0044 1846     		mov	r0, r3
 590 0046 7047     		bx	lr
 592              		.section	.text.HAL_DAC_SetValue,"ax",%progbits
 593              		.align	1
 594              		.p2align 2,,3
 595              		.global	HAL_DAC_SetValue
 596              		.syntax unified
 597              		.thumb
 598              		.thumb_func
 599              		.fpu fpv4-sp-d16
 601              	HAL_DAC_SetValue:
 602              		@ args = 0, pretend = 0, frame = 8
 603              		@ frame_needed = 0, uses_anonymous_args = 0
 604              		@ link register save eliminated.
 605 0000 10B4     		push	{r4}
 606 0002 83B0     		sub	sp, sp, #12
 607 0004 0068     		ldr	r0, [r0]
ARM GAS  D:\Programs\cygwin64\tmp\ccXCD1TL.s 			page 11


 608 0006 0024     		movs	r4, #0
 609 0008 0194     		str	r4, [sp, #4]
 610 000a 0190     		str	r0, [sp, #4]
 611 000c 51B9     		cbnz	r1, .L95
 612 000e 0199     		ldr	r1, [sp, #4]
 613 0010 0831     		adds	r1, r1, #8
 614 0012 1144     		add	r1, r1, r2
 615 0014 0191     		str	r1, [sp, #4]
 616              	.L96:
 617 0016 019A     		ldr	r2, [sp, #4]
 618 0018 0020     		movs	r0, #0
 619 001a 1360     		str	r3, [r2]
 620 001c 03B0     		add	sp, sp, #12
 621              		@ sp needed
 622 001e 5DF8044B 		ldr	r4, [sp], #4
 623 0022 7047     		bx	lr
 624              	.L95:
 625 0024 0199     		ldr	r1, [sp, #4]
 626 0026 1431     		adds	r1, r1, #20
 627 0028 1144     		add	r1, r1, r2
 628 002a 0191     		str	r1, [sp, #4]
 629 002c F3E7     		b	.L96
 631 002e 00BF     		.section	.text.HAL_DAC_GetState,"ax",%progbits
 632              		.align	1
 633              		.p2align 2,,3
 634              		.global	HAL_DAC_GetState
 635              		.syntax unified
 636              		.thumb
 637              		.thumb_func
 638              		.fpu fpv4-sp-d16
 640              	HAL_DAC_GetState:
 641              		@ args = 0, pretend = 0, frame = 0
 642              		@ frame_needed = 0, uses_anonymous_args = 0
 643              		@ link register save eliminated.
 644 0000 0079     		ldrb	r0, [r0, #4]	@ zero_extendqisi2
 645 0002 7047     		bx	lr
 647              		.section	.text.HAL_DAC_GetError,"ax",%progbits
 648              		.align	1
 649              		.p2align 2,,3
 650              		.global	HAL_DAC_GetError
 651              		.syntax unified
 652              		.thumb
 653              		.thumb_func
 654              		.fpu fpv4-sp-d16
 656              	HAL_DAC_GetError:
 657              		@ args = 0, pretend = 0, frame = 0
 658              		@ frame_needed = 0, uses_anonymous_args = 0
 659              		@ link register save eliminated.
 660 0000 0069     		ldr	r0, [r0, #16]
 661 0002 7047     		bx	lr
 663              		.ident	"GCC: (GNU Tools for Arm Embedded Processors 8-2018-q4-major) 8.2.1 20181213 (release) [gcc
ARM GAS  D:\Programs\cygwin64\tmp\ccXCD1TL.s 			page 12

