ARM GAS  D:\Programs\cygwin64\tmp\ccCuIJGc.s 			page 1


   1              		.cpu cortex-m4
   2              		.eabi_attribute 27, 1
   3              		.eabi_attribute 28, 1
   4              		.eabi_attribute 20, 1
   5              		.eabi_attribute 21, 1
   6              		.eabi_attribute 23, 3
   7              		.eabi_attribute 24, 1
   8              		.eabi_attribute 25, 1
   9              		.eabi_attribute 26, 1
  10              		.eabi_attribute 30, 2
  11              		.eabi_attribute 34, 1
  12              		.eabi_attribute 18, 4
  13              		.file	"stm32f4xx_hal_smartcard.c"
  14              		.text
  15              		.section	.text.SMARTCARD_DMATransmitCplt,"ax",%progbits
  16              		.align	1
  17              		.p2align 2,,3
  18              		.arch armv7e-m
  19              		.syntax unified
  20              		.thumb
  21              		.thumb_func
  22              		.fpu fpv4-sp-d16
  24              	SMARTCARD_DMATransmitCplt:
  25              		@ args = 0, pretend = 0, frame = 0
  26              		@ frame_needed = 0, uses_anonymous_args = 0
  27              		@ link register save eliminated.
  28 0000 826B     		ldr	r2, [r0, #56]
  29 0002 0021     		movs	r1, #0
  30 0004 1368     		ldr	r3, [r2]
  31 0006 D186     		strh	r1, [r2, #54]	@ movhi
  32 0008 5A69     		ldr	r2, [r3, #20]
  33 000a 22F08002 		bic	r2, r2, #128
  34 000e 5A61     		str	r2, [r3, #20]
  35 0010 DA68     		ldr	r2, [r3, #12]
  36 0012 42F04002 		orr	r2, r2, #64
  37 0016 DA60     		str	r2, [r3, #12]
  38 0018 7047     		bx	lr
  40 001a 00BF     		.section	.text.HAL_SMARTCARD_MspInit,"ax",%progbits
  41              		.align	1
  42              		.p2align 2,,3
  43              		.weak	HAL_SMARTCARD_MspInit
  44              		.syntax unified
  45              		.thumb
  46              		.thumb_func
  47              		.fpu fpv4-sp-d16
  49              	HAL_SMARTCARD_MspInit:
  50              		@ args = 0, pretend = 0, frame = 0
  51              		@ frame_needed = 0, uses_anonymous_args = 0
  52              		@ link register save eliminated.
  53 0000 7047     		bx	lr
  55 0002 00BF     		.section	.text.HAL_SMARTCARD_Init,"ax",%progbits
  56              		.align	1
  57              		.p2align 2,,3
  58              		.global	HAL_SMARTCARD_Init
  59              		.syntax unified
  60              		.thumb
  61              		.thumb_func
ARM GAS  D:\Programs\cygwin64\tmp\ccCuIJGc.s 			page 2


  62              		.fpu fpv4-sp-d16
  64              	HAL_SMARTCARD_Init:
  65              		@ args = 0, pretend = 0, frame = 0
  66              		@ frame_needed = 0, uses_anonymous_args = 0
  67 0000 0028     		cmp	r0, #0
  68 0002 00F00781 		beq	.L10
  69 0006 2DE9F843 		push	{r3, r4, r5, r6, r7, r8, r9, lr}
  70 000a 90F84930 		ldrb	r3, [r0, #73]	@ zero_extendqisi2
  71 000e 0446     		mov	r4, r0
  72 0010 03F0FF02 		and	r2, r3, #255
  73 0014 002B     		cmp	r3, #0
  74 0016 00F0F880 		beq	.L16
  75              	.L6:
  76 001a 2368     		ldr	r3, [r4]
  77 001c 2422     		movs	r2, #36
  78 001e 84F84920 		strb	r2, [r4, #73]
  79 0022 9869     		ldr	r0, [r3, #24]
  80 0024 A269     		ldr	r2, [r4, #24]
  81 0026 D4E90915 		ldrd	r1, r5, [r4, #36]
  82 002a 20F0FF00 		bic	r0, r0, #255
  83 002e 0843     		orrs	r0, r0, r1
  84 0030 9861     		str	r0, [r3, #24]
  85 0032 9969     		ldr	r1, [r3, #24]
  86 0034 E069     		ldr	r0, [r4, #28]
  87 0036 21F47F41 		bic	r1, r1, #65280
  88 003a 41EA0521 		orr	r1, r1, r5, lsl #8
  89 003e 9961     		str	r1, [r3, #24]
  90 0040 D968     		ldr	r1, [r3, #12]
  91 0042 256A     		ldr	r5, [r4, #32]
  92 0044 21F00C01 		bic	r1, r1, #12
  93 0048 D960     		str	r1, [r3, #12]
  94 004a 1969     		ldr	r1, [r3, #16]
  95 004c 0243     		orrs	r2, r2, r0
  96 004e 21F47061 		bic	r1, r1, #3840
  97 0052 0A43     		orrs	r2, r2, r1
  98 0054 D4E90210 		ldrd	r1, r0, [r4, #8]
  99 0058 2A43     		orrs	r2, r2, r5
 100 005a 0243     		orrs	r2, r2, r0
 101 005c 42F40062 		orr	r2, r2, #2048
 102 0060 1A61     		str	r2, [r3, #16]
 103 0062 1D69     		ldr	r5, [r3, #16]
 104 0064 2269     		ldr	r2, [r4, #16]
 105 0066 25F44055 		bic	r5, r5, #12288
 106 006a 2843     		orrs	r0, r0, r5
 107 006c 1861     		str	r0, [r3, #16]
 108 006e D868     		ldr	r0, [r3, #12]
 109 0070 6569     		ldr	r5, [r4, #20]
 110 0072 0A43     		orrs	r2, r2, r1
 111 0074 20F4B050 		bic	r0, r0, #5632
 112 0078 20F00C00 		bic	r0, r0, #12
 113 007c 2A43     		orrs	r2, r2, r5
 114 007e 0243     		orrs	r2, r2, r0
 115 0080 DA60     		str	r2, [r3, #12]
 116 0082 5A69     		ldr	r2, [r3, #20]
 117 0084 6449     		ldr	r1, .L17
 118 0086 22F44072 		bic	r2, r2, #768
 119 008a 8B42     		cmp	r3, r1
ARM GAS  D:\Programs\cygwin64\tmp\ccCuIJGc.s 			page 3


 120 008c 5A61     		str	r2, [r3, #20]
 121 008e 7ED0     		beq	.L7
 122 0090 624A     		ldr	r2, .L17+4
 123 0092 9342     		cmp	r3, r2
 124 0094 7BD0     		beq	.L7
 125 0096 FFF7FEFF 		bl	HAL_RCC_GetPCLK1Freq
 126 009a 614F     		ldr	r7, .L17+8
 127 009c 6268     		ldr	r2, [r4, #4]
 128 009e 00EB8000 		add	r0, r0, r0, lsl #2
 129 00a2 00EB8000 		add	r0, r0, r0, lsl #2
 130 00a6 9200     		lsls	r2, r2, #2
 131 00a8 B0FBF2F2 		udiv	r2, r0, r2
 132 00ac A7FB0232 		umull	r3, r2, r7, r2
 133 00b0 5209     		lsrs	r2, r2, #5
 134 00b2 1501     		lsls	r5, r2, #4
 135 00b4 FFF7FEFF 		bl	HAL_RCC_GetPCLK1Freq
 136 00b8 6668     		ldr	r6, [r4, #4]
 137 00ba 00EB8000 		add	r0, r0, r0, lsl #2
 138 00be 00EB8000 		add	r0, r0, r0, lsl #2
 139 00c2 B600     		lsls	r6, r6, #2
 140 00c4 B0FBF6F6 		udiv	r6, r0, r6
 141 00c8 FFF7FEFF 		bl	HAL_RCC_GetPCLK1Freq
 142 00cc 6268     		ldr	r2, [r4, #4]
 143 00ce 00EB8000 		add	r0, r0, r0, lsl #2
 144 00d2 00EB8000 		add	r0, r0, r0, lsl #2
 145 00d6 9200     		lsls	r2, r2, #2
 146 00d8 B0FBF2F2 		udiv	r2, r0, r2
 147 00dc A7FB0232 		umull	r3, r2, r7, r2
 148 00e0 5209     		lsrs	r2, r2, #5
 149 00e2 4FF06409 		mov	r9, #100
 150 00e6 09FB1262 		mls	r2, r9, r2, r6
 151 00ea 1201     		lsls	r2, r2, #4
 152 00ec 3232     		adds	r2, r2, #50
 153 00ee A7FB0232 		umull	r3, r2, r7, r2
 154 00f2 5209     		lsrs	r2, r2, #5
 155 00f4 02F0F006 		and	r6, r2, #240
 156 00f8 FFF7FEFF 		bl	HAL_RCC_GetPCLK1Freq
 157 00fc 6368     		ldr	r3, [r4, #4]
 158 00fe 00EB8000 		add	r0, r0, r0, lsl #2
 159 0102 00EB8000 		add	r0, r0, r0, lsl #2
 160 0106 9A00     		lsls	r2, r3, #2
 161 0108 B0FBF2F8 		udiv	r8, r0, r2
 162 010c FFF7FEFF 		bl	HAL_RCC_GetPCLK1Freq
 163              	.L15:
 164 0110 D4E90031 		ldrd	r3, r1, [r4]
 165 0114 00EB8000 		add	r0, r0, r0, lsl #2
 166 0118 8A00     		lsls	r2, r1, #2
 167 011a 00EB8000 		add	r0, r0, r0, lsl #2
 168 011e B0FBF2F2 		udiv	r2, r0, r2
 169 0122 A7FB0212 		umull	r1, r2, r7, r2
 170 0126 5209     		lsrs	r2, r2, #5
 171 0128 09FB1282 		mls	r2, r9, r2, r8
 172 012c 1201     		lsls	r2, r2, #4
 173 012e 3232     		adds	r2, r2, #50
 174 0130 A7FB0212 		umull	r1, r2, r7, r2
 175 0134 C2F34312 		ubfx	r2, r2, #5, #4
 176 0138 3243     		orrs	r2, r2, r6
ARM GAS  D:\Programs\cygwin64\tmp\ccCuIJGc.s 			page 4


 177 013a 2A44     		add	r2, r2, r5
 178 013c 9A60     		str	r2, [r3, #8]
 179 013e 1969     		ldr	r1, [r3, #16]
 180 0140 E06A     		ldr	r0, [r4, #44]
 181 0142 21F48041 		bic	r1, r1, #16384
 182 0146 1961     		str	r1, [r3, #16]
 183 0148 5969     		ldr	r1, [r3, #20]
 184 014a 21F00A01 		bic	r1, r1, #10
 185 014e 5961     		str	r1, [r3, #20]
 186 0150 D968     		ldr	r1, [r3, #12]
 187 0152 41F48071 		orr	r1, r1, #256
 188 0156 D960     		str	r1, [r3, #12]
 189 0158 5969     		ldr	r1, [r3, #20]
 190 015a 41F00101 		orr	r1, r1, #1
 191 015e 5961     		str	r1, [r3, #20]
 192 0160 D968     		ldr	r1, [r3, #12]
 193 0162 41F40051 		orr	r1, r1, #8192
 194 0166 D960     		str	r1, [r3, #12]
 195 0168 5A69     		ldr	r2, [r3, #20]
 196 016a 22F01002 		bic	r2, r2, #16
 197 016e 0243     		orrs	r2, r2, r0
 198 0170 5A61     		str	r2, [r3, #20]
 199 0172 5A69     		ldr	r2, [r3, #20]
 200 0174 0025     		movs	r5, #0
 201 0176 2021     		movs	r1, #32
 202 0178 42F02002 		orr	r2, r2, #32
 203 017c 5A61     		str	r2, [r3, #20]
 204 017e 2846     		mov	r0, r5
 205 0180 E564     		str	r5, [r4, #76]
 206 0182 84F84910 		strb	r1, [r4, #73]
 207 0186 84F84A10 		strb	r1, [r4, #74]
 208 018a BDE8F883 		pop	{r3, r4, r5, r6, r7, r8, r9, pc}
 209              	.L7:
 210 018e FFF7FEFF 		bl	HAL_RCC_GetPCLK2Freq
 211 0192 234F     		ldr	r7, .L17+8
 212 0194 6268     		ldr	r2, [r4, #4]
 213 0196 00EB8000 		add	r0, r0, r0, lsl #2
 214 019a 00EB8000 		add	r0, r0, r0, lsl #2
 215 019e 9200     		lsls	r2, r2, #2
 216 01a0 B0FBF2F2 		udiv	r2, r0, r2
 217 01a4 A7FB0232 		umull	r3, r2, r7, r2
 218 01a8 5209     		lsrs	r2, r2, #5
 219 01aa 1501     		lsls	r5, r2, #4
 220 01ac FFF7FEFF 		bl	HAL_RCC_GetPCLK2Freq
 221 01b0 6668     		ldr	r6, [r4, #4]
 222 01b2 00EB8000 		add	r0, r0, r0, lsl #2
 223 01b6 00EB8000 		add	r0, r0, r0, lsl #2
 224 01ba B600     		lsls	r6, r6, #2
 225 01bc B0FBF6F6 		udiv	r6, r0, r6
 226 01c0 FFF7FEFF 		bl	HAL_RCC_GetPCLK2Freq
 227 01c4 6268     		ldr	r2, [r4, #4]
 228 01c6 00EB8000 		add	r0, r0, r0, lsl #2
 229 01ca 00EB8000 		add	r0, r0, r0, lsl #2
 230 01ce 9200     		lsls	r2, r2, #2
 231 01d0 B0FBF2F2 		udiv	r2, r0, r2
 232 01d4 A7FB0232 		umull	r3, r2, r7, r2
 233 01d8 4FF06409 		mov	r9, #100
ARM GAS  D:\Programs\cygwin64\tmp\ccCuIJGc.s 			page 5


 234 01dc 5209     		lsrs	r2, r2, #5
 235 01de 09FB1262 		mls	r2, r9, r2, r6
 236 01e2 1201     		lsls	r2, r2, #4
 237 01e4 3232     		adds	r2, r2, #50
 238 01e6 A7FB0232 		umull	r3, r2, r7, r2
 239 01ea 5209     		lsrs	r2, r2, #5
 240 01ec 02F0F006 		and	r6, r2, #240
 241 01f0 FFF7FEFF 		bl	HAL_RCC_GetPCLK2Freq
 242 01f4 6368     		ldr	r3, [r4, #4]
 243 01f6 00EB8000 		add	r0, r0, r0, lsl #2
 244 01fa 9A00     		lsls	r2, r3, #2
 245 01fc 00EB8000 		add	r0, r0, r0, lsl #2
 246 0200 B0FBF2F8 		udiv	r8, r0, r2
 247 0204 FFF7FEFF 		bl	HAL_RCC_GetPCLK2Freq
 248 0208 82E7     		b	.L15
 249              	.L16:
 250 020a 80F84820 		strb	r2, [r0, #72]
 251 020e FFF7FEFF 		bl	HAL_SMARTCARD_MspInit
 252 0212 02E7     		b	.L6
 253              	.L10:
 254 0214 0120     		movs	r0, #1
 255 0216 7047     		bx	lr
 256              	.L18:
 257              		.align	2
 258              	.L17:
 259 0218 00100140 		.word	1073811456
 260 021c 00140140 		.word	1073812480
 261 0220 1F85EB51 		.word	1374389535
 263              		.section	.text.HAL_SMARTCARD_MspDeInit,"ax",%progbits
 264              		.align	1
 265              		.p2align 2,,3
 266              		.weak	HAL_SMARTCARD_MspDeInit
 267              		.syntax unified
 268              		.thumb
 269              		.thumb_func
 270              		.fpu fpv4-sp-d16
 272              	HAL_SMARTCARD_MspDeInit:
 273              		@ args = 0, pretend = 0, frame = 0
 274              		@ frame_needed = 0, uses_anonymous_args = 0
 275              		@ link register save eliminated.
 276 0000 7047     		bx	lr
 278 0002 00BF     		.section	.text.HAL_SMARTCARD_DeInit,"ax",%progbits
 279              		.align	1
 280              		.p2align 2,,3
 281              		.global	HAL_SMARTCARD_DeInit
 282              		.syntax unified
 283              		.thumb
 284              		.thumb_func
 285              		.fpu fpv4-sp-d16
 287              	HAL_SMARTCARD_DeInit:
 288              		@ args = 0, pretend = 0, frame = 0
 289              		@ frame_needed = 0, uses_anonymous_args = 0
 290 0000 A8B1     		cbz	r0, .L22
 291 0002 0268     		ldr	r2, [r0]
 292 0004 2423     		movs	r3, #36
 293 0006 10B5     		push	{r4, lr}
 294 0008 80F84930 		strb	r3, [r0, #73]
ARM GAS  D:\Programs\cygwin64\tmp\ccCuIJGc.s 			page 6


 295 000c D368     		ldr	r3, [r2, #12]
 296 000e 23F40053 		bic	r3, r3, #8192
 297 0012 0446     		mov	r4, r0
 298 0014 D360     		str	r3, [r2, #12]
 299 0016 FFF7FEFF 		bl	HAL_SMARTCARD_MspDeInit
 300 001a 0023     		movs	r3, #0
 301 001c E364     		str	r3, [r4, #76]
 302 001e 84F84830 		strb	r3, [r4, #72]
 303 0022 84F84930 		strb	r3, [r4, #73]
 304 0026 1846     		mov	r0, r3
 305 0028 84F84A30 		strb	r3, [r4, #74]
 306 002c 10BD     		pop	{r4, pc}
 307              	.L22:
 308 002e 0120     		movs	r0, #1
 309 0030 7047     		bx	lr
 311 0032 00BF     		.section	.text.HAL_SMARTCARD_Transmit,"ax",%progbits
 312              		.align	1
 313              		.p2align 2,,3
 314              		.global	HAL_SMARTCARD_Transmit
 315              		.syntax unified
 316              		.thumb
 317              		.thumb_func
 318              		.fpu fpv4-sp-d16
 320              	HAL_SMARTCARD_Transmit:
 321              		@ args = 0, pretend = 0, frame = 0
 322              		@ frame_needed = 0, uses_anonymous_args = 0
 323 0000 2DE9F041 		push	{r4, r5, r6, r7, r8, lr}
 324 0004 0E46     		mov	r6, r1
 325 0006 90F84910 		ldrb	r1, [r0, #73]	@ zero_extendqisi2
 326 000a 2029     		cmp	r1, #32
 327 000c 4DD1     		bne	.L45
 328 000e 002E     		cmp	r6, #0
 329 0010 3AD0     		beq	.L44
 330 0012 9046     		mov	r8, r2
 331 0014 002A     		cmp	r2, #0
 332 0016 37D0     		beq	.L44
 333 0018 1F46     		mov	r7, r3
 334 001a 90F84830 		ldrb	r3, [r0, #72]	@ zero_extendqisi2
 335 001e 012B     		cmp	r3, #1
 336 0020 0446     		mov	r4, r0
 337 0022 42D0     		beq	.L45
 338 0024 0023     		movs	r3, #0
 339 0026 C364     		str	r3, [r0, #76]
 340 0028 0122     		movs	r2, #1
 341 002a 2123     		movs	r3, #33
 342 002c 80F84930 		strb	r3, [r0, #73]
 343 0030 80F84820 		strb	r2, [r0, #72]
 344 0034 FFF7FEFF 		bl	HAL_GetTick
 345 0038 A4F83680 		strh	r8, [r4, #54]	@ movhi
 346 003c E38E     		ldrh	r3, [r4, #54]
 347 003e A4F83480 		strh	r8, [r4, #52]	@ movhi
 348 0042 9BB2     		uxth	r3, r3
 349 0044 0546     		mov	r5, r0
 350 0046 2068     		ldr	r0, [r4]
 351 0048 8BB1     		cbz	r3, .L36
 352              	.L35:
 353 004a E28E     		ldrh	r2, [r4, #54]
ARM GAS  D:\Programs\cygwin64\tmp\ccCuIJGc.s 			page 7


 354 004c 013A     		subs	r2, r2, #1
 355 004e 92B2     		uxth	r2, r2
 356 0050 7B1C     		adds	r3, r7, #1
 357 0052 E286     		strh	r2, [r4, #54]	@ movhi
 358 0054 1BD1     		bne	.L66
 359              	.L30:
 360 0056 0368     		ldr	r3, [r0]
 361 0058 1B06     		lsls	r3, r3, #24
 362 005a FCD5     		bpl	.L30
 363              	.L31:
 364 005c 36F8012B 		ldrh	r2, [r6], #1
 365 0060 C2F30802 		ubfx	r2, r2, #0, #9
 366 0064 4260     		str	r2, [r0, #4]
 367 0066 E28E     		ldrh	r2, [r4, #54]
 368 0068 92B2     		uxth	r2, r2
 369 006a 002A     		cmp	r2, #0
 370 006c EDD1     		bne	.L35
 371              	.L36:
 372 006e 791C     		adds	r1, r7, #1
 373 0070 32D1     		bne	.L67
 374              	.L41:
 375 0072 0368     		ldr	r3, [r0]
 376 0074 5B06     		lsls	r3, r3, #25
 377 0076 FCD5     		bpl	.L41
 378              	.L40:
 379 0078 2023     		movs	r3, #32
 380 007a 0020     		movs	r0, #0
 381 007c 84F84930 		strb	r3, [r4, #73]
 382 0080 84F84800 		strb	r0, [r4, #72]
 383 0084 BDE8F081 		pop	{r4, r5, r6, r7, r8, pc}
 384              	.L44:
 385 0088 0120     		movs	r0, #1
 386 008a BDE8F081 		pop	{r4, r5, r6, r7, r8, pc}
 387              	.L66:
 388 008e 0368     		ldr	r3, [r0]
 389 0090 1906     		lsls	r1, r3, #24
 390 0092 E3D4     		bmi	.L31
 391 0094 6FB1     		cbz	r7, .L38
 392              	.L34:
 393 0096 FFF7FEFF 		bl	HAL_GetTick
 394 009a 401B     		subs	r0, r0, r5
 395 009c 8742     		cmp	r7, r0
 396 009e 2068     		ldr	r0, [r4]
 397 00a0 07D3     		bcc	.L38
 398 00a2 0368     		ldr	r3, [r0]
 399 00a4 1A06     		lsls	r2, r3, #24
 400 00a6 F6D5     		bpl	.L34
 401 00a8 D8E7     		b	.L31
 402              	.L45:
 403 00aa 0220     		movs	r0, #2
 404 00ac BDE8F081 		pop	{r4, r5, r6, r7, r8, pc}
 405              	.L68:
 406 00b0 2068     		ldr	r0, [r4]
 407              	.L38:
 408 00b2 C368     		ldr	r3, [r0, #12]
 409 00b4 23F08003 		bic	r3, r3, #128
 410 00b8 C360     		str	r3, [r0, #12]
ARM GAS  D:\Programs\cygwin64\tmp\ccCuIJGc.s 			page 8


 411 00ba C368     		ldr	r3, [r0, #12]
 412 00bc 2022     		movs	r2, #32
 413 00be 23F02003 		bic	r3, r3, #32
 414 00c2 0021     		movs	r1, #0
 415 00c4 C360     		str	r3, [r0, #12]
 416 00c6 84F84920 		strb	r2, [r4, #73]
 417 00ca 0320     		movs	r0, #3
 418 00cc 84F84810 		strb	r1, [r4, #72]
 419 00d0 84F84A20 		strb	r2, [r4, #74]
 420 00d4 BDE8F081 		pop	{r4, r5, r6, r7, r8, pc}
 421              	.L67:
 422 00d8 0368     		ldr	r3, [r0]
 423 00da 5A06     		lsls	r2, r3, #25
 424 00dc CCD4     		bmi	.L40
 425 00de 002F     		cmp	r7, #0
 426 00e0 E7D0     		beq	.L38
 427              	.L39:
 428 00e2 FFF7FEFF 		bl	HAL_GetTick
 429 00e6 401B     		subs	r0, r0, r5
 430 00e8 8742     		cmp	r7, r0
 431 00ea E1D3     		bcc	.L68
 432 00ec 2368     		ldr	r3, [r4]
 433 00ee 1B68     		ldr	r3, [r3]
 434 00f0 5806     		lsls	r0, r3, #25
 435 00f2 F6D5     		bpl	.L39
 436 00f4 C0E7     		b	.L40
 438 00f6 00BF     		.section	.text.HAL_SMARTCARD_Receive,"ax",%progbits
 439              		.align	1
 440              		.p2align 2,,3
 441              		.global	HAL_SMARTCARD_Receive
 442              		.syntax unified
 443              		.thumb
 444              		.thumb_func
 445              		.fpu fpv4-sp-d16
 447              	HAL_SMARTCARD_Receive:
 448              		@ args = 0, pretend = 0, frame = 0
 449              		@ frame_needed = 0, uses_anonymous_args = 0
 450 0000 2DE9F041 		push	{r4, r5, r6, r7, r8, lr}
 451 0004 0E46     		mov	r6, r1
 452 0006 90F84A10 		ldrb	r1, [r0, #74]	@ zero_extendqisi2
 453 000a 2029     		cmp	r1, #32
 454 000c 47D1     		bne	.L82
 455 000e 002E     		cmp	r6, #0
 456 0010 34D0     		beq	.L81
 457 0012 9046     		mov	r8, r2
 458 0014 002A     		cmp	r2, #0
 459 0016 31D0     		beq	.L81
 460 0018 1F46     		mov	r7, r3
 461 001a 90F84830 		ldrb	r3, [r0, #72]	@ zero_extendqisi2
 462 001e 012B     		cmp	r3, #1
 463 0020 0446     		mov	r4, r0
 464 0022 3CD0     		beq	.L82
 465 0024 0023     		movs	r3, #0
 466 0026 C364     		str	r3, [r0, #76]
 467 0028 0122     		movs	r2, #1
 468 002a 2223     		movs	r3, #34
 469 002c 80F84A30 		strb	r3, [r0, #74]
ARM GAS  D:\Programs\cygwin64\tmp\ccCuIJGc.s 			page 9


 470 0030 80F84820 		strb	r2, [r0, #72]
 471 0034 FFF7FEFF 		bl	HAL_GetTick
 472 0038 A4F83E80 		strh	r8, [r4, #62]	@ movhi
 473 003c E38F     		ldrh	r3, [r4, #62]
 474 003e A4F83C80 		strh	r8, [r4, #60]	@ movhi
 475 0042 9BB2     		uxth	r3, r3
 476 0044 0546     		mov	r5, r0
 477 0046 8BB1     		cbz	r3, .L78
 478 0048 2068     		ldr	r0, [r4]
 479              	.L77:
 480 004a E28F     		ldrh	r2, [r4, #62]
 481 004c 013A     		subs	r2, r2, #1
 482 004e 92B2     		uxth	r2, r2
 483 0050 7B1C     		adds	r3, r7, #1
 484 0052 E287     		strh	r2, [r4, #62]	@ movhi
 485 0054 15D1     		bne	.L94
 486              	.L72:
 487 0056 0368     		ldr	r3, [r0]
 488 0058 9B06     		lsls	r3, r3, #26
 489 005a FCD5     		bpl	.L72
 490              	.L73:
 491 005c 4268     		ldr	r2, [r0, #4]
 492 005e D2B2     		uxtb	r2, r2
 493 0060 26F8012B 		strh	r2, [r6], #1	@ movhi
 494 0064 E28F     		ldrh	r2, [r4, #62]
 495 0066 92B2     		uxth	r2, r2
 496 0068 002A     		cmp	r2, #0
 497 006a EED1     		bne	.L77
 498              	.L78:
 499 006c 2023     		movs	r3, #32
 500 006e 0020     		movs	r0, #0
 501 0070 84F84A30 		strb	r3, [r4, #74]
 502 0074 84F84800 		strb	r0, [r4, #72]
 503 0078 BDE8F081 		pop	{r4, r5, r6, r7, r8, pc}
 504              	.L81:
 505 007c 0120     		movs	r0, #1
 506 007e BDE8F081 		pop	{r4, r5, r6, r7, r8, pc}
 507              	.L94:
 508 0082 0368     		ldr	r3, [r0]
 509 0084 9906     		lsls	r1, r3, #26
 510 0086 E9D4     		bmi	.L73
 511 0088 67B1     		cbz	r7, .L74
 512              	.L76:
 513 008a FFF7FEFF 		bl	HAL_GetTick
 514 008e 401B     		subs	r0, r0, r5
 515 0090 8742     		cmp	r7, r0
 516 0092 2068     		ldr	r0, [r4]
 517 0094 06D3     		bcc	.L74
 518 0096 0368     		ldr	r3, [r0]
 519 0098 9A06     		lsls	r2, r3, #26
 520 009a F6D5     		bpl	.L76
 521 009c DEE7     		b	.L73
 522              	.L82:
 523 009e 0220     		movs	r0, #2
 524 00a0 BDE8F081 		pop	{r4, r5, r6, r7, r8, pc}
 525              	.L74:
 526 00a4 C368     		ldr	r3, [r0, #12]
ARM GAS  D:\Programs\cygwin64\tmp\ccCuIJGc.s 			page 10


 527 00a6 23F08003 		bic	r3, r3, #128
 528 00aa C360     		str	r3, [r0, #12]
 529 00ac C368     		ldr	r3, [r0, #12]
 530 00ae 2022     		movs	r2, #32
 531 00b0 23F02003 		bic	r3, r3, #32
 532 00b4 0021     		movs	r1, #0
 533 00b6 C360     		str	r3, [r0, #12]
 534 00b8 84F84920 		strb	r2, [r4, #73]
 535 00bc 0320     		movs	r0, #3
 536 00be 84F84810 		strb	r1, [r4, #72]
 537 00c2 84F84A20 		strb	r2, [r4, #74]
 538 00c6 BDE8F081 		pop	{r4, r5, r6, r7, r8, pc}
 540 00ca 00BF     		.section	.text.HAL_SMARTCARD_Transmit_IT,"ax",%progbits
 541              		.align	1
 542              		.p2align 2,,3
 543              		.global	HAL_SMARTCARD_Transmit_IT
 544              		.syntax unified
 545              		.thumb
 546              		.thumb_func
 547              		.fpu fpv4-sp-d16
 549              	HAL_SMARTCARD_Transmit_IT:
 550              		@ args = 0, pretend = 0, frame = 0
 551              		@ frame_needed = 0, uses_anonymous_args = 0
 552              		@ link register save eliminated.
 553 0000 90F84930 		ldrb	r3, [r0, #73]	@ zero_extendqisi2
 554 0004 202B     		cmp	r3, #32
 555 0006 22D1     		bne	.L100
 556 0008 F9B1     		cbz	r1, .L99
 557 000a F2B1     		cbz	r2, .L99
 558 000c 90F84830 		ldrb	r3, [r0, #72]	@ zero_extendqisi2
 559 0010 012B     		cmp	r3, #1
 560 0012 1CD0     		beq	.L100
 561 0014 30B4     		push	{r4, r5}
 562 0016 0023     		movs	r3, #0
 563 0018 0468     		ldr	r4, [r0]
 564 001a C286     		strh	r2, [r0, #54]	@ movhi
 565 001c 2125     		movs	r5, #33
 566 001e C364     		str	r3, [r0, #76]
 567 0020 80F84950 		strb	r5, [r0, #73]
 568 0024 E568     		ldr	r5, [r4, #12]
 569 0026 8286     		strh	r2, [r0, #52]	@ movhi
 570 0028 45F48075 		orr	r5, r5, #256
 571 002c 0163     		str	r1, [r0, #48]
 572 002e 80F84830 		strb	r3, [r0, #72]
 573 0032 E560     		str	r5, [r4, #12]
 574 0034 6269     		ldr	r2, [r4, #20]
 575 0036 22F00102 		bic	r2, r2, #1
 576 003a 6261     		str	r2, [r4, #20]
 577 003c E268     		ldr	r2, [r4, #12]
 578 003e 42F08002 		orr	r2, r2, #128
 579 0042 1846     		mov	r0, r3
 580 0044 E260     		str	r2, [r4, #12]
 581 0046 30BC     		pop	{r4, r5}
 582 0048 7047     		bx	lr
 583              	.L99:
 584 004a 0120     		movs	r0, #1
 585 004c 7047     		bx	lr
ARM GAS  D:\Programs\cygwin64\tmp\ccCuIJGc.s 			page 11


 586              	.L100:
 587 004e 0220     		movs	r0, #2
 588 0050 7047     		bx	lr
 590 0052 00BF     		.section	.text.HAL_SMARTCARD_Receive_IT,"ax",%progbits
 591              		.align	1
 592              		.p2align 2,,3
 593              		.global	HAL_SMARTCARD_Receive_IT
 594              		.syntax unified
 595              		.thumb
 596              		.thumb_func
 597              		.fpu fpv4-sp-d16
 599              	HAL_SMARTCARD_Receive_IT:
 600              		@ args = 0, pretend = 0, frame = 0
 601              		@ frame_needed = 0, uses_anonymous_args = 0
 602              		@ link register save eliminated.
 603 0000 90F84A30 		ldrb	r3, [r0, #74]	@ zero_extendqisi2
 604 0004 202B     		cmp	r3, #32
 605 0006 1ED1     		bne	.L110
 606 0008 D9B1     		cbz	r1, .L109
 607 000a D2B1     		cbz	r2, .L109
 608 000c 90F84830 		ldrb	r3, [r0, #72]	@ zero_extendqisi2
 609 0010 012B     		cmp	r3, #1
 610 0012 18D0     		beq	.L110
 611 0014 30B4     		push	{r4, r5}
 612 0016 0023     		movs	r3, #0
 613 0018 0468     		ldr	r4, [r0]
 614 001a C287     		strh	r2, [r0, #62]	@ movhi
 615 001c 2225     		movs	r5, #34
 616 001e C364     		str	r3, [r0, #76]
 617 0020 80F84A50 		strb	r5, [r0, #74]
 618 0024 E568     		ldr	r5, [r4, #12]
 619 0026 8287     		strh	r2, [r0, #60]	@ movhi
 620 0028 45F49075 		orr	r5, r5, #288
 621 002c 8163     		str	r1, [r0, #56]
 622 002e 80F84830 		strb	r3, [r0, #72]
 623 0032 E560     		str	r5, [r4, #12]
 624 0034 6269     		ldr	r2, [r4, #20]
 625 0036 42F00102 		orr	r2, r2, #1
 626 003a 1846     		mov	r0, r3
 627 003c 6261     		str	r2, [r4, #20]
 628 003e 30BC     		pop	{r4, r5}
 629 0040 7047     		bx	lr
 630              	.L109:
 631 0042 0120     		movs	r0, #1
 632 0044 7047     		bx	lr
 633              	.L110:
 634 0046 0220     		movs	r0, #2
 635 0048 7047     		bx	lr
 637 004a 00BF     		.section	.text.HAL_SMARTCARD_Transmit_DMA,"ax",%progbits
 638              		.align	1
 639              		.p2align 2,,3
 640              		.global	HAL_SMARTCARD_Transmit_DMA
 641              		.syntax unified
 642              		.thumb
 643              		.thumb_func
 644              		.fpu fpv4-sp-d16
 646              	HAL_SMARTCARD_Transmit_DMA:
ARM GAS  D:\Programs\cygwin64\tmp\ccCuIJGc.s 			page 12


 647              		@ args = 0, pretend = 0, frame = 0
 648              		@ frame_needed = 0, uses_anonymous_args = 0
 649 0000 70B5     		push	{r4, r5, r6, lr}
 650 0002 90F84940 		ldrb	r4, [r0, #73]	@ zero_extendqisi2
 651 0006 202C     		cmp	r4, #32
 652 0008 2AD1     		bne	.L120
 653 000a 39B3     		cbz	r1, .L119
 654 000c 32B3     		cbz	r2, .L119
 655 000e 90F84840 		ldrb	r4, [r0, #72]	@ zero_extendqisi2
 656 0012 012C     		cmp	r4, #1
 657 0014 24D0     		beq	.L120
 658 0016 0446     		mov	r4, r0
 659 0018 0126     		movs	r6, #1
 660 001a 006C     		ldr	r0, [r0, #64]
 661 001c 84F84860 		strb	r6, [r4, #72]
 662 0020 1346     		mov	r3, r2
 663 0022 0025     		movs	r5, #0
 664 0024 2126     		movs	r6, #33
 665 0026 E386     		strh	r3, [r4, #54]	@ movhi
 666 0028 2268     		ldr	r2, [r4]
 667 002a E564     		str	r5, [r4, #76]
 668 002c 84F84960 		strb	r6, [r4, #73]
 669 0030 0C4E     		ldr	r6, .L122
 670 0032 A386     		strh	r3, [r4, #52]	@ movhi
 671 0034 2163     		str	r1, [r4, #48]
 672 0036 C663     		str	r6, [r0, #60]
 673 0038 0B4E     		ldr	r6, .L122+4
 674 003a 0565     		str	r5, [r0, #80]
 675 003c C664     		str	r6, [r0, #76]
 676 003e 0432     		adds	r2, r2, #4
 677 0040 FFF7FEFF 		bl	HAL_DMA_Start_IT
 678 0044 2368     		ldr	r3, [r4]
 679 0046 6FF04002 		mvn	r2, #64
 680 004a 1A60     		str	r2, [r3]
 681 004c 5A69     		ldr	r2, [r3, #20]
 682 004e 84F84850 		strb	r5, [r4, #72]
 683 0052 42F08002 		orr	r2, r2, #128
 684 0056 2846     		mov	r0, r5
 685 0058 5A61     		str	r2, [r3, #20]
 686 005a 70BD     		pop	{r4, r5, r6, pc}
 687              	.L119:
 688 005c 0120     		movs	r0, #1
 689 005e 70BD     		pop	{r4, r5, r6, pc}
 690              	.L120:
 691 0060 0220     		movs	r0, #2
 692 0062 70BD     		pop	{r4, r5, r6, pc}
 693              	.L123:
 694              		.align	2
 695              	.L122:
 696 0064 00000000 		.word	SMARTCARD_DMATransmitCplt
 697 0068 00000000 		.word	SMARTCARD_DMAError
 699              		.section	.text.HAL_SMARTCARD_Receive_DMA,"ax",%progbits
 700              		.align	1
 701              		.p2align 2,,3
 702              		.global	HAL_SMARTCARD_Receive_DMA
 703              		.syntax unified
 704              		.thumb
ARM GAS  D:\Programs\cygwin64\tmp\ccCuIJGc.s 			page 13


 705              		.thumb_func
 706              		.fpu fpv4-sp-d16
 708              	HAL_SMARTCARD_Receive_DMA:
 709              		@ args = 0, pretend = 0, frame = 8
 710              		@ frame_needed = 0, uses_anonymous_args = 0
 711 0000 90F84A30 		ldrb	r3, [r0, #74]	@ zero_extendqisi2
 712 0004 202B     		cmp	r3, #32
 713 0006 3BD1     		bne	.L129
 714 0008 0029     		cmp	r1, #0
 715 000a 37D0     		beq	.L128
 716 000c 002A     		cmp	r2, #0
 717 000e 35D0     		beq	.L128
 718 0010 90F84830 		ldrb	r3, [r0, #72]	@ zero_extendqisi2
 719 0014 012B     		cmp	r3, #1
 720 0016 33D0     		beq	.L129
 721 0018 F0B5     		push	{r4, r5, r6, r7, lr}
 722 001a 0446     		mov	r4, r0
 723 001c 0127     		movs	r7, #1
 724 001e D0E91060 		ldrd	r6, r0, [r0, #64]
 725 0022 0025     		movs	r5, #0
 726 0024 84F84870 		strb	r7, [r4, #72]
 727 0028 2227     		movs	r7, #34
 728 002a E564     		str	r5, [r4, #76]
 729 002c 1346     		mov	r3, r2
 730 002e 84F84A70 		strb	r7, [r4, #74]
 731 0032 0A46     		mov	r2, r1
 732 0034 134F     		ldr	r7, .L134
 733 0036 2168     		ldr	r1, [r4]
 734 0038 A263     		str	r2, [r4, #56]
 735 003a A387     		strh	r3, [r4, #60]	@ movhi
 736 003c C763     		str	r7, [r0, #60]
 737 003e 124F     		ldr	r7, .L134+4
 738 0040 C764     		str	r7, [r0, #76]
 739 0042 83B0     		sub	sp, sp, #12
 740 0044 3565     		str	r5, [r6, #80]
 741 0046 0431     		adds	r1, r1, #4
 742 0048 FFF7FEFF 		bl	HAL_DMA_Start_IT
 743 004c 2368     		ldr	r3, [r4]
 744 004e 0195     		str	r5, [sp, #4]
 745 0050 1A68     		ldr	r2, [r3]
 746 0052 0192     		str	r2, [sp, #4]
 747 0054 5A68     		ldr	r2, [r3, #4]
 748 0056 0192     		str	r2, [sp, #4]
 749 0058 019A     		ldr	r2, [sp, #4]
 750 005a DA68     		ldr	r2, [r3, #12]
 751 005c 84F84850 		strb	r5, [r4, #72]
 752 0060 42F48072 		orr	r2, r2, #256
 753 0064 DA60     		str	r2, [r3, #12]
 754 0066 5A69     		ldr	r2, [r3, #20]
 755 0068 42F00102 		orr	r2, r2, #1
 756 006c 5A61     		str	r2, [r3, #20]
 757 006e 5A69     		ldr	r2, [r3, #20]
 758 0070 2846     		mov	r0, r5
 759 0072 42F04002 		orr	r2, r2, #64
 760 0076 5A61     		str	r2, [r3, #20]
 761 0078 03B0     		add	sp, sp, #12
 762              		@ sp needed
ARM GAS  D:\Programs\cygwin64\tmp\ccCuIJGc.s 			page 14


 763 007a F0BD     		pop	{r4, r5, r6, r7, pc}
 764              	.L128:
 765 007c 0120     		movs	r0, #1
 766 007e 7047     		bx	lr
 767              	.L129:
 768 0080 0220     		movs	r0, #2
 769 0082 7047     		bx	lr
 770              	.L135:
 771              		.align	2
 772              	.L134:
 773 0084 00000000 		.word	SMARTCARD_DMAReceiveCplt
 774 0088 00000000 		.word	SMARTCARD_DMAError
 776              		.section	.text.HAL_SMARTCARD_Abort,"ax",%progbits
 777              		.align	1
 778              		.p2align 2,,3
 779              		.global	HAL_SMARTCARD_Abort
 780              		.syntax unified
 781              		.thumb
 782              		.thumb_func
 783              		.fpu fpv4-sp-d16
 785              	HAL_SMARTCARD_Abort:
 786              		@ args = 0, pretend = 0, frame = 0
 787              		@ frame_needed = 0, uses_anonymous_args = 0
 788 0000 0368     		ldr	r3, [r0]
 789 0002 DA68     		ldr	r2, [r3, #12]
 790 0004 22F4F072 		bic	r2, r2, #480
 791 0008 10B5     		push	{r4, lr}
 792 000a DA60     		str	r2, [r3, #12]
 793 000c 5A69     		ldr	r2, [r3, #20]
 794 000e 22F00102 		bic	r2, r2, #1
 795 0012 5A61     		str	r2, [r3, #20]
 796 0014 5A69     		ldr	r2, [r3, #20]
 797 0016 1106     		lsls	r1, r2, #24
 798 0018 0446     		mov	r4, r0
 799 001a 0AD5     		bpl	.L137
 800 001c 5A69     		ldr	r2, [r3, #20]
 801 001e 006C     		ldr	r0, [r0, #64]
 802 0020 22F08002 		bic	r2, r2, #128
 803 0024 5A61     		str	r2, [r3, #20]
 804 0026 20B1     		cbz	r0, .L137
 805 0028 0023     		movs	r3, #0
 806 002a 0365     		str	r3, [r0, #80]
 807 002c FFF7FEFF 		bl	HAL_DMA_Abort
 808 0030 2368     		ldr	r3, [r4]
 809              	.L137:
 810 0032 5A69     		ldr	r2, [r3, #20]
 811 0034 5206     		lsls	r2, r2, #25
 812 0036 09D5     		bpl	.L139
 813 0038 5A69     		ldr	r2, [r3, #20]
 814 003a 606C     		ldr	r0, [r4, #68]
 815 003c 22F04002 		bic	r2, r2, #64
 816 0040 5A61     		str	r2, [r3, #20]
 817 0042 18B1     		cbz	r0, .L139
 818 0044 0023     		movs	r3, #0
 819 0046 0365     		str	r3, [r0, #80]
 820 0048 FFF7FEFF 		bl	HAL_DMA_Abort
 821              	.L139:
ARM GAS  D:\Programs\cygwin64\tmp\ccCuIJGc.s 			page 15


 822 004c 0023     		movs	r3, #0
 823 004e 2022     		movs	r2, #32
 824 0050 E386     		strh	r3, [r4, #54]	@ movhi
 825 0052 1846     		mov	r0, r3
 826 0054 E387     		strh	r3, [r4, #62]	@ movhi
 827 0056 E364     		str	r3, [r4, #76]
 828 0058 84F84A20 		strb	r2, [r4, #74]
 829 005c 84F84920 		strb	r2, [r4, #73]
 830 0060 10BD     		pop	{r4, pc}
 832 0062 00BF     		.section	.text.HAL_SMARTCARD_AbortTransmit,"ax",%progbits
 833              		.align	1
 834              		.p2align 2,,3
 835              		.global	HAL_SMARTCARD_AbortTransmit
 836              		.syntax unified
 837              		.thumb
 838              		.thumb_func
 839              		.fpu fpv4-sp-d16
 841              	HAL_SMARTCARD_AbortTransmit:
 842              		@ args = 0, pretend = 0, frame = 0
 843              		@ frame_needed = 0, uses_anonymous_args = 0
 844 0000 0368     		ldr	r3, [r0]
 845 0002 DA68     		ldr	r2, [r3, #12]
 846 0004 22F0C002 		bic	r2, r2, #192
 847 0008 10B5     		push	{r4, lr}
 848 000a DA60     		str	r2, [r3, #12]
 849 000c 5A69     		ldr	r2, [r3, #20]
 850 000e 1206     		lsls	r2, r2, #24
 851 0010 0446     		mov	r4, r0
 852 0012 09D5     		bpl	.L153
 853 0014 5A69     		ldr	r2, [r3, #20]
 854 0016 006C     		ldr	r0, [r0, #64]
 855 0018 22F08002 		bic	r2, r2, #128
 856 001c 5A61     		str	r2, [r3, #20]
 857 001e 18B1     		cbz	r0, .L153
 858 0020 0023     		movs	r3, #0
 859 0022 0365     		str	r3, [r0, #80]
 860 0024 FFF7FEFF 		bl	HAL_DMA_Abort
 861              	.L153:
 862 0028 0020     		movs	r0, #0
 863 002a 2023     		movs	r3, #32
 864 002c E086     		strh	r0, [r4, #54]	@ movhi
 865 002e 84F84930 		strb	r3, [r4, #73]
 866 0032 10BD     		pop	{r4, pc}
 868              		.section	.text.HAL_SMARTCARD_AbortReceive,"ax",%progbits
 869              		.align	1
 870              		.p2align 2,,3
 871              		.global	HAL_SMARTCARD_AbortReceive
 872              		.syntax unified
 873              		.thumb
 874              		.thumb_func
 875              		.fpu fpv4-sp-d16
 877              	HAL_SMARTCARD_AbortReceive:
 878              		@ args = 0, pretend = 0, frame = 0
 879              		@ frame_needed = 0, uses_anonymous_args = 0
 880 0000 0368     		ldr	r3, [r0]
 881 0002 DA68     		ldr	r2, [r3, #12]
 882 0004 22F49072 		bic	r2, r2, #288
ARM GAS  D:\Programs\cygwin64\tmp\ccCuIJGc.s 			page 16


 883 0008 10B5     		push	{r4, lr}
 884 000a DA60     		str	r2, [r3, #12]
 885 000c 5A69     		ldr	r2, [r3, #20]
 886 000e 22F00102 		bic	r2, r2, #1
 887 0012 5A61     		str	r2, [r3, #20]
 888 0014 5A69     		ldr	r2, [r3, #20]
 889 0016 5206     		lsls	r2, r2, #25
 890 0018 0446     		mov	r4, r0
 891 001a 09D5     		bpl	.L161
 892 001c 5A69     		ldr	r2, [r3, #20]
 893 001e 406C     		ldr	r0, [r0, #68]
 894 0020 22F04002 		bic	r2, r2, #64
 895 0024 5A61     		str	r2, [r3, #20]
 896 0026 18B1     		cbz	r0, .L161
 897 0028 0023     		movs	r3, #0
 898 002a 0365     		str	r3, [r0, #80]
 899 002c FFF7FEFF 		bl	HAL_DMA_Abort
 900              	.L161:
 901 0030 0020     		movs	r0, #0
 902 0032 2023     		movs	r3, #32
 903 0034 E087     		strh	r0, [r4, #62]	@ movhi
 904 0036 84F84A30 		strb	r3, [r4, #74]
 905 003a 10BD     		pop	{r4, pc}
 907              		.section	.text.HAL_SMARTCARD_TxCpltCallback,"ax",%progbits
 908              		.align	1
 909              		.p2align 2,,3
 910              		.weak	HAL_SMARTCARD_TxCpltCallback
 911              		.syntax unified
 912              		.thumb
 913              		.thumb_func
 914              		.fpu fpv4-sp-d16
 916              	HAL_SMARTCARD_TxCpltCallback:
 917              		@ args = 0, pretend = 0, frame = 0
 918              		@ frame_needed = 0, uses_anonymous_args = 0
 919              		@ link register save eliminated.
 920 0000 7047     		bx	lr
 922 0002 00BF     		.section	.text.HAL_SMARTCARD_RxCpltCallback,"ax",%progbits
 923              		.align	1
 924              		.p2align 2,,3
 925              		.weak	HAL_SMARTCARD_RxCpltCallback
 926              		.syntax unified
 927              		.thumb
 928              		.thumb_func
 929              		.fpu fpv4-sp-d16
 931              	HAL_SMARTCARD_RxCpltCallback:
 932              		@ args = 0, pretend = 0, frame = 0
 933              		@ frame_needed = 0, uses_anonymous_args = 0
 934              		@ link register save eliminated.
 935 0000 7047     		bx	lr
 937 0002 00BF     		.section	.text.SMARTCARD_DMAReceiveCplt,"ax",%progbits
 938              		.align	1
 939              		.p2align 2,,3
 940              		.syntax unified
 941              		.thumb
 942              		.thumb_func
 943              		.fpu fpv4-sp-d16
 945              	SMARTCARD_DMAReceiveCplt:
ARM GAS  D:\Programs\cygwin64\tmp\ccCuIJGc.s 			page 17


 946              		@ args = 0, pretend = 0, frame = 0
 947              		@ frame_needed = 0, uses_anonymous_args = 0
 948 0000 826B     		ldr	r2, [r0, #56]
 949 0002 0021     		movs	r1, #0
 950 0004 1368     		ldr	r3, [r2]
 951 0006 10B5     		push	{r4, lr}
 952 0008 D187     		strh	r1, [r2, #62]	@ movhi
 953 000a D968     		ldr	r1, [r3, #12]
 954 000c 21F49071 		bic	r1, r1, #288
 955 0010 D960     		str	r1, [r3, #12]
 956 0012 5969     		ldr	r1, [r3, #20]
 957 0014 21F00101 		bic	r1, r1, #1
 958 0018 5961     		str	r1, [r3, #20]
 959 001a 5969     		ldr	r1, [r3, #20]
 960 001c 2024     		movs	r4, #32
 961 001e 21F04001 		bic	r1, r1, #64
 962 0022 5961     		str	r1, [r3, #20]
 963 0024 1046     		mov	r0, r2
 964 0026 82F84A40 		strb	r4, [r2, #74]
 965 002a FFF7FEFF 		bl	HAL_SMARTCARD_RxCpltCallback
 966 002e 10BD     		pop	{r4, pc}
 968              		.section	.text.HAL_SMARTCARD_ErrorCallback,"ax",%progbits
 969              		.align	1
 970              		.p2align 2,,3
 971              		.weak	HAL_SMARTCARD_ErrorCallback
 972              		.syntax unified
 973              		.thumb
 974              		.thumb_func
 975              		.fpu fpv4-sp-d16
 977              	HAL_SMARTCARD_ErrorCallback:
 978              		@ args = 0, pretend = 0, frame = 0
 979              		@ frame_needed = 0, uses_anonymous_args = 0
 980              		@ link register save eliminated.
 981 0000 7047     		bx	lr
 983 0002 00BF     		.section	.text.SMARTCARD_DMAError,"ax",%progbits
 984              		.align	1
 985              		.p2align 2,,3
 986              		.syntax unified
 987              		.thumb
 988              		.thumb_func
 989              		.fpu fpv4-sp-d16
 991              	SMARTCARD_DMAError:
 992              		@ args = 0, pretend = 0, frame = 0
 993              		@ frame_needed = 0, uses_anonymous_args = 0
 994 0000 806B     		ldr	r0, [r0, #56]
 995 0002 08B5     		push	{r3, lr}
 996 0004 0022     		movs	r2, #0
 997 0006 1021     		movs	r1, #16
 998 0008 0368     		ldr	r3, [r0]
 999 000a C287     		strh	r2, [r0, #62]	@ movhi
 1000 000c C286     		strh	r2, [r0, #54]	@ movhi
 1001 000e C164     		str	r1, [r0, #76]
 1002 0010 5969     		ldr	r1, [r3, #20]
 1003 0012 90F84920 		ldrb	r2, [r0, #73]	@ zero_extendqisi2
 1004 0016 212A     		cmp	r2, #33
 1005 0018 07D0     		beq	.L182
 1006              	.L173:
ARM GAS  D:\Programs\cygwin64\tmp\ccCuIJGc.s 			page 18


 1007 001a 5969     		ldr	r1, [r3, #20]
 1008 001c 90F84A20 		ldrb	r2, [r0, #74]	@ zero_extendqisi2
 1009 0020 222A     		cmp	r2, #34
 1010 0022 10D0     		beq	.L183
 1011              	.L174:
 1012 0024 FFF7FEFF 		bl	HAL_SMARTCARD_ErrorCallback
 1013 0028 08BD     		pop	{r3, pc}
 1014              	.L182:
 1015 002a 0906     		lsls	r1, r1, #24
 1016 002c F5D5     		bpl	.L173
 1017 002e 2022     		movs	r2, #32
 1018 0030 80F84920 		strb	r2, [r0, #73]
 1019 0034 DA68     		ldr	r2, [r3, #12]
 1020 0036 22F0C002 		bic	r2, r2, #192
 1021 003a DA60     		str	r2, [r3, #12]
 1022 003c 5969     		ldr	r1, [r3, #20]
 1023 003e 90F84A20 		ldrb	r2, [r0, #74]	@ zero_extendqisi2
 1024 0042 222A     		cmp	r2, #34
 1025 0044 EED1     		bne	.L174
 1026              	.L183:
 1027 0046 4A06     		lsls	r2, r1, #25
 1028 0048 ECD5     		bpl	.L174
 1029 004a 2022     		movs	r2, #32
 1030 004c 80F84A20 		strb	r2, [r0, #74]
 1031 0050 DA68     		ldr	r2, [r3, #12]
 1032 0052 22F49072 		bic	r2, r2, #288
 1033 0056 DA60     		str	r2, [r3, #12]
 1034 0058 5A69     		ldr	r2, [r3, #20]
 1035 005a 22F00102 		bic	r2, r2, #1
 1036 005e 5A61     		str	r2, [r3, #20]
 1037 0060 FFF7FEFF 		bl	HAL_SMARTCARD_ErrorCallback
 1038 0064 08BD     		pop	{r3, pc}
 1040 0066 00BF     		.section	.text.HAL_SMARTCARD_IRQHandler,"ax",%progbits
 1041              		.align	1
 1042              		.p2align 2,,3
 1043              		.global	HAL_SMARTCARD_IRQHandler
 1044              		.syntax unified
 1045              		.thumb
 1046              		.thumb_func
 1047              		.fpu fpv4-sp-d16
 1049              	HAL_SMARTCARD_IRQHandler:
 1050              		@ args = 0, pretend = 0, frame = 0
 1051              		@ frame_needed = 0, uses_anonymous_args = 0
 1052 0000 0368     		ldr	r3, [r0]
 1053 0002 1A68     		ldr	r2, [r3]
 1054 0004 70B5     		push	{r4, r5, r6, lr}
 1055 0006 1607     		lsls	r6, r2, #28
 1056 0008 DD68     		ldr	r5, [r3, #12]
 1057 000a 5969     		ldr	r1, [r3, #20]
 1058 000c 0446     		mov	r4, r0
 1059 000e 0ED1     		bne	.L185
 1060 0010 9606     		lsls	r6, r2, #26
 1061 0012 01D5     		bpl	.L186
 1062 0014 A906     		lsls	r1, r5, #26
 1063 0016 68D4     		bmi	.L260
 1064              	.L186:
 1065 0018 1606     		lsls	r6, r2, #24
ARM GAS  D:\Programs\cygwin64\tmp\ccCuIJGc.s 			page 19


 1066 001a 02D5     		bpl	.L202
 1067 001c 2806     		lsls	r0, r5, #24
 1068 001e 00F18680 		bmi	.L261
 1069              	.L202:
 1070 0022 5106     		lsls	r1, r2, #25
 1071 0024 02D5     		bpl	.L184
 1072 0026 6A06     		lsls	r2, r5, #25
 1073 0028 00F19D80 		bmi	.L262
 1074              	.L184:
 1075 002c 70BD     		pop	{r4, r5, r6, pc}
 1076              	.L185:
 1077 002e 01F00101 		and	r1, r1, #1
 1078 0032 05F49070 		and	r0, r5, #288
 1079 0036 0843     		orrs	r0, r0, r1
 1080 0038 EED0     		beq	.L186
 1081 003a D607     		lsls	r6, r2, #31
 1082 003c 05D5     		bpl	.L190
 1083 003e E805     		lsls	r0, r5, #23
 1084 0040 03D5     		bpl	.L190
 1085 0042 E06C     		ldr	r0, [r4, #76]
 1086 0044 40F00100 		orr	r0, r0, #1
 1087 0048 E064     		str	r0, [r4, #76]
 1088              	.L190:
 1089 004a 9607     		lsls	r6, r2, #30
 1090 004c 02F00400 		and	r0, r2, #4
 1091 0050 44D5     		bpl	.L191
 1092 0052 69B1     		cbz	r1, .L193
 1093 0054 E16C     		ldr	r1, [r4, #76]
 1094 0056 41F00401 		orr	r1, r1, #4
 1095 005a E164     		str	r1, [r4, #76]
 1096 005c 02F00806 		and	r6, r2, #8
 1097 0060 18B1     		cbz	r0, .L259
 1098              	.L194:
 1099 0062 E16C     		ldr	r1, [r4, #76]
 1100 0064 41F00201 		orr	r1, r1, #2
 1101 0068 E164     		str	r1, [r4, #76]
 1102              	.L259:
 1103 006a 002E     		cmp	r6, #0
 1104 006c 40F09080 		bne	.L198
 1105              	.L193:
 1106 0070 E16C     		ldr	r1, [r4, #76]
 1107 0072 0029     		cmp	r1, #0
 1108 0074 DAD0     		beq	.L184
 1109 0076 9006     		lsls	r0, r2, #26
 1110 0078 23D5     		bpl	.L199
 1111 007a A906     		lsls	r1, r5, #26
 1112 007c 21D5     		bpl	.L199
 1113 007e 94F84A20 		ldrb	r2, [r4, #74]	@ zero_extendqisi2
 1114 0082 222A     		cmp	r2, #34
 1115 0084 1DD1     		bne	.L199
 1116 0086 5A68     		ldr	r2, [r3, #4]
 1117 0088 A16B     		ldr	r1, [r4, #56]
 1118 008a D2B2     		uxtb	r2, r2
 1119 008c 21F8012B 		strh	r2, [r1], #1	@ movhi
 1120 0090 E28F     		ldrh	r2, [r4, #62]
 1121 0092 A163     		str	r1, [r4, #56]
 1122 0094 013A     		subs	r2, r2, #1
ARM GAS  D:\Programs\cygwin64\tmp\ccCuIJGc.s 			page 20


 1123 0096 92B2     		uxth	r2, r2
 1124 0098 E287     		strh	r2, [r4, #62]	@ movhi
 1125 009a 92B9     		cbnz	r2, .L199
 1126 009c DA68     		ldr	r2, [r3, #12]
 1127 009e 22F02002 		bic	r2, r2, #32
 1128 00a2 DA60     		str	r2, [r3, #12]
 1129 00a4 DA68     		ldr	r2, [r3, #12]
 1130 00a6 22F48072 		bic	r2, r2, #256
 1131 00aa DA60     		str	r2, [r3, #12]
 1132 00ac 5A69     		ldr	r2, [r3, #20]
 1133 00ae 2021     		movs	r1, #32
 1134 00b0 22F00102 		bic	r2, r2, #1
 1135 00b4 5A61     		str	r2, [r3, #20]
 1136 00b6 2046     		mov	r0, r4
 1137 00b8 84F84A10 		strb	r1, [r4, #74]
 1138 00bc FFF7FEFF 		bl	HAL_SMARTCARD_RxCpltCallback
 1139 00c0 2368     		ldr	r3, [r4]
 1140              	.L199:
 1141 00c2 5A69     		ldr	r2, [r3, #20]
 1142 00c4 E56C     		ldr	r5, [r4, #76]
 1143 00c6 02F04002 		and	r2, r2, #64
 1144 00ca 05F00805 		and	r5, r5, #8
 1145 00ce 1543     		orrs	r5, r2, r5
 1146 00d0 63D1     		bne	.L263
 1147 00d2 2046     		mov	r0, r4
 1148 00d4 FFF7FEFF 		bl	HAL_SMARTCARD_ErrorCallback
 1149 00d8 E564     		str	r5, [r4, #76]
 1150 00da 70BD     		pop	{r4, r5, r6, pc}
 1151              	.L191:
 1152 00dc 0028     		cmp	r0, #0
 1153 00de 51D0     		beq	.L196
 1154 00e0 0029     		cmp	r1, #0
 1155 00e2 C5D0     		beq	.L193
 1156 00e4 02F00806 		and	r6, r2, #8
 1157 00e8 BBE7     		b	.L194
 1158              	.L260:
 1159 00ea 90F84A20 		ldrb	r2, [r0, #74]	@ zero_extendqisi2
 1160 00ee 222A     		cmp	r2, #34
 1161 00f0 9CD1     		bne	.L184
 1162 00f2 5A68     		ldr	r2, [r3, #4]
 1163 00f4 816B     		ldr	r1, [r0, #56]
 1164 00f6 D2B2     		uxtb	r2, r2
 1165 00f8 21F8012B 		strh	r2, [r1], #1	@ movhi
 1166 00fc C28F     		ldrh	r2, [r0, #62]
 1167 00fe 8163     		str	r1, [r0, #56]
 1168 0100 013A     		subs	r2, r2, #1
 1169 0102 92B2     		uxth	r2, r2
 1170 0104 C287     		strh	r2, [r0, #62]	@ movhi
 1171 0106 002A     		cmp	r2, #0
 1172 0108 90D1     		bne	.L184
 1173 010a DA68     		ldr	r2, [r3, #12]
 1174 010c 22F02002 		bic	r2, r2, #32
 1175 0110 DA60     		str	r2, [r3, #12]
 1176 0112 DA68     		ldr	r2, [r3, #12]
 1177 0114 22F48072 		bic	r2, r2, #256
 1178 0118 DA60     		str	r2, [r3, #12]
 1179 011a 5A69     		ldr	r2, [r3, #20]
ARM GAS  D:\Programs\cygwin64\tmp\ccCuIJGc.s 			page 21


 1180 011c 2021     		movs	r1, #32
 1181 011e 22F00102 		bic	r2, r2, #1
 1182 0122 5A61     		str	r2, [r3, #20]
 1183 0124 80F84A10 		strb	r1, [r0, #74]
 1184 0128 FFF7FEFF 		bl	HAL_SMARTCARD_RxCpltCallback
 1185 012c 70BD     		pop	{r4, r5, r6, pc}
 1186              	.L261:
 1187 012e 94F84920 		ldrb	r2, [r4, #73]	@ zero_extendqisi2
 1188 0132 212A     		cmp	r2, #33
 1189 0134 7FF47AAF 		bne	.L184
 1190 0138 216B     		ldr	r1, [r4, #48]
 1191 013a 31F8012B 		ldrh	r2, [r1], #1
 1192 013e C2F30802 		ubfx	r2, r2, #0, #9
 1193 0142 5A60     		str	r2, [r3, #4]
 1194 0144 E28E     		ldrh	r2, [r4, #54]
 1195 0146 2163     		str	r1, [r4, #48]
 1196 0148 013A     		subs	r2, r2, #1
 1197 014a 92B2     		uxth	r2, r2
 1198 014c E286     		strh	r2, [r4, #54]	@ movhi
 1199 014e 002A     		cmp	r2, #0
 1200 0150 7FF46CAF 		bne	.L184
 1201 0154 DA68     		ldr	r2, [r3, #12]
 1202 0156 22F08002 		bic	r2, r2, #128
 1203 015a DA60     		str	r2, [r3, #12]
 1204 015c DA68     		ldr	r2, [r3, #12]
 1205 015e 42F04002 		orr	r2, r2, #64
 1206 0162 DA60     		str	r2, [r3, #12]
 1207 0164 70BD     		pop	{r4, r5, r6, pc}
 1208              	.L262:
 1209 0166 DA68     		ldr	r2, [r3, #12]
 1210 0168 22F04002 		bic	r2, r2, #64
 1211 016c DA60     		str	r2, [r3, #12]
 1212 016e 5A69     		ldr	r2, [r3, #20]
 1213 0170 2021     		movs	r1, #32
 1214 0172 22F00102 		bic	r2, r2, #1
 1215 0176 5A61     		str	r2, [r3, #20]
 1216 0178 2046     		mov	r0, r4
 1217 017a 84F84910 		strb	r1, [r4, #73]
 1218 017e FFF7FEFF 		bl	HAL_SMARTCARD_TxCpltCallback
 1219 0182 70BD     		pop	{r4, r5, r6, pc}
 1220              	.L196:
 1221 0184 1607     		lsls	r6, r2, #28
 1222 0186 7FF573AF 		bpl	.L193
 1223 018a 0029     		cmp	r1, #0
 1224 018c 3FF470AF 		beq	.L193
 1225              	.L198:
 1226 0190 E16C     		ldr	r1, [r4, #76]
 1227 0192 41F00801 		orr	r1, r1, #8
 1228 0196 E164     		str	r1, [r4, #76]
 1229 0198 6AE7     		b	.L193
 1230              	.L263:
 1231 019a 2022     		movs	r2, #32
 1232 019c 84F84A20 		strb	r2, [r4, #74]
 1233 01a0 DA68     		ldr	r2, [r3, #12]
 1234 01a2 22F49072 		bic	r2, r2, #288
 1235 01a6 DA60     		str	r2, [r3, #12]
 1236 01a8 5A69     		ldr	r2, [r3, #20]
ARM GAS  D:\Programs\cygwin64\tmp\ccCuIJGc.s 			page 22


 1237 01aa 22F00102 		bic	r2, r2, #1
 1238 01ae 5A61     		str	r2, [r3, #20]
 1239 01b0 5A69     		ldr	r2, [r3, #20]
 1240 01b2 5206     		lsls	r2, r2, #25
 1241 01b4 11D5     		bpl	.L201
 1242 01b6 5A69     		ldr	r2, [r3, #20]
 1243 01b8 606C     		ldr	r0, [r4, #68]
 1244 01ba 22F04002 		bic	r2, r2, #64
 1245 01be 5A61     		str	r2, [r3, #20]
 1246 01c0 58B1     		cbz	r0, .L201
 1247 01c2 084B     		ldr	r3, .L264
 1248 01c4 0365     		str	r3, [r0, #80]
 1249 01c6 FFF7FEFF 		bl	HAL_DMA_Abort_IT
 1250 01ca 0028     		cmp	r0, #0
 1251 01cc 3FF42EAF 		beq	.L184
 1252 01d0 606C     		ldr	r0, [r4, #68]
 1253 01d2 BDE87040 		pop	{r4, r5, r6, lr}
 1254 01d6 036D     		ldr	r3, [r0, #80]
 1255 01d8 1847     		bx	r3	@ indirect register sibling call
 1256              	.L201:
 1257 01da 2046     		mov	r0, r4
 1258 01dc FFF7FEFF 		bl	HAL_SMARTCARD_ErrorCallback
 1259 01e0 70BD     		pop	{r4, r5, r6, pc}
 1260              	.L265:
 1261 01e2 00BF     		.align	2
 1262              	.L264:
 1263 01e4 00000000 		.word	SMARTCARD_DMAAbortOnError
 1265              		.section	.text.SMARTCARD_DMAAbortOnError,"ax",%progbits
 1266              		.align	1
 1267              		.p2align 2,,3
 1268              		.syntax unified
 1269              		.thumb
 1270              		.thumb_func
 1271              		.fpu fpv4-sp-d16
 1273              	SMARTCARD_DMAAbortOnError:
 1274              		@ args = 0, pretend = 0, frame = 0
 1275              		@ frame_needed = 0, uses_anonymous_args = 0
 1276 0000 08B5     		push	{r3, lr}
 1277 0002 836B     		ldr	r3, [r0, #56]
 1278 0004 0022     		movs	r2, #0
 1279 0006 DA87     		strh	r2, [r3, #62]	@ movhi
 1280 0008 1846     		mov	r0, r3
 1281 000a DA86     		strh	r2, [r3, #54]	@ movhi
 1282 000c FFF7FEFF 		bl	HAL_SMARTCARD_ErrorCallback
 1283 0010 08BD     		pop	{r3, pc}
 1285 0012 00BF     		.section	.text.HAL_SMARTCARD_AbortCpltCallback,"ax",%progbits
 1286              		.align	1
 1287              		.p2align 2,,3
 1288              		.weak	HAL_SMARTCARD_AbortCpltCallback
 1289              		.syntax unified
 1290              		.thumb
 1291              		.thumb_func
 1292              		.fpu fpv4-sp-d16
 1294              	HAL_SMARTCARD_AbortCpltCallback:
 1295              		@ args = 0, pretend = 0, frame = 0
 1296              		@ frame_needed = 0, uses_anonymous_args = 0
 1297              		@ link register save eliminated.
ARM GAS  D:\Programs\cygwin64\tmp\ccCuIJGc.s 			page 23


 1298 0000 7047     		bx	lr
 1300 0002 00BF     		.section	.text.HAL_SMARTCARD_Abort_IT,"ax",%progbits
 1301              		.align	1
 1302              		.p2align 2,,3
 1303              		.global	HAL_SMARTCARD_Abort_IT
 1304              		.syntax unified
 1305              		.thumb
 1306              		.thumb_func
 1307              		.fpu fpv4-sp-d16
 1309              	HAL_SMARTCARD_Abort_IT:
 1310              		@ args = 0, pretend = 0, frame = 0
 1311              		@ frame_needed = 0, uses_anonymous_args = 0
 1312 0000 0368     		ldr	r3, [r0]
 1313 0002 DA68     		ldr	r2, [r3, #12]
 1314 0004 22F4F072 		bic	r2, r2, #480
 1315 0008 10B5     		push	{r4, lr}
 1316 000a 0446     		mov	r4, r0
 1317 000c 006C     		ldr	r0, [r0, #64]
 1318 000e DA60     		str	r2, [r3, #12]
 1319 0010 5A69     		ldr	r2, [r3, #20]
 1320 0012 22F00102 		bic	r2, r2, #1
 1321 0016 5A61     		str	r2, [r3, #20]
 1322 0018 28B1     		cbz	r0, .L270
 1323 001a 5A69     		ldr	r2, [r3, #20]
 1324 001c 12F08002 		ands	r2, r2, #128
 1325 0020 18BF     		it	ne
 1326 0022 214A     		ldrne	r2, .L300
 1327 0024 0265     		str	r2, [r0, #80]
 1328              	.L270:
 1329 0026 616C     		ldr	r1, [r4, #68]
 1330 0028 29B1     		cbz	r1, .L272
 1331 002a 5A69     		ldr	r2, [r3, #20]
 1332 002c 12F04002 		ands	r2, r2, #64
 1333 0030 18BF     		it	ne
 1334 0032 1E4A     		ldrne	r2, .L300+4
 1335 0034 0A65     		str	r2, [r1, #80]
 1336              	.L272:
 1337 0036 5A69     		ldr	r2, [r3, #20]
 1338 0038 1206     		lsls	r2, r2, #24
 1339 003a 0BD5     		bpl	.L274
 1340 003c 5A69     		ldr	r2, [r3, #20]
 1341 003e 22F08002 		bic	r2, r2, #128
 1342 0042 5A61     		str	r2, [r3, #20]
 1343 0044 30B1     		cbz	r0, .L274
 1344 0046 FFF7FEFF 		bl	HAL_DMA_Abort_IT
 1345 004a 00B3     		cbz	r0, .L275
 1346 004c 226C     		ldr	r2, [r4, #64]
 1347 004e 2368     		ldr	r3, [r4]
 1348 0050 0021     		movs	r1, #0
 1349 0052 1165     		str	r1, [r2, #80]
 1350              	.L274:
 1351 0054 5A69     		ldr	r2, [r3, #20]
 1352 0056 5206     		lsls	r2, r2, #25
 1353 0058 0BD5     		bpl	.L277
 1354 005a 5A69     		ldr	r2, [r3, #20]
 1355 005c 606C     		ldr	r0, [r4, #68]
 1356 005e 22F04002 		bic	r2, r2, #64
ARM GAS  D:\Programs\cygwin64\tmp\ccCuIJGc.s 			page 24


 1357 0062 5A61     		str	r2, [r3, #20]
 1358 0064 28B1     		cbz	r0, .L277
 1359              	.L276:
 1360 0066 FFF7FEFF 		bl	HAL_DMA_Abort_IT
 1361 006a 70B1     		cbz	r0, .L293
 1362 006c 636C     		ldr	r3, [r4, #68]
 1363 006e 0022     		movs	r2, #0
 1364 0070 1A65     		str	r2, [r3, #80]
 1365              	.L277:
 1366 0072 0023     		movs	r3, #0
 1367 0074 2022     		movs	r2, #32
 1368 0076 E386     		strh	r3, [r4, #54]	@ movhi
 1369 0078 2046     		mov	r0, r4
 1370 007a E387     		strh	r3, [r4, #62]	@ movhi
 1371 007c E364     		str	r3, [r4, #76]
 1372 007e 84F84920 		strb	r2, [r4, #73]
 1373 0082 84F84A20 		strb	r2, [r4, #74]
 1374 0086 FFF7FEFF 		bl	HAL_SMARTCARD_AbortCpltCallback
 1375              	.L293:
 1376 008a 0020     		movs	r0, #0
 1377 008c 10BD     		pop	{r4, pc}
 1378              	.L275:
 1379 008e 2368     		ldr	r3, [r4]
 1380 0090 5A69     		ldr	r2, [r3, #20]
 1381 0092 5106     		lsls	r1, r2, #25
 1382 0094 F9D5     		bpl	.L293
 1383 0096 5A69     		ldr	r2, [r3, #20]
 1384 0098 606C     		ldr	r0, [r4, #68]
 1385 009a 22F04002 		bic	r2, r2, #64
 1386 009e 5A61     		str	r2, [r3, #20]
 1387 00a0 0028     		cmp	r0, #0
 1388 00a2 E0D1     		bne	.L276
 1389 00a4 F1E7     		b	.L293
 1390              	.L301:
 1391 00a6 00BF     		.align	2
 1392              	.L300:
 1393 00a8 00000000 		.word	SMARTCARD_DMATxAbortCallback
 1394 00ac 00000000 		.word	SMARTCARD_DMARxAbortCallback
 1396              		.section	.text.SMARTCARD_DMARxAbortCallback,"ax",%progbits
 1397              		.align	1
 1398              		.p2align 2,,3
 1399              		.syntax unified
 1400              		.thumb
 1401              		.thumb_func
 1402              		.fpu fpv4-sp-d16
 1404              	SMARTCARD_DMARxAbortCallback:
 1405              		@ args = 0, pretend = 0, frame = 0
 1406              		@ frame_needed = 0, uses_anonymous_args = 0
 1407 0000 08B5     		push	{r3, lr}
 1408 0002 836B     		ldr	r3, [r0, #56]
 1409 0004 D3E91021 		ldrd	r2, r1, [r3, #64]
 1410 0008 0020     		movs	r0, #0
 1411 000a 0865     		str	r0, [r1, #80]
 1412 000c 12B1     		cbz	r2, .L303
 1413 000e 126D     		ldr	r2, [r2, #80]
 1414 0010 02B1     		cbz	r2, .L303
 1415 0012 08BD     		pop	{r3, pc}
ARM GAS  D:\Programs\cygwin64\tmp\ccCuIJGc.s 			page 25


 1416              	.L303:
 1417 0014 0022     		movs	r2, #0
 1418 0016 2021     		movs	r1, #32
 1419 0018 DA86     		strh	r2, [r3, #54]	@ movhi
 1420 001a 1846     		mov	r0, r3
 1421 001c DA87     		strh	r2, [r3, #62]	@ movhi
 1422 001e DA64     		str	r2, [r3, #76]
 1423 0020 83F84910 		strb	r1, [r3, #73]
 1424 0024 83F84A10 		strb	r1, [r3, #74]
 1425 0028 FFF7FEFF 		bl	HAL_SMARTCARD_AbortCpltCallback
 1426 002c 08BD     		pop	{r3, pc}
 1428 002e 00BF     		.section	.text.SMARTCARD_DMATxAbortCallback,"ax",%progbits
 1429              		.align	1
 1430              		.p2align 2,,3
 1431              		.syntax unified
 1432              		.thumb
 1433              		.thumb_func
 1434              		.fpu fpv4-sp-d16
 1436              	SMARTCARD_DMATxAbortCallback:
 1437              		@ args = 0, pretend = 0, frame = 0
 1438              		@ frame_needed = 0, uses_anonymous_args = 0
 1439 0000 08B5     		push	{r3, lr}
 1440 0002 836B     		ldr	r3, [r0, #56]
 1441 0004 D3E91012 		ldrd	r1, r2, [r3, #64]
 1442 0008 0020     		movs	r0, #0
 1443 000a 0865     		str	r0, [r1, #80]
 1444 000c 12B1     		cbz	r2, .L310
 1445 000e 126D     		ldr	r2, [r2, #80]
 1446 0010 02B1     		cbz	r2, .L310
 1447 0012 08BD     		pop	{r3, pc}
 1448              	.L310:
 1449 0014 0022     		movs	r2, #0
 1450 0016 2021     		movs	r1, #32
 1451 0018 DA86     		strh	r2, [r3, #54]	@ movhi
 1452 001a 1846     		mov	r0, r3
 1453 001c DA87     		strh	r2, [r3, #62]	@ movhi
 1454 001e DA64     		str	r2, [r3, #76]
 1455 0020 83F84910 		strb	r1, [r3, #73]
 1456 0024 83F84A10 		strb	r1, [r3, #74]
 1457 0028 FFF7FEFF 		bl	HAL_SMARTCARD_AbortCpltCallback
 1458 002c 08BD     		pop	{r3, pc}
 1460 002e 00BF     		.section	.text.HAL_SMARTCARD_AbortTransmitCpltCallback,"ax",%progbits
 1461              		.align	1
 1462              		.p2align 2,,3
 1463              		.weak	HAL_SMARTCARD_AbortTransmitCpltCallback
 1464              		.syntax unified
 1465              		.thumb
 1466              		.thumb_func
 1467              		.fpu fpv4-sp-d16
 1469              	HAL_SMARTCARD_AbortTransmitCpltCallback:
 1470              		@ args = 0, pretend = 0, frame = 0
 1471              		@ frame_needed = 0, uses_anonymous_args = 0
 1472              		@ link register save eliminated.
 1473 0000 7047     		bx	lr
 1475 0002 00BF     		.section	.text.HAL_SMARTCARD_AbortTransmit_IT,"ax",%progbits
 1476              		.align	1
 1477              		.p2align 2,,3
ARM GAS  D:\Programs\cygwin64\tmp\ccCuIJGc.s 			page 26


 1478              		.global	HAL_SMARTCARD_AbortTransmit_IT
 1479              		.syntax unified
 1480              		.thumb
 1481              		.thumb_func
 1482              		.fpu fpv4-sp-d16
 1484              	HAL_SMARTCARD_AbortTransmit_IT:
 1485              		@ args = 0, pretend = 0, frame = 0
 1486              		@ frame_needed = 0, uses_anonymous_args = 0
 1487 0000 0368     		ldr	r3, [r0]
 1488 0002 DA68     		ldr	r2, [r3, #12]
 1489 0004 22F0C002 		bic	r2, r2, #192
 1490 0008 10B5     		push	{r4, lr}
 1491 000a DA60     		str	r2, [r3, #12]
 1492 000c 5A69     		ldr	r2, [r3, #20]
 1493 000e 12F08002 		ands	r2, r2, #128
 1494 0012 0446     		mov	r4, r0
 1495 0014 18D0     		beq	.L318
 1496 0016 5A69     		ldr	r2, [r3, #20]
 1497 0018 016C     		ldr	r1, [r0, #64]
 1498 001a 22F08002 		bic	r2, r2, #128
 1499 001e 5A61     		str	r2, [r3, #20]
 1500 0020 51B1     		cbz	r1, .L319
 1501 0022 0D4B     		ldr	r3, .L325
 1502 0024 0B65     		str	r3, [r1, #80]
 1503 0026 0846     		mov	r0, r1
 1504 0028 FFF7FEFF 		bl	HAL_DMA_Abort_IT
 1505 002c 10B1     		cbz	r0, .L320
 1506 002e 206C     		ldr	r0, [r4, #64]
 1507 0030 036D     		ldr	r3, [r0, #80]
 1508 0032 9847     		blx	r3
 1509              	.L320:
 1510 0034 0020     		movs	r0, #0
 1511 0036 10BD     		pop	{r4, pc}
 1512              	.L319:
 1513 0038 2023     		movs	r3, #32
 1514 003a C186     		strh	r1, [r0, #54]	@ movhi
 1515 003c 80F84930 		strb	r3, [r0, #73]
 1516 0040 FFF7FEFF 		bl	HAL_SMARTCARD_AbortTransmitCpltCallback
 1517 0044 0020     		movs	r0, #0
 1518 0046 10BD     		pop	{r4, pc}
 1519              	.L318:
 1520 0048 2023     		movs	r3, #32
 1521 004a C286     		strh	r2, [r0, #54]	@ movhi
 1522 004c 80F84930 		strb	r3, [r0, #73]
 1523 0050 FFF7FEFF 		bl	HAL_SMARTCARD_AbortTransmitCpltCallback
 1524 0054 0020     		movs	r0, #0
 1525 0056 10BD     		pop	{r4, pc}
 1526              	.L326:
 1527              		.align	2
 1528              	.L325:
 1529 0058 00000000 		.word	SMARTCARD_DMATxOnlyAbortCallback
 1531              		.section	.text.SMARTCARD_DMATxOnlyAbortCallback,"ax",%progbits
 1532              		.align	1
 1533              		.p2align 2,,3
 1534              		.syntax unified
 1535              		.thumb
 1536              		.thumb_func
ARM GAS  D:\Programs\cygwin64\tmp\ccCuIJGc.s 			page 27


 1537              		.fpu fpv4-sp-d16
 1539              	SMARTCARD_DMATxOnlyAbortCallback:
 1540              		@ args = 0, pretend = 0, frame = 0
 1541              		@ frame_needed = 0, uses_anonymous_args = 0
 1542 0000 08B5     		push	{r3, lr}
 1543 0002 836B     		ldr	r3, [r0, #56]
 1544 0004 0021     		movs	r1, #0
 1545 0006 2022     		movs	r2, #32
 1546 0008 D986     		strh	r1, [r3, #54]	@ movhi
 1547 000a 1846     		mov	r0, r3
 1548 000c 83F84920 		strb	r2, [r3, #73]
 1549 0010 FFF7FEFF 		bl	HAL_SMARTCARD_AbortTransmitCpltCallback
 1550 0014 08BD     		pop	{r3, pc}
 1552 0016 00BF     		.section	.text.HAL_SMARTCARD_AbortReceiveCpltCallback,"ax",%progbits
 1553              		.align	1
 1554              		.p2align 2,,3
 1555              		.weak	HAL_SMARTCARD_AbortReceiveCpltCallback
 1556              		.syntax unified
 1557              		.thumb
 1558              		.thumb_func
 1559              		.fpu fpv4-sp-d16
 1561              	HAL_SMARTCARD_AbortReceiveCpltCallback:
 1562              		@ args = 0, pretend = 0, frame = 0
 1563              		@ frame_needed = 0, uses_anonymous_args = 0
 1564              		@ link register save eliminated.
 1565 0000 7047     		bx	lr
 1567 0002 00BF     		.section	.text.HAL_SMARTCARD_AbortReceive_IT,"ax",%progbits
 1568              		.align	1
 1569              		.p2align 2,,3
 1570              		.global	HAL_SMARTCARD_AbortReceive_IT
 1571              		.syntax unified
 1572              		.thumb
 1573              		.thumb_func
 1574              		.fpu fpv4-sp-d16
 1576              	HAL_SMARTCARD_AbortReceive_IT:
 1577              		@ args = 0, pretend = 0, frame = 0
 1578              		@ frame_needed = 0, uses_anonymous_args = 0
 1579 0000 0368     		ldr	r3, [r0]
 1580 0002 DA68     		ldr	r2, [r3, #12]
 1581 0004 22F49072 		bic	r2, r2, #288
 1582 0008 10B5     		push	{r4, lr}
 1583 000a DA60     		str	r2, [r3, #12]
 1584 000c 5A69     		ldr	r2, [r3, #20]
 1585 000e 22F00102 		bic	r2, r2, #1
 1586 0012 5A61     		str	r2, [r3, #20]
 1587 0014 5A69     		ldr	r2, [r3, #20]
 1588 0016 12F04002 		ands	r2, r2, #64
 1589 001a 0446     		mov	r4, r0
 1590 001c 18D0     		beq	.L331
 1591 001e 5A69     		ldr	r2, [r3, #20]
 1592 0020 416C     		ldr	r1, [r0, #68]
 1593 0022 22F04002 		bic	r2, r2, #64
 1594 0026 5A61     		str	r2, [r3, #20]
 1595 0028 51B1     		cbz	r1, .L332
 1596 002a 0D4B     		ldr	r3, .L338
 1597 002c 0B65     		str	r3, [r1, #80]
 1598 002e 0846     		mov	r0, r1
ARM GAS  D:\Programs\cygwin64\tmp\ccCuIJGc.s 			page 28


 1599 0030 FFF7FEFF 		bl	HAL_DMA_Abort_IT
 1600 0034 10B1     		cbz	r0, .L333
 1601 0036 606C     		ldr	r0, [r4, #68]
 1602 0038 036D     		ldr	r3, [r0, #80]
 1603 003a 9847     		blx	r3
 1604              	.L333:
 1605 003c 0020     		movs	r0, #0
 1606 003e 10BD     		pop	{r4, pc}
 1607              	.L332:
 1608 0040 2023     		movs	r3, #32
 1609 0042 C187     		strh	r1, [r0, #62]	@ movhi
 1610 0044 80F84A30 		strb	r3, [r0, #74]
 1611 0048 FFF7FEFF 		bl	HAL_SMARTCARD_AbortReceiveCpltCallback
 1612 004c 0020     		movs	r0, #0
 1613 004e 10BD     		pop	{r4, pc}
 1614              	.L331:
 1615 0050 2023     		movs	r3, #32
 1616 0052 C287     		strh	r2, [r0, #62]	@ movhi
 1617 0054 80F84A30 		strb	r3, [r0, #74]
 1618 0058 FFF7FEFF 		bl	HAL_SMARTCARD_AbortReceiveCpltCallback
 1619 005c 0020     		movs	r0, #0
 1620 005e 10BD     		pop	{r4, pc}
 1621              	.L339:
 1622              		.align	2
 1623              	.L338:
 1624 0060 00000000 		.word	SMARTCARD_DMARxOnlyAbortCallback
 1626              		.section	.text.SMARTCARD_DMARxOnlyAbortCallback,"ax",%progbits
 1627              		.align	1
 1628              		.p2align 2,,3
 1629              		.syntax unified
 1630              		.thumb
 1631              		.thumb_func
 1632              		.fpu fpv4-sp-d16
 1634              	SMARTCARD_DMARxOnlyAbortCallback:
 1635              		@ args = 0, pretend = 0, frame = 0
 1636              		@ frame_needed = 0, uses_anonymous_args = 0
 1637 0000 08B5     		push	{r3, lr}
 1638 0002 836B     		ldr	r3, [r0, #56]
 1639 0004 0021     		movs	r1, #0
 1640 0006 2022     		movs	r2, #32
 1641 0008 D987     		strh	r1, [r3, #62]	@ movhi
 1642 000a 1846     		mov	r0, r3
 1643 000c 83F84A20 		strb	r2, [r3, #74]
 1644 0010 FFF7FEFF 		bl	HAL_SMARTCARD_AbortReceiveCpltCallback
 1645 0014 08BD     		pop	{r3, pc}
 1647 0016 00BF     		.section	.text.HAL_SMARTCARD_GetState,"ax",%progbits
 1648              		.align	1
 1649              		.p2align 2,,3
 1650              		.global	HAL_SMARTCARD_GetState
 1651              		.syntax unified
 1652              		.thumb
 1653              		.thumb_func
 1654              		.fpu fpv4-sp-d16
 1656              	HAL_SMARTCARD_GetState:
 1657              		@ args = 0, pretend = 0, frame = 0
 1658              		@ frame_needed = 0, uses_anonymous_args = 0
 1659              		@ link register save eliminated.
ARM GAS  D:\Programs\cygwin64\tmp\ccCuIJGc.s 			page 29


 1660 0000 90F84920 		ldrb	r2, [r0, #73]	@ zero_extendqisi2
 1661 0004 90F84A00 		ldrb	r0, [r0, #74]	@ zero_extendqisi2
 1662 0008 1043     		orrs	r0, r0, r2
 1663 000a 7047     		bx	lr
 1665              		.section	.text.HAL_SMARTCARD_GetError,"ax",%progbits
 1666              		.align	1
 1667              		.p2align 2,,3
 1668              		.global	HAL_SMARTCARD_GetError
 1669              		.syntax unified
 1670              		.thumb
 1671              		.thumb_func
 1672              		.fpu fpv4-sp-d16
 1674              	HAL_SMARTCARD_GetError:
 1675              		@ args = 0, pretend = 0, frame = 0
 1676              		@ frame_needed = 0, uses_anonymous_args = 0
 1677              		@ link register save eliminated.
 1678 0000 C06C     		ldr	r0, [r0, #76]
 1679 0002 7047     		bx	lr
 1681              		.ident	"GCC: (GNU Tools for Arm Embedded Processors 8-2018-q4-major) 8.2.1 20181213 (release) [gcc
ARM GAS  D:\Programs\cygwin64\tmp\ccCuIJGc.s 			page 30

