ARM GAS  D:\Programs\cygwin64\tmp\ccnXJUYH.s 			page 1


   1              		.cpu cortex-m4
   2              		.eabi_attribute 27, 1
   3              		.eabi_attribute 28, 1
   4              		.eabi_attribute 20, 1
   5              		.eabi_attribute 21, 1
   6              		.eabi_attribute 23, 3
   7              		.eabi_attribute 24, 1
   8              		.eabi_attribute 25, 1
   9              		.eabi_attribute 26, 1
  10              		.eabi_attribute 30, 2
  11              		.eabi_attribute 34, 1
  12              		.eabi_attribute 18, 4
  13              		.file	"stmpe811.c"
  14              		.text
  15              		.section	.text.stmpe811_IO_WritePin,"ax",%progbits
  16              		.align	1
  17              		.p2align 2,,3
  18              		.global	stmpe811_IO_WritePin
  19              		.arch armv7e-m
  20              		.syntax unified
  21              		.thumb
  22              		.thumb_func
  23              		.fpu fpv4-sp-d16
  25              	stmpe811_IO_WritePin:
  26              		@ args = 0, pretend = 0, frame = 0
  27              		@ frame_needed = 0, uses_anonymous_args = 0
  28              		@ link register save eliminated.
  29 0000 C0B2     		uxtb	r0, r0
  30 0002 C9B2     		uxtb	r1, r1
  31 0004 1AB1     		cbz	r2, .L2
  32 0006 0A46     		mov	r2, r1
  33 0008 1021     		movs	r1, #16
  34 000a FFF7FEBF 		b	IOE_Write
  35              	.L2:
  36 000e 0A46     		mov	r2, r1
  37 0010 1121     		movs	r1, #17
  38 0012 FFF7FEBF 		b	IOE_Write
  40              		.section	.text.stmpe811_IO_ClearIT,"ax",%progbits
  41              		.align	1
  42              		.p2align 2,,3
  43              		.global	stmpe811_IO_ClearIT
  44              		.syntax unified
  45              		.thumb
  46              		.thumb_func
  47              		.fpu fpv4-sp-d16
  49              	stmpe811_IO_ClearIT:
  50              		@ args = 0, pretend = 0, frame = 0
  51              		@ frame_needed = 0, uses_anonymous_args = 0
  52 0000 38B5     		push	{r3, r4, r5, lr}
  53 0002 C5B2     		uxtb	r5, r0
  54 0004 CCB2     		uxtb	r4, r1
  55 0006 2846     		mov	r0, r5
  56 0008 8022     		movs	r2, #128
  57 000a 0B21     		movs	r1, #11
  58 000c FFF7FEFF 		bl	IOE_Write
  59 0010 2246     		mov	r2, r4
  60 0012 2846     		mov	r0, r5
ARM GAS  D:\Programs\cygwin64\tmp\ccnXJUYH.s 			page 2


  61 0014 0D21     		movs	r1, #13
  62 0016 FFF7FEFF 		bl	IOE_Write
  63 001a 2246     		mov	r2, r4
  64 001c 2846     		mov	r0, r5
  65 001e 1421     		movs	r1, #20
  66 0020 FFF7FEFF 		bl	IOE_Write
  67 0024 2246     		mov	r2, r4
  68 0026 2846     		mov	r0, r5
  69 0028 1521     		movs	r1, #21
  70 002a FFF7FEFF 		bl	IOE_Write
  71 002e 2246     		mov	r2, r4
  72 0030 2846     		mov	r0, r5
  73 0032 1621     		movs	r1, #22
  74 0034 BDE83840 		pop	{r3, r4, r5, lr}
  75 0038 FFF7FEBF 		b	IOE_Write
  77              		.section	.text.stmpe811_TS_ClearIT,"ax",%progbits
  78              		.align	1
  79              		.p2align 2,,3
  80              		.global	stmpe811_TS_ClearIT
  81              		.syntax unified
  82              		.thumb
  83              		.thumb_func
  84              		.fpu fpv4-sp-d16
  86              	stmpe811_TS_ClearIT:
  87              		@ args = 0, pretend = 0, frame = 0
  88              		@ frame_needed = 0, uses_anonymous_args = 0
  89              		@ link register save eliminated.
  90 0000 C0B2     		uxtb	r0, r0
  91 0002 1F22     		movs	r2, #31
  92 0004 0B21     		movs	r1, #11
  93 0006 FFF7FEBF 		b	IOE_Write
  95 000a 00BF     		.section	.text.stmpe811_Reset,"ax",%progbits
  96              		.align	1
  97              		.p2align 2,,3
  98              		.global	stmpe811_Reset
  99              		.syntax unified
 100              		.thumb
 101              		.thumb_func
 102              		.fpu fpv4-sp-d16
 104              	stmpe811_Reset:
 105              		@ args = 0, pretend = 0, frame = 0
 106              		@ frame_needed = 0, uses_anonymous_args = 0
 107 0000 10B5     		push	{r4, lr}
 108 0002 C4B2     		uxtb	r4, r0
 109 0004 2046     		mov	r0, r4
 110 0006 0222     		movs	r2, #2
 111 0008 0321     		movs	r1, #3
 112 000a FFF7FEFF 		bl	IOE_Write
 113 000e 0A20     		movs	r0, #10
 114 0010 FFF7FEFF 		bl	IOE_Delay
 115 0014 2046     		mov	r0, r4
 116 0016 0022     		movs	r2, #0
 117 0018 0321     		movs	r1, #3
 118 001a FFF7FEFF 		bl	IOE_Write
 119 001e 0220     		movs	r0, #2
 120 0020 BDE81040 		pop	{r4, lr}
 121 0024 FFF7FEBF 		b	IOE_Delay
ARM GAS  D:\Programs\cygwin64\tmp\ccnXJUYH.s 			page 3


 123              		.section	.text.stmpe811_ReadID,"ax",%progbits
 124              		.align	1
 125              		.p2align 2,,3
 126              		.global	stmpe811_ReadID
 127              		.syntax unified
 128              		.thumb
 129              		.thumb_func
 130              		.fpu fpv4-sp-d16
 132              	stmpe811_ReadID:
 133              		@ args = 0, pretend = 0, frame = 0
 134              		@ frame_needed = 0, uses_anonymous_args = 0
 135 0000 38B5     		push	{r3, r4, r5, lr}
 136 0002 C4B2     		uxtb	r4, r0
 137 0004 FFF7FEFF 		bl	IOE_Init
 138 0008 2046     		mov	r0, r4
 139 000a 0021     		movs	r1, #0
 140 000c FFF7FEFF 		bl	IOE_Read
 141 0010 0121     		movs	r1, #1
 142 0012 0546     		mov	r5, r0
 143 0014 2046     		mov	r0, r4
 144 0016 FFF7FEFF 		bl	IOE_Read
 145 001a 40EA0520 		orr	r0, r0, r5, lsl #8
 146 001e 80B2     		uxth	r0, r0
 147 0020 38BD     		pop	{r3, r4, r5, pc}
 149              		.section	.text.stmpe811_IO_ReadPin,"ax",%progbits
 150              		.align	1
 151              		.p2align 2,,3
 152              		.global	stmpe811_IO_ReadPin
 153              		.syntax unified
 154              		.thumb
 155              		.thumb_func
 156              		.fpu fpv4-sp-d16
 158              	stmpe811_IO_ReadPin:
 159              		@ args = 0, pretend = 0, frame = 0
 160              		@ frame_needed = 0, uses_anonymous_args = 0
 161 0000 10B5     		push	{r4, lr}
 162 0002 C0B2     		uxtb	r0, r0
 163 0004 0C46     		mov	r4, r1
 164 0006 1221     		movs	r1, #18
 165 0008 FFF7FEFF 		bl	IOE_Read
 166 000c 2040     		ands	r0, r0, r4
 167 000e C0B2     		uxtb	r0, r0
 168 0010 10BD     		pop	{r4, pc}
 170 0012 00BF     		.section	.text.stmpe811_IO_ITStatus,"ax",%progbits
 171              		.align	1
 172              		.p2align 2,,3
 173              		.global	stmpe811_IO_ITStatus
 174              		.syntax unified
 175              		.thumb
 176              		.thumb_func
 177              		.fpu fpv4-sp-d16
 179              	stmpe811_IO_ITStatus:
 180              		@ args = 0, pretend = 0, frame = 0
 181              		@ frame_needed = 0, uses_anonymous_args = 0
 182 0000 10B5     		push	{r4, lr}
 183 0002 C0B2     		uxtb	r0, r0
 184 0004 0C46     		mov	r4, r1
ARM GAS  D:\Programs\cygwin64\tmp\ccnXJUYH.s 			page 4


 185 0006 0D21     		movs	r1, #13
 186 0008 FFF7FEFF 		bl	IOE_Read
 187 000c 2040     		ands	r0, r0, r4
 188 000e C0B2     		uxtb	r0, r0
 189 0010 10BD     		pop	{r4, pc}
 191 0012 00BF     		.section	.text.stmpe811_TS_DetectTouch,"ax",%progbits
 192              		.align	1
 193              		.p2align 2,,3
 194              		.global	stmpe811_TS_DetectTouch
 195              		.syntax unified
 196              		.thumb
 197              		.thumb_func
 198              		.fpu fpv4-sp-d16
 200              	stmpe811_TS_DetectTouch:
 201              		@ args = 0, pretend = 0, frame = 0
 202              		@ frame_needed = 0, uses_anonymous_args = 0
 203 0000 10B5     		push	{r4, lr}
 204 0002 C4B2     		uxtb	r4, r0
 205 0004 2046     		mov	r0, r4
 206 0006 4021     		movs	r1, #64
 207 0008 FFF7FEFF 		bl	IOE_Read
 208 000c 0306     		lsls	r3, r0, #24
 209 000e 0BD4     		bmi	.L19
 210 0010 2046     		mov	r0, r4
 211 0012 0122     		movs	r2, #1
 212 0014 4B21     		movs	r1, #75
 213 0016 FFF7FEFF 		bl	IOE_Write
 214 001a 2046     		mov	r0, r4
 215 001c 0022     		movs	r2, #0
 216 001e 4B21     		movs	r1, #75
 217 0020 FFF7FEFF 		bl	IOE_Write
 218 0024 0020     		movs	r0, #0
 219 0026 10BD     		pop	{r4, pc}
 220              	.L19:
 221 0028 2046     		mov	r0, r4
 222 002a 4C21     		movs	r1, #76
 223 002c FFF7FEFF 		bl	IOE_Read
 224 0030 0030     		adds	r0, r0, #0
 225 0032 18BF     		it	ne
 226 0034 0120     		movne	r0, #1
 227 0036 10BD     		pop	{r4, pc}
 229              		.section	.text.stmpe811_TS_ITStatus,"ax",%progbits
 230              		.align	1
 231              		.p2align 2,,3
 232              		.global	stmpe811_TS_ITStatus
 233              		.syntax unified
 234              		.thumb
 235              		.thumb_func
 236              		.fpu fpv4-sp-d16
 238              	stmpe811_TS_ITStatus:
 239              		@ args = 0, pretend = 0, frame = 0
 240              		@ frame_needed = 0, uses_anonymous_args = 0
 241 0000 08B5     		push	{r3, lr}
 242 0002 0B21     		movs	r1, #11
 243 0004 C0B2     		uxtb	r0, r0
 244 0006 FFF7FEFF 		bl	IOE_Read
 245 000a 00F01F00 		and	r0, r0, #31
ARM GAS  D:\Programs\cygwin64\tmp\ccnXJUYH.s 			page 5


 246 000e 08BD     		pop	{r3, pc}
 248              		.section	.text.stmpe811_TS_GetXY,"ax",%progbits
 249              		.align	1
 250              		.p2align 2,,3
 251              		.global	stmpe811_TS_GetXY
 252              		.syntax unified
 253              		.thumb
 254              		.thumb_func
 255              		.fpu fpv4-sp-d16
 257              	stmpe811_TS_GetXY:
 258              		@ args = 0, pretend = 0, frame = 8
 259              		@ frame_needed = 0, uses_anonymous_args = 0
 260 0000 70B5     		push	{r4, r5, r6, lr}
 261 0002 0423     		movs	r3, #4
 262 0004 82B0     		sub	sp, sp, #8
 263 0006 C4B2     		uxtb	r4, r0
 264 0008 0E46     		mov	r6, r1
 265 000a 1546     		mov	r5, r2
 266 000c 2046     		mov	r0, r4
 267 000e 0DEB0302 		add	r2, sp, r3
 268 0012 D721     		movs	r1, #215
 269 0014 FFF7FEFF 		bl	IOE_ReadMultiple
 270 0018 019B     		ldr	r3, [sp, #4]
 271 001a 1BBA     		rev	r3, r3
 272 001c 1A0D     		lsrs	r2, r3, #20
 273 001e C3F30B23 		ubfx	r3, r3, #8, #12
 274 0022 3280     		strh	r2, [r6]	@ movhi
 275 0024 2046     		mov	r0, r4
 276 0026 2B80     		strh	r3, [r5]	@ movhi
 277 0028 0122     		movs	r2, #1
 278 002a 4B21     		movs	r1, #75
 279 002c FFF7FEFF 		bl	IOE_Write
 280 0030 2046     		mov	r0, r4
 281 0032 0022     		movs	r2, #0
 282 0034 4B21     		movs	r1, #75
 283 0036 FFF7FEFF 		bl	IOE_Write
 284 003a 02B0     		add	sp, sp, #8
 285              		@ sp needed
 286 003c 70BD     		pop	{r4, r5, r6, pc}
 288 003e 00BF     		.section	.text.stmpe811_IO_Start,"ax",%progbits
 289              		.align	1
 290              		.p2align 2,,3
 291              		.global	stmpe811_IO_Start
 292              		.syntax unified
 293              		.thumb
 294              		.thumb_func
 295              		.fpu fpv4-sp-d16
 297              	stmpe811_IO_Start:
 298              		@ args = 0, pretend = 0, frame = 0
 299              		@ frame_needed = 0, uses_anonymous_args = 0
 300 0000 38B5     		push	{r3, r4, r5, lr}
 301 0002 C4B2     		uxtb	r4, r0
 302 0004 0D46     		mov	r5, r1
 303 0006 2046     		mov	r0, r4
 304 0008 0421     		movs	r1, #4
 305 000a FFF7FEFF 		bl	IOE_Read
 306 000e 0421     		movs	r1, #4
ARM GAS  D:\Programs\cygwin64\tmp\ccnXJUYH.s 			page 6


 307 0010 00F0FA02 		and	r2, r0, #250
 308 0014 2046     		mov	r0, r4
 309 0016 FFF7FEFF 		bl	IOE_Write
 310 001a 2046     		mov	r0, r4
 311 001c 1721     		movs	r1, #23
 312 001e FFF7FEFF 		bl	IOE_Read
 313 0022 40EA0502 		orr	r2, r0, r5
 314 0026 D2B2     		uxtb	r2, r2
 315 0028 2046     		mov	r0, r4
 316 002a 1721     		movs	r1, #23
 317 002c BDE83840 		pop	{r3, r4, r5, lr}
 318 0030 FFF7FEBF 		b	IOE_Write
 320              		.section	.text.stmpe811_TS_Start,"ax",%progbits
 321              		.align	1
 322              		.p2align 2,,3
 323              		.global	stmpe811_TS_Start
 324              		.syntax unified
 325              		.thumb
 326              		.thumb_func
 327              		.fpu fpv4-sp-d16
 329              	stmpe811_TS_Start:
 330              		@ args = 0, pretend = 0, frame = 0
 331              		@ frame_needed = 0, uses_anonymous_args = 0
 332 0000 38B5     		push	{r3, r4, r5, lr}
 333 0002 C4B2     		uxtb	r4, r0
 334 0004 2046     		mov	r0, r4
 335 0006 0421     		movs	r1, #4
 336 0008 FFF7FEFF 		bl	IOE_Read
 337 000c 0421     		movs	r1, #4
 338 000e 00F0FB02 		and	r2, r0, #251
 339 0012 0546     		mov	r5, r0
 340 0014 2046     		mov	r0, r4
 341 0016 FFF7FEFF 		bl	IOE_Write
 342 001a 2046     		mov	r0, r4
 343 001c 1721     		movs	r1, #23
 344 001e FFF7FEFF 		bl	IOE_Read
 345 0022 1721     		movs	r1, #23
 346 0024 00F00F02 		and	r2, r0, #15
 347 0028 2046     		mov	r0, r4
 348 002a FFF7FEFF 		bl	IOE_Write
 349 002e 05F0F802 		and	r2, r5, #248
 350 0032 2046     		mov	r0, r4
 351 0034 0421     		movs	r1, #4
 352 0036 FFF7FEFF 		bl	IOE_Write
 353 003a 2046     		mov	r0, r4
 354 003c 4922     		movs	r2, #73
 355 003e 2021     		movs	r1, #32
 356 0040 FFF7FEFF 		bl	IOE_Write
 357 0044 0220     		movs	r0, #2
 358 0046 FFF7FEFF 		bl	IOE_Delay
 359 004a 2046     		mov	r0, r4
 360 004c 0122     		movs	r2, #1
 361 004e 2121     		movs	r1, #33
 362 0050 FFF7FEFF 		bl	IOE_Write
 363 0054 2046     		mov	r0, r4
 364 0056 9A22     		movs	r2, #154
 365 0058 4121     		movs	r1, #65
ARM GAS  D:\Programs\cygwin64\tmp\ccnXJUYH.s 			page 7


 366 005a FFF7FEFF 		bl	IOE_Write
 367 005e 2046     		mov	r0, r4
 368 0060 0122     		movs	r2, #1
 369 0062 4A21     		movs	r1, #74
 370 0064 FFF7FEFF 		bl	IOE_Write
 371 0068 2046     		mov	r0, r4
 372 006a 0122     		movs	r2, #1
 373 006c 4B21     		movs	r1, #75
 374 006e FFF7FEFF 		bl	IOE_Write
 375 0072 2046     		mov	r0, r4
 376 0074 0022     		movs	r2, #0
 377 0076 4B21     		movs	r1, #75
 378 0078 FFF7FEFF 		bl	IOE_Write
 379 007c 2046     		mov	r0, r4
 380 007e 0122     		movs	r2, #1
 381 0080 5621     		movs	r1, #86
 382 0082 FFF7FEFF 		bl	IOE_Write
 383 0086 2046     		mov	r0, r4
 384 0088 0122     		movs	r2, #1
 385 008a 5821     		movs	r1, #88
 386 008c FFF7FEFF 		bl	IOE_Write
 387 0090 2046     		mov	r0, r4
 388 0092 0122     		movs	r2, #1
 389 0094 4021     		movs	r1, #64
 390 0096 FFF7FEFF 		bl	IOE_Write
 391 009a 2046     		mov	r0, r4
 392 009c FF22     		movs	r2, #255
 393 009e 0B21     		movs	r1, #11
 394 00a0 FFF7FEFF 		bl	IOE_Write
 395 00a4 0220     		movs	r0, #2
 396 00a6 BDE83840 		pop	{r3, r4, r5, lr}
 397 00aa FFF7FEBF 		b	IOE_Delay
 399 00ae 00BF     		.section	.text.stmpe811_IO_DisableIT,"ax",%progbits
 400              		.align	1
 401              		.p2align 2,,3
 402              		.global	stmpe811_IO_DisableIT
 403              		.syntax unified
 404              		.thumb
 405              		.thumb_func
 406              		.fpu fpv4-sp-d16
 408              	stmpe811_IO_DisableIT:
 409              		@ args = 0, pretend = 0, frame = 0
 410              		@ frame_needed = 0, uses_anonymous_args = 0
 411 0000 10B5     		push	{r4, lr}
 412 0002 C4B2     		uxtb	r4, r0
 413 0004 2046     		mov	r0, r4
 414 0006 0921     		movs	r1, #9
 415 0008 FFF7FEFF 		bl	IOE_Read
 416 000c 0921     		movs	r1, #9
 417 000e 00F0FE02 		and	r2, r0, #254
 418 0012 2046     		mov	r0, r4
 419 0014 FFF7FEFF 		bl	IOE_Write
 420 0018 2046     		mov	r0, r4
 421 001a 0A21     		movs	r1, #10
 422 001c FFF7FEFF 		bl	IOE_Read
 423 0020 0A21     		movs	r1, #10
 424 0022 00F07F02 		and	r2, r0, #127
ARM GAS  D:\Programs\cygwin64\tmp\ccnXJUYH.s 			page 8


 425 0026 2046     		mov	r0, r4
 426 0028 BDE81040 		pop	{r4, lr}
 427 002c FFF7FEBF 		b	IOE_Write
 429              		.section	.text.stmpe811_TS_DisableIT,"ax",%progbits
 430              		.align	1
 431              		.p2align 2,,3
 432              		.global	stmpe811_TS_DisableIT
 433              		.syntax unified
 434              		.thumb
 435              		.thumb_func
 436              		.fpu fpv4-sp-d16
 438              	stmpe811_TS_DisableIT:
 439              		@ args = 0, pretend = 0, frame = 0
 440              		@ frame_needed = 0, uses_anonymous_args = 0
 441 0000 10B5     		push	{r4, lr}
 442 0002 C4B2     		uxtb	r4, r0
 443 0004 2046     		mov	r0, r4
 444 0006 0921     		movs	r1, #9
 445 0008 FFF7FEFF 		bl	IOE_Read
 446 000c 0921     		movs	r1, #9
 447 000e 00F0FE02 		and	r2, r0, #254
 448 0012 2046     		mov	r0, r4
 449 0014 FFF7FEFF 		bl	IOE_Write
 450 0018 2046     		mov	r0, r4
 451 001a 0A21     		movs	r1, #10
 452 001c FFF7FEFF 		bl	IOE_Read
 453 0020 0A21     		movs	r1, #10
 454 0022 00F0E002 		and	r2, r0, #224
 455 0026 2046     		mov	r0, r4
 456 0028 BDE81040 		pop	{r4, lr}
 457 002c FFF7FEBF 		b	IOE_Write
 459              		.section	.text.stmpe811_TS_EnableIT,"ax",%progbits
 460              		.align	1
 461              		.p2align 2,,3
 462              		.global	stmpe811_TS_EnableIT
 463              		.syntax unified
 464              		.thumb
 465              		.thumb_func
 466              		.fpu fpv4-sp-d16
 468              	stmpe811_TS_EnableIT:
 469              		@ args = 0, pretend = 0, frame = 0
 470              		@ frame_needed = 0, uses_anonymous_args = 0
 471 0000 10B5     		push	{r4, lr}
 472 0002 C4B2     		uxtb	r4, r0
 473 0004 FFF7FEFF 		bl	IOE_ITConfig
 474 0008 2046     		mov	r0, r4
 475 000a 0A21     		movs	r1, #10
 476 000c FFF7FEFF 		bl	IOE_Read
 477 0010 40F01F02 		orr	r2, r0, #31
 478 0014 D2B2     		uxtb	r2, r2
 479 0016 2046     		mov	r0, r4
 480 0018 0A21     		movs	r1, #10
 481 001a FFF7FEFF 		bl	IOE_Write
 482 001e 2046     		mov	r0, r4
 483 0020 0921     		movs	r1, #9
 484 0022 FFF7FEFF 		bl	IOE_Read
 485 0026 40F00102 		orr	r2, r0, #1
ARM GAS  D:\Programs\cygwin64\tmp\ccnXJUYH.s 			page 9


 486 002a D2B2     		uxtb	r2, r2
 487 002c 2046     		mov	r0, r4
 488 002e 0921     		movs	r1, #9
 489 0030 BDE81040 		pop	{r4, lr}
 490 0034 FFF7FEBF 		b	IOE_Write
 492              		.section	.text.stmpe811_IO_EnableIT,"ax",%progbits
 493              		.align	1
 494              		.p2align 2,,3
 495              		.global	stmpe811_IO_EnableIT
 496              		.syntax unified
 497              		.thumb
 498              		.thumb_func
 499              		.fpu fpv4-sp-d16
 501              	stmpe811_IO_EnableIT:
 502              		@ args = 0, pretend = 0, frame = 0
 503              		@ frame_needed = 0, uses_anonymous_args = 0
 504 0000 10B5     		push	{r4, lr}
 505 0002 C4B2     		uxtb	r4, r0
 506 0004 FFF7FEFF 		bl	IOE_ITConfig
 507 0008 2046     		mov	r0, r4
 508 000a 0A21     		movs	r1, #10
 509 000c FFF7FEFF 		bl	IOE_Read
 510 0010 60F07F02 		orn	r2, r0, #127
 511 0014 D2B2     		uxtb	r2, r2
 512 0016 2046     		mov	r0, r4
 513 0018 0A21     		movs	r1, #10
 514 001a FFF7FEFF 		bl	IOE_Write
 515 001e 2046     		mov	r0, r4
 516 0020 0921     		movs	r1, #9
 517 0022 FFF7FEFF 		bl	IOE_Read
 518 0026 40F00102 		orr	r2, r0, #1
 519 002a D2B2     		uxtb	r2, r2
 520 002c 2046     		mov	r0, r4
 521 002e 0921     		movs	r1, #9
 522 0030 BDE81040 		pop	{r4, lr}
 523 0034 FFF7FEBF 		b	IOE_Write
 525              		.section	.text.stmpe811_Init,"ax",%progbits
 526              		.align	1
 527              		.p2align 2,,3
 528              		.global	stmpe811_Init
 529              		.syntax unified
 530              		.thumb
 531              		.thumb_func
 532              		.fpu fpv4-sp-d16
 534              	stmpe811_Init:
 535              		@ args = 0, pretend = 0, frame = 0
 536              		@ frame_needed = 0, uses_anonymous_args = 0
 537 0000 104A     		ldr	r2, .L43
 538 0002 1378     		ldrb	r3, [r2]	@ zero_extendqisi2
 539 0004 9842     		cmp	r0, r3
 540 0006 04D0     		beq	.L36
 541 0008 5178     		ldrb	r1, [r2, #1]	@ zero_extendqisi2
 542 000a 8842     		cmp	r0, r1
 543 000c 01D0     		beq	.L36
 544 000e 13B1     		cbz	r3, .L38
 545 0010 01B1     		cbz	r1, .L42
 546              	.L36:
ARM GAS  D:\Programs\cygwin64\tmp\ccnXJUYH.s 			page 10


 547 0012 7047     		bx	lr
 548              	.L42:
 549 0014 0123     		movs	r3, #1
 550              	.L38:
 551 0016 10B5     		push	{r4, lr}
 552 0018 C4B2     		uxtb	r4, r0
 553 001a D454     		strb	r4, [r2, r3]
 554 001c FFF7FEFF 		bl	IOE_Init
 555 0020 2046     		mov	r0, r4
 556 0022 0222     		movs	r2, #2
 557 0024 0321     		movs	r1, #3
 558 0026 FFF7FEFF 		bl	IOE_Write
 559 002a 0A20     		movs	r0, #10
 560 002c FFF7FEFF 		bl	IOE_Delay
 561 0030 2046     		mov	r0, r4
 562 0032 0022     		movs	r2, #0
 563 0034 0321     		movs	r1, #3
 564 0036 FFF7FEFF 		bl	IOE_Write
 565 003a 0220     		movs	r0, #2
 566 003c BDE81040 		pop	{r4, lr}
 567 0040 FFF7FEBF 		b	IOE_Delay
 568              	.L44:
 569              		.align	2
 570              	.L43:
 571 0044 00000000 		.word	.LANCHOR0
 573              		.section	.text.stmpe811_IO_Config,"ax",%progbits
 574              		.align	1
 575              		.p2align 2,,3
 576              		.global	stmpe811_IO_Config
 577              		.syntax unified
 578              		.thumb
 579              		.thumb_func
 580              		.fpu fpv4-sp-d16
 582              	stmpe811_IO_Config:
 583              		@ args = 0, pretend = 0, frame = 0
 584              		@ frame_needed = 0, uses_anonymous_args = 0
 585 0000 2DE9F041 		push	{r4, r5, r6, r7, r8, lr}
 586 0004 0D46     		mov	r5, r1
 587 0006 052A     		cmp	r2, #5
 588 0008 00F26081 		bhi	.L54
 589 000c DFE812F0 		tbh	[pc, r2, lsl #1]
 590              	.L48:
 591 0010 4E00     		.2byte	(.L53-.L48)/2
 592 0012 5D00     		.2byte	(.L52-.L48)/2
 593 0014 6500     		.2byte	(.L51-.L48)/2
 594 0016 BF00     		.2byte	(.L50-.L48)/2
 595 0018 1801     		.2byte	(.L49-.L48)/2
 596 001a 0600     		.2byte	(.L47-.L48)/2
 597              		.p2align 1
 598              	.L47:
 599 001c C4B2     		uxtb	r4, r0
 600 001e FFF7FEFF 		bl	IOE_ITConfig
 601 0022 0A21     		movs	r1, #10
 602 0024 2046     		mov	r0, r4
 603 0026 FFF7FEFF 		bl	IOE_Read
 604 002a 60F07F02 		orn	r2, r0, #127
 605 002e D2B2     		uxtb	r2, r2
ARM GAS  D:\Programs\cygwin64\tmp\ccnXJUYH.s 			page 11


 606 0030 2046     		mov	r0, r4
 607 0032 0A21     		movs	r1, #10
 608 0034 FFF7FEFF 		bl	IOE_Write
 609 0038 0921     		movs	r1, #9
 610 003a 2046     		mov	r0, r4
 611 003c FFF7FEFF 		bl	IOE_Read
 612 0040 40F00102 		orr	r2, r0, #1
 613 0044 D2B2     		uxtb	r2, r2
 614 0046 2046     		mov	r0, r4
 615 0048 0921     		movs	r1, #9
 616 004a FFF7FEFF 		bl	IOE_Write
 617 004e 0C21     		movs	r1, #12
 618 0050 2046     		mov	r0, r4
 619 0052 FFF7FEFF 		bl	IOE_Read
 620 0056 40EA0502 		orr	r2, r0, r5
 621 005a D2B2     		uxtb	r2, r2
 622 005c 2046     		mov	r0, r4
 623 005e 0C21     		movs	r1, #12
 624 0060 FFF7FEFF 		bl	IOE_Write
 625 0064 1321     		movs	r1, #19
 626 0066 2046     		mov	r0, r4
 627 0068 FFF7FEFF 		bl	IOE_Read
 628 006c 20EA0502 		bic	r2, r0, r5
 629 0070 D2B2     		uxtb	r2, r2
 630 0072 2046     		mov	r0, r4
 631 0074 1321     		movs	r1, #19
 632 0076 FFF7FEFF 		bl	IOE_Write
 633 007a 0921     		movs	r1, #9
 634 007c 2046     		mov	r0, r4
 635 007e FFF7FEFF 		bl	IOE_Read
 636 0082 0921     		movs	r1, #9
 637 0084 00F0FD02 		and	r2, r0, #253
 638 0088 2046     		mov	r0, r4
 639 008a FFF7FEFF 		bl	IOE_Write
 640 008e 0921     		movs	r1, #9
 641 0090 2046     		mov	r0, r4
 642 0092 FFF7FEFF 		bl	IOE_Read
 643 0096 00F0FB02 		and	r2, r0, #251
 644 009a 42F00402 		orr	r2, r2, #4
 645 009e 2046     		mov	r0, r4
 646 00a0 0921     		movs	r1, #9
 647 00a2 FFF7FEFF 		bl	IOE_Write
 648 00a6 0020     		movs	r0, #0
 649              	.L46:
 650 00a8 BDE8F081 		pop	{r4, r5, r6, r7, r8, pc}
 651              	.L53:
 652 00ac C4B2     		uxtb	r4, r0
 653 00ae 2046     		mov	r0, r4
 654 00b0 1321     		movs	r1, #19
 655 00b2 FFF7FEFF 		bl	IOE_Read
 656 00b6 20EA0502 		bic	r2, r0, r5
 657              	.L56:
 658 00ba 2046     		mov	r0, r4
 659 00bc D2B2     		uxtb	r2, r2
 660 00be 1321     		movs	r1, #19
 661 00c0 FFF7FEFF 		bl	IOE_Write
 662 00c4 0020     		movs	r0, #0
ARM GAS  D:\Programs\cygwin64\tmp\ccnXJUYH.s 			page 12


 663 00c6 BDE8F081 		pop	{r4, r5, r6, r7, r8, pc}
 664              	.L52:
 665 00ca C4B2     		uxtb	r4, r0
 666 00cc 2046     		mov	r0, r4
 667 00ce 1321     		movs	r1, #19
 668 00d0 FFF7FEFF 		bl	IOE_Read
 669 00d4 40EA0502 		orr	r2, r0, r5
 670 00d8 EFE7     		b	.L56
 671              	.L51:
 672 00da C4B2     		uxtb	r4, r0
 673 00dc FFF7FEFF 		bl	IOE_ITConfig
 674 00e0 2046     		mov	r0, r4
 675 00e2 0A21     		movs	r1, #10
 676 00e4 FFF7FEFF 		bl	IOE_Read
 677 00e8 60F07F02 		orn	r2, r0, #127
 678 00ec D2B2     		uxtb	r2, r2
 679 00ee 2046     		mov	r0, r4
 680 00f0 0A21     		movs	r1, #10
 681 00f2 FFF7FEFF 		bl	IOE_Write
 682 00f6 2046     		mov	r0, r4
 683 00f8 0921     		movs	r1, #9
 684 00fa FFF7FEFF 		bl	IOE_Read
 685 00fe 40F00102 		orr	r2, r0, #1
 686 0102 D2B2     		uxtb	r2, r2
 687 0104 2046     		mov	r0, r4
 688 0106 0921     		movs	r1, #9
 689 0108 FFF7FEFF 		bl	IOE_Write
 690 010c 2046     		mov	r0, r4
 691 010e 0C21     		movs	r1, #12
 692 0110 FFF7FEFF 		bl	IOE_Read
 693 0114 EFB2     		uxtb	r7, r5
 694 0116 40EA0702 		orr	r2, r0, r7
 695 011a D2B2     		uxtb	r2, r2
 696 011c 2046     		mov	r0, r4
 697 011e 0C21     		movs	r1, #12
 698 0120 FFF7FEFF 		bl	IOE_Write
 699 0124 2046     		mov	r0, r4
 700 0126 1321     		movs	r1, #19
 701 0128 FFF7FEFF 		bl	IOE_Read
 702 012c ED43     		mvns	r5, r5
 703 012e 6DB2     		sxtb	r5, r5
 704 0130 05EA0002 		and	r2, r5, r0
 705 0134 D2B2     		uxtb	r2, r2
 706 0136 2046     		mov	r0, r4
 707 0138 1321     		movs	r1, #19
 708 013a FFF7FEFF 		bl	IOE_Write
 709 013e 2046     		mov	r0, r4
 710 0140 0921     		movs	r1, #9
 711 0142 FFF7FEFF 		bl	IOE_Read
 712 0146 00F0FD02 		and	r2, r0, #253
 713 014a 42F00202 		orr	r2, r2, #2
 714 014e 2046     		mov	r0, r4
 715 0150 0921     		movs	r1, #9
 716 0152 FFF7FEFF 		bl	IOE_Write
 717 0156 2046     		mov	r0, r4
 718 0158 1621     		movs	r1, #22
 719 015a FFF7FEFF 		bl	IOE_Read
ARM GAS  D:\Programs\cygwin64\tmp\ccnXJUYH.s 			page 13


 720 015e 1521     		movs	r1, #21
 721 0160 8046     		mov	r8, r0
 722 0162 2046     		mov	r0, r4
 723 0164 FFF7FEFF 		bl	IOE_Read
 724 0168 05EA0006 		and	r6, r5, r0
 725 016c F6B2     		uxtb	r6, r6
 726 016e 05EA0805 		and	r5, r5, r8
 727 0172 EAB2     		uxtb	r2, r5
 728 0174 2046     		mov	r0, r4
 729 0176 3E43     		orrs	r6, r6, r7
 730 0178 1621     		movs	r1, #22
 731 017a FFF7FEFF 		bl	IOE_Write
 732 017e 2046     		mov	r0, r4
 733 0180 3246     		mov	r2, r6
 734 0182 1521     		movs	r1, #21
 735 0184 FFF7FEFF 		bl	IOE_Write
 736 0188 0020     		movs	r0, #0
 737 018a BDE8F081 		pop	{r4, r5, r6, r7, r8, pc}
 738              	.L50:
 739 018e C4B2     		uxtb	r4, r0
 740 0190 FFF7FEFF 		bl	IOE_ITConfig
 741 0194 2046     		mov	r0, r4
 742 0196 0A21     		movs	r1, #10
 743 0198 FFF7FEFF 		bl	IOE_Read
 744 019c 60F07F02 		orn	r2, r0, #127
 745 01a0 D2B2     		uxtb	r2, r2
 746 01a2 2046     		mov	r0, r4
 747 01a4 0A21     		movs	r1, #10
 748 01a6 FFF7FEFF 		bl	IOE_Write
 749 01aa 2046     		mov	r0, r4
 750 01ac 0921     		movs	r1, #9
 751 01ae FFF7FEFF 		bl	IOE_Read
 752 01b2 40F00102 		orr	r2, r0, #1
 753 01b6 D2B2     		uxtb	r2, r2
 754 01b8 2046     		mov	r0, r4
 755 01ba 0921     		movs	r1, #9
 756 01bc FFF7FEFF 		bl	IOE_Write
 757 01c0 2046     		mov	r0, r4
 758 01c2 0C21     		movs	r1, #12
 759 01c4 FFF7FEFF 		bl	IOE_Read
 760 01c8 EFB2     		uxtb	r7, r5
 761 01ca 40EA0702 		orr	r2, r0, r7
 762 01ce D2B2     		uxtb	r2, r2
 763 01d0 2046     		mov	r0, r4
 764 01d2 0C21     		movs	r1, #12
 765 01d4 FFF7FEFF 		bl	IOE_Write
 766 01d8 2046     		mov	r0, r4
 767 01da 1321     		movs	r1, #19
 768 01dc FFF7FEFF 		bl	IOE_Read
 769 01e0 ED43     		mvns	r5, r5
 770 01e2 6DB2     		sxtb	r5, r5
 771 01e4 05EA0002 		and	r2, r5, r0
 772 01e8 D2B2     		uxtb	r2, r2
 773 01ea 2046     		mov	r0, r4
 774 01ec 1321     		movs	r1, #19
 775 01ee FFF7FEFF 		bl	IOE_Write
 776 01f2 2046     		mov	r0, r4
ARM GAS  D:\Programs\cygwin64\tmp\ccnXJUYH.s 			page 14


 777 01f4 0921     		movs	r1, #9
 778 01f6 FFF7FEFF 		bl	IOE_Read
 779 01fa 00F0FD02 		and	r2, r0, #253
 780 01fe 42F00202 		orr	r2, r2, #2
 781 0202 2046     		mov	r0, r4
 782 0204 0921     		movs	r1, #9
 783 0206 FFF7FEFF 		bl	IOE_Write
 784 020a 2046     		mov	r0, r4
 785 020c 1621     		movs	r1, #22
 786 020e FFF7FEFF 		bl	IOE_Read
 787 0212 1521     		movs	r1, #21
 788 0214 0646     		mov	r6, r0
 789 0216 2046     		mov	r0, r4
 790 0218 FFF7FEFF 		bl	IOE_Read
 791 021c 05EA0602 		and	r2, r5, r6
 792 0220 D2B2     		uxtb	r2, r2
 793 0222 0540     		ands	r5, r5, r0
 794 0224 3A43     		orrs	r2, r2, r7
 795 0226 2046     		mov	r0, r4
 796 0228 6DB2     		sxtb	r5, r5
 797 022a 1621     		movs	r1, #22
 798 022c FFF7FEFF 		bl	IOE_Write
 799 0230 2046     		mov	r0, r4
 800 0232 EAB2     		uxtb	r2, r5
 801 0234 1521     		movs	r1, #21
 802 0236 FFF7FEFF 		bl	IOE_Write
 803 023a 0020     		movs	r0, #0
 804 023c BDE8F081 		pop	{r4, r5, r6, r7, r8, pc}
 805              	.L49:
 806 0240 C4B2     		uxtb	r4, r0
 807 0242 FFF7FEFF 		bl	IOE_ITConfig
 808 0246 2046     		mov	r0, r4
 809 0248 0A21     		movs	r1, #10
 810 024a FFF7FEFF 		bl	IOE_Read
 811 024e 60F07F02 		orn	r2, r0, #127
 812 0252 D2B2     		uxtb	r2, r2
 813 0254 2046     		mov	r0, r4
 814 0256 0A21     		movs	r1, #10
 815 0258 FFF7FEFF 		bl	IOE_Write
 816 025c 2046     		mov	r0, r4
 817 025e 0921     		movs	r1, #9
 818 0260 FFF7FEFF 		bl	IOE_Read
 819 0264 40F00102 		orr	r2, r0, #1
 820 0268 D2B2     		uxtb	r2, r2
 821 026a 2046     		mov	r0, r4
 822 026c 0921     		movs	r1, #9
 823 026e FFF7FEFF 		bl	IOE_Write
 824 0272 2046     		mov	r0, r4
 825 0274 0C21     		movs	r1, #12
 826 0276 FFF7FEFF 		bl	IOE_Read
 827 027a 40EA0502 		orr	r2, r0, r5
 828 027e D2B2     		uxtb	r2, r2
 829 0280 2046     		mov	r0, r4
 830 0282 0C21     		movs	r1, #12
 831 0284 FFF7FEFF 		bl	IOE_Write
 832 0288 2046     		mov	r0, r4
 833 028a 1321     		movs	r1, #19
ARM GAS  D:\Programs\cygwin64\tmp\ccnXJUYH.s 			page 15


 834 028c FFF7FEFF 		bl	IOE_Read
 835 0290 20EA0502 		bic	r2, r0, r5
 836 0294 D2B2     		uxtb	r2, r2
 837 0296 2046     		mov	r0, r4
 838 0298 1321     		movs	r1, #19
 839 029a FFF7FEFF 		bl	IOE_Write
 840 029e 2046     		mov	r0, r4
 841 02a0 0921     		movs	r1, #9
 842 02a2 FFF7FEFF 		bl	IOE_Read
 843 02a6 0921     		movs	r1, #9
 844 02a8 00F0FD02 		and	r2, r0, #253
 845 02ac 2046     		mov	r0, r4
 846 02ae FFF7FEFF 		bl	IOE_Write
 847 02b2 2046     		mov	r0, r4
 848 02b4 0921     		movs	r1, #9
 849 02b6 FFF7FEFF 		bl	IOE_Read
 850 02ba 0921     		movs	r1, #9
 851 02bc 00F0FB02 		and	r2, r0, #251
 852 02c0 2046     		mov	r0, r4
 853 02c2 FFF7FEFF 		bl	IOE_Write
 854 02c6 0020     		movs	r0, #0
 855 02c8 BDE8F081 		pop	{r4, r5, r6, r7, r8, pc}
 856              	.L54:
 857 02cc 1046     		mov	r0, r2
 858 02ce EBE6     		b	.L46
 860              		.section	.text.stmpe811_EnableGlobalIT,"ax",%progbits
 861              		.align	1
 862              		.p2align 2,,3
 863              		.global	stmpe811_EnableGlobalIT
 864              		.syntax unified
 865              		.thumb
 866              		.thumb_func
 867              		.fpu fpv4-sp-d16
 869              	stmpe811_EnableGlobalIT:
 870              		@ args = 0, pretend = 0, frame = 0
 871              		@ frame_needed = 0, uses_anonymous_args = 0
 872 0000 10B5     		push	{r4, lr}
 873 0002 C4B2     		uxtb	r4, r0
 874 0004 2046     		mov	r0, r4
 875 0006 0921     		movs	r1, #9
 876 0008 FFF7FEFF 		bl	IOE_Read
 877 000c 40F00102 		orr	r2, r0, #1
 878 0010 D2B2     		uxtb	r2, r2
 879 0012 2046     		mov	r0, r4
 880 0014 0921     		movs	r1, #9
 881 0016 BDE81040 		pop	{r4, lr}
 882 001a FFF7FEBF 		b	IOE_Write
 884 001e 00BF     		.section	.text.stmpe811_DisableGlobalIT,"ax",%progbits
 885              		.align	1
 886              		.p2align 2,,3
 887              		.global	stmpe811_DisableGlobalIT
 888              		.syntax unified
 889              		.thumb
 890              		.thumb_func
 891              		.fpu fpv4-sp-d16
 893              	stmpe811_DisableGlobalIT:
 894              		@ args = 0, pretend = 0, frame = 0
ARM GAS  D:\Programs\cygwin64\tmp\ccnXJUYH.s 			page 16


 895              		@ frame_needed = 0, uses_anonymous_args = 0
 896 0000 10B5     		push	{r4, lr}
 897 0002 C4B2     		uxtb	r4, r0
 898 0004 2046     		mov	r0, r4
 899 0006 0921     		movs	r1, #9
 900 0008 FFF7FEFF 		bl	IOE_Read
 901 000c 0921     		movs	r1, #9
 902 000e 00F0FE02 		and	r2, r0, #254
 903 0012 2046     		mov	r0, r4
 904 0014 BDE81040 		pop	{r4, lr}
 905 0018 FFF7FEBF 		b	IOE_Write
 907              		.section	.text.stmpe811_EnableITSource,"ax",%progbits
 908              		.align	1
 909              		.p2align 2,,3
 910              		.global	stmpe811_EnableITSource
 911              		.syntax unified
 912              		.thumb
 913              		.thumb_func
 914              		.fpu fpv4-sp-d16
 916              	stmpe811_EnableITSource:
 917              		@ args = 0, pretend = 0, frame = 0
 918              		@ frame_needed = 0, uses_anonymous_args = 0
 919 0000 38B5     		push	{r3, r4, r5, lr}
 920 0002 C5B2     		uxtb	r5, r0
 921 0004 0C46     		mov	r4, r1
 922 0006 2846     		mov	r0, r5
 923 0008 0A21     		movs	r1, #10
 924 000a FFF7FEFF 		bl	IOE_Read
 925 000e 40EA0402 		orr	r2, r0, r4
 926 0012 D2B2     		uxtb	r2, r2
 927 0014 2846     		mov	r0, r5
 928 0016 0A21     		movs	r1, #10
 929 0018 BDE83840 		pop	{r3, r4, r5, lr}
 930 001c FFF7FEBF 		b	IOE_Write
 932              		.section	.text.stmpe811_DisableITSource,"ax",%progbits
 933              		.align	1
 934              		.p2align 2,,3
 935              		.global	stmpe811_DisableITSource
 936              		.syntax unified
 937              		.thumb
 938              		.thumb_func
 939              		.fpu fpv4-sp-d16
 941              	stmpe811_DisableITSource:
 942              		@ args = 0, pretend = 0, frame = 0
 943              		@ frame_needed = 0, uses_anonymous_args = 0
 944 0000 38B5     		push	{r3, r4, r5, lr}
 945 0002 C5B2     		uxtb	r5, r0
 946 0004 0C46     		mov	r4, r1
 947 0006 2846     		mov	r0, r5
 948 0008 0A21     		movs	r1, #10
 949 000a FFF7FEFF 		bl	IOE_Read
 950 000e 20EA0402 		bic	r2, r0, r4
 951 0012 D2B2     		uxtb	r2, r2
 952 0014 2846     		mov	r0, r5
 953 0016 0A21     		movs	r1, #10
 954 0018 BDE83840 		pop	{r3, r4, r5, lr}
 955 001c FFF7FEBF 		b	IOE_Write
ARM GAS  D:\Programs\cygwin64\tmp\ccnXJUYH.s 			page 17


 957              		.section	.text.stmpe811_SetITPolarity,"ax",%progbits
 958              		.align	1
 959              		.p2align 2,,3
 960              		.global	stmpe811_SetITPolarity
 961              		.syntax unified
 962              		.thumb
 963              		.thumb_func
 964              		.fpu fpv4-sp-d16
 966              	stmpe811_SetITPolarity:
 967              		@ args = 0, pretend = 0, frame = 0
 968              		@ frame_needed = 0, uses_anonymous_args = 0
 969 0000 38B5     		push	{r3, r4, r5, lr}
 970 0002 C4B2     		uxtb	r4, r0
 971 0004 0D46     		mov	r5, r1
 972 0006 2046     		mov	r0, r4
 973 0008 0921     		movs	r1, #9
 974 000a FFF7FEFF 		bl	IOE_Read
 975 000e 00F0FB02 		and	r2, r0, #251
 976 0012 2A43     		orrs	r2, r2, r5
 977 0014 2046     		mov	r0, r4
 978 0016 0921     		movs	r1, #9
 979 0018 BDE83840 		pop	{r3, r4, r5, lr}
 980 001c FFF7FEBF 		b	IOE_Write
 982              		.section	.text.stmpe811_SetITType,"ax",%progbits
 983              		.align	1
 984              		.p2align 2,,3
 985              		.global	stmpe811_SetITType
 986              		.syntax unified
 987              		.thumb
 988              		.thumb_func
 989              		.fpu fpv4-sp-d16
 991              	stmpe811_SetITType:
 992              		@ args = 0, pretend = 0, frame = 0
 993              		@ frame_needed = 0, uses_anonymous_args = 0
 994 0000 38B5     		push	{r3, r4, r5, lr}
 995 0002 C4B2     		uxtb	r4, r0
 996 0004 0D46     		mov	r5, r1
 997 0006 2046     		mov	r0, r4
 998 0008 0921     		movs	r1, #9
 999 000a FFF7FEFF 		bl	IOE_Read
 1000 000e 00F0FD02 		and	r2, r0, #253
 1001 0012 2A43     		orrs	r2, r2, r5
 1002 0014 2046     		mov	r0, r4
 1003 0016 0921     		movs	r1, #9
 1004 0018 BDE83840 		pop	{r3, r4, r5, lr}
 1005 001c FFF7FEBF 		b	IOE_Write
 1007              		.section	.text.stmpe811_GlobalITStatus,"ax",%progbits
 1008              		.align	1
 1009              		.p2align 2,,3
 1010              		.global	stmpe811_GlobalITStatus
 1011              		.syntax unified
 1012              		.thumb
 1013              		.thumb_func
 1014              		.fpu fpv4-sp-d16
 1016              	stmpe811_GlobalITStatus:
 1017              		@ args = 0, pretend = 0, frame = 0
 1018              		@ frame_needed = 0, uses_anonymous_args = 0
ARM GAS  D:\Programs\cygwin64\tmp\ccnXJUYH.s 			page 18


 1019 0000 10B5     		push	{r4, lr}
 1020 0002 C0B2     		uxtb	r0, r0
 1021 0004 0C46     		mov	r4, r1
 1022 0006 0B21     		movs	r1, #11
 1023 0008 FFF7FEFF 		bl	IOE_Read
 1024 000c 34EA0003 		bics	r3, r4, r0
 1025 0010 0CBF     		ite	eq
 1026 0012 0120     		moveq	r0, #1
 1027 0014 0020     		movne	r0, #0
 1028 0016 10BD     		pop	{r4, pc}
 1030              		.section	.text.stmpe811_ReadGITStatus,"ax",%progbits
 1031              		.align	1
 1032              		.p2align 2,,3
 1033              		.global	stmpe811_ReadGITStatus
 1034              		.syntax unified
 1035              		.thumb
 1036              		.thumb_func
 1037              		.fpu fpv4-sp-d16
 1039              	stmpe811_ReadGITStatus:
 1040              		@ args = 0, pretend = 0, frame = 0
 1041              		@ frame_needed = 0, uses_anonymous_args = 0
 1042 0000 10B5     		push	{r4, lr}
 1043 0002 C0B2     		uxtb	r0, r0
 1044 0004 0C46     		mov	r4, r1
 1045 0006 0B21     		movs	r1, #11
 1046 0008 FFF7FEFF 		bl	IOE_Read
 1047 000c 2040     		ands	r0, r0, r4
 1048 000e 10BD     		pop	{r4, pc}
 1050              		.section	.text.stmpe811_ClearGlobalIT,"ax",%progbits
 1051              		.align	1
 1052              		.p2align 2,,3
 1053              		.global	stmpe811_ClearGlobalIT
 1054              		.syntax unified
 1055              		.thumb
 1056              		.thumb_func
 1057              		.fpu fpv4-sp-d16
 1059              	stmpe811_ClearGlobalIT:
 1060              		@ args = 0, pretend = 0, frame = 0
 1061              		@ frame_needed = 0, uses_anonymous_args = 0
 1062              		@ link register save eliminated.
 1063 0000 0A46     		mov	r2, r1
 1064 0002 C0B2     		uxtb	r0, r0
 1065 0004 0B21     		movs	r1, #11
 1066 0006 FFF7FEBF 		b	IOE_Write
 1068 000a 00BF     		.section	.text.stmpe811_IO_InitPin,"ax",%progbits
 1069              		.align	1
 1070              		.p2align 2,,3
 1071              		.global	stmpe811_IO_InitPin
 1072              		.syntax unified
 1073              		.thumb
 1074              		.thumb_func
 1075              		.fpu fpv4-sp-d16
 1077              	stmpe811_IO_InitPin:
 1078              		@ args = 0, pretend = 0, frame = 0
 1079              		@ frame_needed = 0, uses_anonymous_args = 0
 1080 0000 70B5     		push	{r4, r5, r6, lr}
 1081 0002 C4B2     		uxtb	r4, r0
ARM GAS  D:\Programs\cygwin64\tmp\ccnXJUYH.s 			page 19


 1082 0004 0D46     		mov	r5, r1
 1083 0006 1646     		mov	r6, r2
 1084 0008 2046     		mov	r0, r4
 1085 000a 1321     		movs	r1, #19
 1086 000c FFF7FEFF 		bl	IOE_Read
 1087 0010 3EB1     		cbz	r6, .L75
 1088 0012 2843     		orrs	r0, r0, r5
 1089 0014 C2B2     		uxtb	r2, r0
 1090 0016 1321     		movs	r1, #19
 1091 0018 2046     		mov	r0, r4
 1092 001a BDE87040 		pop	{r4, r5, r6, lr}
 1093 001e FFF7FEBF 		b	IOE_Write
 1094              	.L75:
 1095 0022 20EA0500 		bic	r0, r0, r5
 1096 0026 C2B2     		uxtb	r2, r0
 1097 0028 1321     		movs	r1, #19
 1098 002a 2046     		mov	r0, r4
 1099 002c BDE87040 		pop	{r4, r5, r6, lr}
 1100 0030 FFF7FEBF 		b	IOE_Write
 1102              		.section	.text.stmpe811_IO_DisableAF,"ax",%progbits
 1103              		.align	1
 1104              		.p2align 2,,3
 1105              		.global	stmpe811_IO_DisableAF
 1106              		.syntax unified
 1107              		.thumb
 1108              		.thumb_func
 1109              		.fpu fpv4-sp-d16
 1111              	stmpe811_IO_DisableAF:
 1112              		@ args = 0, pretend = 0, frame = 0
 1113              		@ frame_needed = 0, uses_anonymous_args = 0
 1114 0000 38B5     		push	{r3, r4, r5, lr}
 1115 0002 C5B2     		uxtb	r5, r0
 1116 0004 0C46     		mov	r4, r1
 1117 0006 2846     		mov	r0, r5
 1118 0008 1721     		movs	r1, #23
 1119 000a FFF7FEFF 		bl	IOE_Read
 1120 000e 40EA0402 		orr	r2, r0, r4
 1121 0012 D2B2     		uxtb	r2, r2
 1122 0014 2846     		mov	r0, r5
 1123 0016 1721     		movs	r1, #23
 1124 0018 BDE83840 		pop	{r3, r4, r5, lr}
 1125 001c FFF7FEBF 		b	IOE_Write
 1127              		.section	.text.stmpe811_IO_EnableAF,"ax",%progbits
 1128              		.align	1
 1129              		.p2align 2,,3
 1130              		.global	stmpe811_IO_EnableAF
 1131              		.syntax unified
 1132              		.thumb
 1133              		.thumb_func
 1134              		.fpu fpv4-sp-d16
 1136              	stmpe811_IO_EnableAF:
 1137              		@ args = 0, pretend = 0, frame = 0
 1138              		@ frame_needed = 0, uses_anonymous_args = 0
 1139 0000 38B5     		push	{r3, r4, r5, lr}
 1140 0002 C5B2     		uxtb	r5, r0
 1141 0004 0C46     		mov	r4, r1
 1142 0006 2846     		mov	r0, r5
ARM GAS  D:\Programs\cygwin64\tmp\ccnXJUYH.s 			page 20


 1143 0008 1721     		movs	r1, #23
 1144 000a FFF7FEFF 		bl	IOE_Read
 1145 000e 20EA0402 		bic	r2, r0, r4
 1146 0012 D2B2     		uxtb	r2, r2
 1147 0014 2846     		mov	r0, r5
 1148 0016 1721     		movs	r1, #23
 1149 0018 BDE83840 		pop	{r3, r4, r5, lr}
 1150 001c FFF7FEBF 		b	IOE_Write
 1152              		.section	.text.stmpe811_IO_SetEdgeMode,"ax",%progbits
 1153              		.align	1
 1154              		.p2align 2,,3
 1155              		.global	stmpe811_IO_SetEdgeMode
 1156              		.syntax unified
 1157              		.thumb
 1158              		.thumb_func
 1159              		.fpu fpv4-sp-d16
 1161              	stmpe811_IO_SetEdgeMode:
 1162              		@ args = 0, pretend = 0, frame = 0
 1163              		@ frame_needed = 0, uses_anonymous_args = 0
 1164 0000 F8B5     		push	{r3, r4, r5, r6, r7, lr}
 1165 0002 C5B2     		uxtb	r5, r0
 1166 0004 0E46     		mov	r6, r1
 1167 0006 2846     		mov	r0, r5
 1168 0008 1621     		movs	r1, #22
 1169 000a 1746     		mov	r7, r2
 1170 000c FFF7FEFF 		bl	IOE_Read
 1171 0010 1521     		movs	r1, #21
 1172 0012 0446     		mov	r4, r0
 1173 0014 2846     		mov	r0, r5
 1174 0016 FFF7FEFF 		bl	IOE_Read
 1175 001a F343     		mvns	r3, r6
 1176 001c 5BB2     		sxtb	r3, r3
 1177 001e 1840     		ands	r0, r0, r3
 1178 0020 2340     		ands	r3, r3, r4
 1179 0022 DAB2     		uxtb	r2, r3
 1180 0024 F907     		lsls	r1, r7, #31
 1181 0026 48BF     		it	mi
 1182 0028 42EA0603 		orrmi	r3, r2, r6
 1183 002c C4B2     		uxtb	r4, r0
 1184 002e 48BF     		it	mi
 1185 0030 DAB2     		uxtbmi	r2, r3
 1186 0032 BB07     		lsls	r3, r7, #30
 1187 0034 44BF     		itt	mi
 1188 0036 3443     		orrmi	r4, r4, r6
 1189 0038 E4B2     		uxtbmi	r4, r4
 1190 003a 2846     		mov	r0, r5
 1191 003c 1621     		movs	r1, #22
 1192 003e FFF7FEFF 		bl	IOE_Write
 1193 0042 2246     		mov	r2, r4
 1194 0044 2846     		mov	r0, r5
 1195 0046 1521     		movs	r1, #21
 1196 0048 BDE8F840 		pop	{r3, r4, r5, r6, r7, lr}
 1197 004c FFF7FEBF 		b	IOE_Write
 1199              		.section	.text.stmpe811_IO_EnablePinIT,"ax",%progbits
 1200              		.align	1
 1201              		.p2align 2,,3
 1202              		.global	stmpe811_IO_EnablePinIT
ARM GAS  D:\Programs\cygwin64\tmp\ccnXJUYH.s 			page 21


 1203              		.syntax unified
 1204              		.thumb
 1205              		.thumb_func
 1206              		.fpu fpv4-sp-d16
 1208              	stmpe811_IO_EnablePinIT:
 1209              		@ args = 0, pretend = 0, frame = 0
 1210              		@ frame_needed = 0, uses_anonymous_args = 0
 1211 0000 38B5     		push	{r3, r4, r5, lr}
 1212 0002 C5B2     		uxtb	r5, r0
 1213 0004 0C46     		mov	r4, r1
 1214 0006 2846     		mov	r0, r5
 1215 0008 0C21     		movs	r1, #12
 1216 000a FFF7FEFF 		bl	IOE_Read
 1217 000e 40EA0402 		orr	r2, r0, r4
 1218 0012 D2B2     		uxtb	r2, r2
 1219 0014 2846     		mov	r0, r5
 1220 0016 0C21     		movs	r1, #12
 1221 0018 BDE83840 		pop	{r3, r4, r5, lr}
 1222 001c FFF7FEBF 		b	IOE_Write
 1224              		.section	.text.stmpe811_IO_DisablePinIT,"ax",%progbits
 1225              		.align	1
 1226              		.p2align 2,,3
 1227              		.global	stmpe811_IO_DisablePinIT
 1228              		.syntax unified
 1229              		.thumb
 1230              		.thumb_func
 1231              		.fpu fpv4-sp-d16
 1233              	stmpe811_IO_DisablePinIT:
 1234              		@ args = 0, pretend = 0, frame = 0
 1235              		@ frame_needed = 0, uses_anonymous_args = 0
 1236 0000 38B5     		push	{r3, r4, r5, lr}
 1237 0002 C5B2     		uxtb	r5, r0
 1238 0004 0C46     		mov	r4, r1
 1239 0006 2846     		mov	r0, r5
 1240 0008 0C21     		movs	r1, #12
 1241 000a FFF7FEFF 		bl	IOE_Read
 1242 000e 20EA0402 		bic	r2, r0, r4
 1243 0012 D2B2     		uxtb	r2, r2
 1244 0014 2846     		mov	r0, r5
 1245 0016 0C21     		movs	r1, #12
 1246 0018 BDE83840 		pop	{r3, r4, r5, lr}
 1247 001c FFF7FEBF 		b	IOE_Write
 1249              		.global	stmpe811
 1250              		.global	stmpe811_io_drv
 1251              		.global	stmpe811_ts_drv
 1252              		.section	.bss.stmpe811,"aw",%nobits
 1253              		.align	2
 1254              		.set	.LANCHOR0,. + 0
 1257              	stmpe811:
 1258 0000 0000     		.space	2
 1259              		.section	.data.stmpe811_io_drv,"aw"
 1260              		.align	2
 1263              	stmpe811_io_drv:
 1264 0000 00000000 		.word	stmpe811_Init
 1265 0004 00000000 		.word	stmpe811_ReadID
 1266 0008 00000000 		.word	stmpe811_Reset
 1267 000c 00000000 		.word	stmpe811_IO_Start
ARM GAS  D:\Programs\cygwin64\tmp\ccnXJUYH.s 			page 22


 1268 0010 00000000 		.word	stmpe811_IO_Config
 1269 0014 00000000 		.word	stmpe811_IO_WritePin
 1270 0018 00000000 		.word	stmpe811_IO_ReadPin
 1271 001c 00000000 		.word	stmpe811_IO_EnableIT
 1272 0020 00000000 		.word	stmpe811_IO_DisableIT
 1273 0024 00000000 		.word	stmpe811_IO_ITStatus
 1274 0028 00000000 		.word	stmpe811_IO_ClearIT
 1275              		.section	.data.stmpe811_ts_drv,"aw"
 1276              		.align	2
 1279              	stmpe811_ts_drv:
 1280 0000 00000000 		.word	stmpe811_Init
 1281 0004 00000000 		.word	stmpe811_ReadID
 1282 0008 00000000 		.word	stmpe811_Reset
 1283 000c 00000000 		.word	stmpe811_TS_Start
 1284 0010 00000000 		.word	stmpe811_TS_DetectTouch
 1285 0014 00000000 		.word	stmpe811_TS_GetXY
 1286 0018 00000000 		.word	stmpe811_TS_EnableIT
 1287 001c 00000000 		.word	stmpe811_TS_ClearIT
 1288 0020 00000000 		.word	stmpe811_TS_ITStatus
 1289 0024 00000000 		.word	stmpe811_TS_DisableIT
 1290              		.ident	"GCC: (GNU Tools for Arm Embedded Processors 8-2018-q4-major) 8.2.1 20181213 (release) [gcc
ARM GAS  D:\Programs\cygwin64\tmp\ccnXJUYH.s 			page 23

