ARM GAS  D:\Programs\cygwin64\tmp\ccUjOoPb.s 			page 1


   1              		.cpu cortex-m4
   2              		.eabi_attribute 27, 1
   3              		.eabi_attribute 28, 1
   4              		.eabi_attribute 20, 1
   5              		.eabi_attribute 21, 1
   6              		.eabi_attribute 23, 3
   7              		.eabi_attribute 24, 1
   8              		.eabi_attribute 25, 1
   9              		.eabi_attribute 26, 1
  10              		.eabi_attribute 30, 2
  11              		.eabi_attribute 34, 1
  12              		.eabi_attribute 18, 4
  13              		.file	"stream_buffer.c"
  14              		.text
  15              		.section	.text.prvReadBytesFromBuffer,"ax",%progbits
  16              		.align	1
  17              		.p2align 2,,3
  18              		.arch armv7e-m
  19              		.syntax unified
  20              		.thumb
  21              		.thumb_func
  22              		.fpu fpv4-sp-d16
  24              	prvReadBytesFromBuffer:
  25              		@ args = 0, pretend = 0, frame = 0
  26              		@ frame_needed = 0, uses_anonymous_args = 0
  27 0000 9A42     		cmp	r2, r3
  28 0002 2DE9F843 		push	{r3, r4, r5, r6, r7, r8, r9, lr}
  29 0006 9046     		mov	r8, r2
  30 0008 28BF     		it	cs
  31 000a 9846     		movcs	r8, r3
  32 000c B8F1000F 		cmp	r8, #0
  33 0010 1ED0     		beq	.L1
  34 0012 0468     		ldr	r4, [r0]
  35 0014 8368     		ldr	r3, [r0, #8]
  36 0016 A3EB0409 		sub	r9, r3, r4
  37 001a C145     		cmp	r9, r8
  38 001c 28BF     		it	cs
  39 001e C146     		movcs	r9, r8
  40 0020 4A45     		cmp	r2, r9
  41 0022 18D2     		bcs	.L3
  42              		.syntax unified
  43              	@ 195 "../Middlewares/FreeRTOS/Source/portable/GCC/ARM_CM4F/portmacro.h" 1
  44 0024 4FF05003 			mov r3, #80												
  45 0028 83F31188 		msr basepri, r3											
  46 002c BFF36F8F 		isb														
  47 0030 BFF34F8F 		dsb														
  48              	
  49              	@ 0 "" 2
  50              		.thumb
  51              		.syntax unified
  52              	.L4:
  53 0034 FEE7     		b	.L4
  54              	.L8:
  55 0036 07EB0900 		add	r0, r7, r9
  56 003a A8EB0902 		sub	r2, r8, r9
  57 003e A969     		ldr	r1, [r5, #24]
  58 0040 FFF7FEFF 		bl	memcpy
ARM GAS  D:\Programs\cygwin64\tmp\ccUjOoPb.s 			page 2


  59              	.L7:
  60 0044 AB68     		ldr	r3, [r5, #8]
  61 0046 4444     		add	r4, r4, r8
  62 0048 A342     		cmp	r3, r4
  63 004a 98BF     		it	ls
  64 004c E41A     		subls	r4, r4, r3
  65 004e 2C60     		str	r4, [r5]
  66              	.L1:
  67 0050 4046     		mov	r0, r8
  68 0052 BDE8F883 		pop	{r3, r4, r5, r6, r7, r8, r9, pc}
  69              	.L3:
  70 0056 04EB0905 		add	r5, r4, r9
  71 005a AB42     		cmp	r3, r5
  72 005c 08D2     		bcs	.L5
  73              		.syntax unified
  74              	@ 195 "../Middlewares/FreeRTOS/Source/portable/GCC/ARM_CM4F/portmacro.h" 1
  75 005e 4FF05003 			mov r3, #80												
  76 0062 83F31188 		msr basepri, r3											
  77 0066 BFF36F8F 		isb														
  78 006a BFF34F8F 		dsb														
  79              	
  80              	@ 0 "" 2
  81              		.thumb
  82              		.syntax unified
  83              	.L6:
  84 006e FEE7     		b	.L6
  85              	.L5:
  86 0070 0F46     		mov	r7, r1
  87 0072 8169     		ldr	r1, [r0, #24]
  88 0074 0546     		mov	r5, r0
  89 0076 1646     		mov	r6, r2
  90 0078 2144     		add	r1, r1, r4
  91 007a 4A46     		mov	r2, r9
  92 007c 3846     		mov	r0, r7
  93 007e FFF7FEFF 		bl	memcpy
  94 0082 C845     		cmp	r8, r9
  95 0084 DED9     		bls	.L7
  96 0086 4645     		cmp	r6, r8
  97 0088 D5D2     		bcs	.L8
  98              		.syntax unified
  99              	@ 195 "../Middlewares/FreeRTOS/Source/portable/GCC/ARM_CM4F/portmacro.h" 1
 100 008a 4FF05003 			mov r3, #80												
 101 008e 83F31188 		msr basepri, r3											
 102 0092 BFF36F8F 		isb														
 103 0096 BFF34F8F 		dsb														
 104              	
 105              	@ 0 "" 2
 106              		.thumb
 107              		.syntax unified
 108              	.L9:
 109 009a FEE7     		b	.L9
 111              		.section	.text.prvWriteBytesToBuffer.part.1,"ax",%progbits
 112              		.align	1
 113              		.p2align 2,,3
 114              		.syntax unified
 115              		.thumb
 116              		.thumb_func
ARM GAS  D:\Programs\cygwin64\tmp\ccUjOoPb.s 			page 3


 117              		.fpu fpv4-sp-d16
 119              	prvWriteBytesToBuffer.part.1:
 120              		@ args = 0, pretend = 0, frame = 0
 121              		@ frame_needed = 0, uses_anonymous_args = 0
 122 0000 2DE9F041 		push	{r4, r5, r6, r7, r8, lr}
 123 0004 8368     		ldr	r3, [r0, #8]
 124 0006 4568     		ldr	r5, [r0, #4]
 125 0008 A3EB0508 		sub	r8, r3, r5
 126 000c 9045     		cmp	r8, r2
 127 000e 28BF     		it	cs
 128 0010 9046     		movcs	r8, r2
 129 0012 05EB0804 		add	r4, r5, r8
 130 0016 A342     		cmp	r3, r4
 131 0018 08D2     		bcs	.L17
 132              		.syntax unified
 133              	@ 195 "../Middlewares/FreeRTOS/Source/portable/GCC/ARM_CM4F/portmacro.h" 1
 134 001a 4FF05003 			mov r3, #80												
 135 001e 83F31188 		msr basepri, r3											
 136 0022 BFF36F8F 		isb														
 137 0026 BFF34F8F 		dsb														
 138              	
 139              	@ 0 "" 2
 140              		.thumb
 141              		.syntax unified
 142              	.L18:
 143 002a FEE7     		b	.L18
 144              	.L17:
 145 002c 0446     		mov	r4, r0
 146 002e 8069     		ldr	r0, [r0, #24]
 147 0030 1646     		mov	r6, r2
 148 0032 2844     		add	r0, r0, r5
 149 0034 4246     		mov	r2, r8
 150 0036 0F46     		mov	r7, r1
 151 0038 FFF7FEFF 		bl	memcpy
 152 003c 4645     		cmp	r6, r8
 153 003e 12D9     		bls	.L19
 154 0040 A368     		ldr	r3, [r4, #8]
 155 0042 A6EB0802 		sub	r2, r6, r8
 156 0046 9A42     		cmp	r2, r3
 157 0048 08D9     		bls	.L20
 158              		.syntax unified
 159              	@ 195 "../Middlewares/FreeRTOS/Source/portable/GCC/ARM_CM4F/portmacro.h" 1
 160 004a 4FF05003 			mov r3, #80												
 161 004e 83F31188 		msr basepri, r3											
 162 0052 BFF36F8F 		isb														
 163 0056 BFF34F8F 		dsb														
 164              	
 165              	@ 0 "" 2
 166              		.thumb
 167              		.syntax unified
 168              	.L21:
 169 005a FEE7     		b	.L21
 170              	.L20:
 171 005c 07EB0801 		add	r1, r7, r8
 172 0060 A069     		ldr	r0, [r4, #24]
 173 0062 FFF7FEFF 		bl	memcpy
 174              	.L19:
ARM GAS  D:\Programs\cygwin64\tmp\ccUjOoPb.s 			page 4


 175 0066 A268     		ldr	r2, [r4, #8]
 176 0068 3544     		add	r5, r5, r6
 177 006a 9542     		cmp	r5, r2
 178 006c 28BF     		it	cs
 179 006e AD1A     		subcs	r5, r5, r2
 180 0070 6560     		str	r5, [r4, #4]
 181 0072 3046     		mov	r0, r6
 182 0074 BDE8F081 		pop	{r4, r5, r6, r7, r8, pc}
 184              		.section	.text.xStreamBufferGenericCreate,"ax",%progbits
 185              		.align	1
 186              		.p2align 2,,3
 187              		.global	xStreamBufferGenericCreate
 188              		.syntax unified
 189              		.thumb
 190              		.thumb_func
 191              		.fpu fpv4-sp-d16
 193              	xStreamBufferGenericCreate:
 194              		@ args = 0, pretend = 0, frame = 0
 195              		@ frame_needed = 0, uses_anonymous_args = 0
 196 0000 012A     		cmp	r2, #1
 197 0002 2DE9F041 		push	{r4, r5, r6, r7, r8, lr}
 198 0006 0546     		mov	r5, r0
 199 0008 0F46     		mov	r7, r1
 200 000a 31D0     		beq	.L41
 201 000c 58B1     		cbz	r0, .L42
 202 000e 0026     		movs	r6, #0
 203              	.L26:
 204 0010 BD42     		cmp	r5, r7
 205 0012 11D2     		bcs	.L29
 206              		.syntax unified
 207              	@ 195 "../Middlewares/FreeRTOS/Source/portable/GCC/ARM_CM4F/portmacro.h" 1
 208 0014 4FF05003 			mov r3, #80												
 209 0018 83F31188 		msr basepri, r3											
 210 001c BFF36F8F 		isb														
 211 0020 BFF34F8F 		dsb														
 212              	
 213              	@ 0 "" 2
 214              		.thumb
 215              		.syntax unified
 216              	.L30:
 217 0024 FEE7     		b	.L30
 218              	.L42:
 219              		.syntax unified
 220              	@ 195 "../Middlewares/FreeRTOS/Source/portable/GCC/ARM_CM4F/portmacro.h" 1
 221 0026 4FF05003 			mov r3, #80												
 222 002a 83F31188 		msr basepri, r3											
 223 002e BFF36F8F 		isb														
 224 0032 BFF34F8F 		dsb														
 225              	
 226              	@ 0 "" 2
 227              		.thumb
 228              		.syntax unified
 229              	.L28:
 230 0036 FEE7     		b	.L28
 231              	.L29:
 232 0038 002F     		cmp	r7, #0
 233 003a 05F12500 		add	r0, r5, #37
ARM GAS  D:\Programs\cygwin64\tmp\ccUjOoPb.s 			page 5


 234 003e 08BF     		it	eq
 235 0040 0127     		moveq	r7, #1
 236 0042 FFF7FEFF 		bl	pvPortMalloc
 237 0046 0446     		mov	r4, r0
 238 0048 48B3     		cbz	r0, .L24
 239 004a 00F12408 		add	r8, r0, #36
 240 004e 0135     		adds	r5, r5, #1
 241 0050 2A46     		mov	r2, r5
 242 0052 4046     		mov	r0, r8
 243 0054 5521     		movs	r1, #85
 244 0056 FFF7FEFF 		bl	memset
 245 005a 8045     		cmp	r8, r0
 246 005c 15D0     		beq	.L33
 247              		.syntax unified
 248              	@ 195 "../Middlewares/FreeRTOS/Source/portable/GCC/ARM_CM4F/portmacro.h" 1
 249 005e 4FF05003 			mov r3, #80												
 250 0062 83F31188 		msr basepri, r3											
 251 0066 BFF36F8F 		isb														
 252 006a BFF34F8F 		dsb														
 253              	
 254              	@ 0 "" 2
 255              		.thumb
 256              		.syntax unified
 257              	.L34:
 258 006e FEE7     		b	.L34
 259              	.L41:
 260 0070 0428     		cmp	r0, #4
 261 0072 08D8     		bhi	.L35
 262              		.syntax unified
 263              	@ 195 "../Middlewares/FreeRTOS/Source/portable/GCC/ARM_CM4F/portmacro.h" 1
 264 0074 4FF05003 			mov r3, #80												
 265 0078 83F31188 		msr basepri, r3											
 266 007c BFF36F8F 		isb														
 267 0080 BFF34F8F 		dsb														
 268              	
 269              	@ 0 "" 2
 270              		.thumb
 271              		.syntax unified
 272              	.L27:
 273 0084 FEE7     		b	.L27
 274              	.L35:
 275 0086 1646     		mov	r6, r2
 276 0088 C2E7     		b	.L26
 277              	.L33:
 278 008a 2422     		movs	r2, #36
 279 008c 0021     		movs	r1, #0
 280 008e 2046     		mov	r0, r4
 281 0090 FFF7FEFF 		bl	memset
 282 0094 C4E90257 		strd	r5, r7, [r4, #8]
 283 0098 C4F81880 		str	r8, [r4, #24]
 284 009c 2677     		strb	r6, [r4, #28]
 285              	.L24:
 286 009e 2046     		mov	r0, r4
 287 00a0 BDE8F081 		pop	{r4, r5, r6, r7, r8, pc}
 289              		.section	.text.vStreamBufferDelete,"ax",%progbits
 290              		.align	1
 291              		.p2align 2,,3
ARM GAS  D:\Programs\cygwin64\tmp\ccUjOoPb.s 			page 6


 292              		.global	vStreamBufferDelete
 293              		.syntax unified
 294              		.thumb
 295              		.thumb_func
 296              		.fpu fpv4-sp-d16
 298              	vStreamBufferDelete:
 299              		@ args = 0, pretend = 0, frame = 0
 300              		@ frame_needed = 0, uses_anonymous_args = 0
 301              		@ link register save eliminated.
 302 0000 40B1     		cbz	r0, .L47
 303 0002 037F     		ldrb	r3, [r0, #28]	@ zero_extendqisi2
 304 0004 9B07     		lsls	r3, r3, #30
 305 0006 01D4     		bmi	.L46
 306 0008 FFF7FEBF 		b	vPortFree
 307              	.L46:
 308 000c 2422     		movs	r2, #36
 309 000e 0021     		movs	r1, #0
 310 0010 FFF7FEBF 		b	memset
 311              	.L47:
 312              		.syntax unified
 313              	@ 195 "../Middlewares/FreeRTOS/Source/portable/GCC/ARM_CM4F/portmacro.h" 1
 314 0014 4FF05003 			mov r3, #80												
 315 0018 83F31188 		msr basepri, r3											
 316 001c BFF36F8F 		isb														
 317 0020 BFF34F8F 		dsb														
 318              	
 319              	@ 0 "" 2
 320              		.thumb
 321              		.syntax unified
 322              	.L45:
 323 0024 FEE7     		b	.L45
 325 0026 00BF     		.section	.text.xStreamBufferReset,"ax",%progbits
 326              		.align	1
 327              		.p2align 2,,3
 328              		.global	xStreamBufferReset
 329              		.syntax unified
 330              		.thumb
 331              		.thumb_func
 332              		.fpu fpv4-sp-d16
 334              	xStreamBufferReset:
 335              		@ args = 0, pretend = 0, frame = 0
 336              		@ frame_needed = 0, uses_anonymous_args = 0
 337 0000 2DE9F84F 		push	{r3, r4, r5, r6, r7, r8, r9, r10, fp, lr}
 338 0004 60B1     		cbz	r0, .L57
 339 0006 0446     		mov	r4, r0
 340 0008 D0F82090 		ldr	r9, [r0, #32]
 341 000c FFF7FEFF 		bl	vPortEnterCritical
 342 0010 2569     		ldr	r5, [r4, #16]
 343 0012 75B1     		cbz	r5, .L58
 344 0014 0025     		movs	r5, #0
 345              	.L51:
 346 0016 FFF7FEFF 		bl	vPortExitCritical
 347 001a 2846     		mov	r0, r5
 348 001c BDE8F88F 		pop	{r3, r4, r5, r6, r7, r8, r9, r10, fp, pc}
 349              	.L57:
 350              		.syntax unified
 351              	@ 195 "../Middlewares/FreeRTOS/Source/portable/GCC/ARM_CM4F/portmacro.h" 1
ARM GAS  D:\Programs\cygwin64\tmp\ccUjOoPb.s 			page 7


 352 0020 4FF05003 			mov r3, #80												
 353 0024 83F31188 		msr basepri, r3											
 354 0028 BFF36F8F 		isb														
 355 002c BFF34F8F 		dsb														
 356              	
 357              	@ 0 "" 2
 358              		.thumb
 359              		.syntax unified
 360              	.L50:
 361 0030 FEE7     		b	.L50
 362              	.L58:
 363 0032 D4F81480 		ldr	r8, [r4, #20]
 364 0036 B8F1000F 		cmp	r8, #0
 365 003a ECD1     		bne	.L51
 366 003c D4E9027B 		ldrd	r7, fp, [r4, #8]
 367 0040 A669     		ldr	r6, [r4, #24]
 368 0042 94F81CA0 		ldrb	r10, [r4, #28]	@ zero_extendqisi2
 369 0046 3046     		mov	r0, r6
 370 0048 3A46     		mov	r2, r7
 371 004a 5521     		movs	r1, #85
 372 004c FFF7FEFF 		bl	memset
 373 0050 8642     		cmp	r6, r0
 374 0052 08D0     		beq	.L52
 375              		.syntax unified
 376              	@ 195 "../Middlewares/FreeRTOS/Source/portable/GCC/ARM_CM4F/portmacro.h" 1
 377 0054 4FF05003 			mov r3, #80												
 378 0058 83F31188 		msr basepri, r3											
 379 005c BFF36F8F 		isb														
 380 0060 BFF34F8F 		dsb														
 381              	
 382              	@ 0 "" 2
 383              		.thumb
 384              		.syntax unified
 385              	.L53:
 386 0064 FEE7     		b	.L53
 387              	.L52:
 388 0066 4146     		mov	r1, r8
 389 0068 2022     		movs	r2, #32
 390 006a 2046     		mov	r0, r4
 391 006c FFF7FEFF 		bl	memset
 392 0070 0125     		movs	r5, #1
 393 0072 A661     		str	r6, [r4, #24]
 394 0074 C4E9027B 		strd	r7, fp, [r4, #8]
 395 0078 84F81CA0 		strb	r10, [r4, #28]
 396 007c C4F82090 		str	r9, [r4, #32]
 397 0080 C9E7     		b	.L51
 399 0082 00BF     		.section	.text.xStreamBufferSetTriggerLevel,"ax",%progbits
 400              		.align	1
 401              		.p2align 2,,3
 402              		.global	xStreamBufferSetTriggerLevel
 403              		.syntax unified
 404              		.thumb
 405              		.thumb_func
 406              		.fpu fpv4-sp-d16
 408              	xStreamBufferSetTriggerLevel:
 409              		@ args = 0, pretend = 0, frame = 0
 410              		@ frame_needed = 0, uses_anonymous_args = 0
ARM GAS  D:\Programs\cygwin64\tmp\ccUjOoPb.s 			page 8


 411              		@ link register save eliminated.
 412 0000 48B1     		cbz	r0, .L65
 413 0002 8368     		ldr	r3, [r0, #8]
 414 0004 0029     		cmp	r1, #0
 415 0006 08BF     		it	eq
 416 0008 0121     		moveq	r1, #1
 417 000a 8B42     		cmp	r3, r1
 418 000c 26BF     		itte	cs
 419 000e C160     		strcs	r1, [r0, #12]
 420 0010 0120     		movcs	r0, #1
 421 0012 0020     		movcc	r0, #0
 422 0014 7047     		bx	lr
 423              	.L65:
 424              		.syntax unified
 425              	@ 195 "../Middlewares/FreeRTOS/Source/portable/GCC/ARM_CM4F/portmacro.h" 1
 426 0016 4FF05003 			mov r3, #80												
 427 001a 83F31188 		msr basepri, r3											
 428 001e BFF36F8F 		isb														
 429 0022 BFF34F8F 		dsb														
 430              	
 431              	@ 0 "" 2
 432              		.thumb
 433              		.syntax unified
 434              	.L61:
 435 0026 FEE7     		b	.L61
 437              		.section	.text.xStreamBufferSpacesAvailable,"ax",%progbits
 438              		.align	1
 439              		.p2align 2,,3
 440              		.global	xStreamBufferSpacesAvailable
 441              		.syntax unified
 442              		.thumb
 443              		.thumb_func
 444              		.fpu fpv4-sp-d16
 446              	xStreamBufferSpacesAvailable:
 447              		@ args = 0, pretend = 0, frame = 0
 448              		@ frame_needed = 0, uses_anonymous_args = 0
 449              		@ link register save eliminated.
 450 0000 48B1     		cbz	r0, .L70
 451 0002 8268     		ldr	r2, [r0, #8]
 452 0004 0368     		ldr	r3, [r0]
 453 0006 4168     		ldr	r1, [r0, #4]
 454 0008 D018     		adds	r0, r2, r3
 455 000a 0138     		subs	r0, r0, #1
 456 000c 401A     		subs	r0, r0, r1
 457 000e 8242     		cmp	r2, r0
 458 0010 98BF     		it	ls
 459 0012 801A     		subls	r0, r0, r2
 460 0014 7047     		bx	lr
 461              	.L70:
 462              		.syntax unified
 463              	@ 195 "../Middlewares/FreeRTOS/Source/portable/GCC/ARM_CM4F/portmacro.h" 1
 464 0016 4FF05003 			mov r3, #80												
 465 001a 83F31188 		msr basepri, r3											
 466 001e BFF36F8F 		isb														
 467 0022 BFF34F8F 		dsb														
 468              	
 469              	@ 0 "" 2
ARM GAS  D:\Programs\cygwin64\tmp\ccUjOoPb.s 			page 9


 470              		.thumb
 471              		.syntax unified
 472              	.L68:
 473 0026 FEE7     		b	.L68
 475              		.section	.text.xStreamBufferBytesAvailable,"ax",%progbits
 476              		.align	1
 477              		.p2align 2,,3
 478              		.global	xStreamBufferBytesAvailable
 479              		.syntax unified
 480              		.thumb
 481              		.thumb_func
 482              		.fpu fpv4-sp-d16
 484              	xStreamBufferBytesAvailable:
 485              		@ args = 0, pretend = 0, frame = 0
 486              		@ frame_needed = 0, uses_anonymous_args = 0
 487              		@ link register save eliminated.
 488 0000 40B1     		cbz	r0, .L75
 489 0002 8268     		ldr	r2, [r0, #8]
 490 0004 4368     		ldr	r3, [r0, #4]
 491 0006 0068     		ldr	r0, [r0]
 492 0008 1344     		add	r3, r3, r2
 493 000a 181A     		subs	r0, r3, r0
 494 000c 8242     		cmp	r2, r0
 495 000e 98BF     		it	ls
 496 0010 801A     		subls	r0, r0, r2
 497 0012 7047     		bx	lr
 498              	.L75:
 499              		.syntax unified
 500              	@ 195 "../Middlewares/FreeRTOS/Source/portable/GCC/ARM_CM4F/portmacro.h" 1
 501 0014 4FF05003 			mov r3, #80												
 502 0018 83F31188 		msr basepri, r3											
 503 001c BFF36F8F 		isb														
 504 0020 BFF34F8F 		dsb														
 505              	
 506              	@ 0 "" 2
 507              		.thumb
 508              		.syntax unified
 509              	.L73:
 510 0024 FEE7     		b	.L73
 512 0026 00BF     		.section	.text.xStreamBufferSend,"ax",%progbits
 513              		.align	1
 514              		.p2align 2,,3
 515              		.global	xStreamBufferSend
 516              		.syntax unified
 517              		.thumb
 518              		.thumb_func
 519              		.fpu fpv4-sp-d16
 521              	xStreamBufferSend:
 522              		@ args = 0, pretend = 0, frame = 24
 523              		@ frame_needed = 0, uses_anonymous_args = 0
 524 0000 2DE9F043 		push	{r4, r5, r6, r7, r8, r9, lr}
 525 0004 87B0     		sub	sp, sp, #28
 526 0006 0193     		str	r3, [sp, #4]
 527 0008 C1B1     		cbz	r1, .L117
 528 000a 70B1     		cbz	r0, .L118
 529 000c 037F     		ldrb	r3, [r0, #28]	@ zero_extendqisi2
 530 000e DC07     		lsls	r4, r3, #31
ARM GAS  D:\Programs\cygwin64\tmp\ccUjOoPb.s 			page 10


 531 0010 1DD5     		bpl	.L103
 532 0012 171D     		adds	r7, r2, #4
 533 0014 BA42     		cmp	r2, r7
 534 0016 1BD3     		bcc	.L81
 535              		.syntax unified
 536              	@ 195 "../Middlewares/FreeRTOS/Source/portable/GCC/ARM_CM4F/portmacro.h" 1
 537 0018 4FF05003 			mov r3, #80												
 538 001c 83F31188 		msr basepri, r3											
 539 0020 BFF36F8F 		isb														
 540 0024 BFF34F8F 		dsb														
 541              	
 542              	@ 0 "" 2
 543              		.thumb
 544              		.syntax unified
 545              	.L82:
 546 0028 FEE7     		b	.L82
 547              	.L118:
 548              		.syntax unified
 549              	@ 195 "../Middlewares/FreeRTOS/Source/portable/GCC/ARM_CM4F/portmacro.h" 1
 550 002a 4FF05003 			mov r3, #80												
 551 002e 83F31188 		msr basepri, r3											
 552 0032 BFF36F8F 		isb														
 553 0036 BFF34F8F 		dsb														
 554              	
 555              	@ 0 "" 2
 556              		.thumb
 557              		.syntax unified
 558              	.L80:
 559 003a FEE7     		b	.L80
 560              	.L117:
 561              		.syntax unified
 562              	@ 195 "../Middlewares/FreeRTOS/Source/portable/GCC/ARM_CM4F/portmacro.h" 1
 563 003c 4FF05003 			mov r3, #80												
 564 0040 83F31188 		msr basepri, r3											
 565 0044 BFF36F8F 		isb														
 566 0048 BFF34F8F 		dsb														
 567              	
 568              	@ 0 "" 2
 569              		.thumb
 570              		.syntax unified
 571              	.L78:
 572 004c FEE7     		b	.L78
 573              	.L103:
 574 004e 1746     		mov	r7, r2
 575              	.L81:
 576 0050 019B     		ldr	r3, [sp, #4]
 577 0052 8846     		mov	r8, r1
 578 0054 1646     		mov	r6, r2
 579 0056 0546     		mov	r5, r0
 580 0058 83B9     		cbnz	r3, .L83
 581              	.L92:
 582 005a AB68     		ldr	r3, [r5, #8]
 583 005c 2C68     		ldr	r4, [r5]
 584 005e 6A68     		ldr	r2, [r5, #4]
 585 0060 1C44     		add	r4, r4, r3
 586 0062 013C     		subs	r4, r4, #1
 587 0064 A41A     		subs	r4, r4, r2
ARM GAS  D:\Programs\cygwin64\tmp\ccUjOoPb.s 			page 11


 588 0066 A342     		cmp	r3, r4
 589 0068 00D8     		bhi	.L85
 590 006a E41A     		subs	r4, r4, r3
 591              	.L85:
 592 006c 0396     		str	r6, [sp, #12]
 593 006e 002C     		cmp	r4, #0
 594 0070 33D1     		bne	.L94
 595              	.L98:
 596 0072 0024     		movs	r4, #0
 597              	.L76:
 598 0074 2046     		mov	r0, r4
 599 0076 07B0     		add	sp, sp, #28
 600              		@ sp needed
 601 0078 BDE8F083 		pop	{r4, r5, r6, r7, r8, r9, pc}
 602              	.L83:
 603 007c 04A8     		add	r0, sp, #16
 604 007e FFF7FEFF 		bl	vTaskSetTimeOutState
 605              	.L90:
 606 0082 FFF7FEFF 		bl	vPortEnterCritical
 607 0086 AB68     		ldr	r3, [r5, #8]
 608 0088 2C68     		ldr	r4, [r5]
 609 008a 6A68     		ldr	r2, [r5, #4]
 610 008c 1C44     		add	r4, r4, r3
 611 008e 013C     		subs	r4, r4, #1
 612 0090 A41A     		subs	r4, r4, r2
 613 0092 A342     		cmp	r3, r4
 614 0094 98BF     		it	ls
 615 0096 E41A     		subls	r4, r4, r3
 616 0098 A742     		cmp	r7, r4
 617 009a 4FF00000 		mov	r0, #0
 618 009e 31D9     		bls	.L87
 619 00a0 FFF7FEFF 		bl	xTaskNotifyStateClear
 620 00a4 D5F81490 		ldr	r9, [r5, #20]
 621 00a8 B9F1000F 		cmp	r9, #0
 622 00ac 54D1     		bne	.L119
 623 00ae FFF7FEFF 		bl	xTaskGetCurrentTaskHandle
 624 00b2 6861     		str	r0, [r5, #20]
 625 00b4 FFF7FEFF 		bl	vPortExitCritical
 626 00b8 4946     		mov	r1, r9
 627 00ba 019B     		ldr	r3, [sp, #4]
 628 00bc 4A46     		mov	r2, r9
 629 00be 4846     		mov	r0, r9
 630 00c0 FFF7FEFF 		bl	xTaskNotifyWait
 631 00c4 C5F81490 		str	r9, [r5, #20]
 632 00c8 01A9     		add	r1, sp, #4
 633 00ca 04A8     		add	r0, sp, #16
 634 00cc FFF7FEFF 		bl	xTaskCheckForTimeOut
 635 00d0 0028     		cmp	r0, #0
 636 00d2 D6D0     		beq	.L90
 637              	.L91:
 638 00d4 002C     		cmp	r4, #0
 639 00d6 C0D0     		beq	.L92
 640 00d8 0396     		str	r6, [sp, #12]
 641              	.L94:
 642 00da 2B7F     		ldrb	r3, [r5, #28]	@ zero_extendqisi2
 643 00dc DB07     		lsls	r3, r3, #31
 644 00de 14D5     		bpl	.L120
ARM GAS  D:\Programs\cygwin64\tmp\ccUjOoPb.s 			page 12


 645 00e0 A742     		cmp	r7, r4
 646 00e2 C6D8     		bhi	.L98
 647 00e4 0422     		movs	r2, #4
 648 00e6 03A9     		add	r1, sp, #12
 649 00e8 2846     		mov	r0, r5
 650 00ea FFF7FEFF 		bl	prvWriteBytesToBuffer.part.1
 651 00ee 039A     		ldr	r2, [sp, #12]
 652              	.L97:
 653 00f0 8AB9     		cbnz	r2, .L99
 654              		.syntax unified
 655              	@ 195 "../Middlewares/FreeRTOS/Source/portable/GCC/ARM_CM4F/portmacro.h" 1
 656 00f2 4FF05003 			mov r3, #80												
 657 00f6 83F31188 		msr basepri, r3											
 658 00fa BFF36F8F 		isb														
 659 00fe BFF34F8F 		dsb														
 660              	
 661              	@ 0 "" 2
 662              		.thumb
 663              		.syntax unified
 664              	.L100:
 665 0102 FEE7     		b	.L100
 666              	.L87:
 667 0104 FFF7FEFF 		bl	vPortExitCritical
 668 0108 E4E7     		b	.L91
 669              	.L120:
 670 010a A642     		cmp	r6, r4
 671 010c 3246     		mov	r2, r6
 672 010e 28BF     		it	cs
 673 0110 2246     		movcs	r2, r4
 674 0112 0392     		str	r2, [sp, #12]
 675 0114 ECE7     		b	.L97
 676              	.L99:
 677 0116 4146     		mov	r1, r8
 678 0118 2846     		mov	r0, r5
 679 011a FFF7FEFF 		bl	prvWriteBytesToBuffer.part.1
 680 011e 0446     		mov	r4, r0
 681 0120 0028     		cmp	r0, #0
 682 0122 A7D0     		beq	.L76
 683 0124 AA68     		ldr	r2, [r5, #8]
 684 0126 6B68     		ldr	r3, [r5, #4]
 685 0128 2968     		ldr	r1, [r5]
 686 012a 1344     		add	r3, r3, r2
 687 012c 5B1A     		subs	r3, r3, r1
 688 012e 9A42     		cmp	r2, r3
 689 0130 98BF     		it	ls
 690 0132 9B1A     		subls	r3, r3, r2
 691 0134 EA68     		ldr	r2, [r5, #12]
 692 0136 9A42     		cmp	r2, r3
 693 0138 9CD8     		bhi	.L76
 694 013a FFF7FEFF 		bl	vTaskSuspendAll
 695 013e 2B69     		ldr	r3, [r5, #16]
 696 0140 3BB1     		cbz	r3, .L102
 697 0142 0023     		movs	r3, #0
 698 0144 1A46     		mov	r2, r3
 699 0146 1946     		mov	r1, r3
 700 0148 2869     		ldr	r0, [r5, #16]
 701 014a FFF7FEFF 		bl	xTaskGenericNotify
ARM GAS  D:\Programs\cygwin64\tmp\ccUjOoPb.s 			page 13


 702 014e 0023     		movs	r3, #0
 703 0150 2B61     		str	r3, [r5, #16]
 704              	.L102:
 705 0152 FFF7FEFF 		bl	xTaskResumeAll
 706 0156 8DE7     		b	.L76
 707              	.L119:
 708              		.syntax unified
 709              	@ 195 "../Middlewares/FreeRTOS/Source/portable/GCC/ARM_CM4F/portmacro.h" 1
 710 0158 4FF05003 			mov r3, #80												
 711 015c 83F31188 		msr basepri, r3											
 712 0160 BFF36F8F 		isb														
 713 0164 BFF34F8F 		dsb														
 714              	
 715              	@ 0 "" 2
 716              		.thumb
 717              		.syntax unified
 718              	.L89:
 719 0168 FEE7     		b	.L89
 721 016a 00BF     		.section	.text.xStreamBufferSendFromISR,"ax",%progbits
 722              		.align	1
 723              		.p2align 2,,3
 724              		.global	xStreamBufferSendFromISR
 725              		.syntax unified
 726              		.thumb
 727              		.thumb_func
 728              		.fpu fpv4-sp-d16
 730              	xStreamBufferSendFromISR:
 731              		@ args = 0, pretend = 0, frame = 8
 732              		@ frame_needed = 0, uses_anonymous_args = 0
 733 0000 0029     		cmp	r1, #0
 734 0002 33D0     		beq	.L146
 735 0004 48B3     		cbz	r0, .L147
 736 0006 2DE9F041 		push	{r4, r5, r6, r7, r8, lr}
 737 000a 047F     		ldrb	r4, [r0, #28]	@ zero_extendqisi2
 738 000c 0568     		ldr	r5, [r0]
 739 000e 4668     		ldr	r6, [r0, #4]
 740 0010 14F0010C 		ands	ip, r4, #1
 741 0014 8468     		ldr	r4, [r0, #8]
 742 0016 2544     		add	r5, r5, r4
 743 0018 05F1FF35 		add	r5, r5, #-1
 744 001c A5EB0605 		sub	r5, r5, r6
 745 0020 84B0     		sub	sp, sp, #16
 746 0022 14BF     		ite	ne
 747 0024 171D     		addne	r7, r2, #4
 748 0026 1746     		moveq	r7, r2
 749 0028 AC42     		cmp	r4, r5
 750 002a 98BF     		it	ls
 751 002c 2D1B     		subls	r5, r5, r4
 752 002e 0392     		str	r2, [sp, #12]
 753 0030 3DB3     		cbz	r5, .L132
 754 0032 8846     		mov	r8, r1
 755 0034 1E46     		mov	r6, r3
 756 0036 0446     		mov	r4, r0
 757 0038 BCF1000F 		cmp	ip, #0
 758 003c 1FD1     		bne	.L130
 759 003e AA42     		cmp	r2, r5
 760 0040 28BF     		it	cs
ARM GAS  D:\Programs\cygwin64\tmp\ccUjOoPb.s 			page 14


 761 0042 2A46     		movcs	r2, r5
 762 0044 0392     		str	r2, [sp, #12]
 763              	.L131:
 764 0046 0ABB     		cbnz	r2, .L133
 765              		.syntax unified
 766              	@ 195 "../Middlewares/FreeRTOS/Source/portable/GCC/ARM_CM4F/portmacro.h" 1
 767 0048 4FF05003 			mov r3, #80												
 768 004c 83F31188 		msr basepri, r3											
 769 0050 BFF36F8F 		isb														
 770 0054 BFF34F8F 		dsb														
 771              	
 772              	@ 0 "" 2
 773              		.thumb
 774              		.syntax unified
 775              	.L134:
 776 0058 FEE7     		b	.L134
 777              	.L147:
 778              		.syntax unified
 779              	@ 195 "../Middlewares/FreeRTOS/Source/portable/GCC/ARM_CM4F/portmacro.h" 1
 780 005a 4FF05003 			mov r3, #80												
 781 005e 83F31188 		msr basepri, r3											
 782 0062 BFF36F8F 		isb														
 783 0066 BFF34F8F 		dsb														
 784              	
 785              	@ 0 "" 2
 786              		.thumb
 787              		.syntax unified
 788              	.L125:
 789 006a FEE7     		b	.L125
 790              	.L146:
 791              		.syntax unified
 792              	@ 195 "../Middlewares/FreeRTOS/Source/portable/GCC/ARM_CM4F/portmacro.h" 1
 793 006c 4FF05003 			mov r3, #80												
 794 0070 83F31188 		msr basepri, r3											
 795 0074 BFF36F8F 		isb														
 796 0078 BFF34F8F 		dsb														
 797              	
 798              	@ 0 "" 2
 799              		.thumb
 800              		.syntax unified
 801              	.L123:
 802 007c FEE7     		b	.L123
 803              	.L130:
 804 007e AF42     		cmp	r7, r5
 805 0080 2ED9     		bls	.L148
 806              	.L132:
 807 0082 0025     		movs	r5, #0
 808              	.L121:
 809 0084 2846     		mov	r0, r5
 810 0086 04B0     		add	sp, sp, #16
 811              		@ sp needed
 812 0088 BDE8F081 		pop	{r4, r5, r6, r7, r8, pc}
 813              	.L133:
 814 008c 4146     		mov	r1, r8
 815 008e 2046     		mov	r0, r4
 816 0090 FFF7FEFF 		bl	prvWriteBytesToBuffer.part.1
 817 0094 0546     		mov	r5, r0
ARM GAS  D:\Programs\cygwin64\tmp\ccUjOoPb.s 			page 15


 818 0096 0028     		cmp	r0, #0
 819 0098 F4D0     		beq	.L121
 820 009a A268     		ldr	r2, [r4, #8]
 821 009c 6368     		ldr	r3, [r4, #4]
 822 009e 2168     		ldr	r1, [r4]
 823 00a0 1344     		add	r3, r3, r2
 824 00a2 5B1A     		subs	r3, r3, r1
 825 00a4 9A42     		cmp	r2, r3
 826 00a6 98BF     		it	ls
 827 00a8 9B1A     		subls	r3, r3, r2
 828 00aa E268     		ldr	r2, [r4, #12]
 829 00ac 9A42     		cmp	r2, r3
 830 00ae E9D8     		bhi	.L121
 831              		.syntax unified
 832              	@ 211 "../Middlewares/FreeRTOS/Source/portable/GCC/ARM_CM4F/portmacro.h" 1
 833 00b0 EFF31187 			mrs r7, basepri											
 834 00b4 4FF05003 		mov r3, #80												
 835 00b8 83F31188 		msr basepri, r3											
 836 00bc BFF36F8F 		isb														
 837 00c0 BFF34F8F 		dsb														
 838              	
 839              	@ 0 "" 2
 840              		.thumb
 841              		.syntax unified
 842 00c4 2369     		ldr	r3, [r4, #16]
 843 00c6 43B1     		cbz	r3, .L136
 844 00c8 0023     		movs	r3, #0
 845 00ca 2069     		ldr	r0, [r4, #16]
 846 00cc 0096     		str	r6, [sp]
 847 00ce 1A46     		mov	r2, r3
 848 00d0 1946     		mov	r1, r3
 849 00d2 FFF7FEFF 		bl	xTaskGenericNotifyFromISR
 850 00d6 0023     		movs	r3, #0
 851 00d8 2361     		str	r3, [r4, #16]
 852              	.L136:
 853              		.syntax unified
 854              	@ 229 "../Middlewares/FreeRTOS/Source/portable/GCC/ARM_CM4F/portmacro.h" 1
 855 00da 87F31188 			msr basepri, r7	
 856              	@ 0 "" 2
 857              		.thumb
 858              		.syntax unified
 859 00de D1E7     		b	.L121
 860              	.L148:
 861 00e0 0422     		movs	r2, #4
 862 00e2 03A9     		add	r1, sp, #12
 863 00e4 FFF7FEFF 		bl	prvWriteBytesToBuffer.part.1
 864 00e8 039A     		ldr	r2, [sp, #12]
 865 00ea ACE7     		b	.L131
 867              		.section	.text.xStreamBufferReceive,"ax",%progbits
 868              		.align	1
 869              		.p2align 2,,3
 870              		.global	xStreamBufferReceive
 871              		.syntax unified
 872              		.thumb
 873              		.thumb_func
 874              		.fpu fpv4-sp-d16
 876              	xStreamBufferReceive:
ARM GAS  D:\Programs\cygwin64\tmp\ccUjOoPb.s 			page 16


 877              		@ args = 0, pretend = 0, frame = 8
 878              		@ frame_needed = 0, uses_anonymous_args = 0
 879 0000 41B3     		cbz	r1, .L182
 880 0002 2DE9F043 		push	{r4, r5, r6, r7, r8, r9, lr}
 881 0006 0546     		mov	r5, r0
 882 0008 83B0     		sub	sp, sp, #12
 883 000a D0B1     		cbz	r0, .L183
 884 000c 9946     		mov	r9, r3
 885 000e 037F     		ldrb	r3, [r0, #28]	@ zero_extendqisi2
 886 0010 13F0010F 		tst	r3, #1
 887 0014 1746     		mov	r7, r2
 888 0016 8846     		mov	r8, r1
 889 0018 14BF     		ite	ne
 890 001a 0426     		movne	r6, #4
 891 001c 0026     		moveq	r6, #0
 892 001e B9F1000F 		cmp	r9, #0
 893 0022 20D1     		bne	.L184
 894 0024 8368     		ldr	r3, [r0, #8]
 895 0026 4468     		ldr	r4, [r0, #4]
 896              	.L181:
 897 0028 2A68     		ldr	r2, [r5]
 898 002a 1C44     		add	r4, r4, r3
 899 002c A41A     		subs	r4, r4, r2
 900 002e A342     		cmp	r3, r4
 901 0030 98BF     		it	ls
 902 0032 E41A     		subls	r4, r4, r3
 903 0034 B442     		cmp	r4, r6
 904 0036 24D8     		bhi	.L161
 905              	.L164:
 906 0038 0024     		movs	r4, #0
 907              	.L149:
 908 003a 2046     		mov	r0, r4
 909 003c 03B0     		add	sp, sp, #12
 910              		@ sp needed
 911 003e BDE8F083 		pop	{r4, r5, r6, r7, r8, r9, pc}
 912              	.L183:
 913              		.syntax unified
 914              	@ 195 "../Middlewares/FreeRTOS/Source/portable/GCC/ARM_CM4F/portmacro.h" 1
 915 0042 4FF05003 			mov r3, #80												
 916 0046 83F31188 		msr basepri, r3											
 917 004a BFF36F8F 		isb														
 918 004e BFF34F8F 		dsb														
 919              	
 920              	@ 0 "" 2
 921              		.thumb
 922              		.syntax unified
 923              	.L153:
 924 0052 FEE7     		b	.L153
 925              	.L182:
 926              		.syntax unified
 927              	@ 195 "../Middlewares/FreeRTOS/Source/portable/GCC/ARM_CM4F/portmacro.h" 1
 928 0054 4FF05003 			mov r3, #80												
 929 0058 83F31188 		msr basepri, r3											
 930 005c BFF36F8F 		isb														
 931 0060 BFF34F8F 		dsb														
 932              	
 933              	@ 0 "" 2
ARM GAS  D:\Programs\cygwin64\tmp\ccUjOoPb.s 			page 17


 934              		.thumb
 935              		.syntax unified
 936              	.L151:
 937 0064 FEE7     		b	.L151
 938              	.L184:
 939 0066 FFF7FEFF 		bl	vPortEnterCritical
 940 006a AB68     		ldr	r3, [r5, #8]
 941 006c 6C68     		ldr	r4, [r5, #4]
 942 006e 2A68     		ldr	r2, [r5]
 943 0070 1C44     		add	r4, r4, r3
 944 0072 A41A     		subs	r4, r4, r2
 945 0074 A342     		cmp	r3, r4
 946 0076 98BF     		it	ls
 947 0078 E41A     		subls	r4, r4, r3
 948 007a A642     		cmp	r6, r4
 949 007c 1AD2     		bcs	.L185
 950 007e FFF7FEFF 		bl	vPortExitCritical
 951              	.L161:
 952 0082 2EBB     		cbnz	r6, .L186
 953              	.L163:
 954 0084 2346     		mov	r3, r4
 955 0086 3A46     		mov	r2, r7
 956 0088 4146     		mov	r1, r8
 957 008a 2846     		mov	r0, r5
 958 008c FFF7FEFF 		bl	prvReadBytesFromBuffer
 959 0090 0446     		mov	r4, r0
 960 0092 0028     		cmp	r0, #0
 961 0094 D0D0     		beq	.L164
 962 0096 FFF7FEFF 		bl	vTaskSuspendAll
 963 009a 6B69     		ldr	r3, [r5, #20]
 964 009c 3BB1     		cbz	r3, .L165
 965 009e 0023     		movs	r3, #0
 966 00a0 1A46     		mov	r2, r3
 967 00a2 1946     		mov	r1, r3
 968 00a4 6869     		ldr	r0, [r5, #20]
 969 00a6 FFF7FEFF 		bl	xTaskGenericNotify
 970 00aa 0023     		movs	r3, #0
 971 00ac 6B61     		str	r3, [r5, #20]
 972              	.L165:
 973 00ae FFF7FEFF 		bl	xTaskResumeAll
 974 00b2 C2E7     		b	.L149
 975              	.L185:
 976 00b4 0020     		movs	r0, #0
 977 00b6 FFF7FEFF 		bl	xTaskNotifyStateClear
 978 00ba 2C69     		ldr	r4, [r5, #16]
 979 00bc D4B1     		cbz	r4, .L158
 980              		.syntax unified
 981              	@ 195 "../Middlewares/FreeRTOS/Source/portable/GCC/ARM_CM4F/portmacro.h" 1
 982 00be 4FF05003 			mov r3, #80												
 983 00c2 83F31188 		msr basepri, r3											
 984 00c6 BFF36F8F 		isb														
 985 00ca BFF34F8F 		dsb														
 986              	
 987              	@ 0 "" 2
 988              		.thumb
 989              		.syntax unified
 990              	.L159:
ARM GAS  D:\Programs\cygwin64\tmp\ccUjOoPb.s 			page 18


 991 00ce FEE7     		b	.L159
 992              	.L186:
 993 00d0 2346     		mov	r3, r4
 994 00d2 3246     		mov	r2, r6
 995 00d4 01A9     		add	r1, sp, #4
 996 00d6 2846     		mov	r0, r5
 997 00d8 D5F80090 		ldr	r9, [r5]
 998 00dc FFF7FEFF 		bl	prvReadBytesFromBuffer
 999 00e0 019B     		ldr	r3, [sp, #4]
 1000 00e2 9F42     		cmp	r7, r3
 1001 00e4 A4EB0604 		sub	r4, r4, r6
 1002 00e8 3ABF     		itte	cc
 1003 00ea C5F80090 		strcc	r9, [r5]
 1004 00ee 0027     		movcc	r7, #0
 1005 00f0 1F46     		movcs	r7, r3
 1006 00f2 C7E7     		b	.L163
 1007              	.L158:
 1008 00f4 FFF7FEFF 		bl	xTaskGetCurrentTaskHandle
 1009 00f8 2861     		str	r0, [r5, #16]
 1010 00fa FFF7FEFF 		bl	vPortExitCritical
 1011 00fe 4B46     		mov	r3, r9
 1012 0100 2246     		mov	r2, r4
 1013 0102 2146     		mov	r1, r4
 1014 0104 2046     		mov	r0, r4
 1015 0106 FFF7FEFF 		bl	xTaskNotifyWait
 1016 010a 2C61     		str	r4, [r5, #16]
 1017 010c 6C68     		ldr	r4, [r5, #4]
 1018 010e AB68     		ldr	r3, [r5, #8]
 1019 0110 8AE7     		b	.L181
 1021 0112 00BF     		.section	.text.xStreamBufferNextMessageLengthBytes,"ax",%progbits
 1022              		.align	1
 1023              		.p2align 2,,3
 1024              		.global	xStreamBufferNextMessageLengthBytes
 1025              		.syntax unified
 1026              		.thumb
 1027              		.thumb_func
 1028              		.fpu fpv4-sp-d16
 1030              	xStreamBufferNextMessageLengthBytes:
 1031              		@ args = 0, pretend = 0, frame = 8
 1032              		@ frame_needed = 0, uses_anonymous_args = 0
 1033 0000 C8B1     		cbz	r0, .L202
 1034 0002 037F     		ldrb	r3, [r0, #28]	@ zero_extendqisi2
 1035 0004 13F00103 		ands	r3, r3, #1
 1036 0008 13D0     		beq	.L199
 1037 000a 8268     		ldr	r2, [r0, #8]
 1038 000c 4368     		ldr	r3, [r0, #4]
 1039 000e 0168     		ldr	r1, [r0]
 1040 0010 1344     		add	r3, r3, r2
 1041 0012 5B1A     		subs	r3, r3, r1
 1042 0014 9A42     		cmp	r2, r3
 1043 0016 98BF     		it	ls
 1044 0018 9B1A     		subls	r3, r3, r2
 1045 001a 042B     		cmp	r3, #4
 1046 001c 14D8     		bhi	.L203
 1047 001e 43B1     		cbz	r3, .L199
 1048              		.syntax unified
 1049              	@ 195 "../Middlewares/FreeRTOS/Source/portable/GCC/ARM_CM4F/portmacro.h" 1
ARM GAS  D:\Programs\cygwin64\tmp\ccUjOoPb.s 			page 19


 1050 0020 4FF05003 			mov r3, #80												
 1051 0024 83F31188 		msr basepri, r3											
 1052 0028 BFF36F8F 		isb														
 1053 002c BFF34F8F 		dsb														
 1054              	
 1055              	@ 0 "" 2
 1056              		.thumb
 1057              		.syntax unified
 1058              	.L193:
 1059 0030 FEE7     		b	.L193
 1060              	.L199:
 1061 0032 1846     		mov	r0, r3
 1062 0034 7047     		bx	lr
 1063              	.L202:
 1064              		.syntax unified
 1065              	@ 195 "../Middlewares/FreeRTOS/Source/portable/GCC/ARM_CM4F/portmacro.h" 1
 1066 0036 4FF05003 			mov r3, #80												
 1067 003a 83F31188 		msr basepri, r3											
 1068 003e BFF36F8F 		isb														
 1069 0042 BFF34F8F 		dsb														
 1070              	
 1071              	@ 0 "" 2
 1072              		.thumb
 1073              		.syntax unified
 1074              	.L189:
 1075 0046 FEE7     		b	.L189
 1076              	.L203:
 1077 0048 30B5     		push	{r4, r5, lr}
 1078 004a 0422     		movs	r2, #4
 1079 004c 83B0     		sub	sp, sp, #12
 1080 004e 0DEB0201 		add	r1, sp, r2
 1081 0052 0446     		mov	r4, r0
 1082 0054 0568     		ldr	r5, [r0]
 1083 0056 FFF7FEFF 		bl	prvReadBytesFromBuffer
 1084 005a 019B     		ldr	r3, [sp, #4]
 1085 005c 2560     		str	r5, [r4]
 1086 005e 1846     		mov	r0, r3
 1087 0060 03B0     		add	sp, sp, #12
 1088              		@ sp needed
 1089 0062 30BD     		pop	{r4, r5, pc}
 1091              		.section	.text.xStreamBufferReceiveFromISR,"ax",%progbits
 1092              		.align	1
 1093              		.p2align 2,,3
 1094              		.global	xStreamBufferReceiveFromISR
 1095              		.syntax unified
 1096              		.thumb
 1097              		.thumb_func
 1098              		.fpu fpv4-sp-d16
 1100              	xStreamBufferReceiveFromISR:
 1101              		@ args = 0, pretend = 0, frame = 8
 1102              		@ frame_needed = 0, uses_anonymous_args = 0
 1103 0000 29B3     		cbz	r1, .L229
 1104 0002 2DE9F047 		push	{r4, r5, r6, r7, r8, r9, r10, lr}
 1105 0006 0446     		mov	r4, r0
 1106 0008 84B0     		sub	sp, sp, #16
 1107 000a B8B1     		cbz	r0, .L230
 1108 000c 4568     		ldr	r5, [r0, #4]
ARM GAS  D:\Programs\cygwin64\tmp\ccUjOoPb.s 			page 20


 1109 000e 9846     		mov	r8, r3
 1110 0010 8368     		ldr	r3, [r0, #8]
 1111 0012 1746     		mov	r7, r2
 1112 0014 8946     		mov	r9, r1
 1113 0016 027F     		ldrb	r2, [r0, #28]	@ zero_extendqisi2
 1114 0018 0168     		ldr	r1, [r0]
 1115 001a 1D44     		add	r5, r5, r3
 1116 001c 6D1A     		subs	r5, r5, r1
 1117 001e 12F0010F 		tst	r2, #1
 1118 0022 14BF     		ite	ne
 1119 0024 0426     		movne	r6, #4
 1120 0026 0026     		moveq	r6, #0
 1121 0028 AB42     		cmp	r3, r5
 1122 002a 98BF     		it	ls
 1123 002c ED1A     		subls	r5, r5, r3
 1124 002e AE42     		cmp	r6, r5
 1125 0030 16D3     		bcc	.L211
 1126              	.L214:
 1127 0032 0025     		movs	r5, #0
 1128              	.L204:
 1129 0034 2846     		mov	r0, r5
 1130 0036 04B0     		add	sp, sp, #16
 1131              		@ sp needed
 1132 0038 BDE8F087 		pop	{r4, r5, r6, r7, r8, r9, r10, pc}
 1133              	.L230:
 1134              		.syntax unified
 1135              	@ 195 "../Middlewares/FreeRTOS/Source/portable/GCC/ARM_CM4F/portmacro.h" 1
 1136 003c 4FF05003 			mov r3, #80												
 1137 0040 83F31188 		msr basepri, r3											
 1138 0044 BFF36F8F 		isb														
 1139 0048 BFF34F8F 		dsb														
 1140              	
 1141              	@ 0 "" 2
 1142              		.thumb
 1143              		.syntax unified
 1144              	.L208:
 1145 004c FEE7     		b	.L208
 1146              	.L229:
 1147              		.syntax unified
 1148              	@ 195 "../Middlewares/FreeRTOS/Source/portable/GCC/ARM_CM4F/portmacro.h" 1
 1149 004e 4FF05003 			mov r3, #80												
 1150 0052 83F31188 		msr basepri, r3											
 1151 0056 BFF36F8F 		isb														
 1152 005a BFF34F8F 		dsb														
 1153              	
 1154              	@ 0 "" 2
 1155              		.thumb
 1156              		.syntax unified
 1157              	.L206:
 1158 005e FEE7     		b	.L206
 1159              	.L211:
 1160 0060 0EBB     		cbnz	r6, .L231
 1161              	.L213:
 1162 0062 2B46     		mov	r3, r5
 1163 0064 3A46     		mov	r2, r7
 1164 0066 4946     		mov	r1, r9
 1165 0068 2046     		mov	r0, r4
ARM GAS  D:\Programs\cygwin64\tmp\ccUjOoPb.s 			page 21


 1166 006a FFF7FEFF 		bl	prvReadBytesFromBuffer
 1167 006e 0546     		mov	r5, r0
 1168 0070 0028     		cmp	r0, #0
 1169 0072 DED0     		beq	.L214
 1170              		.syntax unified
 1171              	@ 211 "../Middlewares/FreeRTOS/Source/portable/GCC/ARM_CM4F/portmacro.h" 1
 1172 0074 EFF31186 			mrs r6, basepri											
 1173 0078 4FF05003 		mov r3, #80												
 1174 007c 83F31188 		msr basepri, r3											
 1175 0080 BFF36F8F 		isb														
 1176 0084 BFF34F8F 		dsb														
 1177              	
 1178              	@ 0 "" 2
 1179              		.thumb
 1180              		.syntax unified
 1181 0088 6369     		ldr	r3, [r4, #20]
 1182 008a 4BB1     		cbz	r3, .L215
 1183 008c 0023     		movs	r3, #0
 1184 008e 6069     		ldr	r0, [r4, #20]
 1185 0090 CDF80080 		str	r8, [sp]
 1186 0094 1A46     		mov	r2, r3
 1187 0096 1946     		mov	r1, r3
 1188 0098 FFF7FEFF 		bl	xTaskGenericNotifyFromISR
 1189 009c 0023     		movs	r3, #0
 1190 009e 6361     		str	r3, [r4, #20]
 1191              	.L215:
 1192              		.syntax unified
 1193              	@ 229 "../Middlewares/FreeRTOS/Source/portable/GCC/ARM_CM4F/portmacro.h" 1
 1194 00a0 86F31188 			msr basepri, r6	
 1195              	@ 0 "" 2
 1196              		.thumb
 1197              		.syntax unified
 1198 00a4 C6E7     		b	.L204
 1199              	.L231:
 1200 00a6 2B46     		mov	r3, r5
 1201 00a8 3246     		mov	r2, r6
 1202 00aa 03A9     		add	r1, sp, #12
 1203 00ac D0F800A0 		ldr	r10, [r0]
 1204 00b0 FFF7FEFF 		bl	prvReadBytesFromBuffer
 1205 00b4 039B     		ldr	r3, [sp, #12]
 1206 00b6 9F42     		cmp	r7, r3
 1207 00b8 A5EB0605 		sub	r5, r5, r6
 1208 00bc 3ABF     		itte	cc
 1209 00be C4F800A0 		strcc	r10, [r4]
 1210 00c2 0027     		movcc	r7, #0
 1211 00c4 1F46     		movcs	r7, r3
 1212 00c6 CCE7     		b	.L213
 1214              		.section	.text.xStreamBufferIsEmpty,"ax",%progbits
 1215              		.align	1
 1216              		.p2align 2,,3
 1217              		.global	xStreamBufferIsEmpty
 1218              		.syntax unified
 1219              		.thumb
 1220              		.thumb_func
 1221              		.fpu fpv4-sp-d16
 1223              	xStreamBufferIsEmpty:
 1224              		@ args = 0, pretend = 0, frame = 0
ARM GAS  D:\Programs\cygwin64\tmp\ccUjOoPb.s 			page 22


 1225              		@ frame_needed = 0, uses_anonymous_args = 0
 1226              		@ link register save eliminated.
 1227 0000 30B1     		cbz	r0, .L235
 1228 0002 0368     		ldr	r3, [r0]
 1229 0004 4068     		ldr	r0, [r0, #4]
 1230 0006 C01A     		subs	r0, r0, r3
 1231 0008 B0FA80F0 		clz	r0, r0
 1232 000c 4009     		lsrs	r0, r0, #5
 1233 000e 7047     		bx	lr
 1234              	.L235:
 1235              		.syntax unified
 1236              	@ 195 "../Middlewares/FreeRTOS/Source/portable/GCC/ARM_CM4F/portmacro.h" 1
 1237 0010 4FF05003 			mov r3, #80												
 1238 0014 83F31188 		msr basepri, r3											
 1239 0018 BFF36F8F 		isb														
 1240 001c BFF34F8F 		dsb														
 1241              	
 1242              	@ 0 "" 2
 1243              		.thumb
 1244              		.syntax unified
 1245              	.L234:
 1246 0020 FEE7     		b	.L234
 1248 0022 00BF     		.section	.text.xStreamBufferIsFull,"ax",%progbits
 1249              		.align	1
 1250              		.p2align 2,,3
 1251              		.global	xStreamBufferIsFull
 1252              		.syntax unified
 1253              		.thumb
 1254              		.thumb_func
 1255              		.fpu fpv4-sp-d16
 1257              	xStreamBufferIsFull:
 1258              		@ args = 0, pretend = 0, frame = 0
 1259              		@ frame_needed = 0, uses_anonymous_args = 0
 1260              		@ link register save eliminated.
 1261 0000 98B1     		cbz	r0, .L242
 1262 0002 8268     		ldr	r2, [r0, #8]
 1263 0004 0368     		ldr	r3, [r0]
 1264 0006 017F     		ldrb	r1, [r0, #28]	@ zero_extendqisi2
 1265 0008 4068     		ldr	r0, [r0, #4]
 1266 000a 1344     		add	r3, r3, r2
 1267 000c 013B     		subs	r3, r3, #1
 1268 000e 1B1A     		subs	r3, r3, r0
 1269 0010 11F0010F 		tst	r1, #1
 1270 0014 14BF     		ite	ne
 1271 0016 0420     		movne	r0, #4
 1272 0018 0020     		moveq	r0, #0
 1273 001a 9A42     		cmp	r2, r3
 1274 001c 98BF     		it	ls
 1275 001e 9B1A     		subls	r3, r3, r2
 1276 0020 9842     		cmp	r0, r3
 1277 0022 34BF     		ite	cc
 1278 0024 0020     		movcc	r0, #0
 1279 0026 0120     		movcs	r0, #1
 1280 0028 7047     		bx	lr
 1281              	.L242:
 1282              		.syntax unified
 1283              	@ 195 "../Middlewares/FreeRTOS/Source/portable/GCC/ARM_CM4F/portmacro.h" 1
ARM GAS  D:\Programs\cygwin64\tmp\ccUjOoPb.s 			page 23


 1284 002a 4FF05003 			mov r3, #80												
 1285 002e 83F31188 		msr basepri, r3											
 1286 0032 BFF36F8F 		isb														
 1287 0036 BFF34F8F 		dsb														
 1288              	
 1289              	@ 0 "" 2
 1290              		.thumb
 1291              		.syntax unified
 1292              	.L238:
 1293 003a FEE7     		b	.L238
 1295              		.section	.text.xStreamBufferSendCompletedFromISR,"ax",%progbits
 1296              		.align	1
 1297              		.p2align 2,,3
 1298              		.global	xStreamBufferSendCompletedFromISR
 1299              		.syntax unified
 1300              		.thumb
 1301              		.thumb_func
 1302              		.fpu fpv4-sp-d16
 1304              	xStreamBufferSendCompletedFromISR:
 1305              		@ args = 0, pretend = 0, frame = 0
 1306              		@ frame_needed = 0, uses_anonymous_args = 0
 1307 0000 08B3     		cbz	r0, .L250
 1308 0002 30B5     		push	{r4, r5, lr}
 1309 0004 83B0     		sub	sp, sp, #12
 1310              		.syntax unified
 1311              	@ 211 "../Middlewares/FreeRTOS/Source/portable/GCC/ARM_CM4F/portmacro.h" 1
 1312 0006 EFF31185 			mrs r5, basepri											
 1313 000a 4FF05003 		mov r3, #80												
 1314 000e 83F31188 		msr basepri, r3											
 1315 0012 BFF36F8F 		isb														
 1316 0016 BFF34F8F 		dsb														
 1317              	
 1318              	@ 0 "" 2
 1319              		.thumb
 1320              		.syntax unified
 1321 001a 0369     		ldr	r3, [r0, #16]
 1322 001c 73B1     		cbz	r3, .L247
 1323 001e 0023     		movs	r3, #0
 1324 0020 0446     		mov	r4, r0
 1325 0022 1A46     		mov	r2, r3
 1326 0024 0069     		ldr	r0, [r0, #16]
 1327 0026 0091     		str	r1, [sp]
 1328 0028 1946     		mov	r1, r3
 1329 002a FFF7FEFF 		bl	xTaskGenericNotifyFromISR
 1330 002e 0023     		movs	r3, #0
 1331 0030 2361     		str	r3, [r4, #16]
 1332 0032 0120     		movs	r0, #1
 1333              		.syntax unified
 1334              	@ 229 "../Middlewares/FreeRTOS/Source/portable/GCC/ARM_CM4F/portmacro.h" 1
 1335 0034 85F31188 			msr basepri, r5	
 1336              	@ 0 "" 2
 1337              		.thumb
 1338              		.syntax unified
 1339 0038 03B0     		add	sp, sp, #12
 1340              		@ sp needed
 1341 003a 30BD     		pop	{r4, r5, pc}
 1342              	.L247:
ARM GAS  D:\Programs\cygwin64\tmp\ccUjOoPb.s 			page 24


 1343 003c 1846     		mov	r0, r3
 1344              		.syntax unified
 1345              	@ 229 "../Middlewares/FreeRTOS/Source/portable/GCC/ARM_CM4F/portmacro.h" 1
 1346 003e 85F31188 			msr basepri, r5	
 1347              	@ 0 "" 2
 1348              		.thumb
 1349              		.syntax unified
 1350 0042 03B0     		add	sp, sp, #12
 1351              		@ sp needed
 1352 0044 30BD     		pop	{r4, r5, pc}
 1353              	.L250:
 1354              		.syntax unified
 1355              	@ 195 "../Middlewares/FreeRTOS/Source/portable/GCC/ARM_CM4F/portmacro.h" 1
 1356 0046 4FF05003 			mov r3, #80												
 1357 004a 83F31188 		msr basepri, r3											
 1358 004e BFF36F8F 		isb														
 1359 0052 BFF34F8F 		dsb														
 1360              	
 1361              	@ 0 "" 2
 1362              		.thumb
 1363              		.syntax unified
 1364              	.L245:
 1365 0056 FEE7     		b	.L245
 1367              		.section	.text.xStreamBufferReceiveCompletedFromISR,"ax",%progbits
 1368              		.align	1
 1369              		.p2align 2,,3
 1370              		.global	xStreamBufferReceiveCompletedFromISR
 1371              		.syntax unified
 1372              		.thumb
 1373              		.thumb_func
 1374              		.fpu fpv4-sp-d16
 1376              	xStreamBufferReceiveCompletedFromISR:
 1377              		@ args = 0, pretend = 0, frame = 0
 1378              		@ frame_needed = 0, uses_anonymous_args = 0
 1379 0000 08B3     		cbz	r0, .L258
 1380 0002 30B5     		push	{r4, r5, lr}
 1381 0004 83B0     		sub	sp, sp, #12
 1382              		.syntax unified
 1383              	@ 211 "../Middlewares/FreeRTOS/Source/portable/GCC/ARM_CM4F/portmacro.h" 1
 1384 0006 EFF31185 			mrs r5, basepri											
 1385 000a 4FF05003 		mov r3, #80												
 1386 000e 83F31188 		msr basepri, r3											
 1387 0012 BFF36F8F 		isb														
 1388 0016 BFF34F8F 		dsb														
 1389              	
 1390              	@ 0 "" 2
 1391              		.thumb
 1392              		.syntax unified
 1393 001a 4369     		ldr	r3, [r0, #20]
 1394 001c 73B1     		cbz	r3, .L255
 1395 001e 0023     		movs	r3, #0
 1396 0020 0446     		mov	r4, r0
 1397 0022 1A46     		mov	r2, r3
 1398 0024 4069     		ldr	r0, [r0, #20]
 1399 0026 0091     		str	r1, [sp]
 1400 0028 1946     		mov	r1, r3
 1401 002a FFF7FEFF 		bl	xTaskGenericNotifyFromISR
ARM GAS  D:\Programs\cygwin64\tmp\ccUjOoPb.s 			page 25


 1402 002e 0023     		movs	r3, #0
 1403 0030 6361     		str	r3, [r4, #20]
 1404 0032 0120     		movs	r0, #1
 1405              		.syntax unified
 1406              	@ 229 "../Middlewares/FreeRTOS/Source/portable/GCC/ARM_CM4F/portmacro.h" 1
 1407 0034 85F31188 			msr basepri, r5	
 1408              	@ 0 "" 2
 1409              		.thumb
 1410              		.syntax unified
 1411 0038 03B0     		add	sp, sp, #12
 1412              		@ sp needed
 1413 003a 30BD     		pop	{r4, r5, pc}
 1414              	.L255:
 1415 003c 1846     		mov	r0, r3
 1416              		.syntax unified
 1417              	@ 229 "../Middlewares/FreeRTOS/Source/portable/GCC/ARM_CM4F/portmacro.h" 1
 1418 003e 85F31188 			msr basepri, r5	
 1419              	@ 0 "" 2
 1420              		.thumb
 1421              		.syntax unified
 1422 0042 03B0     		add	sp, sp, #12
 1423              		@ sp needed
 1424 0044 30BD     		pop	{r4, r5, pc}
 1425              	.L258:
 1426              		.syntax unified
 1427              	@ 195 "../Middlewares/FreeRTOS/Source/portable/GCC/ARM_CM4F/portmacro.h" 1
 1428 0046 4FF05003 			mov r3, #80												
 1429 004a 83F31188 		msr basepri, r3											
 1430 004e BFF36F8F 		isb														
 1431 0052 BFF34F8F 		dsb														
 1432              	
 1433              	@ 0 "" 2
 1434              		.thumb
 1435              		.syntax unified
 1436              	.L253:
 1437 0056 FEE7     		b	.L253
 1439              		.section	.text.uxStreamBufferGetStreamBufferNumber,"ax",%progbits
 1440              		.align	1
 1441              		.p2align 2,,3
 1442              		.global	uxStreamBufferGetStreamBufferNumber
 1443              		.syntax unified
 1444              		.thumb
 1445              		.thumb_func
 1446              		.fpu fpv4-sp-d16
 1448              	uxStreamBufferGetStreamBufferNumber:
 1449              		@ args = 0, pretend = 0, frame = 0
 1450              		@ frame_needed = 0, uses_anonymous_args = 0
 1451              		@ link register save eliminated.
 1452 0000 006A     		ldr	r0, [r0, #32]
 1453 0002 7047     		bx	lr
 1455              		.section	.text.vStreamBufferSetStreamBufferNumber,"ax",%progbits
 1456              		.align	1
 1457              		.p2align 2,,3
 1458              		.global	vStreamBufferSetStreamBufferNumber
 1459              		.syntax unified
 1460              		.thumb
 1461              		.thumb_func
ARM GAS  D:\Programs\cygwin64\tmp\ccUjOoPb.s 			page 26


 1462              		.fpu fpv4-sp-d16
 1464              	vStreamBufferSetStreamBufferNumber:
 1465              		@ args = 0, pretend = 0, frame = 0
 1466              		@ frame_needed = 0, uses_anonymous_args = 0
 1467              		@ link register save eliminated.
 1468 0000 0162     		str	r1, [r0, #32]
 1469 0002 7047     		bx	lr
 1471              		.section	.text.ucStreamBufferGetStreamBufferType,"ax",%progbits
 1472              		.align	1
 1473              		.p2align 2,,3
 1474              		.global	ucStreamBufferGetStreamBufferType
 1475              		.syntax unified
 1476              		.thumb
 1477              		.thumb_func
 1478              		.fpu fpv4-sp-d16
 1480              	ucStreamBufferGetStreamBufferType:
 1481              		@ args = 0, pretend = 0, frame = 0
 1482              		@ frame_needed = 0, uses_anonymous_args = 0
 1483              		@ link register save eliminated.
 1484 0000 007F     		ldrb	r0, [r0, #28]	@ zero_extendqisi2
 1485 0002 00F00100 		and	r0, r0, #1
 1486 0006 7047     		bx	lr
 1488              		.ident	"GCC: (GNU Tools for Arm Embedded Processors 8-2018-q4-major) 8.2.1 20181213 (release) [gcc
ARM GAS  D:\Programs\cygwin64\tmp\ccUjOoPb.s 			page 27

