ARM GAS  D:\Programs\cygwin64\tmp\ccH08sek.s 			page 1


   1              		.cpu cortex-m4
   2              		.eabi_attribute 27, 1
   3              		.eabi_attribute 28, 1
   4              		.eabi_attribute 20, 1
   5              		.eabi_attribute 21, 1
   6              		.eabi_attribute 23, 3
   7              		.eabi_attribute 24, 1
   8              		.eabi_attribute 25, 1
   9              		.eabi_attribute 26, 1
  10              		.eabi_attribute 30, 2
  11              		.eabi_attribute 34, 1
  12              		.eabi_attribute 18, 4
  13              		.file	"usbh_msc_bot.c"
  14              		.text
  15              		.section	.text.USBH_MSC_BOT_REQ_Reset,"ax",%progbits
  16              		.align	1
  17              		.p2align 2,,3
  18              		.global	USBH_MSC_BOT_REQ_Reset
  19              		.arch armv7e-m
  20              		.syntax unified
  21              		.thumb
  22              		.thumb_func
  23              		.fpu fpv4-sp-d16
  25              	USBH_MSC_BOT_REQ_Reset:
  26              		@ args = 0, pretend = 0, frame = 0
  27              		@ frame_needed = 0, uses_anonymous_args = 0
  28              		@ link register save eliminated.
  29 0000 4FF62171 		movw	r1, #65313
  30 0004 0022     		movs	r2, #0
  31 0006 C0E90412 		strd	r1, r2, [r0, #16]
  32 000a 1146     		mov	r1, r2
  33 000c FFF7FEBF 		b	USBH_CtlReq
  35              		.section	.text.USBH_MSC_BOT_REQ_GetMaxLUN,"ax",%progbits
  36              		.align	1
  37              		.p2align 2,,3
  38              		.global	USBH_MSC_BOT_REQ_GetMaxLUN
  39              		.syntax unified
  40              		.thumb
  41              		.thumb_func
  42              		.fpu fpv4-sp-d16
  44              	USBH_MSC_BOT_REQ_GetMaxLUN:
  45              		@ args = 0, pretend = 0, frame = 0
  46              		@ frame_needed = 0, uses_anonymous_args = 0
  47              		@ link register save eliminated.
  48 0000 10B4     		push	{r4}
  49 0002 4FF48032 		mov	r2, #65536
  50 0006 4FF6A164 		movw	r4, #65185
  51 000a C0E90442 		strd	r4, r2, [r0, #16]
  52 000e 0122     		movs	r2, #1
  53 0010 5DF8044B 		ldr	r4, [sp], #4
  54 0014 FFF7FEBF 		b	USBH_CtlReq
  56              		.section	.text.USBH_MSC_BOT_Init,"ax",%progbits
  57              		.align	1
  58              		.p2align 2,,3
  59              		.global	USBH_MSC_BOT_Init
  60              		.syntax unified
  61              		.thumb
ARM GAS  D:\Programs\cygwin64\tmp\ccH08sek.s 			page 2


  62              		.thumb_func
  63              		.fpu fpv4-sp-d16
  65              	USBH_MSC_BOT_Init:
  66              		@ args = 0, pretend = 0, frame = 0
  67              		@ frame_needed = 0, uses_anonymous_args = 0
  68              		@ link register save eliminated.
  69 0000 D0F87432 		ldr	r3, [r0, #628]
  70 0004 054A     		ldr	r2, .L6
  71 0006 DB69     		ldr	r3, [r3, #28]
  72 0008 0549     		ldr	r1, .L6+4
  73 000a 5A65     		str	r2, [r3, #84]
  74 000c 0122     		movs	r2, #1
  75 000e 9965     		str	r1, [r3, #88]
  76 0010 83F85020 		strb	r2, [r3, #80]
  77 0014 83F85220 		strb	r2, [r3, #82]
  78 0018 0020     		movs	r0, #0
  79 001a 7047     		bx	lr
  80              	.L7:
  81              		.align	2
  82              	.L6:
  83 001c 55534243 		.word	1128420181
  84 0020 50403020 		.word	540033104
  86              		.section	.text.USBH_MSC_BOT_Process,"ax",%progbits
  87              		.align	1
  88              		.p2align 2,,3
  89              		.global	USBH_MSC_BOT_Process
  90              		.syntax unified
  91              		.thumb
  92              		.thumb_func
  93              		.fpu fpv4-sp-d16
  95              	USBH_MSC_BOT_Process:
  96              		@ args = 0, pretend = 0, frame = 0
  97              		@ frame_needed = 0, uses_anonymous_args = 0
  98 0000 D0F87432 		ldr	r3, [r0, #628]
  99 0004 70B5     		push	{r4, r5, r6, lr}
 100 0006 DC69     		ldr	r4, [r3, #28]
 101 0008 94F85030 		ldrb	r3, [r4, #80]	@ zero_extendqisi2
 102 000c 013B     		subs	r3, r3, #1
 103 000e 82B0     		sub	sp, sp, #8
 104 0010 0646     		mov	r6, r0
 105 0012 0A2B     		cmp	r3, #10
 106 0014 10D8     		bhi	.L51
 107 0016 DFE803F0 		tbb	[pc, r3]
 108              	.L11:
 109 001a 20       		.byte	(.L21-.L11)/2
 110 001b 2F       		.byte	(.L20-.L11)/2
 111 001c 39       		.byte	(.L19-.L11)/2
 112 001d 44       		.byte	(.L18-.L11)/2
 113 001e 51       		.byte	(.L17-.L11)/2
 114 001f 5E       		.byte	(.L16-.L11)/2
 115 0020 06       		.byte	(.L15-.L11)/2
 116 0021 6D       		.byte	(.L14-.L11)/2
 117 0022 75       		.byte	(.L13-.L11)/2
 118 0023 80       		.byte	(.L12-.L11)/2
 119 0024 12       		.byte	(.L10-.L11)/2
 120 0025 00       		.p2align 1
 121              	.L15:
ARM GAS  D:\Programs\cygwin64\tmp\ccH08sek.s 			page 3


 122 0026 2379     		ldrb	r3, [r4, #4]	@ zero_extendqisi2
 123 0028 0D22     		movs	r2, #13
 124 002a 04F17801 		add	r1, r4, #120
 125 002e FFF7FEFF 		bl	USBH_BulkReceiveData
 126 0032 0823     		movs	r3, #8
 127 0034 84F85030 		strb	r3, [r4, #80]
 128              	.L51:
 129 0038 0120     		movs	r0, #1
 130              	.L43:
 131 003a 02B0     		add	sp, sp, #8
 132              		@ sp needed
 133 003c 70BD     		pop	{r4, r5, r6, pc}
 134              	.L10:
 135 003e 0022     		movs	r2, #0
 136 0040 4FF62173 		movw	r3, #65313
 137 0044 C0E90432 		strd	r3, r2, [r0, #16]
 138 0048 1146     		mov	r1, r2
 139 004a FFF7FEFF 		bl	USBH_CtlReq
 140 004e 0028     		cmp	r0, #0
 141 0050 F3D1     		bne	.L43
 142 0052 0123     		movs	r3, #1
 143 0054 84F85030 		strb	r3, [r4, #80]
 144 0058 EFE7     		b	.L43
 145              	.L21:
 146 005a 0222     		movs	r2, #2
 147 005c 0125     		movs	r5, #1
 148 005e 84F86110 		strb	r1, [r4, #97]
 149 0062 84F85020 		strb	r2, [r4, #80]
 150 0066 6379     		ldrb	r3, [r4, #5]	@ zero_extendqisi2
 151 0068 0095     		str	r5, [sp]
 152 006a 04F15401 		add	r1, r4, #84
 153 006e 1F22     		movs	r2, #31
 154 0070 FFF7FEFF 		bl	USBH_BulkSendData
 155 0074 2846     		mov	r0, r5
 156 0076 E0E7     		b	.L43
 157              	.L20:
 158 0078 6179     		ldrb	r1, [r4, #5]	@ zero_extendqisi2
 159 007a FFF7FEFF 		bl	USBH_LL_GetURBState
 160 007e 0128     		cmp	r0, #1
 161 0080 64D0     		beq	.L57
 162 0082 0228     		cmp	r0, #2
 163 0084 59D0     		beq	.L58
 164 0086 0528     		cmp	r0, #5
 165 0088 D6D1     		bne	.L51
 166 008a 2EE0     		b	.L52
 167              	.L19:
 168 008c 2379     		ldrb	r3, [r4, #4]	@ zero_extendqisi2
 169 008e 6289     		ldrh	r2, [r4, #10]
 170 0090 D4F88C10 		ldr	r1, [r4, #140]
 171 0094 FFF7FEFF 		bl	USBH_BulkReceiveData
 172 0098 0423     		movs	r3, #4
 173 009a 84F85030 		strb	r3, [r4, #80]
 174 009e 0120     		movs	r0, #1
 175 00a0 CBE7     		b	.L43
 176              	.L18:
 177 00a2 2179     		ldrb	r1, [r4, #4]	@ zero_extendqisi2
 178 00a4 FFF7FEFF 		bl	USBH_LL_GetURBState
ARM GAS  D:\Programs\cygwin64\tmp\ccH08sek.s 			page 4


 179 00a8 0128     		cmp	r0, #1
 180 00aa 0546     		mov	r5, r0
 181 00ac 6ED0     		beq	.L59
 182 00ae 0528     		cmp	r0, #5
 183 00b0 C2D1     		bne	.L51
 184              	.L56:
 185 00b2 0923     		movs	r3, #9
 186 00b4 84F85030 		strb	r3, [r4, #80]
 187 00b8 0120     		movs	r0, #1
 188 00ba BEE7     		b	.L43
 189              	.L17:
 190 00bc 0125     		movs	r5, #1
 191 00be 6379     		ldrb	r3, [r4, #5]	@ zero_extendqisi2
 192 00c0 2289     		ldrh	r2, [r4, #8]
 193 00c2 D4F88C10 		ldr	r1, [r4, #140]
 194 00c6 0095     		str	r5, [sp]
 195 00c8 FFF7FEFF 		bl	USBH_BulkSendData
 196 00cc 0623     		movs	r3, #6
 197 00ce 2846     		mov	r0, r5
 198 00d0 84F85030 		strb	r3, [r4, #80]
 199 00d4 B1E7     		b	.L43
 200              	.L16:
 201 00d6 6179     		ldrb	r1, [r4, #5]	@ zero_extendqisi2
 202 00d8 FFF7FEFF 		bl	USBH_LL_GetURBState
 203 00dc 0128     		cmp	r0, #1
 204 00de 0546     		mov	r5, r0
 205 00e0 40D0     		beq	.L60
 206 00e2 0228     		cmp	r0, #2
 207 00e4 2DD0     		beq	.L61
 208 00e6 0528     		cmp	r0, #5
 209 00e8 A6D1     		bne	.L51
 210              	.L52:
 211 00ea 0A23     		movs	r3, #10
 212 00ec 84F85030 		strb	r3, [r4, #80]
 213 00f0 0120     		movs	r0, #1
 214 00f2 A2E7     		b	.L43
 215              	.L14:
 216 00f4 2179     		ldrb	r1, [r4, #4]	@ zero_extendqisi2
 217 00f6 FFF7FEFF 		bl	USBH_LL_GetURBState
 218 00fa 0128     		cmp	r0, #1
 219 00fc 6AD0     		beq	.L62
 220 00fe 0528     		cmp	r0, #5
 221 0100 9AD1     		bne	.L51
 222 0102 D6E7     		b	.L56
 223              	.L13:
 224 0104 E179     		ldrb	r1, [r4, #7]	@ zero_extendqisi2
 225 0106 FFF7FEFF 		bl	USBH_ClrFeature
 226 010a 88B1     		cbz	r0, .L54
 227 010c 0428     		cmp	r0, #4
 228 010e 93D1     		bne	.L51
 229              	.L55:
 230 0110 0B23     		movs	r3, #11
 231 0112 84F85030 		strb	r3, [r4, #80]
 232 0116 0120     		movs	r0, #1
 233 0118 8FE7     		b	.L43
 234              	.L12:
 235 011a A179     		ldrb	r1, [r4, #6]	@ zero_extendqisi2
ARM GAS  D:\Programs\cygwin64\tmp\ccH08sek.s 			page 5


 236 011c FFF7FEFF 		bl	USBH_ClrFeature
 237 0120 0546     		mov	r5, r0
 238 0122 0028     		cmp	r0, #0
 239 0124 45D0     		beq	.L63
 240 0126 0428     		cmp	r0, #4
 241 0128 86D1     		bne	.L51
 242 012a F1E7     		b	.L55
 243              	.L32:
 244 012c 0023     		movs	r3, #0
 245 012e E365     		str	r3, [r4, #92]
 246              	.L54:
 247 0130 0723     		movs	r3, #7
 248 0132 84F85030 		strb	r3, [r4, #80]
 249 0136 0120     		movs	r0, #1
 250 0138 7FE7     		b	.L43
 251              	.L58:
 252 013a 0120     		movs	r0, #1
 253 013c 84F85000 		strb	r0, [r4, #80]
 254 0140 7BE7     		b	.L43
 255              	.L61:
 256 0142 0523     		movs	r3, #5
 257 0144 84F85030 		strb	r3, [r4, #80]
 258 0148 0120     		movs	r0, #1
 259 014a 76E7     		b	.L43
 260              	.L57:
 261 014c E36D     		ldr	r3, [r4, #92]
 262 014e 002B     		cmp	r3, #0
 263 0150 57D0     		beq	.L23
 264 0152 94F96030 		ldrsb	r3, [r4, #96]
 265 0156 002B     		cmp	r3, #0
 266 0158 B4BF     		ite	lt
 267 015a 0323     		movlt	r3, #3
 268 015c 0523     		movge	r3, #5
 269 015e 84F85030 		strb	r3, [r4, #80]
 270 0162 6AE7     		b	.L43
 271              	.L60:
 272 0164 E36D     		ldr	r3, [r4, #92]
 273 0166 2289     		ldrh	r2, [r4, #8]
 274 0168 9342     		cmp	r3, r2
 275 016a DFD9     		bls	.L32
 276 016c D4F88C10 		ldr	r1, [r4, #140]
 277 0170 9B1A     		subs	r3, r3, r2
 278 0172 1144     		add	r1, r1, r2
 279 0174 E365     		str	r3, [r4, #92]
 280 0176 C4F88C10 		str	r1, [r4, #140]
 281 017a 002B     		cmp	r3, #0
 282 017c D8D0     		beq	.L54
 283 017e 6379     		ldrb	r3, [r4, #5]	@ zero_extendqisi2
 284 0180 0090     		str	r0, [sp]
 285 0182 3046     		mov	r0, r6
 286 0184 FFF7FEFF 		bl	USBH_BulkSendData
 287 0188 2846     		mov	r0, r5
 288 018a 56E7     		b	.L43
 289              	.L59:
 290 018c E36D     		ldr	r3, [r4, #92]
 291 018e 6289     		ldrh	r2, [r4, #10]
 292 0190 9342     		cmp	r3, r2
ARM GAS  D:\Programs\cygwin64\tmp\ccH08sek.s 			page 6


 293 0192 CBD9     		bls	.L32
 294 0194 D4F88C10 		ldr	r1, [r4, #140]
 295 0198 9B1A     		subs	r3, r3, r2
 296 019a 1144     		add	r1, r1, r2
 297 019c E365     		str	r3, [r4, #92]
 298 019e C4F88C10 		str	r1, [r4, #140]
 299 01a2 002B     		cmp	r3, #0
 300 01a4 C4D0     		beq	.L54
 301 01a6 2379     		ldrb	r3, [r4, #4]	@ zero_extendqisi2
 302 01a8 3046     		mov	r0, r6
 303 01aa FFF7FEFF 		bl	USBH_BulkReceiveData
 304 01ae 2846     		mov	r0, r5
 305 01b0 43E7     		b	.L43
 306              	.L63:
 307 01b2 6179     		ldrb	r1, [r4, #5]	@ zero_extendqisi2
 308 01b4 3046     		mov	r0, r6
 309 01b6 FFF7FEFF 		bl	USBH_LL_GetToggle
 310 01ba C0F10102 		rsb	r2, r0, #1
 311 01be 6179     		ldrb	r1, [r4, #5]	@ zero_extendqisi2
 312 01c0 D2B2     		uxtb	r2, r2
 313 01c2 3046     		mov	r0, r6
 314 01c4 FFF7FEFF 		bl	USBH_LL_SetToggle
 315 01c8 2A46     		mov	r2, r5
 316 01ca 3046     		mov	r0, r6
 317 01cc 2179     		ldrb	r1, [r4, #4]	@ zero_extendqisi2
 318 01ce FFF7FEFF 		bl	USBH_LL_SetToggle
 319 01d2 6EE7     		b	.L56
 320              	.L62:
 321 01d4 D6F87432 		ldr	r3, [r6, #628]
 322 01d8 84F85000 		strb	r0, [r4, #80]
 323 01dc DD69     		ldr	r5, [r3, #28]
 324 01de 84F85200 		strb	r0, [r4, #82]
 325 01e2 2979     		ldrb	r1, [r5, #4]	@ zero_extendqisi2
 326 01e4 3046     		mov	r0, r6
 327 01e6 FFF7FEFF 		bl	USBH_LL_GetLastXferSize
 328 01ea 0D28     		cmp	r0, #13
 329 01ec 07D1     		bne	.L41
 330 01ee 0A4B     		ldr	r3, .L65
 331 01f0 AA6F     		ldr	r2, [r5, #120]
 332 01f2 9A42     		cmp	r2, r3
 333 01f4 03D1     		bne	.L41
 334 01f6 EA6F     		ldr	r2, [r5, #124]
 335 01f8 AB6D     		ldr	r3, [r5, #88]
 336 01fa 9A42     		cmp	r2, r3
 337 01fc 05D0     		beq	.L64
 338              	.L41:
 339 01fe 0220     		movs	r0, #2
 340 0200 1BE7     		b	.L43
 341              	.L23:
 342 0202 0723     		movs	r3, #7
 343 0204 84F85030 		strb	r3, [r4, #80]
 344 0208 17E7     		b	.L43
 345              	.L64:
 346 020a 95F88430 		ldrb	r3, [r5, #132]	@ zero_extendqisi2
 347 020e 002B     		cmp	r3, #0
 348 0210 14BF     		ite	ne
 349 0212 0220     		movne	r0, #2
ARM GAS  D:\Programs\cygwin64\tmp\ccH08sek.s 			page 7


 350 0214 0020     		moveq	r0, #0
 351 0216 10E7     		b	.L43
 352              	.L66:
 353              		.align	2
 354              	.L65:
 355 0218 55534253 		.word	1396855637
 357              		.ident	"GCC: (GNU Tools for Arm Embedded Processors 8-2018-q4-major) 8.2.1 20181213 (release) [gcc
ARM GAS  D:\Programs\cygwin64\tmp\ccH08sek.s 			page 8

