ARM GAS  D:\Programs\cygwin64\tmp\ccCzgkTt.s 			page 1


   1              		.cpu cortex-m4
   2              		.eabi_attribute 27, 1
   3              		.eabi_attribute 28, 1
   4              		.eabi_attribute 20, 1
   5              		.eabi_attribute 21, 1
   6              		.eabi_attribute 23, 3
   7              		.eabi_attribute 24, 1
   8              		.eabi_attribute 25, 1
   9              		.eabi_attribute 26, 1
  10              		.eabi_attribute 30, 2
  11              		.eabi_attribute 34, 1
  12              		.eabi_attribute 18, 4
  13              		.file	"usbh_msc_scsi.c"
  14              		.text
  15              		.section	.text.USBH_MSC_SCSI_TestUnitReady,"ax",%progbits
  16              		.align	1
  17              		.p2align 2,,3
  18              		.global	USBH_MSC_SCSI_TestUnitReady
  19              		.arch armv7e-m
  20              		.syntax unified
  21              		.thumb
  22              		.thumb_func
  23              		.fpu fpv4-sp-d16
  25              	USBH_MSC_SCSI_TestUnitReady:
  26              		@ args = 0, pretend = 0, frame = 0
  27              		@ frame_needed = 0, uses_anonymous_args = 0
  28              		@ link register save eliminated.
  29 0000 D0F87432 		ldr	r3, [r0, #628]
  30 0004 DB69     		ldr	r3, [r3, #28]
  31 0006 93F85220 		ldrb	r2, [r3, #82]	@ zero_extendqisi2
  32 000a 012A     		cmp	r2, #1
  33 000c 05D0     		beq	.L2
  34 000e 022A     		cmp	r2, #2
  35 0010 01D1     		bne	.L9
  36 0012 FFF7FEBF 		b	USBH_MSC_BOT_Process
  37              	.L9:
  38 0016 0220     		movs	r0, #2
  39 0018 7047     		bx	lr
  40              	.L2:
  41 001a 30B4     		push	{r4, r5}
  42 001c 0021     		movs	r1, #0
  43 001e 0A25     		movs	r5, #10
  44 0020 0224     		movs	r4, #2
  45 0022 C3F86310 		str	r1, [r3, #99]	@ unaligned
  46 0026 C3F86710 		str	r1, [r3, #103]	@ unaligned
  47 002a C3F86B10 		str	r1, [r3, #107]	@ unaligned
  48 002e C3F86F10 		str	r1, [r3, #111]	@ unaligned
  49 0032 1046     		mov	r0, r2
  50 0034 A3F86250 		strh	r5, [r3, #98]	@ movhi
  51 0038 83F85240 		strb	r4, [r3, #82]
  52 003c D965     		str	r1, [r3, #92]
  53 003e 83F86010 		strb	r1, [r3, #96]
  54 0042 83F85020 		strb	r2, [r3, #80]
  55 0046 30BC     		pop	{r4, r5}
  56 0048 7047     		bx	lr
  58 004a 00BF     		.section	.text.USBH_MSC_SCSI_ReadCapacity,"ax",%progbits
  59              		.align	1
ARM GAS  D:\Programs\cygwin64\tmp\ccCzgkTt.s 			page 2


  60              		.p2align 2,,3
  61              		.global	USBH_MSC_SCSI_ReadCapacity
  62              		.syntax unified
  63              		.thumb
  64              		.thumb_func
  65              		.fpu fpv4-sp-d16
  67              	USBH_MSC_SCSI_ReadCapacity:
  68              		@ args = 0, pretend = 0, frame = 0
  69              		@ frame_needed = 0, uses_anonymous_args = 0
  70 0000 D0F87432 		ldr	r3, [r0, #628]
  71 0004 70B5     		push	{r4, r5, r6, lr}
  72 0006 DC69     		ldr	r4, [r3, #28]
  73 0008 94F85230 		ldrb	r3, [r4, #82]	@ zero_extendqisi2
  74 000c 012B     		cmp	r3, #1
  75 000e 12D0     		beq	.L11
  76 0010 022B     		cmp	r3, #2
  77 0012 0ED1     		bne	.L15
  78 0014 1546     		mov	r5, r2
  79 0016 FFF7FEFF 		bl	USBH_MSC_BOT_Process
  80 001a 48B9     		cbnz	r0, .L13
  81 001c D4F88C20 		ldr	r2, [r4, #140]
  82 0020 1368     		ldr	r3, [r2]	@ unaligned
  83 0022 1BBA     		rev	r3, r3
  84 0024 2B60     		str	r3, [r5]
  85 0026 9179     		ldrb	r1, [r2, #6]	@ zero_extendqisi2
  86 0028 D379     		ldrb	r3, [r2, #7]	@ zero_extendqisi2
  87 002a 43EA0123 		orr	r3, r3, r1, lsl #8
  88 002e AB80     		strh	r3, [r5, #4]	@ movhi
  89              	.L13:
  90 0030 70BD     		pop	{r4, r5, r6, pc}
  91              	.L15:
  92 0032 0120     		movs	r0, #1
  93 0034 70BD     		pop	{r4, r5, r6, pc}
  94              	.L11:
  95 0036 0022     		movs	r2, #0
  96 0038 0825     		movs	r5, #8
  97 003a C4F86320 		str	r2, [r4, #99]	@ unaligned
  98 003e 8020     		movs	r0, #128
  99 0040 E565     		str	r5, [r4, #92]
 100 0042 42F20A56 		movw	r6, #9482
 101 0046 0225     		movs	r5, #2
 102 0048 C4F86720 		str	r2, [r4, #103]	@ unaligned
 103 004c C4F86B20 		str	r2, [r4, #107]	@ unaligned
 104 0050 C4F86F20 		str	r2, [r4, #111]	@ unaligned
 105 0054 04F11002 		add	r2, r4, #16
 106 0058 84F86000 		strb	r0, [r4, #96]
 107 005c 84F85030 		strb	r3, [r4, #80]
 108 0060 1846     		mov	r0, r3
 109 0062 A4F86260 		strh	r6, [r4, #98]	@ movhi
 110 0066 84F85250 		strb	r5, [r4, #82]
 111 006a C4F88C20 		str	r2, [r4, #140]
 112 006e 70BD     		pop	{r4, r5, r6, pc}
 114              		.section	.text.USBH_MSC_SCSI_Inquiry,"ax",%progbits
 115              		.align	1
 116              		.p2align 2,,3
 117              		.global	USBH_MSC_SCSI_Inquiry
 118              		.syntax unified
ARM GAS  D:\Programs\cygwin64\tmp\ccCzgkTt.s 			page 3


 119              		.thumb
 120              		.thumb_func
 121              		.fpu fpv4-sp-d16
 123              	USBH_MSC_SCSI_Inquiry:
 124              		@ args = 0, pretend = 0, frame = 0
 125              		@ frame_needed = 0, uses_anonymous_args = 0
 126 0000 F8B5     		push	{r3, r4, r5, r6, r7, lr}
 127 0002 D0F87432 		ldr	r3, [r0, #628]
 128 0006 DC69     		ldr	r4, [r3, #28]
 129 0008 94F85230 		ldrb	r3, [r4, #82]	@ zero_extendqisi2
 130 000c 012B     		cmp	r3, #1
 131 000e 0BD0     		beq	.L17
 132 0010 022B     		cmp	r3, #2
 133 0012 06D1     		bne	.L21
 134 0014 1646     		mov	r6, r2
 135 0016 FFF7FEFF 		bl	USBH_MSC_BOT_Process
 136 001a 0546     		mov	r5, r0
 137 001c 38B3     		cbz	r0, .L22
 138 001e 2846     		mov	r0, r5
 139 0020 F8BD     		pop	{r3, r4, r5, r6, r7, pc}
 140              	.L21:
 141 0022 0225     		movs	r5, #2
 142 0024 2846     		mov	r0, r5
 143 0026 F8BD     		pop	{r3, r4, r5, r6, r7, pc}
 144              	.L17:
 145 0028 0022     		movs	r2, #0
 146 002a 4D01     		lsls	r5, r1, #5
 147 002c 2420     		movs	r0, #36
 148 002e 8021     		movs	r1, #128
 149 0030 84F86450 		strb	r5, [r4, #100]
 150 0034 41F20A26 		movw	r6, #4618
 151 0038 1D46     		mov	r5, r3
 152 003a 84F85030 		strb	r3, [r4, #80]
 153 003e E065     		str	r0, [r4, #92]
 154 0040 84F86010 		strb	r1, [r4, #96]
 155 0044 4FF41050 		mov	r0, #9216
 156 0048 0221     		movs	r1, #2
 157 004a 04F11003 		add	r3, r4, #16
 158 004e C4F86920 		str	r2, [r4, #105]	@ unaligned
 159 0052 A4F86600 		strh	r0, [r4, #102]	@ movhi
 160 0056 84F86520 		strb	r2, [r4, #101]
 161 005a 84F86820 		strb	r2, [r4, #104]
 162 005e A4F86260 		strh	r6, [r4, #98]	@ movhi
 163 0062 84F85210 		strb	r1, [r4, #82]
 164 0066 C4F88C30 		str	r3, [r4, #140]
 165 006a 2846     		mov	r0, r5
 166 006c F8BD     		pop	{r3, r4, r5, r6, r7, pc}
 167              	.L22:
 168 006e 0146     		mov	r1, r0
 169 0070 2222     		movs	r2, #34
 170 0072 3046     		mov	r0, r6
 171 0074 FFF7FEFF 		bl	memset
 172 0078 D4F88C30 		ldr	r3, [r4, #140]
 173 007c 1B78     		ldrb	r3, [r3]	@ zero_extendqisi2
 174 007e 03F01F03 		and	r3, r3, #31
 175 0082 7370     		strb	r3, [r6, #1]
 176 0084 D4F88C30 		ldr	r3, [r4, #140]
ARM GAS  D:\Programs\cygwin64\tmp\ccCzgkTt.s 			page 4


 177 0088 1B78     		ldrb	r3, [r3]	@ zero_extendqisi2
 178 008a 5B09     		lsrs	r3, r3, #5
 179 008c 3370     		strb	r3, [r6]
 180 008e D4F88C30 		ldr	r3, [r4, #140]
 181 0092 5B78     		ldrb	r3, [r3, #1]	@ zero_extendqisi2
 182 0094 DB09     		lsrs	r3, r3, #7
 183 0096 B370     		strb	r3, [r6, #2]
 184 0098 D4F88C30 		ldr	r3, [r4, #140]
 185 009c 53F8082F 		ldr	r2, [r3, #8]!	@ unaligned
 186 00a0 5B68     		ldr	r3, [r3, #4]	@ unaligned
 187 00a2 C6F80730 		str	r3, [r6, #7]	@ unaligned
 188 00a6 C6F80320 		str	r2, [r6, #3]	@ unaligned
 189 00aa D4F88C30 		ldr	r3, [r4, #140]
 190 00ae 53F8107F 		ldr	r7, [r3, #16]!	@ unaligned
 191 00b2 5868     		ldr	r0, [r3, #4]	@ unaligned
 192 00b4 9968     		ldr	r1, [r3, #8]	@ unaligned
 193 00b6 DB68     		ldr	r3, [r3, #12]	@ unaligned
 194 00b8 B361     		str	r3, [r6, #24]	@ unaligned
 195 00ba 3061     		str	r0, [r6, #16]	@ unaligned
 196 00bc F760     		str	r7, [r6, #12]	@ unaligned
 197 00be 7161     		str	r1, [r6, #20]	@ unaligned
 198 00c0 D4F88C30 		ldr	r3, [r4, #140]
 199 00c4 1B6A     		ldr	r3, [r3, #32]	@ unaligned
 200 00c6 C6F81D30 		str	r3, [r6, #29]	@ unaligned
 201 00ca 2846     		mov	r0, r5
 202 00cc F8BD     		pop	{r3, r4, r5, r6, r7, pc}
 204              		.section	.text.USBH_MSC_SCSI_RequestSense,"ax",%progbits
 205              		.align	1
 206              		.p2align 2,,3
 207              		.global	USBH_MSC_SCSI_RequestSense
 208              		.syntax unified
 209              		.thumb
 210              		.thumb_func
 211              		.fpu fpv4-sp-d16
 213              	USBH_MSC_SCSI_RequestSense:
 214              		@ args = 0, pretend = 0, frame = 0
 215              		@ frame_needed = 0, uses_anonymous_args = 0
 216 0000 F8B5     		push	{r3, r4, r5, r6, r7, lr}
 217 0002 D0F87432 		ldr	r3, [r0, #628]
 218 0006 DC69     		ldr	r4, [r3, #28]
 219 0008 94F85230 		ldrb	r3, [r4, #82]	@ zero_extendqisi2
 220 000c 012B     		cmp	r3, #1
 221 000e 16D0     		beq	.L24
 222 0010 022B     		cmp	r3, #2
 223 0012 12D1     		bne	.L28
 224 0014 1546     		mov	r5, r2
 225 0016 FFF7FEFF 		bl	USBH_MSC_BOT_Process
 226 001a 68B9     		cbnz	r0, .L26
 227 001c D4F88C30 		ldr	r3, [r4, #140]
 228 0020 9B78     		ldrb	r3, [r3, #2]	@ zero_extendqisi2
 229 0022 03F00F03 		and	r3, r3, #15
 230 0026 2B70     		strb	r3, [r5]
 231 0028 D4F88C30 		ldr	r3, [r4, #140]
 232 002c 1B7B     		ldrb	r3, [r3, #12]	@ zero_extendqisi2
 233 002e 6B70     		strb	r3, [r5, #1]
 234 0030 D4F88C30 		ldr	r3, [r4, #140]
 235 0034 5B7B     		ldrb	r3, [r3, #13]	@ zero_extendqisi2
ARM GAS  D:\Programs\cygwin64\tmp\ccCzgkTt.s 			page 5


 236 0036 AB70     		strb	r3, [r5, #2]
 237              	.L26:
 238 0038 F8BD     		pop	{r3, r4, r5, r6, r7, pc}
 239              	.L28:
 240 003a 0220     		movs	r0, #2
 241 003c F8BD     		pop	{r3, r4, r5, r6, r7, pc}
 242              	.L24:
 243 003e 0E22     		movs	r2, #14
 244 0040 0D46     		mov	r5, r1
 245 0042 E265     		str	r2, [r4, #92]
 246 0044 0022     		movs	r2, #0
 247 0046 6D01     		lsls	r5, r5, #5
 248 0048 8020     		movs	r0, #128
 249 004a 40F20A37 		movw	r7, #778
 250 004e C4F86920 		str	r2, [r4, #105]	@ unaligned
 251 0052 C4F86D20 		str	r2, [r4, #109]	@ unaligned
 252 0056 A4F87120 		strh	r2, [r4, #113]	@ unaligned
 253 005a 4FF46066 		mov	r6, #3584
 254 005e 0221     		movs	r1, #2
 255 0060 84F86520 		strb	r2, [r4, #101]
 256 0064 84F86820 		strb	r2, [r4, #104]
 257 0068 04F11002 		add	r2, r4, #16
 258 006c 84F86000 		strb	r0, [r4, #96]
 259 0070 84F86450 		strb	r5, [r4, #100]
 260 0074 84F85030 		strb	r3, [r4, #80]
 261 0078 1846     		mov	r0, r3
 262 007a A4F86270 		strh	r7, [r4, #98]	@ movhi
 263 007e A4F86660 		strh	r6, [r4, #102]	@ movhi
 264 0082 84F85210 		strb	r1, [r4, #82]
 265 0086 C4F88C20 		str	r2, [r4, #140]
 266 008a F8BD     		pop	{r3, r4, r5, r6, r7, pc}
 268              		.section	.text.USBH_MSC_SCSI_Write,"ax",%progbits
 269              		.align	1
 270              		.p2align 2,,3
 271              		.global	USBH_MSC_SCSI_Write
 272              		.syntax unified
 273              		.thumb
 274              		.thumb_func
 275              		.fpu fpv4-sp-d16
 277              	USBH_MSC_SCSI_Write:
 278              		@ args = 4, pretend = 0, frame = 0
 279              		@ frame_needed = 0, uses_anonymous_args = 0
 280              		@ link register save eliminated.
 281 0000 F0B4     		push	{r4, r5, r6, r7}
 282 0002 D0F87442 		ldr	r4, [r0, #628]
 283 0006 049E     		ldr	r6, [sp, #16]
 284 0008 E469     		ldr	r4, [r4, #28]
 285 000a 94F85250 		ldrb	r5, [r4, #82]	@ zero_extendqisi2
 286 000e 012D     		cmp	r5, #1
 287 0010 07D0     		beq	.L30
 288 0012 022D     		cmp	r5, #2
 289 0014 02D1     		bne	.L34
 290 0016 F0BC     		pop	{r4, r5, r6, r7}
 291 0018 FFF7FEBF 		b	USBH_MSC_BOT_Process
 292              	.L34:
 293 001c 0220     		movs	r0, #2
 294 001e F0BC     		pop	{r4, r5, r6, r7}
ARM GAS  D:\Programs\cygwin64\tmp\ccCzgkTt.s 			page 6


 295 0020 7047     		bx	lr
 296              	.L30:
 297 0022 0021     		movs	r1, #0
 298 0024 100E     		lsrs	r0, r2, #24
 299 0026 0F46     		mov	r7, r1
 300 0028 60F30707 		bfi	r7, r0, #0, #8
 301 002c C2F30740 		ubfx	r0, r2, #16, #8
 302 0030 60F30F27 		bfi	r7, r0, #8, #8
 303 0034 C2F30720 		ubfx	r0, r2, #8, #8
 304 0038 60F31747 		bfi	r7, r0, #16, #8
 305 003c 62F31F67 		bfi	r7, r2, #24, #8
 306 0040 7202     		lsls	r2, r6, #9
 307 0042 C4F86310 		str	r1, [r4, #99]	@ unaligned
 308 0046 C4F86710 		str	r1, [r4, #103]	@ unaligned
 309 004a 76BA     		rev16	r6, r6
 310 004c E265     		str	r2, [r4, #92]
 311 004e C4F86B10 		str	r1, [r4, #107]	@ unaligned
 312 0052 42F60A2C 		movw	ip, #10762
 313 0056 0222     		movs	r2, #2
 314 0058 C4F86F10 		str	r1, [r4, #111]	@ unaligned
 315 005c 2846     		mov	r0, r5
 316 005e 84F86010 		strb	r1, [r4, #96]
 317 0062 C4F86570 		str	r7, [r4, #101]	@ unaligned
 318 0066 A4F86A60 		strh	r6, [r4, #106]	@ movhi
 319 006a 84F85050 		strb	r5, [r4, #80]
 320 006e C4F88C30 		str	r3, [r4, #140]
 321 0072 A4F862C0 		strh	ip, [r4, #98]	@ movhi
 322 0076 84F85220 		strb	r2, [r4, #82]
 323 007a F0BC     		pop	{r4, r5, r6, r7}
 324 007c 7047     		bx	lr
 326 007e 00BF     		.section	.text.USBH_MSC_SCSI_Read,"ax",%progbits
 327              		.align	1
 328              		.p2align 2,,3
 329              		.global	USBH_MSC_SCSI_Read
 330              		.syntax unified
 331              		.thumb
 332              		.thumb_func
 333              		.fpu fpv4-sp-d16
 335              	USBH_MSC_SCSI_Read:
 336              		@ args = 4, pretend = 0, frame = 0
 337              		@ frame_needed = 0, uses_anonymous_args = 0
 338              		@ link register save eliminated.
 339 0000 F0B4     		push	{r4, r5, r6, r7}
 340 0002 D0F87442 		ldr	r4, [r0, #628]
 341 0006 049E     		ldr	r6, [sp, #16]
 342 0008 E469     		ldr	r4, [r4, #28]
 343 000a 94F85250 		ldrb	r5, [r4, #82]	@ zero_extendqisi2
 344 000e 012D     		cmp	r5, #1
 345 0010 07D0     		beq	.L36
 346 0012 022D     		cmp	r5, #2
 347 0014 02D1     		bne	.L40
 348 0016 F0BC     		pop	{r4, r5, r6, r7}
 349 0018 FFF7FEBF 		b	USBH_MSC_BOT_Process
 350              	.L40:
 351 001c 0220     		movs	r0, #2
 352 001e F0BC     		pop	{r4, r5, r6, r7}
 353 0020 7047     		bx	lr
ARM GAS  D:\Programs\cygwin64\tmp\ccCzgkTt.s 			page 7


 354              	.L36:
 355 0022 0020     		movs	r0, #0
 356 0024 170E     		lsrs	r7, r2, #24
 357 0026 0146     		mov	r1, r0
 358 0028 67F30701 		bfi	r1, r7, #0, #8
 359 002c C2F30747 		ubfx	r7, r2, #16, #8
 360 0030 67F30F21 		bfi	r1, r7, #8, #8
 361 0034 C2F30727 		ubfx	r7, r2, #8, #8
 362 0038 67F31741 		bfi	r1, r7, #16, #8
 363 003c 4FEA462C 		lsl	ip, r6, #9
 364 0040 62F31F61 		bfi	r1, r2, #24, #8
 365 0044 8022     		movs	r2, #128
 366 0046 C4F86300 		str	r0, [r4, #99]	@ unaligned
 367 004a C4F86700 		str	r0, [r4, #103]	@ unaligned
 368 004e C4F86B00 		str	r0, [r4, #107]	@ unaligned
 369 0052 76BA     		rev16	r6, r6
 370 0054 C4F85CC0 		str	ip, [r4, #92]
 371 0058 84F86020 		strb	r2, [r4, #96]
 372 005c C4F86F00 		str	r0, [r4, #111]	@ unaligned
 373 0060 42F60A0C 		movw	ip, #10250
 374 0064 0222     		movs	r2, #2
 375 0066 2846     		mov	r0, r5
 376 0068 C4F86510 		str	r1, [r4, #101]	@ unaligned
 377 006c A4F86A60 		strh	r6, [r4, #106]	@ movhi
 378 0070 84F85050 		strb	r5, [r4, #80]
 379 0074 C4F88C30 		str	r3, [r4, #140]
 380 0078 A4F862C0 		strh	ip, [r4, #98]	@ movhi
 381 007c 84F85220 		strb	r2, [r4, #82]
 382 0080 F0BC     		pop	{r4, r5, r6, r7}
 383 0082 7047     		bx	lr
 385              		.ident	"GCC: (GNU Tools for Arm Embedded Processors 8-2018-q4-major) 8.2.1 20181213 (release) [gcc
ARM GAS  D:\Programs\cygwin64\tmp\ccCzgkTt.s 			page 8

