ARM GAS  D:\Programs\cygwin64\tmp\cc7Q1Z7b.s 			page 1


   1              		.cpu cortex-m4
   2              		.eabi_attribute 27, 1
   3              		.eabi_attribute 28, 1
   4              		.eabi_attribute 20, 1
   5              		.eabi_attribute 21, 1
   6              		.eabi_attribute 23, 3
   7              		.eabi_attribute 24, 1
   8              		.eabi_attribute 25, 1
   9              		.eabi_attribute 26, 1
  10              		.eabi_attribute 30, 2
  11              		.eabi_attribute 34, 1
  12              		.eabi_attribute 18, 4
  13              		.file	"usbh_conf.c"
  14              		.text
  15              		.section	.text.HAL_HCD_MspInit,"ax",%progbits
  16              		.align	1
  17              		.p2align 2,,3
  18              		.global	HAL_HCD_MspInit
  19              		.arch armv7e-m
  20              		.syntax unified
  21              		.thumb
  22              		.thumb_func
  23              		.fpu fpv4-sp-d16
  25              	HAL_HCD_MspInit:
  26              		@ args = 0, pretend = 0, frame = 40
  27              		@ frame_needed = 0, uses_anonymous_args = 0
  28 0000 2DE9F041 		push	{r4, r5, r6, r7, r8, lr}
  29 0004 8AB0     		sub	sp, sp, #40
  30 0006 2E4C     		ldr	r4, .L4
  31 0008 2E4F     		ldr	r7, .L4+4
  32 000a 2F4E     		ldr	r6, .L4+8
  33 000c 0025     		movs	r5, #0
  34 000e 0195     		str	r5, [sp, #4]
  35 0010 236B     		ldr	r3, [r4, #48]
  36 0012 43F00203 		orr	r3, r3, #2
  37 0016 2363     		str	r3, [r4, #48]
  38 0018 236B     		ldr	r3, [r4, #48]
  39 001a 03F00203 		and	r3, r3, #2
  40 001e 0193     		str	r3, [sp, #4]
  41 0020 019B     		ldr	r3, [sp, #4]
  42 0022 0295     		str	r5, [sp, #8]
  43 0024 236B     		ldr	r3, [r4, #48]
  44 0026 43F00403 		orr	r3, r3, #4
  45 002a 2363     		str	r3, [r4, #48]
  46 002c 236B     		ldr	r3, [r4, #48]
  47 002e 0695     		str	r5, [sp, #24]
  48 0030 03F00403 		and	r3, r3, #4
  49 0034 0293     		str	r3, [sp, #8]
  50 0036 0223     		movs	r3, #2
  51 0038 3846     		mov	r0, r7
  52 003a 04A9     		add	r1, sp, #16
  53 003c 4FF44042 		mov	r2, #49152
  54 0040 4FF00308 		mov	r8, #3
  55 0044 0593     		str	r3, [sp, #20]
  56 0046 0C23     		movs	r3, #12
  57 0048 DDF808C0 		ldr	ip, [sp, #8]
  58 004c 0492     		str	r2, [sp, #16]
ARM GAS  D:\Programs\cygwin64\tmp\cc7Q1Z7b.s 			page 2


  59 004e CDE90783 		strd	r8, r3, [sp, #28]
  60 0052 FFF7FEFF 		bl	HAL_GPIO_Init
  61 0056 4FF40052 		mov	r2, #8192
  62 005a 0023     		movs	r3, #0
  63 005c CDE90423 		strd	r2, [sp, #16]
  64 0060 3846     		mov	r0, r7
  65 0062 0022     		movs	r2, #0
  66 0064 04A9     		add	r1, sp, #16
  67 0066 0323     		movs	r3, #3
  68 0068 CDE90623 		strd	r2, [sp, #24]
  69 006c FFF7FEFF 		bl	HAL_GPIO_Init
  70 0070 0395     		str	r5, [sp, #12]
  71 0072 236B     		ldr	r3, [r4, #48]
  72 0074 43F00053 		orr	r3, r3, #536870912
  73 0078 2363     		str	r3, [r4, #48]
  74 007a 236B     		ldr	r3, [r4, #48]
  75 007c CDF81C80 		str	r8, [sp, #28]
  76 0080 03F00053 		and	r3, r3, #536870912
  77 0084 04A9     		add	r1, sp, #16
  78 0086 0393     		str	r3, [sp, #12]
  79 0088 3046     		mov	r0, r6
  80 008a 1024     		movs	r4, #16
  81 008c 0127     		movs	r7, #1
  82 008e 039B     		ldr	r3, [sp, #12]
  83 0090 0695     		str	r5, [sp, #24]
  84 0092 CDE90447 		strd	r4, r7, [sp, #16]
  85 0096 FFF7FEFF 		bl	HAL_GPIO_Init
  86 009a 3A46     		mov	r2, r7
  87 009c 2146     		mov	r1, r4
  88 009e 3046     		mov	r0, r6
  89 00a0 FFF7FEFF 		bl	HAL_GPIO_WritePin
  90 00a4 C820     		movs	r0, #200
  91 00a6 FFF7FEFF 		bl	HAL_Delay
  92 00aa 2A46     		mov	r2, r5
  93 00ac 0521     		movs	r1, #5
  94 00ae 4D20     		movs	r0, #77
  95 00b0 FFF7FEFF 		bl	HAL_NVIC_SetPriority
  96 00b4 4D20     		movs	r0, #77
  97 00b6 FFF7FEFF 		bl	HAL_NVIC_EnableIRQ
  98 00ba 0AB0     		add	sp, sp, #40
  99              		@ sp needed
 100 00bc BDE8F081 		pop	{r4, r5, r6, r7, r8, pc}
 101              	.L5:
 102              		.align	2
 103              	.L4:
 104 00c0 00380240 		.word	1073887232
 105 00c4 00040240 		.word	1073873920
 106 00c8 00080240 		.word	1073874944
 108              		.section	.text.HAL_HCD_MspDeInit,"ax",%progbits
 109              		.align	1
 110              		.p2align 2,,3
 111              		.global	HAL_HCD_MspDeInit
 112              		.syntax unified
 113              		.thumb
 114              		.thumb_func
 115              		.fpu fpv4-sp-d16
 117              	HAL_HCD_MspDeInit:
ARM GAS  D:\Programs\cygwin64\tmp\cc7Q1Z7b.s 			page 3


 118              		@ args = 0, pretend = 0, frame = 0
 119              		@ frame_needed = 0, uses_anonymous_args = 0
 120              		@ link register save eliminated.
 121 0000 024A     		ldr	r2, .L7
 122 0002 136B     		ldr	r3, [r2, #48]
 123 0004 23F00053 		bic	r3, r3, #536870912
 124 0008 1363     		str	r3, [r2, #48]
 125 000a 7047     		bx	lr
 126              	.L8:
 127              		.align	2
 128              	.L7:
 129 000c 00380240 		.word	1073887232
 131              		.section	.text.HAL_HCD_SOF_Callback,"ax",%progbits
 132              		.align	1
 133              		.p2align 2,,3
 134              		.global	HAL_HCD_SOF_Callback
 135              		.syntax unified
 136              		.thumb
 137              		.thumb_func
 138              		.fpu fpv4-sp-d16
 140              	HAL_HCD_SOF_Callback:
 141              		@ args = 0, pretend = 0, frame = 0
 142              		@ frame_needed = 0, uses_anonymous_args = 0
 143              		@ link register save eliminated.
 144 0000 D0F8C002 		ldr	r0, [r0, #704]
 145 0004 FFF7FEBF 		b	USBH_LL_IncTimer
 147              		.section	.text.HAL_HCD_Connect_Callback,"ax",%progbits
 148              		.align	1
 149              		.p2align 2,,3
 150              		.global	HAL_HCD_Connect_Callback
 151              		.syntax unified
 152              		.thumb
 153              		.thumb_func
 154              		.fpu fpv4-sp-d16
 156              	HAL_HCD_Connect_Callback:
 157              		@ args = 0, pretend = 0, frame = 0
 158              		@ frame_needed = 0, uses_anonymous_args = 0
 159              		@ link register save eliminated.
 160 0000 D0F8C002 		ldr	r0, [r0, #704]
 161 0004 FFF7FEBF 		b	USBH_LL_Connect
 163              		.section	.text.HAL_HCD_Disconnect_Callback,"ax",%progbits
 164              		.align	1
 165              		.p2align 2,,3
 166              		.global	HAL_HCD_Disconnect_Callback
 167              		.syntax unified
 168              		.thumb
 169              		.thumb_func
 170              		.fpu fpv4-sp-d16
 172              	HAL_HCD_Disconnect_Callback:
 173              		@ args = 0, pretend = 0, frame = 0
 174              		@ frame_needed = 0, uses_anonymous_args = 0
 175              		@ link register save eliminated.
 176 0000 D0F8C002 		ldr	r0, [r0, #704]
 177 0004 FFF7FEBF 		b	USBH_LL_Disconnect
 179              		.section	.text.HAL_HCD_HC_NotifyURBChange_Callback,"ax",%progbits
 180              		.align	1
 181              		.p2align 2,,3
ARM GAS  D:\Programs\cygwin64\tmp\cc7Q1Z7b.s 			page 4


 182              		.global	HAL_HCD_HC_NotifyURBChange_Callback
 183              		.syntax unified
 184              		.thumb
 185              		.thumb_func
 186              		.fpu fpv4-sp-d16
 188              	HAL_HCD_HC_NotifyURBChange_Callback:
 189              		@ args = 0, pretend = 0, frame = 0
 190              		@ frame_needed = 0, uses_anonymous_args = 0
 191              		@ link register save eliminated.
 192 0000 7047     		bx	lr
 194 0002 00BF     		.section	.text.USBH_LL_Init,"ax",%progbits
 195              		.align	1
 196              		.p2align 2,,3
 197              		.global	USBH_LL_Init
 198              		.syntax unified
 199              		.thumb
 200              		.thumb_func
 201              		.fpu fpv4-sp-d16
 203              	USBH_LL_Init:
 204              		@ args = 0, pretend = 0, frame = 0
 205              		@ frame_needed = 0, uses_anonymous_args = 0
 206 0000 F8B5     		push	{r3, r4, r5, r6, r7, lr}
 207 0002 114C     		ldr	r4, .L17
 208 0004 114B     		ldr	r3, .L17+4
 209 0006 C4F8C002 		str	r0, [r4, #704]
 210 000a 0646     		mov	r6, r0
 211 000c 0B21     		movs	r1, #11
 212 000e C0F8C042 		str	r4, [r0, #704]
 213 0012 0122     		movs	r2, #1
 214 0014 2360     		str	r3, [r4]
 215 0016 0227     		movs	r7, #2
 216 0018 0023     		movs	r3, #0
 217 001a 2046     		mov	r0, r4
 218 001c A160     		str	r1, [r4, #8]
 219 001e 6263     		str	r2, [r4, #52]
 220 0020 2361     		str	r3, [r4, #16]
 221 0022 C4E90733 		strd	r3, r3, [r4, #28]
 222 0026 E360     		str	r3, [r4, #12]
 223 0028 A761     		str	r7, [r4, #24]
 224 002a FFF7FEFF 		bl	HAL_HCD_Init
 225 002e 48B9     		cbnz	r0, .L15
 226 0030 0546     		mov	r5, r0
 227 0032 2046     		mov	r0, r4
 228 0034 FFF7FEFF 		bl	HAL_HCD_GetCurrentFrame
 229 0038 0146     		mov	r1, r0
 230 003a 3046     		mov	r0, r6
 231 003c FFF7FEFF 		bl	USBH_LL_SetTimer
 232 0040 2846     		mov	r0, r5
 233 0042 F8BD     		pop	{r3, r4, r5, r6, r7, pc}
 234              	.L15:
 235 0044 3846     		mov	r0, r7
 236 0046 F8BD     		pop	{r3, r4, r5, r6, r7, pc}
 237              	.L18:
 238              		.align	2
 239              	.L17:
 240 0048 00000000 		.word	hhcd
 241 004c 00000440 		.word	1074003968
ARM GAS  D:\Programs\cygwin64\tmp\cc7Q1Z7b.s 			page 5


 243              		.section	.text.USBH_LL_DeInit,"ax",%progbits
 244              		.align	1
 245              		.p2align 2,,3
 246              		.global	USBH_LL_DeInit
 247              		.syntax unified
 248              		.thumb
 249              		.thumb_func
 250              		.fpu fpv4-sp-d16
 252              	USBH_LL_DeInit:
 253              		@ args = 0, pretend = 0, frame = 0
 254              		@ frame_needed = 0, uses_anonymous_args = 0
 255 0000 08B5     		push	{r3, lr}
 256 0002 D0F8C002 		ldr	r0, [r0, #704]
 257 0006 FFF7FEFF 		bl	HAL_HCD_DeInit
 258 000a 0020     		movs	r0, #0
 259 000c 08BD     		pop	{r3, pc}
 261 000e 00BF     		.section	.text.USBH_LL_Start,"ax",%progbits
 262              		.align	1
 263              		.p2align 2,,3
 264              		.global	USBH_LL_Start
 265              		.syntax unified
 266              		.thumb
 267              		.thumb_func
 268              		.fpu fpv4-sp-d16
 270              	USBH_LL_Start:
 271              		@ args = 0, pretend = 0, frame = 0
 272              		@ frame_needed = 0, uses_anonymous_args = 0
 273 0000 08B5     		push	{r3, lr}
 274 0002 D0F8C002 		ldr	r0, [r0, #704]
 275 0006 FFF7FEFF 		bl	HAL_HCD_Start
 276 000a 0020     		movs	r0, #0
 277 000c 08BD     		pop	{r3, pc}
 279 000e 00BF     		.section	.text.USBH_LL_Stop,"ax",%progbits
 280              		.align	1
 281              		.p2align 2,,3
 282              		.global	USBH_LL_Stop
 283              		.syntax unified
 284              		.thumb
 285              		.thumb_func
 286              		.fpu fpv4-sp-d16
 288              	USBH_LL_Stop:
 289              		@ args = 0, pretend = 0, frame = 0
 290              		@ frame_needed = 0, uses_anonymous_args = 0
 291 0000 08B5     		push	{r3, lr}
 292 0002 D0F8C002 		ldr	r0, [r0, #704]
 293 0006 FFF7FEFF 		bl	HAL_HCD_Stop
 294 000a 0020     		movs	r0, #0
 295 000c 08BD     		pop	{r3, pc}
 297 000e 00BF     		.section	.text.USBH_LL_GetSpeed,"ax",%progbits
 298              		.align	1
 299              		.p2align 2,,3
 300              		.global	USBH_LL_GetSpeed
 301              		.syntax unified
 302              		.thumb
 303              		.thumb_func
 304              		.fpu fpv4-sp-d16
 306              	USBH_LL_GetSpeed:
ARM GAS  D:\Programs\cygwin64\tmp\cc7Q1Z7b.s 			page 6


 307              		@ args = 0, pretend = 0, frame = 0
 308              		@ frame_needed = 0, uses_anonymous_args = 0
 309 0000 08B5     		push	{r3, lr}
 310 0002 D0F8C002 		ldr	r0, [r0, #704]
 311 0006 FFF7FEFF 		bl	HAL_HCD_GetCurrentSpeed
 312 000a 0128     		cmp	r0, #1
 313 000c 03D0     		beq	.L26
 314 000e 0228     		cmp	r0, #2
 315 0010 0CBF     		ite	eq
 316 0012 0220     		moveq	r0, #2
 317 0014 0020     		movne	r0, #0
 318              	.L26:
 319 0016 08BD     		pop	{r3, pc}
 321              		.section	.text.USBH_LL_ResetPort,"ax",%progbits
 322              		.align	1
 323              		.p2align 2,,3
 324              		.global	USBH_LL_ResetPort
 325              		.syntax unified
 326              		.thumb
 327              		.thumb_func
 328              		.fpu fpv4-sp-d16
 330              	USBH_LL_ResetPort:
 331              		@ args = 0, pretend = 0, frame = 0
 332              		@ frame_needed = 0, uses_anonymous_args = 0
 333 0000 08B5     		push	{r3, lr}
 334 0002 D0F8C002 		ldr	r0, [r0, #704]
 335 0006 FFF7FEFF 		bl	HAL_HCD_ResetPort
 336 000a 0020     		movs	r0, #0
 337 000c 08BD     		pop	{r3, pc}
 339 000e 00BF     		.section	.text.USBH_LL_GetLastXferSize,"ax",%progbits
 340              		.align	1
 341              		.p2align 2,,3
 342              		.global	USBH_LL_GetLastXferSize
 343              		.syntax unified
 344              		.thumb
 345              		.thumb_func
 346              		.fpu fpv4-sp-d16
 348              	USBH_LL_GetLastXferSize:
 349              		@ args = 0, pretend = 0, frame = 0
 350              		@ frame_needed = 0, uses_anonymous_args = 0
 351              		@ link register save eliminated.
 352 0000 D0F8C002 		ldr	r0, [r0, #704]
 353 0004 FFF7FEBF 		b	HAL_HCD_HC_GetXferCount
 355              		.section	.text.USBH_LL_OpenPipe,"ax",%progbits
 356              		.align	1
 357              		.p2align 2,,3
 358              		.global	USBH_LL_OpenPipe
 359              		.syntax unified
 360              		.thumb
 361              		.thumb_func
 362              		.fpu fpv4-sp-d16
 364              	USBH_LL_OpenPipe:
 365              		@ args = 12, pretend = 0, frame = 0
 366              		@ frame_needed = 0, uses_anonymous_args = 0
 367 0000 30B5     		push	{r4, r5, lr}
 368 0002 85B0     		sub	sp, sp, #20
 369 0004 D0F8C002 		ldr	r0, [r0, #704]
ARM GAS  D:\Programs\cygwin64\tmp\cc7Q1Z7b.s 			page 7


 370 0008 9DF82040 		ldrb	r4, [sp, #32]	@ zero_extendqisi2
 371 000c 9DF82450 		ldrb	r5, [sp, #36]	@ zero_extendqisi2
 372 0010 0094     		str	r4, [sp]
 373 0012 BDF82840 		ldrh	r4, [sp, #40]
 374 0016 CDE90154 		strd	r5, r4, [sp, #4]
 375 001a FFF7FEFF 		bl	HAL_HCD_HC_Init
 376 001e 0020     		movs	r0, #0
 377 0020 05B0     		add	sp, sp, #20
 378              		@ sp needed
 379 0022 30BD     		pop	{r4, r5, pc}
 381              		.section	.text.USBH_LL_ClosePipe,"ax",%progbits
 382              		.align	1
 383              		.p2align 2,,3
 384              		.global	USBH_LL_ClosePipe
 385              		.syntax unified
 386              		.thumb
 387              		.thumb_func
 388              		.fpu fpv4-sp-d16
 390              	USBH_LL_ClosePipe:
 391              		@ args = 0, pretend = 0, frame = 0
 392              		@ frame_needed = 0, uses_anonymous_args = 0
 393 0000 08B5     		push	{r3, lr}
 394 0002 D0F8C002 		ldr	r0, [r0, #704]
 395 0006 FFF7FEFF 		bl	HAL_HCD_HC_Halt
 396 000a 0020     		movs	r0, #0
 397 000c 08BD     		pop	{r3, pc}
 399 000e 00BF     		.section	.text.USBH_LL_SubmitURB,"ax",%progbits
 400              		.align	1
 401              		.p2align 2,,3
 402              		.global	USBH_LL_SubmitURB
 403              		.syntax unified
 404              		.thumb
 405              		.thumb_func
 406              		.fpu fpv4-sp-d16
 408              	USBH_LL_SubmitURB:
 409              		@ args = 16, pretend = 0, frame = 0
 410              		@ frame_needed = 0, uses_anonymous_args = 0
 411 0000 30B5     		push	{r4, r5, lr}
 412 0002 85B0     		sub	sp, sp, #20
 413 0004 D0F8C002 		ldr	r0, [r0, #704]
 414 0008 9DF82050 		ldrb	r5, [sp, #32]	@ zero_extendqisi2
 415 000c 099C     		ldr	r4, [sp, #36]
 416 000e 0095     		str	r5, [sp]
 417 0010 0194     		str	r4, [sp, #4]
 418 0012 BDF82850 		ldrh	r5, [sp, #40]
 419 0016 9DF82C40 		ldrb	r4, [sp, #44]	@ zero_extendqisi2
 420 001a CDE90254 		strd	r5, r4, [sp, #8]
 421 001e FFF7FEFF 		bl	HAL_HCD_HC_SubmitRequest
 422 0022 0020     		movs	r0, #0
 423 0024 05B0     		add	sp, sp, #20
 424              		@ sp needed
 425 0026 30BD     		pop	{r4, r5, pc}
 427              		.section	.text.USBH_LL_GetURBState,"ax",%progbits
 428              		.align	1
 429              		.p2align 2,,3
 430              		.global	USBH_LL_GetURBState
 431              		.syntax unified
ARM GAS  D:\Programs\cygwin64\tmp\cc7Q1Z7b.s 			page 8


 432              		.thumb
 433              		.thumb_func
 434              		.fpu fpv4-sp-d16
 436              	USBH_LL_GetURBState:
 437              		@ args = 0, pretend = 0, frame = 0
 438              		@ frame_needed = 0, uses_anonymous_args = 0
 439              		@ link register save eliminated.
 440 0000 D0F8C002 		ldr	r0, [r0, #704]
 441 0004 FFF7FEBF 		b	HAL_HCD_HC_GetURBState
 443              		.section	.text.USBH_LL_DriverVBUS,"ax",%progbits
 444              		.align	1
 445              		.p2align 2,,3
 446              		.global	USBH_LL_DriverVBUS
 447              		.syntax unified
 448              		.thumb
 449              		.thumb_func
 450              		.fpu fpv4-sp-d16
 452              	USBH_LL_DriverVBUS:
 453              		@ args = 0, pretend = 0, frame = 0
 454              		@ frame_needed = 0, uses_anonymous_args = 0
 455 0000 08B5     		push	{r3, lr}
 456 0002 49B9     		cbnz	r1, .L41
 457 0004 0122     		movs	r2, #1
 458 0006 1021     		movs	r1, #16
 459 0008 0848     		ldr	r0, .L44
 460 000a FFF7FEFF 		bl	HAL_GPIO_WritePin
 461 000e C820     		movs	r0, #200
 462 0010 FFF7FEFF 		bl	HAL_Delay
 463 0014 0020     		movs	r0, #0
 464 0016 08BD     		pop	{r3, pc}
 465              	.L41:
 466 0018 0022     		movs	r2, #0
 467 001a 1021     		movs	r1, #16
 468 001c 0348     		ldr	r0, .L44
 469 001e FFF7FEFF 		bl	HAL_GPIO_WritePin
 470 0022 C820     		movs	r0, #200
 471 0024 FFF7FEFF 		bl	HAL_Delay
 472 0028 0020     		movs	r0, #0
 473 002a 08BD     		pop	{r3, pc}
 474              	.L45:
 475              		.align	2
 476              	.L44:
 477 002c 00080240 		.word	1073874944
 479              		.section	.text.USBH_LL_SetToggle,"ax",%progbits
 480              		.align	1
 481              		.p2align 2,,3
 482              		.global	USBH_LL_SetToggle
 483              		.syntax unified
 484              		.thumb
 485              		.thumb_func
 486              		.fpu fpv4-sp-d16
 488              	USBH_LL_SetToggle:
 489              		@ args = 0, pretend = 0, frame = 0
 490              		@ frame_needed = 0, uses_anonymous_args = 0
 491              		@ link register save eliminated.
 492 0000 074B     		ldr	r3, .L49
 493 0002 01EB8101 		add	r1, r1, r1, lsl #2
ARM GAS  D:\Programs\cygwin64\tmp\cc7Q1Z7b.s 			page 9


 494 0006 03EBC101 		add	r1, r3, r1, lsl #3
 495 000a 91F83B30 		ldrb	r3, [r1, #59]	@ zero_extendqisi2
 496 000e 1BB1     		cbz	r3, .L47
 497 0010 81F85020 		strb	r2, [r1, #80]
 498 0014 0020     		movs	r0, #0
 499 0016 7047     		bx	lr
 500              	.L47:
 501 0018 81F85120 		strb	r2, [r1, #81]
 502 001c 0020     		movs	r0, #0
 503 001e 7047     		bx	lr
 504              	.L50:
 505              		.align	2
 506              	.L49:
 507 0020 00000000 		.word	hhcd
 509              		.section	.text.USBH_LL_GetToggle,"ax",%progbits
 510              		.align	1
 511              		.p2align 2,,3
 512              		.global	USBH_LL_GetToggle
 513              		.syntax unified
 514              		.thumb
 515              		.thumb_func
 516              		.fpu fpv4-sp-d16
 518              	USBH_LL_GetToggle:
 519              		@ args = 0, pretend = 0, frame = 0
 520              		@ frame_needed = 0, uses_anonymous_args = 0
 521              		@ link register save eliminated.
 522 0000 064B     		ldr	r3, .L54
 523 0002 01EB8101 		add	r1, r1, r1, lsl #2
 524 0006 03EBC101 		add	r1, r3, r1, lsl #3
 525 000a 91F83B30 		ldrb	r3, [r1, #59]	@ zero_extendqisi2
 526 000e 13B1     		cbz	r3, .L52
 527 0010 91F85000 		ldrb	r0, [r1, #80]	@ zero_extendqisi2
 528 0014 7047     		bx	lr
 529              	.L52:
 530 0016 91F85100 		ldrb	r0, [r1, #81]	@ zero_extendqisi2
 531 001a 7047     		bx	lr
 532              	.L55:
 533              		.align	2
 534              	.L54:
 535 001c 00000000 		.word	hhcd
 537              		.section	.text.USBH_Delay,"ax",%progbits
 538              		.align	1
 539              		.p2align 2,,3
 540              		.global	USBH_Delay
 541              		.syntax unified
 542              		.thumb
 543              		.thumb_func
 544              		.fpu fpv4-sp-d16
 546              	USBH_Delay:
 547              		@ args = 0, pretend = 0, frame = 0
 548              		@ frame_needed = 0, uses_anonymous_args = 0
 549              		@ link register save eliminated.
 550 0000 FFF7FEBF 		b	HAL_Delay
 552              		.comm	hhcd,708,4
 553              		.ident	"GCC: (GNU Tools for Arm Embedded Processors 8-2018-q4-major) 8.2.1 20181213 (release) [gcc
ARM GAS  D:\Programs\cygwin64\tmp\cc7Q1Z7b.s 			page 10

