ARM GAS  D:\Programs\cygwin64\tmp\cc05Abjn.s 			page 1


   1              		.cpu cortex-m4
   2              		.eabi_attribute 27, 1
   3              		.eabi_attribute 28, 1
   4              		.eabi_attribute 20, 1
   5              		.eabi_attribute 21, 1
   6              		.eabi_attribute 23, 3
   7              		.eabi_attribute 24, 1
   8              		.eabi_attribute 25, 1
   9              		.eabi_attribute 26, 1
  10              		.eabi_attribute 30, 2
  11              		.eabi_attribute 34, 1
  12              		.eabi_attribute 18, 4
  13              		.file	"usbh_msc.c"
  14              		.text
  15              		.section	.text.USBH_MSC_SOFProcess,"ax",%progbits
  16              		.align	1
  17              		.p2align 2,,3
  18              		.arch armv7e-m
  19              		.syntax unified
  20              		.thumb
  21              		.thumb_func
  22              		.fpu fpv4-sp-d16
  24              	USBH_MSC_SOFProcess:
  25              		@ args = 0, pretend = 0, frame = 0
  26              		@ frame_needed = 0, uses_anonymous_args = 0
  27              		@ link register save eliminated.
  28 0000 0020     		movs	r0, #0
  29 0002 7047     		bx	lr
  31              		.section	.text.USBH_MSC_Process,"ax",%progbits
  32              		.align	1
  33              		.p2align 2,,3
  34              		.syntax unified
  35              		.thumb
  36              		.thumb_func
  37              		.fpu fpv4-sp-d16
  39              	USBH_MSC_Process:
  40              		@ args = 0, pretend = 0, frame = 0
  41              		@ frame_needed = 0, uses_anonymous_args = 0
  42 0000 D0F87432 		ldr	r3, [r0, #628]
  43 0004 70B5     		push	{r4, r5, r6, lr}
  44 0006 DC69     		ldr	r4, [r3, #28]
  45 0008 237B     		ldrb	r3, [r4, #12]	@ zero_extendqisi2
  46 000a 2BB1     		cbz	r3, .L4
  47 000c 012B     		cmp	r3, #1
  48 000e 01D0     		beq	.L26
  49              	.L30:
  50 0010 0120     		movs	r0, #1
  51 0012 70BD     		pop	{r4, r5, r6, pc}
  52              	.L26:
  53 0014 0020     		movs	r0, #0
  54 0016 70BD     		pop	{r4, r5, r6, pc}
  55              	.L4:
  56 0018 B4F8F810 		ldrh	r1, [r4, #248]
  57 001c 2268     		ldr	r2, [r4]
  58 001e 9142     		cmp	r1, r2
  59 0020 0646     		mov	r6, r0
  60 0022 1FD2     		bcs	.L7
ARM GAS  D:\Programs\cygwin64\tmp\cc05Abjn.s 			page 2


  61 0024 3423     		movs	r3, #52
  62 0026 03FB0143 		mla	r3, r3, r1, r4
  63 002a 0120     		movs	r0, #1
  64 002c 93F89020 		ldrb	r2, [r3, #144]	@ zero_extendqisi2
  65 0030 83F89100 		strb	r0, [r3, #145]
  66 0034 082A     		cmp	r2, #8
  67 0036 EBD8     		bhi	.L30
  68 0038 01A3     		adr	r3, .L9
  69 003a 53F822F0 		ldr	pc, [r3, r2, lsl #2]
  70 003e 00BF     		.p2align 2
  71              	.L9:
  72 0040 79000000 		.word	.L14+1
  73 0044 11000000 		.word	.L30+1
  74 0048 DD000000 		.word	.L13+1
  75 004c B3000000 		.word	.L12+1
  76 0050 8D000000 		.word	.L11+1
  77 0054 19010000 		.word	.L10+1
  78 0058 11000000 		.word	.L30+1
  79 005c 11000000 		.word	.L30+1
  80 0060 0F010000 		.word	.L8+1
  81              		.p2align 1
  82              	.L7:
  83 0064 0125     		movs	r5, #1
  84 0066 A4F8F830 		strh	r3, [r4, #248]	@ movhi
  85 006a 0221     		movs	r1, #2
  86 006c D0F8C432 		ldr	r3, [r0, #708]
  87 0070 2573     		strb	r5, [r4, #12]
  88 0072 9847     		blx	r3
  89 0074 2846     		mov	r0, r5
  90 0076 70BD     		pop	{r4, r5, r6, pc}
  91              	.L14:
  92 0078 3423     		movs	r3, #52
  93 007a 03FB0143 		mla	r3, r3, r1, r4
  94 007e D6F8B822 		ldr	r2, [r6, #696]
  95 0082 0420     		movs	r0, #4
  96 0084 83F89000 		strb	r0, [r3, #144]
  97 0088 C4F8FC20 		str	r2, [r4, #252]
  98              	.L11:
  99 008c 3425     		movs	r5, #52
 100 008e 05FB0142 		mla	r2, r5, r1, r4
 101 0092 3046     		mov	r0, r6
 102 0094 9F32     		adds	r2, r2, #159
 103 0096 C9B2     		uxtb	r1, r1
 104 0098 FFF7FEFF 		bl	USBH_MSC_SCSI_Inquiry
 105 009c 0028     		cmp	r0, #0
 106 009e 59D1     		bne	.L15
 107 00a0 B4F8F830 		ldrh	r3, [r4, #248]
 108 00a4 05FB0344 		mla	r4, r5, r3, r4
 109 00a8 0223     		movs	r3, #2
 110 00aa 84F89030 		strb	r3, [r4, #144]
 111 00ae 0120     		movs	r0, #1
 112 00b0 70BD     		pop	{r4, r5, r6, pc}
 113              	.L12:
 114 00b2 3425     		movs	r5, #52
 115 00b4 05FB0142 		mla	r2, r5, r1, r4
 116 00b8 3046     		mov	r0, r6
 117 00ba 9432     		adds	r2, r2, #148
ARM GAS  D:\Programs\cygwin64\tmp\cc05Abjn.s 			page 3


 118 00bc C9B2     		uxtb	r1, r1
 119 00be FFF7FEFF 		bl	USBH_MSC_SCSI_ReadCapacity
 120 00c2 0028     		cmp	r0, #0
 121 00c4 74D1     		bne	.L21
 122 00c6 B4F8F830 		ldrh	r3, [r4, #248]
 123 00ca 05FB0345 		mla	r5, r5, r3, r4
 124 00ce 0120     		movs	r0, #1
 125 00d0 0133     		adds	r3, r3, #1
 126 00d2 A5F89000 		strh	r0, [r5, #144]	@ movhi
 127 00d6 A4F8F830 		strh	r3, [r4, #248]	@ movhi
 128 00da 70BD     		pop	{r4, r5, r6, pc}
 129              	.L13:
 130 00dc C9B2     		uxtb	r1, r1
 131 00de 3046     		mov	r0, r6
 132 00e0 FFF7FEFF 		bl	USBH_MSC_SCSI_TestUnitReady
 133 00e4 0028     		cmp	r0, #0
 134 00e6 4DD1     		bne	.L18
 135 00e8 B4F8F830 		ldrh	r3, [r4, #248]
 136 00ec 3422     		movs	r2, #52
 137 00ee 02FB0344 		mla	r4, r2, r3, r4
 138 00f2 0322     		movs	r2, #3
 139 00f4 94F89230 		ldrb	r3, [r4, #146]	@ zero_extendqisi2
 140 00f8 A4F89020 		strh	r2, [r4, #144]	@ movhi
 141 00fc 0033     		adds	r3, r3, #0
 142 00fe 18BF     		it	ne
 143 0100 0123     		movne	r3, #1
 144 0102 84F8C130 		strb	r3, [r4, #193]
 145 0106 84F89200 		strb	r0, [r4, #146]
 146 010a 0120     		movs	r0, #1
 147 010c 70BD     		pop	{r4, r5, r6, pc}
 148              	.L8:
 149 010e 0131     		adds	r1, r1, #1
 150 0110 A4F8F810 		strh	r1, [r4, #248]	@ movhi
 151 0114 0120     		movs	r0, #1
 152 0116 70BD     		pop	{r4, r5, r6, pc}
 153              	.L10:
 154 0118 3425     		movs	r5, #52
 155 011a 05FB0142 		mla	r2, r5, r1, r4
 156 011e 9C32     		adds	r2, r2, #156
 157 0120 C9B2     		uxtb	r1, r1
 158 0122 3046     		mov	r0, r6
 159 0124 FFF7FEFF 		bl	USBH_MSC_SCSI_RequestSense
 160 0128 0028     		cmp	r0, #0
 161 012a 47D1     		bne	.L23
 162 012c B4F8F830 		ldrh	r3, [r4, #248]
 163 0130 05FB0345 		mla	r5, r5, r3, r4
 164 0134 95F89C20 		ldrb	r2, [r5, #156]	@ zero_extendqisi2
 165 0138 02F0FB02 		and	r2, r2, #251
 166 013c 022A     		cmp	r2, #2
 167 013e 48D0     		beq	.L32
 168              	.L24:
 169 0140 3422     		movs	r2, #52
 170 0142 02FB0342 		mla	r2, r2, r3, r4
 171 0146 0120     		movs	r0, #1
 172 0148 0133     		adds	r3, r3, #1
 173 014a 82F89000 		strb	r0, [r2, #144]
 174 014e A4F8F830 		strh	r3, [r4, #248]	@ movhi
ARM GAS  D:\Programs\cygwin64\tmp\cc05Abjn.s 			page 4


 175 0152 70BD     		pop	{r4, r5, r6, pc}
 176              	.L15:
 177 0154 0228     		cmp	r0, #2
 178 0156 08D1     		bne	.L25
 179              	.L31:
 180 0158 B4F8F830 		ldrh	r3, [r4, #248]
 181 015c 05FB0344 		mla	r4, r5, r3, r4
 182 0160 0523     		movs	r3, #5
 183 0162 84F89030 		strb	r3, [r4, #144]
 184 0166 0120     		movs	r0, #1
 185 0168 70BD     		pop	{r4, r5, r6, pc}
 186              	.L25:
 187 016a 0428     		cmp	r0, #4
 188 016c 7FF450AF 		bne	.L30
 189              	.L29:
 190 0170 B4F8F830 		ldrh	r3, [r4, #248]
 191 0174 05FB0344 		mla	r4, r5, r3, r4
 192 0178 40F20123 		movw	r3, #513
 193 017c A4F89030 		strh	r3, [r4, #144]	@ movhi
 194 0180 0120     		movs	r0, #1
 195 0182 70BD     		pop	{r4, r5, r6, pc}
 196              	.L18:
 197 0184 0228     		cmp	r0, #2
 198 0186 30D1     		bne	.L19
 199 0188 B4F8F830 		ldrh	r3, [r4, #248]
 200 018c 3422     		movs	r2, #52
 201 018e 02FB0344 		mla	r4, r2, r3, r4
 202 0192 40F20512 		movw	r2, #261
 203 0196 94F89230 		ldrb	r3, [r4, #146]	@ zero_extendqisi2
 204 019a A4F89020 		strh	r2, [r4, #144]	@ movhi
 205 019e 023B     		subs	r3, r3, #2
 206 01a0 18BF     		it	ne
 207 01a2 0123     		movne	r3, #1
 208 01a4 84F8C130 		strb	r3, [r4, #193]
 209 01a8 84F89200 		strb	r0, [r4, #146]
 210 01ac 0120     		movs	r0, #1
 211 01ae 70BD     		pop	{r4, r5, r6, pc}
 212              	.L21:
 213 01b0 0228     		cmp	r0, #2
 214 01b2 D1D0     		beq	.L31
 215 01b4 0428     		cmp	r0, #4
 216 01b6 7FF42BAF 		bne	.L30
 217 01ba D9E7     		b	.L29
 218              	.L23:
 219 01bc 0228     		cmp	r0, #2
 220 01be D4D1     		bne	.L25
 221 01c0 B4F8F830 		ldrh	r3, [r4, #248]
 222 01c4 05FB0344 		mla	r4, r5, r3, r4
 223 01c8 0823     		movs	r3, #8
 224 01ca 84F89030 		strb	r3, [r4, #144]
 225 01ce 0120     		movs	r0, #1
 226 01d0 70BD     		pop	{r4, r5, r6, pc}
 227              	.L32:
 228 01d2 D4F8FC00 		ldr	r0, [r4, #252]
 229 01d6 D6F8B812 		ldr	r1, [r6, #696]
 230 01da 091A     		subs	r1, r1, r0
 231 01dc 42F20F70 		movw	r0, #9999
ARM GAS  D:\Programs\cygwin64\tmp\cc05Abjn.s 			page 5


 232 01e0 8142     		cmp	r1, r0
 233 01e2 ADD8     		bhi	.L24
 234 01e4 85F89020 		strb	r2, [r5, #144]
 235 01e8 12E7     		b	.L30
 236              	.L19:
 237 01ea 0428     		cmp	r0, #4
 238 01ec 7FF410AF 		bne	.L30
 239 01f0 B4F8F830 		ldrh	r3, [r4, #248]
 240 01f4 3422     		movs	r2, #52
 241 01f6 02FB0344 		mla	r4, r2, r3, r4
 242 01fa 40F20123 		movw	r3, #513
 243 01fe A4F89030 		strh	r3, [r4, #144]	@ movhi
 244 0202 0120     		movs	r0, #1
 245 0204 70BD     		pop	{r4, r5, r6, pc}
 247 0206 00BF     		.section	.text.USBH_MSC_ClassRequest,"ax",%progbits
 248              		.align	1
 249              		.p2align 2,,3
 250              		.syntax unified
 251              		.thumb
 252              		.thumb_func
 253              		.fpu fpv4-sp-d16
 255              	USBH_MSC_ClassRequest:
 256              		@ args = 0, pretend = 0, frame = 0
 257              		@ frame_needed = 0, uses_anonymous_args = 0
 258 0000 D0F87432 		ldr	r3, [r0, #628]
 259 0004 70B5     		push	{r4, r5, r6, lr}
 260 0006 DC69     		ldr	r4, [r3, #28]
 261 0008 A37B     		ldrb	r3, [r4, #14]	@ zero_extendqisi2
 262 000a 022B     		cmp	r3, #2
 263 000c 0246     		mov	r2, r0
 264 000e 04D0     		beq	.L34
 265 0010 032B     		cmp	r3, #3
 266 0012 1DD0     		beq	.L35
 267 0014 0BB1     		cbz	r3, .L34
 268              	.L41:
 269 0016 0120     		movs	r0, #1
 270              	.L36:
 271 0018 70BD     		pop	{r4, r5, r6, pc}
 272              	.L34:
 273 001a 1046     		mov	r0, r2
 274 001c 2146     		mov	r1, r4
 275 001e FFF7FEFF 		bl	USBH_MSC_BOT_REQ_GetMaxLUN
 276 0022 0328     		cmp	r0, #3
 277 0024 1DD0     		beq	.L40
 278 0026 0028     		cmp	r0, #0
 279 0028 F6D1     		bne	.L36
 280 002a 2178     		ldrb	r1, [r4]	@ zero_extendqisi2
 281 002c 0131     		adds	r1, r1, #1
 282              	.L37:
 283 002e 0023     		movs	r3, #0
 284 0030 2160     		str	r1, [r4]
 285 0032 1E46     		mov	r6, r3
 286 0034 3425     		movs	r5, #52
 287 0036 0220     		movs	r0, #2
 288              	.L38:
 289 0038 05FB0342 		mla	r2, r5, r3, r4
 290 003c 0133     		adds	r3, r3, #1
ARM GAS  D:\Programs\cygwin64\tmp\cc05Abjn.s 			page 6


 291 003e DBB2     		uxtb	r3, r3
 292 0040 8B42     		cmp	r3, r1
 293 0042 82F89200 		strb	r0, [r2, #146]
 294 0046 82F8C160 		strb	r6, [r2, #193]
 295 004a F5D3     		bcc	.L38
 296 004c 0020     		movs	r0, #0
 297 004e 70BD     		pop	{r4, r5, r6, pc}
 298              	.L35:
 299 0050 0021     		movs	r1, #0
 300 0052 FFF7FEFF 		bl	USBH_ClrFeature
 301 0056 0028     		cmp	r0, #0
 302 0058 DDD1     		bne	.L41
 303 005a E37B     		ldrb	r3, [r4, #15]	@ zero_extendqisi2
 304 005c A373     		strb	r3, [r4, #14]
 305 005e 0120     		movs	r0, #1
 306 0060 70BD     		pop	{r4, r5, r6, pc}
 307              	.L40:
 308 0062 0121     		movs	r1, #1
 309 0064 E3E7     		b	.L37
 311 0066 00BF     		.section	.text.USBH_MSC_InterfaceDeInit,"ax",%progbits
 312              		.align	1
 313              		.p2align 2,,3
 314              		.syntax unified
 315              		.thumb
 316              		.thumb_func
 317              		.fpu fpv4-sp-d16
 319              	USBH_MSC_InterfaceDeInit:
 320              		@ args = 0, pretend = 0, frame = 0
 321              		@ frame_needed = 0, uses_anonymous_args = 0
 322 0000 38B5     		push	{r3, r4, r5, lr}
 323 0002 D0F87432 		ldr	r3, [r0, #628]
 324 0006 DC69     		ldr	r4, [r3, #28]
 325 0008 6179     		ldrb	r1, [r4, #5]	@ zero_extendqisi2
 326 000a 0546     		mov	r5, r0
 327 000c 51B9     		cbnz	r1, .L62
 328 000e 2179     		ldrb	r1, [r4, #4]	@ zero_extendqisi2
 329 0010 91B9     		cbnz	r1, .L51
 330              	.L52:
 331 0012 2046     		mov	r0, r4
 332 0014 FFF7FEFF 		bl	free
 333 0018 D5F87432 		ldr	r3, [r5, #628]
 334 001c 0022     		movs	r2, #0
 335 001e DA61     		str	r2, [r3, #28]
 336 0020 0020     		movs	r0, #0
 337 0022 38BD     		pop	{r3, r4, r5, pc}
 338              	.L62:
 339 0024 FFF7FEFF 		bl	USBH_ClosePipe
 340 0028 6179     		ldrb	r1, [r4, #5]	@ zero_extendqisi2
 341 002a 2846     		mov	r0, r5
 342 002c FFF7FEFF 		bl	USBH_FreePipe
 343 0030 2179     		ldrb	r1, [r4, #4]	@ zero_extendqisi2
 344 0032 0023     		movs	r3, #0
 345 0034 6371     		strb	r3, [r4, #5]
 346 0036 41B1     		cbz	r1, .L49
 347              	.L51:
 348 0038 2846     		mov	r0, r5
 349 003a FFF7FEFF 		bl	USBH_ClosePipe
ARM GAS  D:\Programs\cygwin64\tmp\cc05Abjn.s 			page 7


 350 003e 2179     		ldrb	r1, [r4, #4]	@ zero_extendqisi2
 351 0040 2846     		mov	r0, r5
 352 0042 FFF7FEFF 		bl	USBH_FreePipe
 353 0046 0023     		movs	r3, #0
 354 0048 2371     		strb	r3, [r4, #4]
 355              	.L49:
 356 004a D5F87432 		ldr	r3, [r5, #628]
 357 004e DC69     		ldr	r4, [r3, #28]
 358 0050 002C     		cmp	r4, #0
 359 0052 DED1     		bne	.L52
 360 0054 0020     		movs	r0, #0
 361 0056 38BD     		pop	{r3, r4, r5, pc}
 363              		.section	.text.USBH_MSC_InterfaceInit,"ax",%progbits
 364              		.align	1
 365              		.p2align 2,,3
 366              		.syntax unified
 367              		.thumb
 368              		.thumb_func
 369              		.fpu fpv4-sp-d16
 371              	USBH_MSC_InterfaceInit:
 372              		@ args = 0, pretend = 0, frame = 0
 373              		@ frame_needed = 0, uses_anonymous_args = 0
 374 0000 F0B5     		push	{r4, r5, r6, r7, lr}
 375 0002 D0F87412 		ldr	r1, [r0, #628]
 376 0006 85B0     		sub	sp, sp, #20
 377 0008 5023     		movs	r3, #80
 378 000a 0622     		movs	r2, #6
 379 000c 0979     		ldrb	r1, [r1, #4]	@ zero_extendqisi2
 380 000e 0546     		mov	r5, r0
 381 0010 FFF7FEFF 		bl	USBH_FindInterface
 382 0014 FF28     		cmp	r0, #255
 383 0016 6AD0     		beq	.L69
 384 0018 0146     		mov	r1, r0
 385 001a 2846     		mov	r0, r5
 386 001c FFF7FEFF 		bl	USBH_SelectInterface
 387 0020 4FF48070 		mov	r0, #256
 388 0024 D5F87462 		ldr	r6, [r5, #628]
 389 0028 FFF7FEFF 		bl	malloc
 390 002c F061     		str	r0, [r6, #28]
 391 002e 95F81F32 		ldrb	r3, [r5, #543]	@ zero_extendqisi2
 392 0032 1A22     		movs	r2, #26
 393 0034 02FB0352 		mla	r2, r2, r3, r5
 394 0038 0446     		mov	r4, r0
 395 003a 92F84812 		ldrb	r1, [r2, #584]	@ zero_extendqisi2
 396 003e B2F84A22 		ldrh	r2, [r2, #586]
 397 0042 0806     		lsls	r0, r1, #24
 398 0044 4CBF     		ite	mi
 399 0046 6281     		strhmi	r2, [r4, #10]	@ movhi
 400 0048 2281     		strhpl	r2, [r4, #8]	@ movhi
 401 004a 4FF01A02 		mov	r2, #26
 402 004e 02FB0353 		mla	r3, r2, r3, r5
 403 0052 4CBF     		ite	mi
 404 0054 E171     		strbmi	r1, [r4, #7]
 405 0056 A171     		strbpl	r1, [r4, #6]
 406 0058 93F85012 		ldrb	r1, [r3, #592]	@ zero_extendqisi2
 407 005c B3F85232 		ldrh	r3, [r3, #594]
 408 0060 0A06     		lsls	r2, r1, #24
ARM GAS  D:\Programs\cygwin64\tmp\cc05Abjn.s 			page 8


 409 0062 40D4     		bmi	.L71
 410 0064 A171     		strb	r1, [r4, #6]
 411 0066 2381     		strh	r3, [r4, #8]	@ movhi
 412              	.L68:
 413 0068 0026     		movs	r6, #0
 414 006a 2846     		mov	r0, r5
 415 006c C4F8F860 		str	r6, [r4, #248]
 416 0070 A681     		strh	r6, [r4, #12]	@ movhi
 417 0072 A673     		strb	r6, [r4, #14]
 418 0074 FFF7FEFF 		bl	USBH_AllocPipe
 419 0078 E179     		ldrb	r1, [r4, #7]	@ zero_extendqisi2
 420 007a 6071     		strb	r0, [r4, #5]
 421 007c 2846     		mov	r0, r5
 422 007e FFF7FEFF 		bl	USBH_AllocPipe
 423 0082 2071     		strb	r0, [r4, #4]
 424 0084 2846     		mov	r0, r5
 425 0086 FFF7FEFF 		bl	USBH_MSC_BOT_Init
 426 008a 3146     		mov	r1, r6
 427 008c 6822     		movs	r2, #104
 428 008e 04F19000 		add	r0, r4, #144
 429 0092 FFF7FEFF 		bl	memset
 430 0096 2289     		ldrh	r2, [r4, #8]
 431 0098 95F81D32 		ldrb	r3, [r5, #541]	@ zero_extendqisi2
 432 009c 0093     		str	r3, [sp]
 433 009e 0227     		movs	r7, #2
 434 00a0 CDE90172 		strd	r7, r2, [sp, #4]
 435 00a4 6179     		ldrb	r1, [r4, #5]	@ zero_extendqisi2
 436 00a6 95F81C32 		ldrb	r3, [r5, #540]	@ zero_extendqisi2
 437 00aa A279     		ldrb	r2, [r4, #6]	@ zero_extendqisi2
 438 00ac 2846     		mov	r0, r5
 439 00ae FFF7FEFF 		bl	USBH_OpenPipe
 440 00b2 6289     		ldrh	r2, [r4, #10]
 441 00b4 95F81D32 		ldrb	r3, [r5, #541]	@ zero_extendqisi2
 442 00b8 0093     		str	r3, [sp]
 443 00ba CDE90172 		strd	r7, r2, [sp, #4]
 444 00be 2179     		ldrb	r1, [r4, #4]	@ zero_extendqisi2
 445 00c0 95F81C32 		ldrb	r3, [r5, #540]	@ zero_extendqisi2
 446 00c4 E279     		ldrb	r2, [r4, #7]	@ zero_extendqisi2
 447 00c6 2846     		mov	r0, r5
 448 00c8 FFF7FEFF 		bl	USBH_OpenPipe
 449 00cc 3246     		mov	r2, r6
 450 00ce 2179     		ldrb	r1, [r4, #4]	@ zero_extendqisi2
 451 00d0 2846     		mov	r0, r5
 452 00d2 FFF7FEFF 		bl	USBH_LL_SetToggle
 453 00d6 3246     		mov	r2, r6
 454 00d8 6179     		ldrb	r1, [r4, #5]	@ zero_extendqisi2
 455 00da 2846     		mov	r0, r5
 456 00dc FFF7FEFF 		bl	USBH_LL_SetToggle
 457 00e0 3046     		mov	r0, r6
 458 00e2 05B0     		add	sp, sp, #20
 459              		@ sp needed
 460 00e4 F0BD     		pop	{r4, r5, r6, r7, pc}
 461              	.L71:
 462 00e6 E171     		strb	r1, [r4, #7]
 463 00e8 6381     		strh	r3, [r4, #10]	@ movhi
 464 00ea A179     		ldrb	r1, [r4, #6]	@ zero_extendqisi2
 465 00ec BCE7     		b	.L68
ARM GAS  D:\Programs\cygwin64\tmp\cc05Abjn.s 			page 9


 466              	.L69:
 467 00ee 0220     		movs	r0, #2
 468 00f0 05B0     		add	sp, sp, #20
 469              		@ sp needed
 470 00f2 F0BD     		pop	{r4, r5, r6, r7, pc}
 472              		.section	.text.USBH_MSC_IsReady,"ax",%progbits
 473              		.align	1
 474              		.p2align 2,,3
 475              		.global	USBH_MSC_IsReady
 476              		.syntax unified
 477              		.thumb
 478              		.thumb_func
 479              		.fpu fpv4-sp-d16
 481              	USBH_MSC_IsReady:
 482              		@ args = 0, pretend = 0, frame = 0
 483              		@ frame_needed = 0, uses_anonymous_args = 0
 484              		@ link register save eliminated.
 485 0000 0378     		ldrb	r3, [r0]	@ zero_extendqisi2
 486 0002 0A2B     		cmp	r3, #10
 487 0004 01D0     		beq	.L75
 488 0006 0020     		movs	r0, #0
 489 0008 7047     		bx	lr
 490              	.L75:
 491 000a D0F87432 		ldr	r3, [r0, #628]
 492 000e DB69     		ldr	r3, [r3, #28]
 493 0010 187B     		ldrb	r0, [r3, #12]	@ zero_extendqisi2
 494 0012 A0F10100 		sub	r0, #1
 495 0016 B0FA80F0 		clz	r0, r0
 496 001a 4009     		lsrs	r0, r0, #5
 497 001c 7047     		bx	lr
 499 001e 00BF     		.section	.text.USBH_MSC_GetMaxLUN,"ax",%progbits
 500              		.align	1
 501              		.p2align 2,,3
 502              		.global	USBH_MSC_GetMaxLUN
 503              		.syntax unified
 504              		.thumb
 505              		.thumb_func
 506              		.fpu fpv4-sp-d16
 508              	USBH_MSC_GetMaxLUN:
 509              		@ args = 0, pretend = 0, frame = 0
 510              		@ frame_needed = 0, uses_anonymous_args = 0
 511              		@ link register save eliminated.
 512 0000 0278     		ldrb	r2, [r0]	@ zero_extendqisi2
 513 0002 D0F87432 		ldr	r3, [r0, #628]
 514 0006 0A2A     		cmp	r2, #10
 515 0008 DB69     		ldr	r3, [r3, #28]
 516 000a 05D1     		bne	.L79
 517 000c 1A7B     		ldrb	r2, [r3, #12]	@ zero_extendqisi2
 518 000e 012A     		cmp	r2, #1
 519 0010 02D1     		bne	.L79
 520 0012 93F90000 		ldrsb	r0, [r3]
 521 0016 7047     		bx	lr
 522              	.L79:
 523 0018 4FF0FF30 		mov	r0, #-1
 524 001c 7047     		bx	lr
 526 001e 00BF     		.section	.text.USBH_MSC_UnitIsReady,"ax",%progbits
 527              		.align	1
ARM GAS  D:\Programs\cygwin64\tmp\cc05Abjn.s 			page 10


 528              		.p2align 2,,3
 529              		.global	USBH_MSC_UnitIsReady
 530              		.syntax unified
 531              		.thumb
 532              		.thumb_func
 533              		.fpu fpv4-sp-d16
 535              	USBH_MSC_UnitIsReady:
 536              		@ args = 0, pretend = 0, frame = 0
 537              		@ frame_needed = 0, uses_anonymous_args = 0
 538              		@ link register save eliminated.
 539 0000 0378     		ldrb	r3, [r0]	@ zero_extendqisi2
 540 0002 0A2B     		cmp	r3, #10
 541 0004 01D0     		beq	.L83
 542 0006 0020     		movs	r0, #0
 543 0008 7047     		bx	lr
 544              	.L83:
 545 000a D0F87432 		ldr	r3, [r0, #628]
 546 000e DB69     		ldr	r3, [r3, #28]
 547 0010 3422     		movs	r2, #52
 548 0012 02FB0131 		mla	r1, r2, r1, r3
 549 0016 91F89100 		ldrb	r0, [r1, #145]	@ zero_extendqisi2
 550 001a B0FA80F0 		clz	r0, r0
 551 001e 4009     		lsrs	r0, r0, #5
 552 0020 7047     		bx	lr
 554 0022 00BF     		.section	.text.USBH_MSC_GetLUNInfo,"ax",%progbits
 555              		.align	1
 556              		.p2align 2,,3
 557              		.global	USBH_MSC_GetLUNInfo
 558              		.syntax unified
 559              		.thumb
 560              		.thumb_func
 561              		.fpu fpv4-sp-d16
 563              	USBH_MSC_GetLUNInfo:
 564              		@ args = 0, pretend = 0, frame = 0
 565              		@ frame_needed = 0, uses_anonymous_args = 0
 566              		@ link register save eliminated.
 567 0000 0378     		ldrb	r3, [r0]	@ zero_extendqisi2
 568 0002 0A2B     		cmp	r3, #10
 569 0004 01D0     		beq	.L93
 570 0006 0220     		movs	r0, #2
 571 0008 7047     		bx	lr
 572              	.L93:
 573 000a D0F87432 		ldr	r3, [r0, #628]
 574 000e 70B4     		push	{r4, r5, r6}
 575 0010 3420     		movs	r0, #52
 576 0012 DB69     		ldr	r3, [r3, #28]
 577 0014 9024     		movs	r4, #144
 578 0016 10FB0141 		smlabb	r1, r0, r1, r4
 579 001a 1944     		add	r1, r1, r3
 580 001c 01F13006 		add	r6, r1, #48
 581              	.L86:
 582 0020 0C68     		ldr	r4, [r1]	@ unaligned
 583 0022 4868     		ldr	r0, [r1, #4]	@ unaligned
 584 0024 8B68     		ldr	r3, [r1, #8]	@ unaligned
 585 0026 CD68     		ldr	r5, [r1, #12]	@ unaligned
 586 0028 D560     		str	r5, [r2, #12]	@ unaligned
 587 002a 1031     		adds	r1, r1, #16
ARM GAS  D:\Programs\cygwin64\tmp\cc05Abjn.s 			page 11


 588 002c B142     		cmp	r1, r6
 589 002e 1460     		str	r4, [r2]	@ unaligned
 590 0030 5060     		str	r0, [r2, #4]	@ unaligned
 591 0032 9360     		str	r3, [r2, #8]	@ unaligned
 592 0034 02F11002 		add	r2, r2, #16
 593 0038 F2D1     		bne	.L86
 594 003a 0B68     		ldr	r3, [r1]	@ unaligned
 595 003c 1360     		str	r3, [r2]	@ unaligned
 596 003e 0020     		movs	r0, #0
 597 0040 70BC     		pop	{r4, r5, r6}
 598 0042 7047     		bx	lr
 600              		.section	.text.USBH_MSC_Read,"ax",%progbits
 601              		.align	1
 602              		.p2align 2,,3
 603              		.global	USBH_MSC_Read
 604              		.syntax unified
 605              		.thumb
 606              		.thumb_func
 607              		.fpu fpv4-sp-d16
 609              	USBH_MSC_Read:
 610              		@ args = 4, pretend = 0, frame = 8
 611              		@ frame_needed = 0, uses_anonymous_args = 0
 612 0000 2DE9F04F 		push	{r4, r5, r6, r7, r8, r9, r10, fp, lr}
 613 0004 90F81E52 		ldrb	r5, [r0, #542]	@ zero_extendqisi2
 614 0008 85B0     		sub	sp, sp, #20
 615 000a 8DB1     		cbz	r5, .L113
 616 000c 0578     		ldrb	r5, [r0]	@ zero_extendqisi2
 617 000e 0A2D     		cmp	r5, #10
 618 0010 0ED1     		bne	.L113
 619 0012 D0F87472 		ldr	r7, [r0, #628]
 620 0016 3425     		movs	r5, #52
 621 0018 D7F81CB0 		ldr	fp, [r7, #28]
 622 001c 05FB01F7 		mul	r7, r5, r1
 623 0020 0BEB070C 		add	ip, fp, r7
 624 0024 0E46     		mov	r6, r1
 625 0026 9CF890E0 		ldrb	lr, [ip, #144]	@ zero_extendqisi2
 626 002a BEF1010F 		cmp	lr, #1
 627 002e 03D0     		beq	.L122
 628              	.L113:
 629 0030 0220     		movs	r0, #2
 630              	.L115:
 631 0032 05B0     		add	sp, sp, #20
 632              		@ sp needed
 633 0034 BDE8F08F 		pop	{r4, r5, r6, r7, r8, r9, r10, fp, pc}
 634              	.L122:
 635 0038 4FF0060E 		mov	lr, #6
 636 003c 0E9C     		ldr	r4, [sp, #56]
 637 003e 8BF80CE0 		strb	lr, [fp, #12]
 638 0042 8CF890E0 		strb	lr, [ip, #144]
 639 0046 ABF8FA10 		strh	r1, [fp, #250]	@ movhi
 640 004a 0094     		str	r4, [sp]
 641 004c 8046     		mov	r8, r0
 642 004e FFF7FEFF 		bl	USBH_MSC_SCSI_Read
 643 0052 9C23     		movs	r3, #156
 644 0054 15FB0633 		smlabb	r3, r5, r6, r3
 645 0058 0393     		str	r3, [sp, #12]
 646 005a 0E9B     		ldr	r3, [sp, #56]
ARM GAS  D:\Programs\cygwin64\tmp\cc05Abjn.s 			page 12


 647 005c D8F8B8A2 		ldr	r10, [r8, #696]
 648 0060 42F21079 		movw	r9, #10000
 649 0064 09FB03F9 		mul	r9, r9, r3
 650 0068 4446     		mov	r4, r8
 651 006a 0BE0     		b	.L96
 652              	.L124:
 653 006c 052B     		cmp	r3, #5
 654 006e 36D0     		beq	.L123
 655              	.L101:
 656 0070 D4F8B832 		ldr	r3, [r4, #696]
 657 0074 A3EB0A03 		sub	r3, r3, r10
 658 0078 4B45     		cmp	r3, r9
 659 007a 42D8     		bhi	.L97
 660 007c 94F81E32 		ldrb	r3, [r4, #542]	@ zero_extendqisi2
 661 0080 002B     		cmp	r3, #0
 662 0082 3ED0     		beq	.L97
 663              	.L96:
 664 0084 D4F87432 		ldr	r3, [r4, #628]
 665 0088 DA69     		ldr	r2, [r3, #28]
 666 008a D519     		adds	r5, r2, r7
 667 008c 05F19008 		add	r8, r5, #144
 668 0090 95F89030 		ldrb	r3, [r5, #144]	@ zero_extendqisi2
 669 0094 062B     		cmp	r3, #6
 670 0096 11D0     		beq	.L98
 671 0098 072B     		cmp	r3, #7
 672 009a E7D1     		bne	.L124
 673 009c 0023     		movs	r3, #0
 674 009e 1A46     		mov	r2, r3
 675 00a0 0093     		str	r3, [sp]
 676 00a2 3146     		mov	r1, r6
 677 00a4 2046     		mov	r0, r4
 678 00a6 FFF7FEFF 		bl	USBH_MSC_SCSI_Write
 679 00aa 80B9     		cbnz	r0, .L106
 680              	.L118:
 681 00ac 0123     		movs	r3, #1
 682 00ae 88F80030 		strb	r3, [r8]
 683              	.L103:
 684 00b2 0123     		movs	r3, #1
 685 00b4 8BF80C30 		strb	r3, [fp, #12]
 686 00b8 0020     		movs	r0, #0
 687 00ba BAE7     		b	.L115
 688              	.L98:
 689 00bc 0023     		movs	r3, #0
 690 00be 1A46     		mov	r2, r3
 691 00c0 0093     		str	r3, [sp]
 692 00c2 3146     		mov	r1, r6
 693 00c4 2046     		mov	r0, r4
 694 00c6 FFF7FEFF 		bl	USBH_MSC_SCSI_Read
 695 00ca 0028     		cmp	r0, #0
 696 00cc EED0     		beq	.L118
 697              	.L106:
 698 00ce 0228     		cmp	r0, #2
 699 00d0 12D0     		beq	.L125
 700              	.L109:
 701 00d2 0428     		cmp	r0, #4
 702 00d4 CCD1     		bne	.L101
 703 00d6 0823     		movs	r3, #8
ARM GAS  D:\Programs\cygwin64\tmp\cc05Abjn.s 			page 13


 704 00d8 88F80030 		strb	r3, [r8]
 705 00dc E9E7     		b	.L103
 706              	.L123:
 707 00de 039B     		ldr	r3, [sp, #12]
 708 00e0 3146     		mov	r1, r6
 709 00e2 1A44     		add	r2, r2, r3
 710 00e4 2046     		mov	r0, r4
 711 00e6 FFF7FEFF 		bl	USBH_MSC_SCSI_RequestSense
 712 00ea 0028     		cmp	r0, #0
 713 00ec F1D1     		bne	.L109
 714 00ee 40F20123 		movw	r3, #513
 715 00f2 A8F80030 		strh	r3, [r8]	@ movhi
 716 00f6 DCE7     		b	.L103
 717              	.L125:
 718 00f8 4FF00503 		mov	r3, #5
 719 00fc 85F89030 		strb	r3, [r5, #144]
 720 0100 B6E7     		b	.L101
 721              	.L97:
 722 0102 0123     		movs	r3, #1
 723 0104 0220     		movs	r0, #2
 724 0106 8BF80C30 		strb	r3, [fp, #12]
 725 010a 05B0     		add	sp, sp, #20
 726              		@ sp needed
 727 010c BDE8F08F 		pop	{r4, r5, r6, r7, r8, r9, r10, fp, pc}
 729              		.section	.text.USBH_MSC_Write,"ax",%progbits
 730              		.align	1
 731              		.p2align 2,,3
 732              		.global	USBH_MSC_Write
 733              		.syntax unified
 734              		.thumb
 735              		.thumb_func
 736              		.fpu fpv4-sp-d16
 738              	USBH_MSC_Write:
 739              		@ args = 4, pretend = 0, frame = 8
 740              		@ frame_needed = 0, uses_anonymous_args = 0
 741 0000 2DE9F04F 		push	{r4, r5, r6, r7, r8, r9, r10, fp, lr}
 742 0004 90F81E52 		ldrb	r5, [r0, #542]	@ zero_extendqisi2
 743 0008 85B0     		sub	sp, sp, #20
 744 000a 8DB1     		cbz	r5, .L145
 745 000c 0578     		ldrb	r5, [r0]	@ zero_extendqisi2
 746 000e 0A2D     		cmp	r5, #10
 747 0010 0ED1     		bne	.L145
 748 0012 D0F87472 		ldr	r7, [r0, #628]
 749 0016 3425     		movs	r5, #52
 750 0018 D7F81CB0 		ldr	fp, [r7, #28]
 751 001c 05FB01F7 		mul	r7, r5, r1
 752 0020 0BEB070C 		add	ip, fp, r7
 753 0024 0E46     		mov	r6, r1
 754 0026 9CF890E0 		ldrb	lr, [ip, #144]	@ zero_extendqisi2
 755 002a BEF1010F 		cmp	lr, #1
 756 002e 03D0     		beq	.L154
 757              	.L145:
 758 0030 0220     		movs	r0, #2
 759              	.L147:
 760 0032 05B0     		add	sp, sp, #20
 761              		@ sp needed
 762 0034 BDE8F08F 		pop	{r4, r5, r6, r7, r8, r9, r10, fp, pc}
ARM GAS  D:\Programs\cygwin64\tmp\cc05Abjn.s 			page 14


 763              	.L154:
 764 0038 4FF0070E 		mov	lr, #7
 765 003c 0E9C     		ldr	r4, [sp, #56]
 766 003e 8BF80CE0 		strb	lr, [fp, #12]
 767 0042 8CF890E0 		strb	lr, [ip, #144]
 768 0046 ABF8FA10 		strh	r1, [fp, #250]	@ movhi
 769 004a 0094     		str	r4, [sp]
 770 004c 8046     		mov	r8, r0
 771 004e FFF7FEFF 		bl	USBH_MSC_SCSI_Write
 772 0052 9C23     		movs	r3, #156
 773 0054 15FB0633 		smlabb	r3, r5, r6, r3
 774 0058 0393     		str	r3, [sp, #12]
 775 005a 0E9B     		ldr	r3, [sp, #56]
 776 005c D8F8B8A2 		ldr	r10, [r8, #696]
 777 0060 42F21079 		movw	r9, #10000
 778 0064 09FB03F9 		mul	r9, r9, r3
 779 0068 4446     		mov	r4, r8
 780 006a 0BE0     		b	.L128
 781              	.L156:
 782 006c 052B     		cmp	r3, #5
 783 006e 36D0     		beq	.L155
 784              	.L133:
 785 0070 D4F8B832 		ldr	r3, [r4, #696]
 786 0074 A3EB0A03 		sub	r3, r3, r10
 787 0078 4B45     		cmp	r3, r9
 788 007a 42D8     		bhi	.L129
 789 007c 94F81E32 		ldrb	r3, [r4, #542]	@ zero_extendqisi2
 790 0080 002B     		cmp	r3, #0
 791 0082 3ED0     		beq	.L129
 792              	.L128:
 793 0084 D4F87432 		ldr	r3, [r4, #628]
 794 0088 DA69     		ldr	r2, [r3, #28]
 795 008a D519     		adds	r5, r2, r7
 796 008c 05F19008 		add	r8, r5, #144
 797 0090 95F89030 		ldrb	r3, [r5, #144]	@ zero_extendqisi2
 798 0094 062B     		cmp	r3, #6
 799 0096 11D0     		beq	.L130
 800 0098 072B     		cmp	r3, #7
 801 009a E7D1     		bne	.L156
 802 009c 0023     		movs	r3, #0
 803 009e 1A46     		mov	r2, r3
 804 00a0 0093     		str	r3, [sp]
 805 00a2 3146     		mov	r1, r6
 806 00a4 2046     		mov	r0, r4
 807 00a6 FFF7FEFF 		bl	USBH_MSC_SCSI_Write
 808 00aa 80B9     		cbnz	r0, .L138
 809              	.L150:
 810 00ac 0123     		movs	r3, #1
 811 00ae 88F80030 		strb	r3, [r8]
 812              	.L135:
 813 00b2 0123     		movs	r3, #1
 814 00b4 8BF80C30 		strb	r3, [fp, #12]
 815 00b8 0020     		movs	r0, #0
 816 00ba BAE7     		b	.L147
 817              	.L130:
 818 00bc 0023     		movs	r3, #0
 819 00be 1A46     		mov	r2, r3
ARM GAS  D:\Programs\cygwin64\tmp\cc05Abjn.s 			page 15


 820 00c0 0093     		str	r3, [sp]
 821 00c2 3146     		mov	r1, r6
 822 00c4 2046     		mov	r0, r4
 823 00c6 FFF7FEFF 		bl	USBH_MSC_SCSI_Read
 824 00ca 0028     		cmp	r0, #0
 825 00cc EED0     		beq	.L150
 826              	.L138:
 827 00ce 0228     		cmp	r0, #2
 828 00d0 12D0     		beq	.L157
 829              	.L141:
 830 00d2 0428     		cmp	r0, #4
 831 00d4 CCD1     		bne	.L133
 832 00d6 0823     		movs	r3, #8
 833 00d8 88F80030 		strb	r3, [r8]
 834 00dc E9E7     		b	.L135
 835              	.L155:
 836 00de 039B     		ldr	r3, [sp, #12]
 837 00e0 3146     		mov	r1, r6
 838 00e2 1A44     		add	r2, r2, r3
 839 00e4 2046     		mov	r0, r4
 840 00e6 FFF7FEFF 		bl	USBH_MSC_SCSI_RequestSense
 841 00ea 0028     		cmp	r0, #0
 842 00ec F1D1     		bne	.L141
 843 00ee 40F20123 		movw	r3, #513
 844 00f2 A8F80030 		strh	r3, [r8]	@ movhi
 845 00f6 DCE7     		b	.L135
 846              	.L157:
 847 00f8 4FF00503 		mov	r3, #5
 848 00fc 85F89030 		strb	r3, [r5, #144]
 849 0100 B6E7     		b	.L133
 850              	.L129:
 851 0102 0123     		movs	r3, #1
 852 0104 0220     		movs	r0, #2
 853 0106 8BF80C30 		strb	r3, [fp, #12]
 854 010a 05B0     		add	sp, sp, #20
 855              		@ sp needed
 856 010c BDE8F08F 		pop	{r4, r5, r6, r7, r8, r9, r10, fp, pc}
 858              		.global	USBH_msc
 859              		.section	.data.USBH_msc,"aw"
 860              		.align	2
 863              	USBH_msc:
 864 0000 00000000 		.word	.LC0
 865 0004 08       		.byte	8
 866 0005 000000   		.space	3
 867 0008 00000000 		.word	USBH_MSC_InterfaceInit
 868 000c 00000000 		.word	USBH_MSC_InterfaceDeInit
 869 0010 00000000 		.word	USBH_MSC_ClassRequest
 870 0014 00000000 		.word	USBH_MSC_Process
 871 0018 00000000 		.word	USBH_MSC_SOFProcess
 872 001c 00000000 		.word	0
 873              		.section	.rodata.str1.4,"aMS",%progbits,1
 874              		.align	2
 875              	.LC0:
 876 0000 4D534300 		.ascii	"MSC\000"
 877              		.ident	"GCC: (GNU Tools for Arm Embedded Processors 8-2018-q4-major) 8.2.1 20181213 (release) [gcc
ARM GAS  D:\Programs\cygwin64\tmp\cc05Abjn.s 			page 16

