ARM GAS  D:\Programs\cygwin64\tmp\ccFt68h7.s 			page 1


   1              		.cpu cortex-m4
   2              		.eabi_attribute 27, 1
   3              		.eabi_attribute 28, 1
   4              		.eabi_attribute 20, 1
   5              		.eabi_attribute 21, 1
   6              		.eabi_attribute 23, 3
   7              		.eabi_attribute 24, 1
   8              		.eabi_attribute 25, 1
   9              		.eabi_attribute 26, 1
  10              		.eabi_attribute 30, 2
  11              		.eabi_attribute 34, 1
  12              		.eabi_attribute 18, 4
  13              		.file	"usbh_pipes.c"
  14              		.text
  15              		.section	.text.USBH_OpenPipe,"ax",%progbits
  16              		.align	1
  17              		.p2align 2,,3
  18              		.global	USBH_OpenPipe
  19              		.arch armv7e-m
  20              		.syntax unified
  21              		.thumb
  22              		.thumb_func
  23              		.fpu fpv4-sp-d16
  25              	USBH_OpenPipe:
  26              		@ args = 12, pretend = 0, frame = 0
  27              		@ frame_needed = 0, uses_anonymous_args = 0
  28 0000 30B5     		push	{r4, r5, lr}
  29 0002 85B0     		sub	sp, sp, #20
  30 0004 9DF82040 		ldrb	r4, [sp, #32]	@ zero_extendqisi2
  31 0008 9DF82450 		ldrb	r5, [sp, #36]	@ zero_extendqisi2
  32 000c 0094     		str	r4, [sp]
  33 000e BDF82840 		ldrh	r4, [sp, #40]
  34 0012 CDE90154 		strd	r5, r4, [sp, #4]
  35 0016 FFF7FEFF 		bl	USBH_LL_OpenPipe
  36 001a 0020     		movs	r0, #0
  37 001c 05B0     		add	sp, sp, #20
  38              		@ sp needed
  39 001e 30BD     		pop	{r4, r5, pc}
  41              		.section	.text.USBH_ClosePipe,"ax",%progbits
  42              		.align	1
  43              		.p2align 2,,3
  44              		.global	USBH_ClosePipe
  45              		.syntax unified
  46              		.thumb
  47              		.thumb_func
  48              		.fpu fpv4-sp-d16
  50              	USBH_ClosePipe:
  51              		@ args = 0, pretend = 0, frame = 0
  52              		@ frame_needed = 0, uses_anonymous_args = 0
  53 0000 08B5     		push	{r3, lr}
  54 0002 FFF7FEFF 		bl	USBH_LL_ClosePipe
  55 0006 0020     		movs	r0, #0
  56 0008 08BD     		pop	{r3, pc}
  58 000a 00BF     		.section	.text.USBH_AllocPipe,"ax",%progbits
  59              		.align	1
  60              		.p2align 2,,3
  61              		.global	USBH_AllocPipe
ARM GAS  D:\Programs\cygwin64\tmp\ccFt68h7.s 			page 2


  62              		.syntax unified
  63              		.thumb
  64              		.thumb_func
  65              		.fpu fpv4-sp-d16
  67              	USBH_AllocPipe:
  68              		@ args = 0, pretend = 0, frame = 0
  69              		@ frame_needed = 0, uses_anonymous_args = 0
  70              		@ link register save eliminated.
  71 0000 0346     		mov	r3, r0
  72 0002 D0F87C02 		ldr	r0, [r0, #636]
  73 0006 10F40040 		ands	r0, r0, #32768
  74 000a 2AD0     		beq	.L20
  75 000c D3F88022 		ldr	r2, [r3, #640]
  76 0010 1004     		lsls	r0, r2, #16
  77 0012 2ED5     		bpl	.L10
  78 0014 D3F88422 		ldr	r2, [r3, #644]
  79 0018 1204     		lsls	r2, r2, #16
  80 001a 2DD5     		bpl	.L11
  81 001c D3F88822 		ldr	r2, [r3, #648]
  82 0020 1004     		lsls	r0, r2, #16
  83 0022 2CD5     		bpl	.L12
  84 0024 D3F88C22 		ldr	r2, [r3, #652]
  85 0028 1204     		lsls	r2, r2, #16
  86 002a 2BD5     		bpl	.L13
  87 002c D3F89022 		ldr	r2, [r3, #656]
  88 0030 1004     		lsls	r0, r2, #16
  89 0032 2AD5     		bpl	.L14
  90 0034 D3F89422 		ldr	r2, [r3, #660]
  91 0038 1204     		lsls	r2, r2, #16
  92 003a 29D5     		bpl	.L15
  93 003c D3F89822 		ldr	r2, [r3, #664]
  94 0040 1004     		lsls	r0, r2, #16
  95 0042 28D5     		bpl	.L16
  96 0044 D3F89C22 		ldr	r2, [r3, #668]
  97 0048 1204     		lsls	r2, r2, #16
  98 004a 27D5     		bpl	.L17
  99 004c D3F8A022 		ldr	r2, [r3, #672]
 100 0050 1004     		lsls	r0, r2, #16
 101 0052 05D5     		bpl	.L18
 102 0054 D3F8A422 		ldr	r2, [r3, #676]
 103 0058 1204     		lsls	r2, r2, #16
 104 005a 22D5     		bpl	.L21
 105 005c FF20     		movs	r0, #255
 106 005e 7047     		bx	lr
 107              	.L18:
 108 0060 0920     		movs	r0, #9
 109              	.L20:
 110 0062 0246     		mov	r2, r0
 111              	.L7:
 112 0064 03EB8203 		add	r3, r3, r2, lsl #2
 113 0068 41F40041 		orr	r1, r1, #32768
 114 006c C3F87C12 		str	r1, [r3, #636]
 115 0070 7047     		bx	lr
 116              	.L10:
 117 0072 0120     		movs	r0, #1
 118 0074 0246     		mov	r2, r0
 119 0076 F5E7     		b	.L7
ARM GAS  D:\Programs\cygwin64\tmp\ccFt68h7.s 			page 3


 120              	.L11:
 121 0078 0220     		movs	r0, #2
 122 007a 0246     		mov	r2, r0
 123 007c F2E7     		b	.L7
 124              	.L12:
 125 007e 0320     		movs	r0, #3
 126 0080 0246     		mov	r2, r0
 127 0082 EFE7     		b	.L7
 128              	.L13:
 129 0084 0420     		movs	r0, #4
 130 0086 0246     		mov	r2, r0
 131 0088 ECE7     		b	.L7
 132              	.L14:
 133 008a 0520     		movs	r0, #5
 134 008c 0246     		mov	r2, r0
 135 008e E9E7     		b	.L7
 136              	.L15:
 137 0090 0620     		movs	r0, #6
 138 0092 0246     		mov	r2, r0
 139 0094 E6E7     		b	.L7
 140              	.L16:
 141 0096 0720     		movs	r0, #7
 142 0098 0246     		mov	r2, r0
 143 009a E3E7     		b	.L7
 144              	.L17:
 145 009c 0820     		movs	r0, #8
 146 009e 0246     		mov	r2, r0
 147 00a0 E0E7     		b	.L7
 148              	.L21:
 149 00a2 0A20     		movs	r0, #10
 150 00a4 0246     		mov	r2, r0
 151 00a6 DDE7     		b	.L7
 153              		.section	.text.USBH_FreePipe,"ax",%progbits
 154              		.align	1
 155              		.p2align 2,,3
 156              		.global	USBH_FreePipe
 157              		.syntax unified
 158              		.thumb
 159              		.thumb_func
 160              		.fpu fpv4-sp-d16
 162              	USBH_FreePipe:
 163              		@ args = 0, pretend = 0, frame = 0
 164              		@ frame_needed = 0, uses_anonymous_args = 0
 165              		@ link register save eliminated.
 166 0000 0A29     		cmp	r1, #10
 167 0002 07D8     		bhi	.L23
 168 0004 00EB8100 		add	r0, r0, r1, lsl #2
 169 0008 D0F87C32 		ldr	r3, [r0, #636]
 170 000c C3F30E03 		ubfx	r3, r3, #0, #15
 171 0010 C0F87C32 		str	r3, [r0, #636]
 172              	.L23:
 173 0014 0020     		movs	r0, #0
 174 0016 7047     		bx	lr
 176              		.ident	"GCC: (GNU Tools for Arm Embedded Processors 8-2018-q4-major) 8.2.1 20181213 (release) [gcc
ARM GAS  D:\Programs\cygwin64\tmp\ccFt68h7.s 			page 4

